
Drivers.axf:     file format elf32-littlearm


Disassembly of section .isr_vector:

08000000 <g_pfnVectors>:
 8000000:	20002800 	andcs	r2, r0, r0, lsl #16
 8000004:	080003dd 	stmdaeq	r0, {r0, r2, r3, r4, r6, r7, r8, r9}
 8000008:	0800042d 	stmdaeq	r0, {r0, r2, r3, r5, sl}
 800000c:	08000171 	stmdaeq	r0, {r0, r4, r5, r6, r8}
 8000010:	0800042d 	stmdaeq	r0, {r0, r2, r3, r5, sl}
 8000014:	0800017d 	stmdaeq	r0, {r0, r2, r3, r4, r5, r6, r8}
 8000018:	08000189 	stmdaeq	r0, {r0, r3, r7, r8}
	...
 800002c:	08000195 	stmdaeq	r0, {r0, r2, r4, r7, r8}
 8000030:	0800042d 	stmdaeq	r0, {r0, r2, r3, r5, sl}
 8000034:	00000000 	andeq	r0, r0, r0
 8000038:	0800042d 	stmdaeq	r0, {r0, r2, r3, r5, sl}
 800003c:	0800042d 	stmdaeq	r0, {r0, r2, r3, r5, sl}
 8000040:	0800042d 	stmdaeq	r0, {r0, r2, r3, r5, sl}
 8000044:	0800042d 	stmdaeq	r0, {r0, r2, r3, r5, sl}
 8000048:	0800042d 	stmdaeq	r0, {r0, r2, r3, r5, sl}
 800004c:	0800042d 	stmdaeq	r0, {r0, r2, r3, r5, sl}
 8000050:	0800042d 	stmdaeq	r0, {r0, r2, r3, r5, sl}
 8000054:	0800042d 	stmdaeq	r0, {r0, r2, r3, r5, sl}
 8000058:	0800097d 	stmdaeq	r0, {r0, r2, r3, r4, r5, r6, r8, fp}
 800005c:	080009a1 	stmdaeq	r0, {r0, r5, r7, r8, fp}
 8000060:	080009c5 	stmdaeq	r0, {r0, r2, r6, r7, r8, fp}
 8000064:	080009e9 	stmdaeq	r0, {r0, r3, r5, r6, r7, r8, fp}
 8000068:	08000a0d 	stmdaeq	r0, {r0, r2, r3, r9, fp}
 800006c:	0800042d 	stmdaeq	r0, {r0, r2, r3, r5, sl}
 8000070:	0800042d 	stmdaeq	r0, {r0, r2, r3, r5, sl}
 8000074:	0800042d 	stmdaeq	r0, {r0, r2, r3, r5, sl}
 8000078:	0800042d 	stmdaeq	r0, {r0, r2, r3, r5, sl}
 800007c:	0800042d 	stmdaeq	r0, {r0, r2, r3, r5, sl}
 8000080:	0800042d 	stmdaeq	r0, {r0, r2, r3, r5, sl}
 8000084:	0800042d 	stmdaeq	r0, {r0, r2, r3, r5, sl}
 8000088:	0800042d 	stmdaeq	r0, {r0, r2, r3, r5, sl}
 800008c:	0800042d 	stmdaeq	r0, {r0, r2, r3, r5, sl}
 8000090:	0800042d 	stmdaeq	r0, {r0, r2, r3, r5, sl}
 8000094:	0800042d 	stmdaeq	r0, {r0, r2, r3, r5, sl}
 8000098:	0800042d 	stmdaeq	r0, {r0, r2, r3, r5, sl}
 800009c:	08000a31 	stmdaeq	r0, {r0, r4, r5, r9, fp}
 80000a0:	0800042d 	stmdaeq	r0, {r0, r2, r3, r5, sl}
 80000a4:	0800042d 	stmdaeq	r0, {r0, r2, r3, r5, sl}
 80000a8:	0800042d 	stmdaeq	r0, {r0, r2, r3, r5, sl}
 80000ac:	0800042d 	stmdaeq	r0, {r0, r2, r3, r5, sl}
 80000b0:	0800042d 	stmdaeq	r0, {r0, r2, r3, r5, sl}
 80000b4:	0800042d 	stmdaeq	r0, {r0, r2, r3, r5, sl}
 80000b8:	0800042d 	stmdaeq	r0, {r0, r2, r3, r5, sl}
 80000bc:	0800042d 	stmdaeq	r0, {r0, r2, r3, r5, sl}
 80000c0:	0800042d 	stmdaeq	r0, {r0, r2, r3, r5, sl}
 80000c4:	0800042d 	stmdaeq	r0, {r0, r2, r3, r5, sl}
 80000c8:	0800042d 	stmdaeq	r0, {r0, r2, r3, r5, sl}
 80000cc:	0800042d 	stmdaeq	r0, {r0, r2, r3, r5, sl}
 80000d0:	0800042d 	stmdaeq	r0, {r0, r2, r3, r5, sl}
 80000d4:	0800042d 	stmdaeq	r0, {r0, r2, r3, r5, sl}
 80000d8:	0800042d 	stmdaeq	r0, {r0, r2, r3, r5, sl}
 80000dc:	0800042d 	stmdaeq	r0, {r0, r2, r3, r5, sl}
 80000e0:	08000ad9 	stmdaeq	r0, {r0, r3, r4, r6, r7, r9, fp}
 80000e4:	0800042d 	stmdaeq	r0, {r0, r2, r3, r5, sl}
 80000e8:	00000000 	andeq	r0, r0, r0
 80000ec:	0800042d 	stmdaeq	r0, {r0, r2, r3, r5, sl}
 80000f0:	0800042d 	stmdaeq	r0, {r0, r2, r3, r5, sl}
 80000f4:	0800042d 	stmdaeq	r0, {r0, r2, r3, r5, sl}
 80000f8:	0800042d 	stmdaeq	r0, {r0, r2, r3, r5, sl}
 80000fc:	0800042d 	stmdaeq	r0, {r0, r2, r3, r5, sl}
 8000100:	0800042d 	stmdaeq	r0, {r0, r2, r3, r5, sl}
 8000104:	0800042d 	stmdaeq	r0, {r0, r2, r3, r5, sl}
 8000108:	0800042d 	stmdaeq	r0, {r0, r2, r3, r5, sl}
 800010c:	0800042d 	stmdaeq	r0, {r0, r2, r3, r5, sl}
 8000110:	0800042d 	stmdaeq	r0, {r0, r2, r3, r5, sl}
 8000114:	0800042d 	stmdaeq	r0, {r0, r2, r3, r5, sl}
 8000118:	0800042d 	stmdaeq	r0, {r0, r2, r3, r5, sl}
 800011c:	0800042d 	stmdaeq	r0, {r0, r2, r3, r5, sl}
 8000120:	0800042d 	stmdaeq	r0, {r0, r2, r3, r5, sl}
 8000124:	0800042d 	stmdaeq	r0, {r0, r2, r3, r5, sl}
 8000128:	0800042d 	stmdaeq	r0, {r0, r2, r3, r5, sl}
 800012c:	0800042d 	stmdaeq	r0, {r0, r2, r3, r5, sl}

Disassembly of section .text:

08000130 <__do_global_dtors_aux>:
 8000130:	b510      	push	{r4, lr}
 8000132:	4c05      	ldr	r4, [pc, #20]	; (8000148 <__do_global_dtors_aux+0x18>)
 8000134:	7823      	ldrb	r3, [r4, #0]
 8000136:	b933      	cbnz	r3, 8000146 <__do_global_dtors_aux+0x16>
 8000138:	4b04      	ldr	r3, [pc, #16]	; (800014c <__do_global_dtors_aux+0x1c>)
 800013a:	b113      	cbz	r3, 8000142 <__do_global_dtors_aux+0x12>
 800013c:	4804      	ldr	r0, [pc, #16]	; (8000150 <__do_global_dtors_aux+0x20>)
 800013e:	f3af 8000 	nop.w
 8000142:	2301      	movs	r3, #1
 8000144:	7023      	strb	r3, [r4, #0]
 8000146:	bd10      	pop	{r4, pc}
 8000148:	20000004 	andcs	r0, r0, r4
 800014c:	00000000 	andeq	r0, r0, r0
 8000150:	08000be4 	stmdaeq	r0, {r2, r5, r6, r7, r8, r9, fp}

08000154 <frame_dummy>:
 8000154:	b508      	push	{r3, lr}
 8000156:	4b03      	ldr	r3, [pc, #12]	; (8000164 <frame_dummy+0x10>)
 8000158:	b11b      	cbz	r3, 8000162 <frame_dummy+0xe>
 800015a:	4903      	ldr	r1, [pc, #12]	; (8000168 <frame_dummy+0x14>)
 800015c:	4803      	ldr	r0, [pc, #12]	; (800016c <frame_dummy+0x18>)
 800015e:	f3af 8000 	nop.w
 8000162:	bd08      	pop	{r3, pc}
 8000164:	00000000 	andeq	r0, r0, r0
 8000168:	20000008 	andcs	r0, r0, r8
 800016c:	08000be4 	stmdaeq	r0, {r2, r5, r6, r7, r8, r9, fp}

08000170 <HardFault_Handler>:
 8000170:	b480      	push	{r7}
 8000172:	af00      	add	r7, sp, #0
 8000174:	bf00      	nop
 8000176:	46bd      	mov	sp, r7
 8000178:	bc80      	pop	{r7}
 800017a:	4770      	bx	lr

0800017c <BusFault_Handler>:
 800017c:	b480      	push	{r7}
 800017e:	af00      	add	r7, sp, #0
 8000180:	bf00      	nop
 8000182:	46bd      	mov	sp, r7
 8000184:	bc80      	pop	{r7}
 8000186:	4770      	bx	lr

08000188 <UsageFault_Handler>:
 8000188:	b480      	push	{r7}
 800018a:	af00      	add	r7, sp, #0
 800018c:	bf00      	nop
 800018e:	46bd      	mov	sp, r7
 8000190:	bc80      	pop	{r7}
 8000192:	4770      	bx	lr

08000194 <SVC_Handler>:
 8000194:	b580      	push	{r7, lr}
 8000196:	af00      	add	r7, sp, #0
 8000198:	2000      	movs	r0, #0
 800019a:	f000 f802 	bl	80001a2 <SWITCH_CPU_AccessLevel>
 800019e:	bf00      	nop
 80001a0:	bd80      	pop	{r7, pc}

080001a2 <SWITCH_CPU_AccessLevel>:
 80001a2:	b480      	push	{r7}
 80001a4:	b083      	sub	sp, #12
 80001a6:	af00      	add	r7, sp, #0
 80001a8:	4603      	mov	r3, r0
 80001aa:	71fb      	strb	r3, [r7, #7]
 80001ac:	79fb      	ldrb	r3, [r7, #7]
 80001ae:	2b00      	cmp	r3, #0
 80001b0:	d002      	beq.n	80001b8 <SWITCH_CPU_AccessLevel+0x16>
 80001b2:	2b01      	cmp	r3, #1
 80001b4:	d009      	beq.n	80001ca <SWITCH_CPU_AccessLevel+0x28>
 80001b6:	e00f      	b.n	80001d8 <SWITCH_CPU_AccessLevel+0x36>
 80001b8:	f3ef 8314 	mrs	r3, CONTROL
 80001bc:	ea4f 0353 	mov.w	r3, r3, lsr #1
 80001c0:	ea4f 0343 	mov.w	r3, r3, lsl #1
 80001c4:	f383 8814 	msr	CONTROL, r3
 80001c8:	e006      	b.n	80001d8 <SWITCH_CPU_AccessLevel+0x36>
 80001ca:	f3ef 8314 	mrs	r3, CONTROL
 80001ce:	f043 0301 	orr.w	r3, r3, #1
 80001d2:	f383 8814 	msr	CONTROL, r3
 80001d6:	bf00      	nop
 80001d8:	bf00      	nop
 80001da:	370c      	adds	r7, #12
 80001dc:	46bd      	mov	sp, r7
 80001de:	bc80      	pop	{r7}
 80001e0:	4770      	bx	lr
	...

080001e4 <EXTI9_Callback>:
 80001e4:	b480      	push	{r7}
 80001e6:	af00      	add	r7, sp, #0
 80001e8:	4b0c      	ldr	r3, [pc, #48]	; (800021c <EXTI9_Callback+0x38>)
 80001ea:	681b      	ldr	r3, [r3, #0]
 80001ec:	2b00      	cmp	r3, #0
 80001ee:	d106      	bne.n	80001fe <EXTI9_Callback+0x1a>
 80001f0:	4b0b      	ldr	r3, [pc, #44]	; (8000220 <EXTI9_Callback+0x3c>)
 80001f2:	2201      	movs	r2, #1
 80001f4:	601a      	str	r2, [r3, #0]
 80001f6:	4b09      	ldr	r3, [pc, #36]	; (800021c <EXTI9_Callback+0x38>)
 80001f8:	2201      	movs	r2, #1
 80001fa:	601a      	str	r2, [r3, #0]
 80001fc:	e009      	b.n	8000212 <EXTI9_Callback+0x2e>
 80001fe:	4b07      	ldr	r3, [pc, #28]	; (800021c <EXTI9_Callback+0x38>)
 8000200:	681b      	ldr	r3, [r3, #0]
 8000202:	2b01      	cmp	r3, #1
 8000204:	d105      	bne.n	8000212 <EXTI9_Callback+0x2e>
 8000206:	4b07      	ldr	r3, [pc, #28]	; (8000224 <EXTI9_Callback+0x40>)
 8000208:	2201      	movs	r2, #1
 800020a:	601a      	str	r2, [r3, #0]
 800020c:	4b03      	ldr	r3, [pc, #12]	; (800021c <EXTI9_Callback+0x38>)
 800020e:	2200      	movs	r2, #0
 8000210:	601a      	str	r2, [r3, #0]
 8000212:	bf00      	nop
 8000214:	46bd      	mov	sp, r7
 8000216:	bc80      	pop	{r7}
 8000218:	4770      	bx	lr
 800021a:	bf00      	nop
 800021c:	20000028 	andcs	r0, r0, r8, lsr #32
 8000220:	20000030 	andcs	r0, r0, r0, lsr r0
 8000224:	20000020 	andcs	r0, r0, r0, lsr #32

08000228 <TaskA>:
 8000228:	b480      	push	{r7}
 800022a:	b085      	sub	sp, #20
 800022c:	af00      	add	r7, sp, #0
 800022e:	60f8      	str	r0, [r7, #12]
 8000230:	60b9      	str	r1, [r7, #8]
 8000232:	607a      	str	r2, [r7, #4]
 8000234:	68fa      	ldr	r2, [r7, #12]
 8000236:	68bb      	ldr	r3, [r7, #8]
 8000238:	441a      	add	r2, r3
 800023a:	687b      	ldr	r3, [r7, #4]
 800023c:	4413      	add	r3, r2
 800023e:	4618      	mov	r0, r3
 8000240:	3714      	adds	r7, #20
 8000242:	46bd      	mov	sp, r7
 8000244:	bc80      	pop	{r7}
 8000246:	4770      	bx	lr

08000248 <TaskB>:
 8000248:	b480      	push	{r7}
 800024a:	b085      	sub	sp, #20
 800024c:	af00      	add	r7, sp, #0
 800024e:	60f8      	str	r0, [r7, #12]
 8000250:	60b9      	str	r1, [r7, #8]
 8000252:	607a      	str	r2, [r7, #4]
 8000254:	603b      	str	r3, [r7, #0]
 8000256:	68fa      	ldr	r2, [r7, #12]
 8000258:	68bb      	ldr	r3, [r7, #8]
 800025a:	441a      	add	r2, r3
 800025c:	687b      	ldr	r3, [r7, #4]
 800025e:	441a      	add	r2, r3
 8000260:	683b      	ldr	r3, [r7, #0]
 8000262:	4413      	add	r3, r2
 8000264:	4618      	mov	r0, r3
 8000266:	3714      	adds	r7, #20
 8000268:	46bd      	mov	sp, r7
 800026a:	bc80      	pop	{r7}
 800026c:	4770      	bx	lr
	...

08000270 <MainOs>:
 8000270:	b580      	push	{r7, lr}
 8000272:	af00      	add	r7, sp, #0
 8000274:	4b34      	ldr	r3, [pc, #208]	; (8000348 <MainOs+0xd8>)
 8000276:	681b      	ldr	r3, [r3, #0]
 8000278:	f5a3 7300 	sub.w	r3, r3, #512	; 0x200
 800027c:	4a33      	ldr	r2, [pc, #204]	; (800034c <MainOs+0xdc>)
 800027e:	6013      	str	r3, [r2, #0]
 8000280:	4b32      	ldr	r3, [pc, #200]	; (800034c <MainOs+0xdc>)
 8000282:	681b      	ldr	r3, [r3, #0]
 8000284:	3b08      	subs	r3, #8
 8000286:	4a32      	ldr	r2, [pc, #200]	; (8000350 <MainOs+0xe0>)
 8000288:	6013      	str	r3, [r2, #0]
 800028a:	4b31      	ldr	r3, [pc, #196]	; (8000350 <MainOs+0xe0>)
 800028c:	681b      	ldr	r3, [r3, #0]
 800028e:	3b64      	subs	r3, #100	; 0x64
 8000290:	4a30      	ldr	r2, [pc, #192]	; (8000354 <MainOs+0xe4>)
 8000292:	6013      	str	r3, [r2, #0]
 8000294:	4b2f      	ldr	r3, [pc, #188]	; (8000354 <MainOs+0xe4>)
 8000296:	681b      	ldr	r3, [r3, #0]
 8000298:	3b08      	subs	r3, #8
 800029a:	4a2f      	ldr	r2, [pc, #188]	; (8000358 <MainOs+0xe8>)
 800029c:	6013      	str	r3, [r2, #0]
 800029e:	4b2e      	ldr	r3, [pc, #184]	; (8000358 <MainOs+0xe8>)
 80002a0:	681b      	ldr	r3, [r3, #0]
 80002a2:	3b64      	subs	r3, #100	; 0x64
 80002a4:	4a2d      	ldr	r2, [pc, #180]	; (800035c <MainOs+0xec>)
 80002a6:	6013      	str	r3, [r2, #0]
 80002a8:	bf00      	nop
 80002aa:	4b2d      	ldr	r3, [pc, #180]	; (8000360 <MainOs+0xf0>)
 80002ac:	681b      	ldr	r3, [r3, #0]
 80002ae:	2b01      	cmp	r3, #1
 80002b0:	d122      	bne.n	80002f8 <MainOs+0x88>
 80002b2:	4b27      	ldr	r3, [pc, #156]	; (8000350 <MainOs+0xe0>)
 80002b4:	681b      	ldr	r3, [r3, #0]
 80002b6:	4618      	mov	r0, r3
 80002b8:	f380 8809 	msr	PSP, r0
 80002bc:	f3ef 8014 	mrs	r0, CONTROL
 80002c0:	f04f 0102 	mov.w	r1, #2
 80002c4:	ea40 0001 	orr.w	r0, r0, r1
 80002c8:	f380 8814 	msr	CONTROL, r0
 80002cc:	2001      	movs	r0, #1
 80002ce:	f7ff ff68 	bl	80001a2 <SWITCH_CPU_AccessLevel>
 80002d2:	2203      	movs	r2, #3
 80002d4:	2102      	movs	r1, #2
 80002d6:	2001      	movs	r0, #1
 80002d8:	f7ff ffa6 	bl	8000228 <TaskA>
 80002dc:	4603      	mov	r3, r0
 80002de:	461a      	mov	r2, r3
 80002e0:	4b1f      	ldr	r3, [pc, #124]	; (8000360 <MainOs+0xf0>)
 80002e2:	601a      	str	r2, [r3, #0]
 80002e4:	df03      	svc	3
 80002e6:	f3ef 8014 	mrs	r0, CONTROL
 80002ea:	f04f 0105 	mov.w	r1, #5
 80002ee:	ea00 0001 	and.w	r0, r0, r1
 80002f2:	f380 8814 	msr	CONTROL, r0
 80002f6:	e7d7      	b.n	80002a8 <MainOs+0x38>
 80002f8:	4b1a      	ldr	r3, [pc, #104]	; (8000364 <MainOs+0xf4>)
 80002fa:	681b      	ldr	r3, [r3, #0]
 80002fc:	2b01      	cmp	r3, #1
 80002fe:	d1d3      	bne.n	80002a8 <MainOs+0x38>
 8000300:	4b15      	ldr	r3, [pc, #84]	; (8000358 <MainOs+0xe8>)
 8000302:	681b      	ldr	r3, [r3, #0]
 8000304:	4618      	mov	r0, r3
 8000306:	f380 8809 	msr	PSP, r0
 800030a:	f3ef 8014 	mrs	r0, CONTROL
 800030e:	f04f 0102 	mov.w	r1, #2
 8000312:	ea40 0001 	orr.w	r0, r0, r1
 8000316:	f380 8814 	msr	CONTROL, r0
 800031a:	2001      	movs	r0, #1
 800031c:	f7ff ff41 	bl	80001a2 <SWITCH_CPU_AccessLevel>
 8000320:	2304      	movs	r3, #4
 8000322:	2203      	movs	r2, #3
 8000324:	2102      	movs	r1, #2
 8000326:	2001      	movs	r0, #1
 8000328:	f7ff ff8e 	bl	8000248 <TaskB>
 800032c:	4603      	mov	r3, r0
 800032e:	461a      	mov	r2, r3
 8000330:	4b0c      	ldr	r3, [pc, #48]	; (8000364 <MainOs+0xf4>)
 8000332:	601a      	str	r2, [r3, #0]
 8000334:	df03      	svc	3
 8000336:	f3ef 8014 	mrs	r0, CONTROL
 800033a:	f04f 0105 	mov.w	r1, #5
 800033e:	ea00 0001 	and.w	r0, r0, r1
 8000342:	f380 8814 	msr	CONTROL, r0
 8000346:	e7af      	b.n	80002a8 <MainOs+0x38>
 8000348:	20000000 	andcs	r0, r0, r0
 800034c:	20000024 	andcs	r0, r0, r4, lsr #32
 8000350:	2000002c 	andcs	r0, r0, ip, lsr #32
 8000354:	2000003c 	andcs	r0, r0, ip, lsr r0
 8000358:	20000034 	andcs	r0, r0, r4, lsr r0
 800035c:	20000038 	andcs	r0, r0, r8, lsr r0
 8000360:	20000030 	andcs	r0, r0, r0, lsr r0
 8000364:	20000020 	andcs	r0, r0, r0, lsr #32

08000368 <main>:
 8000368:	b580      	push	{r7, lr}
 800036a:	b086      	sub	sp, #24
 800036c:	af00      	add	r7, sp, #0
 800036e:	4b17      	ldr	r3, [pc, #92]	; (80003cc <main+0x64>)
 8000370:	699b      	ldr	r3, [r3, #24]
 8000372:	4a16      	ldr	r2, [pc, #88]	; (80003cc <main+0x64>)
 8000374:	f043 0304 	orr.w	r3, r3, #4
 8000378:	6193      	str	r3, [r2, #24]
 800037a:	4b14      	ldr	r3, [pc, #80]	; (80003cc <main+0x64>)
 800037c:	699b      	ldr	r3, [r3, #24]
 800037e:	4a13      	ldr	r2, [pc, #76]	; (80003cc <main+0x64>)
 8000380:	f043 0308 	orr.w	r3, r3, #8
 8000384:	6193      	str	r3, [r2, #24]
 8000386:	4b11      	ldr	r3, [pc, #68]	; (80003cc <main+0x64>)
 8000388:	699b      	ldr	r3, [r3, #24]
 800038a:	4a10      	ldr	r2, [pc, #64]	; (80003cc <main+0x64>)
 800038c:	f043 0301 	orr.w	r3, r3, #1
 8000390:	6193      	str	r3, [r2, #24]
 8000392:	4a0f      	ldr	r2, [pc, #60]	; (80003d0 <main+0x68>)
 8000394:	1d3b      	adds	r3, r7, #4
 8000396:	ca07      	ldmia	r2, {r0, r1, r2}
 8000398:	e883 0007 	stmia.w	r3, {r0, r1, r2}
 800039c:	2300      	movs	r3, #0
 800039e:	743b      	strb	r3, [r7, #16]
 80003a0:	4b0c      	ldr	r3, [pc, #48]	; (80003d4 <main+0x6c>)
 80003a2:	617b      	str	r3, [r7, #20]
 80003a4:	2300      	movs	r3, #0
 80003a6:	747b      	strb	r3, [r7, #17]
 80003a8:	1d3b      	adds	r3, r7, #4
 80003aa:	4618      	mov	r0, r3
 80003ac:	f000 fada 	bl	8000964 <MCAL_EXTI_GPIO_Init>
 80003b0:	f7ff ff5e 	bl	8000270 <MainOs>
 80003b4:	4b08      	ldr	r3, [pc, #32]	; (80003d8 <main+0x70>)
 80003b6:	2201      	movs	r2, #1
 80003b8:	601a      	str	r2, [r3, #0]
 80003ba:	4b07      	ldr	r3, [pc, #28]	; (80003d8 <main+0x70>)
 80003bc:	681b      	ldr	r3, [r3, #0]
 80003be:	2b00      	cmp	r3, #0
 80003c0:	d0fb      	beq.n	80003ba <main+0x52>
 80003c2:	4b05      	ldr	r3, [pc, #20]	; (80003d8 <main+0x70>)
 80003c4:	2200      	movs	r2, #0
 80003c6:	601a      	str	r2, [r3, #0]
 80003c8:	e7f7      	b.n	80003ba <main+0x52>
 80003ca:	bf00      	nop
 80003cc:	40021000 	andmi	r1, r2, r0
 80003d0:	08000bfc 	stmdaeq	r0, {r2, r3, r4, r5, r6, r7, r8, r9, fp}
 80003d4:	080001e5 	stmdaeq	r0, {r0, r2, r5, r6, r7, r8}
 80003d8:	20000028 	andcs	r0, r0, r8, lsr #32

080003dc <Reset_Handler>:
 80003dc:	480d      	ldr	r0, [pc, #52]	; (8000414 <LoopForever+0x2>)
 80003de:	4685      	mov	sp, r0
 80003e0:	f3af 8000 	nop.w
 80003e4:	480c      	ldr	r0, [pc, #48]	; (8000418 <LoopForever+0x6>)
 80003e6:	490d      	ldr	r1, [pc, #52]	; (800041c <LoopForever+0xa>)
 80003e8:	4a0d      	ldr	r2, [pc, #52]	; (8000420 <LoopForever+0xe>)
 80003ea:	2300      	movs	r3, #0
 80003ec:	e002      	b.n	80003f4 <LoopCopyDataInit>

080003ee <CopyDataInit>:
 80003ee:	58d4      	ldr	r4, [r2, r3]
 80003f0:	50c4      	str	r4, [r0, r3]
 80003f2:	3304      	adds	r3, #4

080003f4 <LoopCopyDataInit>:
 80003f4:	18c4      	adds	r4, r0, r3
 80003f6:	428c      	cmp	r4, r1
 80003f8:	d3f9      	bcc.n	80003ee <CopyDataInit>
 80003fa:	4a0a      	ldr	r2, [pc, #40]	; (8000424 <LoopForever+0x12>)
 80003fc:	4c0a      	ldr	r4, [pc, #40]	; (8000428 <LoopForever+0x16>)
 80003fe:	2300      	movs	r3, #0
 8000400:	e001      	b.n	8000406 <LoopFillZerobss>

08000402 <FillZerobss>:
 8000402:	6013      	str	r3, [r2, #0]
 8000404:	3204      	adds	r2, #4

08000406 <LoopFillZerobss>:
 8000406:	42a2      	cmp	r2, r4
 8000408:	d3fb      	bcc.n	8000402 <FillZerobss>
 800040a:	f000 fbc7 	bl	8000b9c <__libc_init_array>
 800040e:	f7ff ffab 	bl	8000368 <main>

08000412 <LoopForever>:
 8000412:	e7fe      	b.n	8000412 <LoopForever>
 8000414:	20002800 	andcs	r2, r0, r0, lsl #16
 8000418:	20000000 	andcs	r0, r0, r0
 800041c:	20000004 	andcs	r0, r0, r4
 8000420:	08000c10 	stmdaeq	r0, {r4, sl, fp}
 8000424:	20000004 	andcs	r0, r0, r4
 8000428:	2000007c 	andcs	r0, r0, ip, ror r0

0800042c <ADC1_2_IRQHandler>:
 800042c:	e7fe      	b.n	800042c <ADC1_2_IRQHandler>

0800042e <Get_CRLH_Position>:
 800042e:	b480      	push	{r7}
 8000430:	b083      	sub	sp, #12
 8000432:	af00      	add	r7, sp, #0
 8000434:	4603      	mov	r3, r0
 8000436:	80fb      	strh	r3, [r7, #6]
 8000438:	88fb      	ldrh	r3, [r7, #6]
 800043a:	2b80      	cmp	r3, #128	; 0x80
 800043c:	d042      	beq.n	80004c4 <Get_CRLH_Position+0x96>
 800043e:	2b80      	cmp	r3, #128	; 0x80
 8000440:	dc11      	bgt.n	8000466 <Get_CRLH_Position+0x38>
 8000442:	2b08      	cmp	r3, #8
 8000444:	d036      	beq.n	80004b4 <Get_CRLH_Position+0x86>
 8000446:	2b08      	cmp	r3, #8
 8000448:	dc06      	bgt.n	8000458 <Get_CRLH_Position+0x2a>
 800044a:	2b02      	cmp	r3, #2
 800044c:	d02e      	beq.n	80004ac <Get_CRLH_Position+0x7e>
 800044e:	2b04      	cmp	r3, #4
 8000450:	d02e      	beq.n	80004b0 <Get_CRLH_Position+0x82>
 8000452:	2b01      	cmp	r3, #1
 8000454:	d028      	beq.n	80004a8 <Get_CRLH_Position+0x7a>
 8000456:	e047      	b.n	80004e8 <Get_CRLH_Position+0xba>
 8000458:	2b20      	cmp	r3, #32
 800045a:	d02f      	beq.n	80004bc <Get_CRLH_Position+0x8e>
 800045c:	2b40      	cmp	r3, #64	; 0x40
 800045e:	d02f      	beq.n	80004c0 <Get_CRLH_Position+0x92>
 8000460:	2b10      	cmp	r3, #16
 8000462:	d029      	beq.n	80004b8 <Get_CRLH_Position+0x8a>
 8000464:	e040      	b.n	80004e8 <Get_CRLH_Position+0xba>
 8000466:	f5b3 6f00 	cmp.w	r3, #2048	; 0x800
 800046a:	d033      	beq.n	80004d4 <Get_CRLH_Position+0xa6>
 800046c:	f5b3 6f00 	cmp.w	r3, #2048	; 0x800
 8000470:	dc09      	bgt.n	8000486 <Get_CRLH_Position+0x58>
 8000472:	f5b3 7f00 	cmp.w	r3, #512	; 0x200
 8000476:	d029      	beq.n	80004cc <Get_CRLH_Position+0x9e>
 8000478:	f5b3 6f80 	cmp.w	r3, #1024	; 0x400
 800047c:	d028      	beq.n	80004d0 <Get_CRLH_Position+0xa2>
 800047e:	f5b3 7f80 	cmp.w	r3, #256	; 0x100
 8000482:	d021      	beq.n	80004c8 <Get_CRLH_Position+0x9a>
 8000484:	e030      	b.n	80004e8 <Get_CRLH_Position+0xba>
 8000486:	f5b3 5f00 	cmp.w	r3, #8192	; 0x2000
 800048a:	d027      	beq.n	80004dc <Get_CRLH_Position+0xae>
 800048c:	f5b3 5f00 	cmp.w	r3, #8192	; 0x2000
 8000490:	dc03      	bgt.n	800049a <Get_CRLH_Position+0x6c>
 8000492:	f5b3 5f80 	cmp.w	r3, #4096	; 0x1000
 8000496:	d01f      	beq.n	80004d8 <Get_CRLH_Position+0xaa>
 8000498:	e026      	b.n	80004e8 <Get_CRLH_Position+0xba>
 800049a:	f5b3 4f80 	cmp.w	r3, #16384	; 0x4000
 800049e:	d01f      	beq.n	80004e0 <Get_CRLH_Position+0xb2>
 80004a0:	f5b3 4f00 	cmp.w	r3, #32768	; 0x8000
 80004a4:	d01e      	beq.n	80004e4 <Get_CRLH_Position+0xb6>
 80004a6:	e01f      	b.n	80004e8 <Get_CRLH_Position+0xba>
 80004a8:	2300      	movs	r3, #0
 80004aa:	e01e      	b.n	80004ea <Get_CRLH_Position+0xbc>
 80004ac:	2304      	movs	r3, #4
 80004ae:	e01c      	b.n	80004ea <Get_CRLH_Position+0xbc>
 80004b0:	2308      	movs	r3, #8
 80004b2:	e01a      	b.n	80004ea <Get_CRLH_Position+0xbc>
 80004b4:	230c      	movs	r3, #12
 80004b6:	e018      	b.n	80004ea <Get_CRLH_Position+0xbc>
 80004b8:	2310      	movs	r3, #16
 80004ba:	e016      	b.n	80004ea <Get_CRLH_Position+0xbc>
 80004bc:	2314      	movs	r3, #20
 80004be:	e014      	b.n	80004ea <Get_CRLH_Position+0xbc>
 80004c0:	2318      	movs	r3, #24
 80004c2:	e012      	b.n	80004ea <Get_CRLH_Position+0xbc>
 80004c4:	231c      	movs	r3, #28
 80004c6:	e010      	b.n	80004ea <Get_CRLH_Position+0xbc>
 80004c8:	2300      	movs	r3, #0
 80004ca:	e00e      	b.n	80004ea <Get_CRLH_Position+0xbc>
 80004cc:	2304      	movs	r3, #4
 80004ce:	e00c      	b.n	80004ea <Get_CRLH_Position+0xbc>
 80004d0:	2308      	movs	r3, #8
 80004d2:	e00a      	b.n	80004ea <Get_CRLH_Position+0xbc>
 80004d4:	230c      	movs	r3, #12
 80004d6:	e008      	b.n	80004ea <Get_CRLH_Position+0xbc>
 80004d8:	2310      	movs	r3, #16
 80004da:	e006      	b.n	80004ea <Get_CRLH_Position+0xbc>
 80004dc:	2314      	movs	r3, #20
 80004de:	e004      	b.n	80004ea <Get_CRLH_Position+0xbc>
 80004e0:	2318      	movs	r3, #24
 80004e2:	e002      	b.n	80004ea <Get_CRLH_Position+0xbc>
 80004e4:	231c      	movs	r3, #28
 80004e6:	e000      	b.n	80004ea <Get_CRLH_Position+0xbc>
 80004e8:	2300      	movs	r3, #0
 80004ea:	4618      	mov	r0, r3
 80004ec:	370c      	adds	r7, #12
 80004ee:	46bd      	mov	sp, r7
 80004f0:	bc80      	pop	{r7}
 80004f2:	4770      	bx	lr

080004f4 <MCAL_GPIO_Init>:
 80004f4:	b590      	push	{r4, r7, lr}
 80004f6:	b085      	sub	sp, #20
 80004f8:	af00      	add	r7, sp, #0
 80004fa:	6078      	str	r0, [r7, #4]
 80004fc:	6039      	str	r1, [r7, #0]
 80004fe:	2300      	movs	r3, #0
 8000500:	60bb      	str	r3, [r7, #8]
 8000502:	2300      	movs	r3, #0
 8000504:	73fb      	strb	r3, [r7, #15]
 8000506:	683b      	ldr	r3, [r7, #0]
 8000508:	881b      	ldrh	r3, [r3, #0]
 800050a:	2bff      	cmp	r3, #255	; 0xff
 800050c:	d801      	bhi.n	8000512 <MCAL_GPIO_Init+0x1e>
 800050e:	687b      	ldr	r3, [r7, #4]
 8000510:	e001      	b.n	8000516 <MCAL_GPIO_Init+0x22>
 8000512:	687b      	ldr	r3, [r7, #4]
 8000514:	3304      	adds	r3, #4
 8000516:	60bb      	str	r3, [r7, #8]
 8000518:	683b      	ldr	r3, [r7, #0]
 800051a:	881b      	ldrh	r3, [r3, #0]
 800051c:	4618      	mov	r0, r3
 800051e:	f7ff ff86 	bl	800042e <Get_CRLH_Position>
 8000522:	4603      	mov	r3, r0
 8000524:	461a      	mov	r2, r3
 8000526:	230f      	movs	r3, #15
 8000528:	4093      	lsls	r3, r2
 800052a:	43da      	mvns	r2, r3
 800052c:	68bb      	ldr	r3, [r7, #8]
 800052e:	681b      	ldr	r3, [r3, #0]
 8000530:	401a      	ands	r2, r3
 8000532:	68bb      	ldr	r3, [r7, #8]
 8000534:	601a      	str	r2, [r3, #0]
 8000536:	683b      	ldr	r3, [r7, #0]
 8000538:	789b      	ldrb	r3, [r3, #2]
 800053a:	2b07      	cmp	r3, #7
 800053c:	d00b      	beq.n	8000556 <MCAL_GPIO_Init+0x62>
 800053e:	683b      	ldr	r3, [r7, #0]
 8000540:	789b      	ldrb	r3, [r3, #2]
 8000542:	2b06      	cmp	r3, #6
 8000544:	d007      	beq.n	8000556 <MCAL_GPIO_Init+0x62>
 8000546:	683b      	ldr	r3, [r7, #0]
 8000548:	789b      	ldrb	r3, [r3, #2]
 800054a:	2b05      	cmp	r3, #5
 800054c:	d003      	beq.n	8000556 <MCAL_GPIO_Init+0x62>
 800054e:	683b      	ldr	r3, [r7, #0]
 8000550:	789b      	ldrb	r3, [r3, #2]
 8000552:	2b04      	cmp	r3, #4
 8000554:	d10e      	bne.n	8000574 <MCAL_GPIO_Init+0x80>
 8000556:	683b      	ldr	r3, [r7, #0]
 8000558:	789b      	ldrb	r3, [r3, #2]
 800055a:	3b04      	subs	r3, #4
 800055c:	009b      	lsls	r3, r3, #2
 800055e:	b25a      	sxtb	r2, r3
 8000560:	683b      	ldr	r3, [r7, #0]
 8000562:	78db      	ldrb	r3, [r3, #3]
 8000564:	b25b      	sxtb	r3, r3
 8000566:	4313      	orrs	r3, r2
 8000568:	b25b      	sxtb	r3, r3
 800056a:	b2db      	uxtb	r3, r3
 800056c:	f003 030f 	and.w	r3, r3, #15
 8000570:	73fb      	strb	r3, [r7, #15]
 8000572:	e02c      	b.n	80005ce <MCAL_GPIO_Init+0xda>
 8000574:	683b      	ldr	r3, [r7, #0]
 8000576:	789b      	ldrb	r3, [r3, #2]
 8000578:	2b01      	cmp	r3, #1
 800057a:	d003      	beq.n	8000584 <MCAL_GPIO_Init+0x90>
 800057c:	683b      	ldr	r3, [r7, #0]
 800057e:	789b      	ldrb	r3, [r3, #2]
 8000580:	2b00      	cmp	r3, #0
 8000582:	d107      	bne.n	8000594 <MCAL_GPIO_Init+0xa0>
 8000584:	683b      	ldr	r3, [r7, #0]
 8000586:	789b      	ldrb	r3, [r3, #2]
 8000588:	009b      	lsls	r3, r3, #2
 800058a:	b2db      	uxtb	r3, r3
 800058c:	f003 030f 	and.w	r3, r3, #15
 8000590:	73fb      	strb	r3, [r7, #15]
 8000592:	e01c      	b.n	80005ce <MCAL_GPIO_Init+0xda>
 8000594:	683b      	ldr	r3, [r7, #0]
 8000596:	789b      	ldrb	r3, [r3, #2]
 8000598:	2b08      	cmp	r3, #8
 800059a:	d102      	bne.n	80005a2 <MCAL_GPIO_Init+0xae>
 800059c:	2304      	movs	r3, #4
 800059e:	73fb      	strb	r3, [r7, #15]
 80005a0:	e015      	b.n	80005ce <MCAL_GPIO_Init+0xda>
 80005a2:	2308      	movs	r3, #8
 80005a4:	73fb      	strb	r3, [r7, #15]
 80005a6:	683b      	ldr	r3, [r7, #0]
 80005a8:	789b      	ldrb	r3, [r3, #2]
 80005aa:	2b02      	cmp	r3, #2
 80005ac:	d107      	bne.n	80005be <MCAL_GPIO_Init+0xca>
 80005ae:	687b      	ldr	r3, [r7, #4]
 80005b0:	68db      	ldr	r3, [r3, #12]
 80005b2:	683a      	ldr	r2, [r7, #0]
 80005b4:	8812      	ldrh	r2, [r2, #0]
 80005b6:	431a      	orrs	r2, r3
 80005b8:	687b      	ldr	r3, [r7, #4]
 80005ba:	60da      	str	r2, [r3, #12]
 80005bc:	e007      	b.n	80005ce <MCAL_GPIO_Init+0xda>
 80005be:	687b      	ldr	r3, [r7, #4]
 80005c0:	68db      	ldr	r3, [r3, #12]
 80005c2:	683a      	ldr	r2, [r7, #0]
 80005c4:	8812      	ldrh	r2, [r2, #0]
 80005c6:	43d2      	mvns	r2, r2
 80005c8:	401a      	ands	r2, r3
 80005ca:	687b      	ldr	r3, [r7, #4]
 80005cc:	60da      	str	r2, [r3, #12]
 80005ce:	7bfc      	ldrb	r4, [r7, #15]
 80005d0:	683b      	ldr	r3, [r7, #0]
 80005d2:	881b      	ldrh	r3, [r3, #0]
 80005d4:	4618      	mov	r0, r3
 80005d6:	f7ff ff2a 	bl	800042e <Get_CRLH_Position>
 80005da:	4603      	mov	r3, r0
 80005dc:	fa04 f203 	lsl.w	r2, r4, r3
 80005e0:	68bb      	ldr	r3, [r7, #8]
 80005e2:	681b      	ldr	r3, [r3, #0]
 80005e4:	431a      	orrs	r2, r3
 80005e6:	68bb      	ldr	r3, [r7, #8]
 80005e8:	601a      	str	r2, [r3, #0]
 80005ea:	bf00      	nop
 80005ec:	3714      	adds	r7, #20
 80005ee:	46bd      	mov	sp, r7
 80005f0:	bd90      	pop	{r4, r7, pc}
	...

080005f4 <Enable_NVIC>:
 80005f4:	b480      	push	{r7}
 80005f6:	b083      	sub	sp, #12
 80005f8:	af00      	add	r7, sp, #0
 80005fa:	4603      	mov	r3, r0
 80005fc:	80fb      	strh	r3, [r7, #6]
 80005fe:	88fb      	ldrh	r3, [r7, #6]
 8000600:	2b0f      	cmp	r3, #15
 8000602:	d854      	bhi.n	80006ae <Enable_NVIC+0xba>
 8000604:	a201      	add	r2, pc, #4	; (adr r2, 800060c <Enable_NVIC+0x18>)
 8000606:	f852 f023 	ldr.w	pc, [r2, r3, lsl #2]
 800060a:	bf00      	nop
 800060c:	0800064d 	stmdaeq	r0, {r0, r2, r3, r6, r9, sl}
 8000610:	0800065b 	stmdaeq	r0, {r0, r1, r3, r4, r6, r9, sl}
 8000614:	08000669 	stmdaeq	r0, {r0, r3, r5, r6, r9, sl}
 8000618:	08000677 	stmdaeq	r0, {r0, r1, r2, r4, r5, r6, r9, sl}
 800061c:	08000685 	stmdaeq	r0, {r0, r2, r7, r9, sl}
 8000620:	08000693 	stmdaeq	r0, {r0, r1, r4, r7, r9, sl}
 8000624:	08000693 	stmdaeq	r0, {r0, r1, r4, r7, r9, sl}
 8000628:	08000693 	stmdaeq	r0, {r0, r1, r4, r7, r9, sl}
 800062c:	08000693 	stmdaeq	r0, {r0, r1, r4, r7, r9, sl}
 8000630:	08000693 	stmdaeq	r0, {r0, r1, r4, r7, r9, sl}
 8000634:	080006a1 	stmdaeq	r0, {r0, r5, r7, r9, sl}
 8000638:	080006a1 	stmdaeq	r0, {r0, r5, r7, r9, sl}
 800063c:	080006a1 	stmdaeq	r0, {r0, r5, r7, r9, sl}
 8000640:	080006a1 	stmdaeq	r0, {r0, r5, r7, r9, sl}
 8000644:	080006a1 	stmdaeq	r0, {r0, r5, r7, r9, sl}
 8000648:	080006a1 	stmdaeq	r0, {r0, r5, r7, r9, sl}
 800064c:	4b1a      	ldr	r3, [pc, #104]	; (80006b8 <Enable_NVIC+0xc4>)
 800064e:	681b      	ldr	r3, [r3, #0]
 8000650:	4a19      	ldr	r2, [pc, #100]	; (80006b8 <Enable_NVIC+0xc4>)
 8000652:	f043 0340 	orr.w	r3, r3, #64	; 0x40
 8000656:	6013      	str	r3, [r2, #0]
 8000658:	e029      	b.n	80006ae <Enable_NVIC+0xba>
 800065a:	4b17      	ldr	r3, [pc, #92]	; (80006b8 <Enable_NVIC+0xc4>)
 800065c:	681b      	ldr	r3, [r3, #0]
 800065e:	4a16      	ldr	r2, [pc, #88]	; (80006b8 <Enable_NVIC+0xc4>)
 8000660:	f043 0380 	orr.w	r3, r3, #128	; 0x80
 8000664:	6013      	str	r3, [r2, #0]
 8000666:	e022      	b.n	80006ae <Enable_NVIC+0xba>
 8000668:	4b13      	ldr	r3, [pc, #76]	; (80006b8 <Enable_NVIC+0xc4>)
 800066a:	681b      	ldr	r3, [r3, #0]
 800066c:	4a12      	ldr	r2, [pc, #72]	; (80006b8 <Enable_NVIC+0xc4>)
 800066e:	f443 7380 	orr.w	r3, r3, #256	; 0x100
 8000672:	6013      	str	r3, [r2, #0]
 8000674:	e01b      	b.n	80006ae <Enable_NVIC+0xba>
 8000676:	4b10      	ldr	r3, [pc, #64]	; (80006b8 <Enable_NVIC+0xc4>)
 8000678:	681b      	ldr	r3, [r3, #0]
 800067a:	4a0f      	ldr	r2, [pc, #60]	; (80006b8 <Enable_NVIC+0xc4>)
 800067c:	f443 7300 	orr.w	r3, r3, #512	; 0x200
 8000680:	6013      	str	r3, [r2, #0]
 8000682:	e014      	b.n	80006ae <Enable_NVIC+0xba>
 8000684:	4b0c      	ldr	r3, [pc, #48]	; (80006b8 <Enable_NVIC+0xc4>)
 8000686:	681b      	ldr	r3, [r3, #0]
 8000688:	4a0b      	ldr	r2, [pc, #44]	; (80006b8 <Enable_NVIC+0xc4>)
 800068a:	f443 6380 	orr.w	r3, r3, #1024	; 0x400
 800068e:	6013      	str	r3, [r2, #0]
 8000690:	e00d      	b.n	80006ae <Enable_NVIC+0xba>
 8000692:	4b09      	ldr	r3, [pc, #36]	; (80006b8 <Enable_NVIC+0xc4>)
 8000694:	681b      	ldr	r3, [r3, #0]
 8000696:	4a08      	ldr	r2, [pc, #32]	; (80006b8 <Enable_NVIC+0xc4>)
 8000698:	f443 0300 	orr.w	r3, r3, #8388608	; 0x800000
 800069c:	6013      	str	r3, [r2, #0]
 800069e:	e006      	b.n	80006ae <Enable_NVIC+0xba>
 80006a0:	4b06      	ldr	r3, [pc, #24]	; (80006bc <Enable_NVIC+0xc8>)
 80006a2:	681b      	ldr	r3, [r3, #0]
 80006a4:	4a05      	ldr	r2, [pc, #20]	; (80006bc <Enable_NVIC+0xc8>)
 80006a6:	f443 7380 	orr.w	r3, r3, #256	; 0x100
 80006aa:	6013      	str	r3, [r2, #0]
 80006ac:	bf00      	nop
 80006ae:	bf00      	nop
 80006b0:	370c      	adds	r7, #12
 80006b2:	46bd      	mov	sp, r7
 80006b4:	bc80      	pop	{r7}
 80006b6:	4770      	bx	lr
 80006b8:	e000e100 	and	lr, r0, r0, lsl #2
 80006bc:	e000e104 	and	lr, r0, r4, lsl #2

080006c0 <Disable_NVIC>:
 80006c0:	b480      	push	{r7}
 80006c2:	b083      	sub	sp, #12
 80006c4:	af00      	add	r7, sp, #0
 80006c6:	4603      	mov	r3, r0
 80006c8:	80fb      	strh	r3, [r7, #6]
 80006ca:	88fb      	ldrh	r3, [r7, #6]
 80006cc:	2b0f      	cmp	r3, #15
 80006ce:	d854      	bhi.n	800077a <Disable_NVIC+0xba>
 80006d0:	a201      	add	r2, pc, #4	; (adr r2, 80006d8 <Disable_NVIC+0x18>)
 80006d2:	f852 f023 	ldr.w	pc, [r2, r3, lsl #2]
 80006d6:	bf00      	nop
 80006d8:	08000719 	stmdaeq	r0, {r0, r3, r4, r8, r9, sl}
 80006dc:	08000727 	stmdaeq	r0, {r0, r1, r2, r5, r8, r9, sl}
 80006e0:	08000735 	stmdaeq	r0, {r0, r2, r4, r5, r8, r9, sl}
 80006e4:	08000743 	stmdaeq	r0, {r0, r1, r6, r8, r9, sl}
 80006e8:	08000751 	stmdaeq	r0, {r0, r4, r6, r8, r9, sl}
 80006ec:	0800075f 	stmdaeq	r0, {r0, r1, r2, r3, r4, r6, r8, r9, sl}
 80006f0:	0800075f 	stmdaeq	r0, {r0, r1, r2, r3, r4, r6, r8, r9, sl}
 80006f4:	0800075f 	stmdaeq	r0, {r0, r1, r2, r3, r4, r6, r8, r9, sl}
 80006f8:	0800075f 	stmdaeq	r0, {r0, r1, r2, r3, r4, r6, r8, r9, sl}
 80006fc:	0800075f 	stmdaeq	r0, {r0, r1, r2, r3, r4, r6, r8, r9, sl}
 8000700:	0800076d 	stmdaeq	r0, {r0, r2, r3, r5, r6, r8, r9, sl}
 8000704:	0800076d 	stmdaeq	r0, {r0, r2, r3, r5, r6, r8, r9, sl}
 8000708:	0800076d 	stmdaeq	r0, {r0, r2, r3, r5, r6, r8, r9, sl}
 800070c:	0800076d 	stmdaeq	r0, {r0, r2, r3, r5, r6, r8, r9, sl}
 8000710:	0800076d 	stmdaeq	r0, {r0, r2, r3, r5, r6, r8, r9, sl}
 8000714:	0800076d 	stmdaeq	r0, {r0, r2, r3, r5, r6, r8, r9, sl}
 8000718:	4b1a      	ldr	r3, [pc, #104]	; (8000784 <Disable_NVIC+0xc4>)
 800071a:	681b      	ldr	r3, [r3, #0]
 800071c:	4a19      	ldr	r2, [pc, #100]	; (8000784 <Disable_NVIC+0xc4>)
 800071e:	f043 0340 	orr.w	r3, r3, #64	; 0x40
 8000722:	6013      	str	r3, [r2, #0]
 8000724:	e029      	b.n	800077a <Disable_NVIC+0xba>
 8000726:	4b17      	ldr	r3, [pc, #92]	; (8000784 <Disable_NVIC+0xc4>)
 8000728:	681b      	ldr	r3, [r3, #0]
 800072a:	4a16      	ldr	r2, [pc, #88]	; (8000784 <Disable_NVIC+0xc4>)
 800072c:	f043 0380 	orr.w	r3, r3, #128	; 0x80
 8000730:	6013      	str	r3, [r2, #0]
 8000732:	e022      	b.n	800077a <Disable_NVIC+0xba>
 8000734:	4b13      	ldr	r3, [pc, #76]	; (8000784 <Disable_NVIC+0xc4>)
 8000736:	681b      	ldr	r3, [r3, #0]
 8000738:	4a12      	ldr	r2, [pc, #72]	; (8000784 <Disable_NVIC+0xc4>)
 800073a:	f443 7380 	orr.w	r3, r3, #256	; 0x100
 800073e:	6013      	str	r3, [r2, #0]
 8000740:	e01b      	b.n	800077a <Disable_NVIC+0xba>
 8000742:	4b10      	ldr	r3, [pc, #64]	; (8000784 <Disable_NVIC+0xc4>)
 8000744:	681b      	ldr	r3, [r3, #0]
 8000746:	4a0f      	ldr	r2, [pc, #60]	; (8000784 <Disable_NVIC+0xc4>)
 8000748:	f443 7300 	orr.w	r3, r3, #512	; 0x200
 800074c:	6013      	str	r3, [r2, #0]
 800074e:	e014      	b.n	800077a <Disable_NVIC+0xba>
 8000750:	4b0c      	ldr	r3, [pc, #48]	; (8000784 <Disable_NVIC+0xc4>)
 8000752:	681b      	ldr	r3, [r3, #0]
 8000754:	4a0b      	ldr	r2, [pc, #44]	; (8000784 <Disable_NVIC+0xc4>)
 8000756:	f443 6380 	orr.w	r3, r3, #1024	; 0x400
 800075a:	6013      	str	r3, [r2, #0]
 800075c:	e00d      	b.n	800077a <Disable_NVIC+0xba>
 800075e:	4b09      	ldr	r3, [pc, #36]	; (8000784 <Disable_NVIC+0xc4>)
 8000760:	681b      	ldr	r3, [r3, #0]
 8000762:	4a08      	ldr	r2, [pc, #32]	; (8000784 <Disable_NVIC+0xc4>)
 8000764:	f443 0300 	orr.w	r3, r3, #8388608	; 0x800000
 8000768:	6013      	str	r3, [r2, #0]
 800076a:	e006      	b.n	800077a <Disable_NVIC+0xba>
 800076c:	4b06      	ldr	r3, [pc, #24]	; (8000788 <Disable_NVIC+0xc8>)
 800076e:	681b      	ldr	r3, [r3, #0]
 8000770:	4a05      	ldr	r2, [pc, #20]	; (8000788 <Disable_NVIC+0xc8>)
 8000772:	f443 7380 	orr.w	r3, r3, #256	; 0x100
 8000776:	6013      	str	r3, [r2, #0]
 8000778:	bf00      	nop
 800077a:	bf00      	nop
 800077c:	370c      	adds	r7, #12
 800077e:	46bd      	mov	sp, r7
 8000780:	bc80      	pop	{r7}
 8000782:	4770      	bx	lr
 8000784:	e000e180 	and	lr, r0, r0, lsl #3
 8000788:	e000e184 	and	lr, r0, r4, lsl #3

0800078c <Update_EXTI>:
 800078c:	b580      	push	{r7, lr}
 800078e:	b084      	sub	sp, #16
 8000790:	af00      	add	r7, sp, #0
 8000792:	6078      	str	r0, [r7, #4]
 8000794:	687b      	ldr	r3, [r7, #4]
 8000796:	891b      	ldrh	r3, [r3, #8]
 8000798:	813b      	strh	r3, [r7, #8]
 800079a:	2301      	movs	r3, #1
 800079c:	72bb      	strb	r3, [r7, #10]
 800079e:	687b      	ldr	r3, [r7, #4]
 80007a0:	685b      	ldr	r3, [r3, #4]
 80007a2:	f107 0208 	add.w	r2, r7, #8
 80007a6:	4611      	mov	r1, r2
 80007a8:	4618      	mov	r0, r3
 80007aa:	f7ff fea3 	bl	80004f4 <MCAL_GPIO_Init>
 80007ae:	687b      	ldr	r3, [r7, #4]
 80007b0:	881b      	ldrh	r3, [r3, #0]
 80007b2:	089b      	lsrs	r3, r3, #2
 80007b4:	b29b      	uxth	r3, r3
 80007b6:	73fb      	strb	r3, [r7, #15]
 80007b8:	687b      	ldr	r3, [r7, #4]
 80007ba:	881b      	ldrh	r3, [r3, #0]
 80007bc:	b2db      	uxtb	r3, r3
 80007be:	f003 0303 	and.w	r3, r3, #3
 80007c2:	b2db      	uxtb	r3, r3
 80007c4:	009b      	lsls	r3, r3, #2
 80007c6:	73bb      	strb	r3, [r7, #14]
 80007c8:	4a5f      	ldr	r2, [pc, #380]	; (8000948 <Update_EXTI+0x1bc>)
 80007ca:	7bfb      	ldrb	r3, [r7, #15]
 80007cc:	3302      	adds	r3, #2
 80007ce:	f852 2023 	ldr.w	r2, [r2, r3, lsl #2]
 80007d2:	7bbb      	ldrb	r3, [r7, #14]
 80007d4:	210f      	movs	r1, #15
 80007d6:	fa01 f303 	lsl.w	r3, r1, r3
 80007da:	43db      	mvns	r3, r3
 80007dc:	4618      	mov	r0, r3
 80007de:	495a      	ldr	r1, [pc, #360]	; (8000948 <Update_EXTI+0x1bc>)
 80007e0:	7bfb      	ldrb	r3, [r7, #15]
 80007e2:	4002      	ands	r2, r0
 80007e4:	3302      	adds	r3, #2
 80007e6:	f841 2023 	str.w	r2, [r1, r3, lsl #2]
 80007ea:	4a57      	ldr	r2, [pc, #348]	; (8000948 <Update_EXTI+0x1bc>)
 80007ec:	7bfb      	ldrb	r3, [r7, #15]
 80007ee:	3302      	adds	r3, #2
 80007f0:	f852 2023 	ldr.w	r2, [r2, r3, lsl #2]
 80007f4:	687b      	ldr	r3, [r7, #4]
 80007f6:	685b      	ldr	r3, [r3, #4]
 80007f8:	4954      	ldr	r1, [pc, #336]	; (800094c <Update_EXTI+0x1c0>)
 80007fa:	428b      	cmp	r3, r1
 80007fc:	d016      	beq.n	800082c <Update_EXTI+0xa0>
 80007fe:	687b      	ldr	r3, [r7, #4]
 8000800:	685b      	ldr	r3, [r3, #4]
 8000802:	4953      	ldr	r1, [pc, #332]	; (8000950 <Update_EXTI+0x1c4>)
 8000804:	428b      	cmp	r3, r1
 8000806:	d00f      	beq.n	8000828 <Update_EXTI+0x9c>
 8000808:	687b      	ldr	r3, [r7, #4]
 800080a:	685b      	ldr	r3, [r3, #4]
 800080c:	4951      	ldr	r1, [pc, #324]	; (8000954 <Update_EXTI+0x1c8>)
 800080e:	428b      	cmp	r3, r1
 8000810:	d008      	beq.n	8000824 <Update_EXTI+0x98>
 8000812:	687b      	ldr	r3, [r7, #4]
 8000814:	685b      	ldr	r3, [r3, #4]
 8000816:	4950      	ldr	r1, [pc, #320]	; (8000958 <Update_EXTI+0x1cc>)
 8000818:	428b      	cmp	r3, r1
 800081a:	d101      	bne.n	8000820 <Update_EXTI+0x94>
 800081c:	2303      	movs	r3, #3
 800081e:	e006      	b.n	800082e <Update_EXTI+0xa2>
 8000820:	2300      	movs	r3, #0
 8000822:	e004      	b.n	800082e <Update_EXTI+0xa2>
 8000824:	2302      	movs	r3, #2
 8000826:	e002      	b.n	800082e <Update_EXTI+0xa2>
 8000828:	2301      	movs	r3, #1
 800082a:	e000      	b.n	800082e <Update_EXTI+0xa2>
 800082c:	2300      	movs	r3, #0
 800082e:	7bb9      	ldrb	r1, [r7, #14]
 8000830:	408b      	lsls	r3, r1
 8000832:	4618      	mov	r0, r3
 8000834:	4944      	ldr	r1, [pc, #272]	; (8000948 <Update_EXTI+0x1bc>)
 8000836:	7bfb      	ldrb	r3, [r7, #15]
 8000838:	4302      	orrs	r2, r0
 800083a:	3302      	adds	r3, #2
 800083c:	f841 2023 	str.w	r2, [r1, r3, lsl #2]
 8000840:	4b46      	ldr	r3, [pc, #280]	; (800095c <Update_EXTI+0x1d0>)
 8000842:	689b      	ldr	r3, [r3, #8]
 8000844:	687a      	ldr	r2, [r7, #4]
 8000846:	8812      	ldrh	r2, [r2, #0]
 8000848:	4611      	mov	r1, r2
 800084a:	2201      	movs	r2, #1
 800084c:	408a      	lsls	r2, r1
 800084e:	43d2      	mvns	r2, r2
 8000850:	4611      	mov	r1, r2
 8000852:	4a42      	ldr	r2, [pc, #264]	; (800095c <Update_EXTI+0x1d0>)
 8000854:	400b      	ands	r3, r1
 8000856:	6093      	str	r3, [r2, #8]
 8000858:	4b40      	ldr	r3, [pc, #256]	; (800095c <Update_EXTI+0x1d0>)
 800085a:	68db      	ldr	r3, [r3, #12]
 800085c:	687a      	ldr	r2, [r7, #4]
 800085e:	8812      	ldrh	r2, [r2, #0]
 8000860:	4611      	mov	r1, r2
 8000862:	2201      	movs	r2, #1
 8000864:	408a      	lsls	r2, r1
 8000866:	43d2      	mvns	r2, r2
 8000868:	4611      	mov	r1, r2
 800086a:	4a3c      	ldr	r2, [pc, #240]	; (800095c <Update_EXTI+0x1d0>)
 800086c:	400b      	ands	r3, r1
 800086e:	60d3      	str	r3, [r2, #12]
 8000870:	687b      	ldr	r3, [r7, #4]
 8000872:	7b1b      	ldrb	r3, [r3, #12]
 8000874:	2b00      	cmp	r3, #0
 8000876:	d10b      	bne.n	8000890 <Update_EXTI+0x104>
 8000878:	4b38      	ldr	r3, [pc, #224]	; (800095c <Update_EXTI+0x1d0>)
 800087a:	689b      	ldr	r3, [r3, #8]
 800087c:	687a      	ldr	r2, [r7, #4]
 800087e:	8812      	ldrh	r2, [r2, #0]
 8000880:	4611      	mov	r1, r2
 8000882:	2201      	movs	r2, #1
 8000884:	408a      	lsls	r2, r1
 8000886:	4611      	mov	r1, r2
 8000888:	4a34      	ldr	r2, [pc, #208]	; (800095c <Update_EXTI+0x1d0>)
 800088a:	430b      	orrs	r3, r1
 800088c:	6093      	str	r3, [r2, #8]
 800088e:	e029      	b.n	80008e4 <Update_EXTI+0x158>
 8000890:	687b      	ldr	r3, [r7, #4]
 8000892:	7b1b      	ldrb	r3, [r3, #12]
 8000894:	2b01      	cmp	r3, #1
 8000896:	d10b      	bne.n	80008b0 <Update_EXTI+0x124>
 8000898:	4b30      	ldr	r3, [pc, #192]	; (800095c <Update_EXTI+0x1d0>)
 800089a:	68db      	ldr	r3, [r3, #12]
 800089c:	687a      	ldr	r2, [r7, #4]
 800089e:	8812      	ldrh	r2, [r2, #0]
 80008a0:	4611      	mov	r1, r2
 80008a2:	2201      	movs	r2, #1
 80008a4:	408a      	lsls	r2, r1
 80008a6:	4611      	mov	r1, r2
 80008a8:	4a2c      	ldr	r2, [pc, #176]	; (800095c <Update_EXTI+0x1d0>)
 80008aa:	430b      	orrs	r3, r1
 80008ac:	60d3      	str	r3, [r2, #12]
 80008ae:	e019      	b.n	80008e4 <Update_EXTI+0x158>
 80008b0:	687b      	ldr	r3, [r7, #4]
 80008b2:	7b1b      	ldrb	r3, [r3, #12]
 80008b4:	2b02      	cmp	r3, #2
 80008b6:	d115      	bne.n	80008e4 <Update_EXTI+0x158>
 80008b8:	4b28      	ldr	r3, [pc, #160]	; (800095c <Update_EXTI+0x1d0>)
 80008ba:	689b      	ldr	r3, [r3, #8]
 80008bc:	687a      	ldr	r2, [r7, #4]
 80008be:	8812      	ldrh	r2, [r2, #0]
 80008c0:	4611      	mov	r1, r2
 80008c2:	2201      	movs	r2, #1
 80008c4:	408a      	lsls	r2, r1
 80008c6:	4611      	mov	r1, r2
 80008c8:	4a24      	ldr	r2, [pc, #144]	; (800095c <Update_EXTI+0x1d0>)
 80008ca:	430b      	orrs	r3, r1
 80008cc:	6093      	str	r3, [r2, #8]
 80008ce:	4b23      	ldr	r3, [pc, #140]	; (800095c <Update_EXTI+0x1d0>)
 80008d0:	68db      	ldr	r3, [r3, #12]
 80008d2:	687a      	ldr	r2, [r7, #4]
 80008d4:	8812      	ldrh	r2, [r2, #0]
 80008d6:	4611      	mov	r1, r2
 80008d8:	2201      	movs	r2, #1
 80008da:	408a      	lsls	r2, r1
 80008dc:	4611      	mov	r1, r2
 80008de:	4a1f      	ldr	r2, [pc, #124]	; (800095c <Update_EXTI+0x1d0>)
 80008e0:	430b      	orrs	r3, r1
 80008e2:	60d3      	str	r3, [r2, #12]
 80008e4:	687b      	ldr	r3, [r7, #4]
 80008e6:	881b      	ldrh	r3, [r3, #0]
 80008e8:	4619      	mov	r1, r3
 80008ea:	687b      	ldr	r3, [r7, #4]
 80008ec:	691b      	ldr	r3, [r3, #16]
 80008ee:	4a1c      	ldr	r2, [pc, #112]	; (8000960 <Update_EXTI+0x1d4>)
 80008f0:	f842 3021 	str.w	r3, [r2, r1, lsl #2]
 80008f4:	687b      	ldr	r3, [r7, #4]
 80008f6:	7b5b      	ldrb	r3, [r3, #13]
 80008f8:	2b00      	cmp	r3, #0
 80008fa:	d110      	bne.n	800091e <Update_EXTI+0x192>
 80008fc:	4b17      	ldr	r3, [pc, #92]	; (800095c <Update_EXTI+0x1d0>)
 80008fe:	681b      	ldr	r3, [r3, #0]
 8000900:	687a      	ldr	r2, [r7, #4]
 8000902:	8812      	ldrh	r2, [r2, #0]
 8000904:	4611      	mov	r1, r2
 8000906:	2201      	movs	r2, #1
 8000908:	408a      	lsls	r2, r1
 800090a:	4611      	mov	r1, r2
 800090c:	4a13      	ldr	r2, [pc, #76]	; (800095c <Update_EXTI+0x1d0>)
 800090e:	430b      	orrs	r3, r1
 8000910:	6013      	str	r3, [r2, #0]
 8000912:	687b      	ldr	r3, [r7, #4]
 8000914:	881b      	ldrh	r3, [r3, #0]
 8000916:	4618      	mov	r0, r3
 8000918:	f7ff fe6c 	bl	80005f4 <Enable_NVIC>
 800091c:	e010      	b.n	8000940 <Update_EXTI+0x1b4>
 800091e:	4b0f      	ldr	r3, [pc, #60]	; (800095c <Update_EXTI+0x1d0>)
 8000920:	681b      	ldr	r3, [r3, #0]
 8000922:	687a      	ldr	r2, [r7, #4]
 8000924:	8812      	ldrh	r2, [r2, #0]
 8000926:	4611      	mov	r1, r2
 8000928:	2201      	movs	r2, #1
 800092a:	408a      	lsls	r2, r1
 800092c:	43d2      	mvns	r2, r2
 800092e:	4611      	mov	r1, r2
 8000930:	4a0a      	ldr	r2, [pc, #40]	; (800095c <Update_EXTI+0x1d0>)
 8000932:	400b      	ands	r3, r1
 8000934:	6013      	str	r3, [r2, #0]
 8000936:	687b      	ldr	r3, [r7, #4]
 8000938:	881b      	ldrh	r3, [r3, #0]
 800093a:	4618      	mov	r0, r3
 800093c:	f7ff fec0 	bl	80006c0 <Disable_NVIC>
 8000940:	bf00      	nop
 8000942:	3710      	adds	r7, #16
 8000944:	46bd      	mov	sp, r7
 8000946:	bd80      	pop	{r7, pc}
 8000948:	40010000 	andmi	r0, r1, r0
 800094c:	40010800 	andmi	r0, r1, r0, lsl #16
 8000950:	40010c00 	andmi	r0, r1, r0, lsl #24
 8000954:	40011000 	andmi	r1, r1, r0
 8000958:	40011400 	andmi	r1, r1, r0, lsl #8
 800095c:	40010400 	andmi	r0, r1, r0, lsl #8
 8000960:	20000040 	andcs	r0, r0, r0, asr #32

08000964 <MCAL_EXTI_GPIO_Init>:
 8000964:	b580      	push	{r7, lr}
 8000966:	b082      	sub	sp, #8
 8000968:	af00      	add	r7, sp, #0
 800096a:	6078      	str	r0, [r7, #4]
 800096c:	6878      	ldr	r0, [r7, #4]
 800096e:	f7ff ff0d 	bl	800078c <Update_EXTI>
 8000972:	bf00      	nop
 8000974:	3708      	adds	r7, #8
 8000976:	46bd      	mov	sp, r7
 8000978:	bd80      	pop	{r7, pc}
	...

0800097c <EXTI0_IRQHandler>:
 800097c:	b580      	push	{r7, lr}
 800097e:	af00      	add	r7, sp, #0
 8000980:	4b05      	ldr	r3, [pc, #20]	; (8000998 <EXTI0_IRQHandler+0x1c>)
 8000982:	695b      	ldr	r3, [r3, #20]
 8000984:	4a04      	ldr	r2, [pc, #16]	; (8000998 <EXTI0_IRQHandler+0x1c>)
 8000986:	f043 0301 	orr.w	r3, r3, #1
 800098a:	6153      	str	r3, [r2, #20]
 800098c:	4b03      	ldr	r3, [pc, #12]	; (800099c <EXTI0_IRQHandler+0x20>)
 800098e:	681b      	ldr	r3, [r3, #0]
 8000990:	4798      	blx	r3
 8000992:	bf00      	nop
 8000994:	bd80      	pop	{r7, pc}
 8000996:	bf00      	nop
 8000998:	40010400 	andmi	r0, r1, r0, lsl #8
 800099c:	20000040 	andcs	r0, r0, r0, asr #32

080009a0 <EXTI1_IRQHandler>:
 80009a0:	b580      	push	{r7, lr}
 80009a2:	af00      	add	r7, sp, #0
 80009a4:	4b05      	ldr	r3, [pc, #20]	; (80009bc <EXTI1_IRQHandler+0x1c>)
 80009a6:	695b      	ldr	r3, [r3, #20]
 80009a8:	4a04      	ldr	r2, [pc, #16]	; (80009bc <EXTI1_IRQHandler+0x1c>)
 80009aa:	f043 0302 	orr.w	r3, r3, #2
 80009ae:	6153      	str	r3, [r2, #20]
 80009b0:	4b03      	ldr	r3, [pc, #12]	; (80009c0 <EXTI1_IRQHandler+0x20>)
 80009b2:	685b      	ldr	r3, [r3, #4]
 80009b4:	4798      	blx	r3
 80009b6:	bf00      	nop
 80009b8:	bd80      	pop	{r7, pc}
 80009ba:	bf00      	nop
 80009bc:	40010400 	andmi	r0, r1, r0, lsl #8
 80009c0:	20000040 	andcs	r0, r0, r0, asr #32

080009c4 <EXTI2_IRQHandler>:
 80009c4:	b580      	push	{r7, lr}
 80009c6:	af00      	add	r7, sp, #0
 80009c8:	4b05      	ldr	r3, [pc, #20]	; (80009e0 <EXTI2_IRQHandler+0x1c>)
 80009ca:	695b      	ldr	r3, [r3, #20]
 80009cc:	4a04      	ldr	r2, [pc, #16]	; (80009e0 <EXTI2_IRQHandler+0x1c>)
 80009ce:	f043 0304 	orr.w	r3, r3, #4
 80009d2:	6153      	str	r3, [r2, #20]
 80009d4:	4b03      	ldr	r3, [pc, #12]	; (80009e4 <EXTI2_IRQHandler+0x20>)
 80009d6:	689b      	ldr	r3, [r3, #8]
 80009d8:	4798      	blx	r3
 80009da:	bf00      	nop
 80009dc:	bd80      	pop	{r7, pc}
 80009de:	bf00      	nop
 80009e0:	40010400 	andmi	r0, r1, r0, lsl #8
 80009e4:	20000040 	andcs	r0, r0, r0, asr #32

080009e8 <EXTI3_IRQHandler>:
 80009e8:	b580      	push	{r7, lr}
 80009ea:	af00      	add	r7, sp, #0
 80009ec:	4b05      	ldr	r3, [pc, #20]	; (8000a04 <EXTI3_IRQHandler+0x1c>)
 80009ee:	695b      	ldr	r3, [r3, #20]
 80009f0:	4a04      	ldr	r2, [pc, #16]	; (8000a04 <EXTI3_IRQHandler+0x1c>)
 80009f2:	f043 0308 	orr.w	r3, r3, #8
 80009f6:	6153      	str	r3, [r2, #20]
 80009f8:	4b03      	ldr	r3, [pc, #12]	; (8000a08 <EXTI3_IRQHandler+0x20>)
 80009fa:	68db      	ldr	r3, [r3, #12]
 80009fc:	4798      	blx	r3
 80009fe:	bf00      	nop
 8000a00:	bd80      	pop	{r7, pc}
 8000a02:	bf00      	nop
 8000a04:	40010400 	andmi	r0, r1, r0, lsl #8
 8000a08:	20000040 	andcs	r0, r0, r0, asr #32

08000a0c <EXTI4_IRQHandler>:
 8000a0c:	b580      	push	{r7, lr}
 8000a0e:	af00      	add	r7, sp, #0
 8000a10:	4b05      	ldr	r3, [pc, #20]	; (8000a28 <EXTI4_IRQHandler+0x1c>)
 8000a12:	695b      	ldr	r3, [r3, #20]
 8000a14:	4a04      	ldr	r2, [pc, #16]	; (8000a28 <EXTI4_IRQHandler+0x1c>)
 8000a16:	f043 0310 	orr.w	r3, r3, #16
 8000a1a:	6153      	str	r3, [r2, #20]
 8000a1c:	4b03      	ldr	r3, [pc, #12]	; (8000a2c <EXTI4_IRQHandler+0x20>)
 8000a1e:	691b      	ldr	r3, [r3, #16]
 8000a20:	4798      	blx	r3
 8000a22:	bf00      	nop
 8000a24:	bd80      	pop	{r7, pc}
 8000a26:	bf00      	nop
 8000a28:	40010400 	andmi	r0, r1, r0, lsl #8
 8000a2c:	20000040 	andcs	r0, r0, r0, asr #32

08000a30 <EXTI9_5_IRQHandler>:
 8000a30:	b580      	push	{r7, lr}
 8000a32:	af00      	add	r7, sp, #0
 8000a34:	4b26      	ldr	r3, [pc, #152]	; (8000ad0 <EXTI9_5_IRQHandler+0xa0>)
 8000a36:	695b      	ldr	r3, [r3, #20]
 8000a38:	f003 0320 	and.w	r3, r3, #32
 8000a3c:	2b00      	cmp	r3, #0
 8000a3e:	d008      	beq.n	8000a52 <EXTI9_5_IRQHandler+0x22>
 8000a40:	4b23      	ldr	r3, [pc, #140]	; (8000ad0 <EXTI9_5_IRQHandler+0xa0>)
 8000a42:	695b      	ldr	r3, [r3, #20]
 8000a44:	4a22      	ldr	r2, [pc, #136]	; (8000ad0 <EXTI9_5_IRQHandler+0xa0>)
 8000a46:	f043 0320 	orr.w	r3, r3, #32
 8000a4a:	6153      	str	r3, [r2, #20]
 8000a4c:	4b21      	ldr	r3, [pc, #132]	; (8000ad4 <EXTI9_5_IRQHandler+0xa4>)
 8000a4e:	695b      	ldr	r3, [r3, #20]
 8000a50:	4798      	blx	r3
 8000a52:	4b1f      	ldr	r3, [pc, #124]	; (8000ad0 <EXTI9_5_IRQHandler+0xa0>)
 8000a54:	695b      	ldr	r3, [r3, #20]
 8000a56:	f003 0340 	and.w	r3, r3, #64	; 0x40
 8000a5a:	2b00      	cmp	r3, #0
 8000a5c:	d008      	beq.n	8000a70 <EXTI9_5_IRQHandler+0x40>
 8000a5e:	4b1c      	ldr	r3, [pc, #112]	; (8000ad0 <EXTI9_5_IRQHandler+0xa0>)
 8000a60:	695b      	ldr	r3, [r3, #20]
 8000a62:	4a1b      	ldr	r2, [pc, #108]	; (8000ad0 <EXTI9_5_IRQHandler+0xa0>)
 8000a64:	f043 0340 	orr.w	r3, r3, #64	; 0x40
 8000a68:	6153      	str	r3, [r2, #20]
 8000a6a:	4b1a      	ldr	r3, [pc, #104]	; (8000ad4 <EXTI9_5_IRQHandler+0xa4>)
 8000a6c:	699b      	ldr	r3, [r3, #24]
 8000a6e:	4798      	blx	r3
 8000a70:	4b17      	ldr	r3, [pc, #92]	; (8000ad0 <EXTI9_5_IRQHandler+0xa0>)
 8000a72:	695b      	ldr	r3, [r3, #20]
 8000a74:	f003 0380 	and.w	r3, r3, #128	; 0x80
 8000a78:	2b00      	cmp	r3, #0
 8000a7a:	d008      	beq.n	8000a8e <EXTI9_5_IRQHandler+0x5e>
 8000a7c:	4b14      	ldr	r3, [pc, #80]	; (8000ad0 <EXTI9_5_IRQHandler+0xa0>)
 8000a7e:	695b      	ldr	r3, [r3, #20]
 8000a80:	4a13      	ldr	r2, [pc, #76]	; (8000ad0 <EXTI9_5_IRQHandler+0xa0>)
 8000a82:	f043 0380 	orr.w	r3, r3, #128	; 0x80
 8000a86:	6153      	str	r3, [r2, #20]
 8000a88:	4b12      	ldr	r3, [pc, #72]	; (8000ad4 <EXTI9_5_IRQHandler+0xa4>)
 8000a8a:	69db      	ldr	r3, [r3, #28]
 8000a8c:	4798      	blx	r3
 8000a8e:	4b10      	ldr	r3, [pc, #64]	; (8000ad0 <EXTI9_5_IRQHandler+0xa0>)
 8000a90:	695b      	ldr	r3, [r3, #20]
 8000a92:	f403 7380 	and.w	r3, r3, #256	; 0x100
 8000a96:	2b00      	cmp	r3, #0
 8000a98:	d008      	beq.n	8000aac <EXTI9_5_IRQHandler+0x7c>
 8000a9a:	4b0d      	ldr	r3, [pc, #52]	; (8000ad0 <EXTI9_5_IRQHandler+0xa0>)
 8000a9c:	695b      	ldr	r3, [r3, #20]
 8000a9e:	4a0c      	ldr	r2, [pc, #48]	; (8000ad0 <EXTI9_5_IRQHandler+0xa0>)
 8000aa0:	f443 7380 	orr.w	r3, r3, #256	; 0x100
 8000aa4:	6153      	str	r3, [r2, #20]
 8000aa6:	4b0b      	ldr	r3, [pc, #44]	; (8000ad4 <EXTI9_5_IRQHandler+0xa4>)
 8000aa8:	6a1b      	ldr	r3, [r3, #32]
 8000aaa:	4798      	blx	r3
 8000aac:	4b08      	ldr	r3, [pc, #32]	; (8000ad0 <EXTI9_5_IRQHandler+0xa0>)
 8000aae:	695b      	ldr	r3, [r3, #20]
 8000ab0:	f403 7300 	and.w	r3, r3, #512	; 0x200
 8000ab4:	2b00      	cmp	r3, #0
 8000ab6:	d008      	beq.n	8000aca <EXTI9_5_IRQHandler+0x9a>
 8000ab8:	4b05      	ldr	r3, [pc, #20]	; (8000ad0 <EXTI9_5_IRQHandler+0xa0>)
 8000aba:	695b      	ldr	r3, [r3, #20]
 8000abc:	4a04      	ldr	r2, [pc, #16]	; (8000ad0 <EXTI9_5_IRQHandler+0xa0>)
 8000abe:	f443 7300 	orr.w	r3, r3, #512	; 0x200
 8000ac2:	6153      	str	r3, [r2, #20]
 8000ac4:	4b03      	ldr	r3, [pc, #12]	; (8000ad4 <EXTI9_5_IRQHandler+0xa4>)
 8000ac6:	6a5b      	ldr	r3, [r3, #36]	; 0x24
 8000ac8:	4798      	blx	r3
 8000aca:	bf00      	nop
 8000acc:	bd80      	pop	{r7, pc}
 8000ace:	bf00      	nop
 8000ad0:	40010400 	andmi	r0, r1, r0, lsl #8
 8000ad4:	20000040 	andcs	r0, r0, r0, asr #32

08000ad8 <EXTI15_10_IRQHandler>:
 8000ad8:	b580      	push	{r7, lr}
 8000ada:	af00      	add	r7, sp, #0
 8000adc:	4b2d      	ldr	r3, [pc, #180]	; (8000b94 <EXTI15_10_IRQHandler+0xbc>)
 8000ade:	695b      	ldr	r3, [r3, #20]
 8000ae0:	f403 6380 	and.w	r3, r3, #1024	; 0x400
 8000ae4:	2b00      	cmp	r3, #0
 8000ae6:	d008      	beq.n	8000afa <EXTI15_10_IRQHandler+0x22>
 8000ae8:	4b2a      	ldr	r3, [pc, #168]	; (8000b94 <EXTI15_10_IRQHandler+0xbc>)
 8000aea:	695b      	ldr	r3, [r3, #20]
 8000aec:	4a29      	ldr	r2, [pc, #164]	; (8000b94 <EXTI15_10_IRQHandler+0xbc>)
 8000aee:	f443 6380 	orr.w	r3, r3, #1024	; 0x400
 8000af2:	6153      	str	r3, [r2, #20]
 8000af4:	4b28      	ldr	r3, [pc, #160]	; (8000b98 <EXTI15_10_IRQHandler+0xc0>)
 8000af6:	6a9b      	ldr	r3, [r3, #40]	; 0x28
 8000af8:	4798      	blx	r3
 8000afa:	4b26      	ldr	r3, [pc, #152]	; (8000b94 <EXTI15_10_IRQHandler+0xbc>)
 8000afc:	695b      	ldr	r3, [r3, #20]
 8000afe:	f403 6300 	and.w	r3, r3, #2048	; 0x800
 8000b02:	2b00      	cmp	r3, #0
 8000b04:	d008      	beq.n	8000b18 <EXTI15_10_IRQHandler+0x40>
 8000b06:	4b23      	ldr	r3, [pc, #140]	; (8000b94 <EXTI15_10_IRQHandler+0xbc>)
 8000b08:	695b      	ldr	r3, [r3, #20]
 8000b0a:	4a22      	ldr	r2, [pc, #136]	; (8000b94 <EXTI15_10_IRQHandler+0xbc>)
 8000b0c:	f443 6300 	orr.w	r3, r3, #2048	; 0x800
 8000b10:	6153      	str	r3, [r2, #20]
 8000b12:	4b21      	ldr	r3, [pc, #132]	; (8000b98 <EXTI15_10_IRQHandler+0xc0>)
 8000b14:	6adb      	ldr	r3, [r3, #44]	; 0x2c
 8000b16:	4798      	blx	r3
 8000b18:	4b1e      	ldr	r3, [pc, #120]	; (8000b94 <EXTI15_10_IRQHandler+0xbc>)
 8000b1a:	695b      	ldr	r3, [r3, #20]
 8000b1c:	f403 5380 	and.w	r3, r3, #4096	; 0x1000
 8000b20:	2b00      	cmp	r3, #0
 8000b22:	d008      	beq.n	8000b36 <EXTI15_10_IRQHandler+0x5e>
 8000b24:	4b1b      	ldr	r3, [pc, #108]	; (8000b94 <EXTI15_10_IRQHandler+0xbc>)
 8000b26:	695b      	ldr	r3, [r3, #20]
 8000b28:	4a1a      	ldr	r2, [pc, #104]	; (8000b94 <EXTI15_10_IRQHandler+0xbc>)
 8000b2a:	f443 5380 	orr.w	r3, r3, #4096	; 0x1000
 8000b2e:	6153      	str	r3, [r2, #20]
 8000b30:	4b19      	ldr	r3, [pc, #100]	; (8000b98 <EXTI15_10_IRQHandler+0xc0>)
 8000b32:	6b1b      	ldr	r3, [r3, #48]	; 0x30
 8000b34:	4798      	blx	r3
 8000b36:	4b17      	ldr	r3, [pc, #92]	; (8000b94 <EXTI15_10_IRQHandler+0xbc>)
 8000b38:	695b      	ldr	r3, [r3, #20]
 8000b3a:	f403 5300 	and.w	r3, r3, #8192	; 0x2000
 8000b3e:	2b00      	cmp	r3, #0
 8000b40:	d008      	beq.n	8000b54 <EXTI15_10_IRQHandler+0x7c>
 8000b42:	4b14      	ldr	r3, [pc, #80]	; (8000b94 <EXTI15_10_IRQHandler+0xbc>)
 8000b44:	695b      	ldr	r3, [r3, #20]
 8000b46:	4a13      	ldr	r2, [pc, #76]	; (8000b94 <EXTI15_10_IRQHandler+0xbc>)
 8000b48:	f443 5300 	orr.w	r3, r3, #8192	; 0x2000
 8000b4c:	6153      	str	r3, [r2, #20]
 8000b4e:	4b12      	ldr	r3, [pc, #72]	; (8000b98 <EXTI15_10_IRQHandler+0xc0>)
 8000b50:	6b5b      	ldr	r3, [r3, #52]	; 0x34
 8000b52:	4798      	blx	r3
 8000b54:	4b0f      	ldr	r3, [pc, #60]	; (8000b94 <EXTI15_10_IRQHandler+0xbc>)
 8000b56:	695b      	ldr	r3, [r3, #20]
 8000b58:	f403 4380 	and.w	r3, r3, #16384	; 0x4000
 8000b5c:	2b00      	cmp	r3, #0
 8000b5e:	d008      	beq.n	8000b72 <EXTI15_10_IRQHandler+0x9a>
 8000b60:	4b0c      	ldr	r3, [pc, #48]	; (8000b94 <EXTI15_10_IRQHandler+0xbc>)
 8000b62:	695b      	ldr	r3, [r3, #20]
 8000b64:	4a0b      	ldr	r2, [pc, #44]	; (8000b94 <EXTI15_10_IRQHandler+0xbc>)
 8000b66:	f443 4380 	orr.w	r3, r3, #16384	; 0x4000
 8000b6a:	6153      	str	r3, [r2, #20]
 8000b6c:	4b0a      	ldr	r3, [pc, #40]	; (8000b98 <EXTI15_10_IRQHandler+0xc0>)
 8000b6e:	6b9b      	ldr	r3, [r3, #56]	; 0x38
 8000b70:	4798      	blx	r3
 8000b72:	4b08      	ldr	r3, [pc, #32]	; (8000b94 <EXTI15_10_IRQHandler+0xbc>)
 8000b74:	695b      	ldr	r3, [r3, #20]
 8000b76:	f403 4380 	and.w	r3, r3, #16384	; 0x4000
 8000b7a:	2b00      	cmp	r3, #0
 8000b7c:	d008      	beq.n	8000b90 <EXTI15_10_IRQHandler+0xb8>
 8000b7e:	4b05      	ldr	r3, [pc, #20]	; (8000b94 <EXTI15_10_IRQHandler+0xbc>)
 8000b80:	695b      	ldr	r3, [r3, #20]
 8000b82:	4a04      	ldr	r2, [pc, #16]	; (8000b94 <EXTI15_10_IRQHandler+0xbc>)
 8000b84:	f443 4300 	orr.w	r3, r3, #32768	; 0x8000
 8000b88:	6153      	str	r3, [r2, #20]
 8000b8a:	4b03      	ldr	r3, [pc, #12]	; (8000b98 <EXTI15_10_IRQHandler+0xc0>)
 8000b8c:	6bdb      	ldr	r3, [r3, #60]	; 0x3c
 8000b8e:	4798      	blx	r3
 8000b90:	bf00      	nop
 8000b92:	bd80      	pop	{r7, pc}
 8000b94:	40010400 	andmi	r0, r1, r0, lsl #8
 8000b98:	20000040 	andcs	r0, r0, r0, asr #32

08000b9c <__libc_init_array>:
 8000b9c:	b570      	push	{r4, r5, r6, lr}
 8000b9e:	2500      	movs	r5, #0
 8000ba0:	4e0c      	ldr	r6, [pc, #48]	; (8000bd4 <__libc_init_array+0x38>)
 8000ba2:	4c0d      	ldr	r4, [pc, #52]	; (8000bd8 <__libc_init_array+0x3c>)
 8000ba4:	1ba4      	subs	r4, r4, r6
 8000ba6:	10a4      	asrs	r4, r4, #2
 8000ba8:	42a5      	cmp	r5, r4
 8000baa:	d109      	bne.n	8000bc0 <__libc_init_array+0x24>
 8000bac:	f000 f81a 	bl	8000be4 <_init>
 8000bb0:	2500      	movs	r5, #0
 8000bb2:	4e0a      	ldr	r6, [pc, #40]	; (8000bdc <__libc_init_array+0x40>)
 8000bb4:	4c0a      	ldr	r4, [pc, #40]	; (8000be0 <__libc_init_array+0x44>)
 8000bb6:	1ba4      	subs	r4, r4, r6
 8000bb8:	10a4      	asrs	r4, r4, #2
 8000bba:	42a5      	cmp	r5, r4
 8000bbc:	d105      	bne.n	8000bca <__libc_init_array+0x2e>
 8000bbe:	bd70      	pop	{r4, r5, r6, pc}
 8000bc0:	f856 3025 	ldr.w	r3, [r6, r5, lsl #2]
 8000bc4:	4798      	blx	r3
 8000bc6:	3501      	adds	r5, #1
 8000bc8:	e7ee      	b.n	8000ba8 <__libc_init_array+0xc>
 8000bca:	f856 3025 	ldr.w	r3, [r6, r5, lsl #2]
 8000bce:	4798      	blx	r3
 8000bd0:	3501      	adds	r5, #1
 8000bd2:	e7f2      	b.n	8000bba <__libc_init_array+0x1e>
 8000bd4:	08000c08 	stmdaeq	r0, {r3, sl, fp}
 8000bd8:	08000c08 	stmdaeq	r0, {r3, sl, fp}
 8000bdc:	08000c08 	stmdaeq	r0, {r3, sl, fp}
 8000be0:	08000c0c 	stmdaeq	r0, {r2, r3, sl, fp}

08000be4 <_init>:
 8000be4:	b5f8      	push	{r3, r4, r5, r6, r7, lr}
 8000be6:	bf00      	nop
 8000be8:	bcf8      	pop	{r3, r4, r5, r6, r7}
 8000bea:	bc08      	pop	{r3}
 8000bec:	469e      	mov	lr, r3
 8000bee:	4770      	bx	lr

08000bf0 <_fini>:
 8000bf0:	b5f8      	push	{r3, r4, r5, r6, r7, lr}
 8000bf2:	bf00      	nop
 8000bf4:	bcf8      	pop	{r3, r4, r5, r6, r7}
 8000bf6:	bc08      	pop	{r3}
 8000bf8:	469e      	mov	lr, r3
 8000bfa:	4770      	bx	lr
