
Drivers.axf:     file format elf32-littlearm


Disassembly of section .isr_vector:

08000000 <g_pfnVectors>:
 8000000:	20002800 	andcs	r2, r0, r0, lsl #16
 8000004:	08000261 	stmdaeq	r0, {r0, r5, r6, r9}
 8000008:	080002b1 	stmdaeq	r0, {r0, r4, r5, r7, r9}
 800000c:	080002b1 	stmdaeq	r0, {r0, r4, r5, r7, r9}
 8000010:	080002b1 	stmdaeq	r0, {r0, r4, r5, r7, r9}
 8000014:	080002b1 	stmdaeq	r0, {r0, r4, r5, r7, r9}
 8000018:	080002b1 	stmdaeq	r0, {r0, r4, r5, r7, r9}
	...
 800002c:	080002b1 	stmdaeq	r0, {r0, r4, r5, r7, r9}
 8000030:	080002b1 	stmdaeq	r0, {r0, r4, r5, r7, r9}
 8000034:	00000000 	andeq	r0, r0, r0
 8000038:	080002b1 	stmdaeq	r0, {r0, r4, r5, r7, r9}
 800003c:	080002b1 	stmdaeq	r0, {r0, r4, r5, r7, r9}
 8000040:	080002b1 	stmdaeq	r0, {r0, r4, r5, r7, r9}
 8000044:	080002b1 	stmdaeq	r0, {r0, r4, r5, r7, r9}
 8000048:	080002b1 	stmdaeq	r0, {r0, r4, r5, r7, r9}
 800004c:	080002b1 	stmdaeq	r0, {r0, r4, r5, r7, r9}
 8000050:	080002b1 	stmdaeq	r0, {r0, r4, r5, r7, r9}
 8000054:	080002b1 	stmdaeq	r0, {r0, r4, r5, r7, r9}
 8000058:	08000801 	stmdaeq	r0, {r0, fp}
 800005c:	08000825 	stmdaeq	r0, {r0, r2, r5, fp}
 8000060:	08000849 	stmdaeq	r0, {r0, r3, r6, fp}
 8000064:	0800086d 	stmdaeq	r0, {r0, r2, r3, r5, r6, fp}
 8000068:	08000891 	stmdaeq	r0, {r0, r4, r7, fp}
 800006c:	080002b1 	stmdaeq	r0, {r0, r4, r5, r7, r9}
 8000070:	080002b1 	stmdaeq	r0, {r0, r4, r5, r7, r9}
 8000074:	080002b1 	stmdaeq	r0, {r0, r4, r5, r7, r9}
 8000078:	080002b1 	stmdaeq	r0, {r0, r4, r5, r7, r9}
 800007c:	080002b1 	stmdaeq	r0, {r0, r4, r5, r7, r9}
 8000080:	080002b1 	stmdaeq	r0, {r0, r4, r5, r7, r9}
 8000084:	080002b1 	stmdaeq	r0, {r0, r4, r5, r7, r9}
 8000088:	080002b1 	stmdaeq	r0, {r0, r4, r5, r7, r9}
 800008c:	080002b1 	stmdaeq	r0, {r0, r4, r5, r7, r9}
 8000090:	080002b1 	stmdaeq	r0, {r0, r4, r5, r7, r9}
 8000094:	080002b1 	stmdaeq	r0, {r0, r4, r5, r7, r9}
 8000098:	080002b1 	stmdaeq	r0, {r0, r4, r5, r7, r9}
 800009c:	080008b5 	stmdaeq	r0, {r0, r2, r4, r5, r7, fp}
 80000a0:	080002b1 	stmdaeq	r0, {r0, r4, r5, r7, r9}
 80000a4:	080002b1 	stmdaeq	r0, {r0, r4, r5, r7, r9}
 80000a8:	080002b1 	stmdaeq	r0, {r0, r4, r5, r7, r9}
 80000ac:	080002b1 	stmdaeq	r0, {r0, r4, r5, r7, r9}
 80000b0:	080002b1 	stmdaeq	r0, {r0, r4, r5, r7, r9}
 80000b4:	080002b1 	stmdaeq	r0, {r0, r4, r5, r7, r9}
 80000b8:	080002b1 	stmdaeq	r0, {r0, r4, r5, r7, r9}
 80000bc:	080002b1 	stmdaeq	r0, {r0, r4, r5, r7, r9}
 80000c0:	080002b1 	stmdaeq	r0, {r0, r4, r5, r7, r9}
 80000c4:	080002b1 	stmdaeq	r0, {r0, r4, r5, r7, r9}
 80000c8:	080002b1 	stmdaeq	r0, {r0, r4, r5, r7, r9}
 80000cc:	080002b1 	stmdaeq	r0, {r0, r4, r5, r7, r9}
 80000d0:	080002b1 	stmdaeq	r0, {r0, r4, r5, r7, r9}
 80000d4:	080002b1 	stmdaeq	r0, {r0, r4, r5, r7, r9}
 80000d8:	080002b1 	stmdaeq	r0, {r0, r4, r5, r7, r9}
 80000dc:	080002b1 	stmdaeq	r0, {r0, r4, r5, r7, r9}
 80000e0:	0800095d 	stmdaeq	r0, {r0, r2, r3, r4, r6, r8, fp}
 80000e4:	080002b1 	stmdaeq	r0, {r0, r4, r5, r7, r9}
 80000e8:	00000000 	andeq	r0, r0, r0
 80000ec:	080002b1 	stmdaeq	r0, {r0, r4, r5, r7, r9}
 80000f0:	080002b1 	stmdaeq	r0, {r0, r4, r5, r7, r9}
 80000f4:	080002b1 	stmdaeq	r0, {r0, r4, r5, r7, r9}
 80000f8:	080002b1 	stmdaeq	r0, {r0, r4, r5, r7, r9}
 80000fc:	080002b1 	stmdaeq	r0, {r0, r4, r5, r7, r9}
 8000100:	080002b1 	stmdaeq	r0, {r0, r4, r5, r7, r9}
 8000104:	080002b1 	stmdaeq	r0, {r0, r4, r5, r7, r9}
 8000108:	080002b1 	stmdaeq	r0, {r0, r4, r5, r7, r9}
 800010c:	080002b1 	stmdaeq	r0, {r0, r4, r5, r7, r9}
 8000110:	080002b1 	stmdaeq	r0, {r0, r4, r5, r7, r9}
 8000114:	080002b1 	stmdaeq	r0, {r0, r4, r5, r7, r9}
 8000118:	080002b1 	stmdaeq	r0, {r0, r4, r5, r7, r9}
 800011c:	080002b1 	stmdaeq	r0, {r0, r4, r5, r7, r9}
 8000120:	080002b1 	stmdaeq	r0, {r0, r4, r5, r7, r9}
 8000124:	080002b1 	stmdaeq	r0, {r0, r4, r5, r7, r9}
 8000128:	080002b1 	stmdaeq	r0, {r0, r4, r5, r7, r9}
 800012c:	080002b1 	stmdaeq	r0, {r0, r4, r5, r7, r9}

Disassembly of section .text:

08000130 <__do_global_dtors_aux>:
 8000130:	b510      	push	{r4, lr}
 8000132:	4c05      	ldr	r4, [pc, #20]	; (8000148 <__do_global_dtors_aux+0x18>)
 8000134:	7823      	ldrb	r3, [r4, #0]
 8000136:	b933      	cbnz	r3, 8000146 <__do_global_dtors_aux+0x16>
 8000138:	4b04      	ldr	r3, [pc, #16]	; (800014c <__do_global_dtors_aux+0x1c>)
 800013a:	b113      	cbz	r3, 8000142 <__do_global_dtors_aux+0x12>
 800013c:	4804      	ldr	r0, [pc, #16]	; (8000150 <__do_global_dtors_aux+0x20>)
 800013e:	f3af 8000 	nop.w
 8000142:	2301      	movs	r3, #1
 8000144:	7023      	strb	r3, [r4, #0]
 8000146:	bd10      	pop	{r4, pc}
 8000148:	20000008 	andcs	r0, r0, r8
 800014c:	00000000 	andeq	r0, r0, r0
 8000150:	08000a68 	stmdaeq	r0, {r3, r5, r6, r9, fp}

08000154 <frame_dummy>:
 8000154:	b508      	push	{r3, lr}
 8000156:	4b03      	ldr	r3, [pc, #12]	; (8000164 <frame_dummy+0x10>)
 8000158:	b11b      	cbz	r3, 8000162 <frame_dummy+0xe>
 800015a:	4903      	ldr	r1, [pc, #12]	; (8000168 <frame_dummy+0x14>)
 800015c:	4803      	ldr	r0, [pc, #12]	; (800016c <frame_dummy+0x18>)
 800015e:	f3af 8000 	nop.w
 8000162:	bd08      	pop	{r3, pc}
 8000164:	00000000 	andeq	r0, r0, r0
 8000168:	2000000c 	andcs	r0, r0, ip
 800016c:	08000a68 	stmdaeq	r0, {r3, r5, r6, r9, fp}

08000170 <EXTI9_Callback>:
 8000170:	b480      	push	{r7}
 8000172:	af00      	add	r7, sp, #0
 8000174:	4b05      	ldr	r3, [pc, #20]	; (800018c <EXTI9_Callback+0x1c>)
 8000176:	2201      	movs	r2, #1
 8000178:	601a      	str	r2, [r3, #0]
 800017a:	f3ef 8305 	mrs	r3, IPSR
 800017e:	4a04      	ldr	r2, [pc, #16]	; (8000190 <EXTI9_Callback+0x20>)
 8000180:	6013      	str	r3, [r2, #0]
 8000182:	bf00      	nop
 8000184:	46bd      	mov	sp, r7
 8000186:	bc80      	pop	{r7}
 8000188:	4770      	bx	lr
 800018a:	bf00      	nop
 800018c:	2000002c 	andcs	r0, r0, ip, lsr #32
 8000190:	20000028 	andcs	r0, r0, r8, lsr #32

08000194 <main>:
 8000194:	b580      	push	{r7, lr}
 8000196:	b086      	sub	sp, #24
 8000198:	af00      	add	r7, sp, #0
 800019a:	4b29      	ldr	r3, [pc, #164]	; (8000240 <main+0xac>)
 800019c:	699b      	ldr	r3, [r3, #24]
 800019e:	4a28      	ldr	r2, [pc, #160]	; (8000240 <main+0xac>)
 80001a0:	f043 0304 	orr.w	r3, r3, #4
 80001a4:	6193      	str	r3, [r2, #24]
 80001a6:	4b26      	ldr	r3, [pc, #152]	; (8000240 <main+0xac>)
 80001a8:	699b      	ldr	r3, [r3, #24]
 80001aa:	4a25      	ldr	r2, [pc, #148]	; (8000240 <main+0xac>)
 80001ac:	f043 0308 	orr.w	r3, r3, #8
 80001b0:	6193      	str	r3, [r2, #24]
 80001b2:	4b23      	ldr	r3, [pc, #140]	; (8000240 <main+0xac>)
 80001b4:	699b      	ldr	r3, [r3, #24]
 80001b6:	4a22      	ldr	r2, [pc, #136]	; (8000240 <main+0xac>)
 80001b8:	f043 0301 	orr.w	r3, r3, #1
 80001bc:	6193      	str	r3, [r2, #24]
 80001be:	4a21      	ldr	r2, [pc, #132]	; (8000244 <main+0xb0>)
 80001c0:	1d3b      	adds	r3, r7, #4
 80001c2:	ca07      	ldmia	r2, {r0, r1, r2}
 80001c4:	e883 0007 	stmia.w	r3, {r0, r1, r2}
 80001c8:	2300      	movs	r3, #0
 80001ca:	743b      	strb	r3, [r7, #16]
 80001cc:	4b1e      	ldr	r3, [pc, #120]	; (8000248 <main+0xb4>)
 80001ce:	617b      	str	r3, [r7, #20]
 80001d0:	2300      	movs	r3, #0
 80001d2:	747b      	strb	r3, [r7, #17]
 80001d4:	1d3b      	adds	r3, r7, #4
 80001d6:	4618      	mov	r0, r3
 80001d8:	f000 fb06 	bl	80007e8 <MCAL_EXTI_GPIO_Init>
 80001dc:	4b1b      	ldr	r3, [pc, #108]	; (800024c <main+0xb8>)
 80001de:	2201      	movs	r2, #1
 80001e0:	601a      	str	r2, [r3, #0]
 80001e2:	bf00      	nop
 80001e4:	bf00      	nop
 80001e6:	bf00      	nop
 80001e8:	f04f 03ff 	mov.w	r3, #255	; 0xff
 80001ec:	4a18      	ldr	r2, [pc, #96]	; (8000250 <main+0xbc>)
 80001ee:	6013      	str	r3, [r2, #0]
 80001f0:	4b17      	ldr	r3, [pc, #92]	; (8000250 <main+0xbc>)
 80001f2:	681b      	ldr	r3, [r3, #0]
 80001f4:	4618      	mov	r0, r3
 80001f6:	4b16      	ldr	r3, [pc, #88]	; (8000250 <main+0xbc>)
 80001f8:	681b      	ldr	r3, [r3, #0]
 80001fa:	4a16      	ldr	r2, [pc, #88]	; (8000254 <main+0xc0>)
 80001fc:	6812      	ldr	r2, [r2, #0]
 80001fe:	4413      	add	r3, r2
 8000200:	4a15      	ldr	r2, [pc, #84]	; (8000258 <main+0xc4>)
 8000202:	6013      	str	r3, [r2, #0]
 8000204:	4b12      	ldr	r3, [pc, #72]	; (8000250 <main+0xbc>)
 8000206:	681b      	ldr	r3, [r3, #0]
 8000208:	4a12      	ldr	r2, [pc, #72]	; (8000254 <main+0xc0>)
 800020a:	6812      	ldr	r2, [r2, #0]
 800020c:	4413      	add	r3, r2
 800020e:	4a12      	ldr	r2, [pc, #72]	; (8000258 <main+0xc4>)
 8000210:	6013      	str	r3, [r2, #0]
 8000212:	4b0f      	ldr	r3, [pc, #60]	; (8000250 <main+0xbc>)
 8000214:	681b      	ldr	r3, [r3, #0]
 8000216:	4a0f      	ldr	r2, [pc, #60]	; (8000254 <main+0xc0>)
 8000218:	6811      	ldr	r1, [r2, #0]
 800021a:	440b      	add	r3, r1
 800021c:	4a0e      	ldr	r2, [pc, #56]	; (8000258 <main+0xc4>)
 800021e:	6013      	str	r3, [r2, #0]
 8000220:	f3ef 8314 	mrs	r3, CONTROL
 8000224:	4a0d      	ldr	r2, [pc, #52]	; (800025c <main+0xc8>)
 8000226:	6013      	str	r3, [r2, #0]
 8000228:	bf00      	nop
 800022a:	bf00      	nop
 800022c:	bf00      	nop
 800022e:	4b07      	ldr	r3, [pc, #28]	; (800024c <main+0xb8>)
 8000230:	681b      	ldr	r3, [r3, #0]
 8000232:	2b00      	cmp	r3, #0
 8000234:	d0fb      	beq.n	800022e <main+0x9a>
 8000236:	4b05      	ldr	r3, [pc, #20]	; (800024c <main+0xb8>)
 8000238:	2200      	movs	r2, #0
 800023a:	601a      	str	r2, [r3, #0]
 800023c:	e7f7      	b.n	800022e <main+0x9a>
 800023e:	bf00      	nop
 8000240:	40021000 	andmi	r1, r2, r0
 8000244:	08000a80 	stmdaeq	r0, {r7, r9, fp}
 8000248:	08000171 	stmdaeq	r0, {r0, r4, r5, r6, r8}
 800024c:	2000002c 	andcs	r0, r0, ip, lsr #32
 8000250:	20000000 	andcs	r0, r0, r0
 8000254:	20000004 	andcs	r0, r0, r4
 8000258:	20000030 	andcs	r0, r0, r0, lsr r0
 800025c:	20000024 	andcs	r0, r0, r4, lsr #32

08000260 <Reset_Handler>:
 8000260:	480d      	ldr	r0, [pc, #52]	; (8000298 <LoopForever+0x2>)
 8000262:	4685      	mov	sp, r0
 8000264:	f3af 8000 	nop.w
 8000268:	480c      	ldr	r0, [pc, #48]	; (800029c <LoopForever+0x6>)
 800026a:	490d      	ldr	r1, [pc, #52]	; (80002a0 <LoopForever+0xa>)
 800026c:	4a0d      	ldr	r2, [pc, #52]	; (80002a4 <LoopForever+0xe>)
 800026e:	2300      	movs	r3, #0
 8000270:	e002      	b.n	8000278 <LoopCopyDataInit>

08000272 <CopyDataInit>:
 8000272:	58d4      	ldr	r4, [r2, r3]
 8000274:	50c4      	str	r4, [r0, r3]
 8000276:	3304      	adds	r3, #4

08000278 <LoopCopyDataInit>:
 8000278:	18c4      	adds	r4, r0, r3
 800027a:	428c      	cmp	r4, r1
 800027c:	d3f9      	bcc.n	8000272 <CopyDataInit>
 800027e:	4a0a      	ldr	r2, [pc, #40]	; (80002a8 <LoopForever+0x12>)
 8000280:	4c0a      	ldr	r4, [pc, #40]	; (80002ac <LoopForever+0x16>)
 8000282:	2300      	movs	r3, #0
 8000284:	e001      	b.n	800028a <LoopFillZerobss>

08000286 <FillZerobss>:
 8000286:	6013      	str	r3, [r2, #0]
 8000288:	3204      	adds	r2, #4

0800028a <LoopFillZerobss>:
 800028a:	42a2      	cmp	r2, r4
 800028c:	d3fb      	bcc.n	8000286 <FillZerobss>
 800028e:	f000 fbc7 	bl	8000a20 <__libc_init_array>
 8000292:	f7ff ff7f 	bl	8000194 <main>

08000296 <LoopForever>:
 8000296:	e7fe      	b.n	8000296 <LoopForever>
 8000298:	20002800 	andcs	r2, r0, r0, lsl #16
 800029c:	20000000 	andcs	r0, r0, r0
 80002a0:	20000008 	andcs	r0, r0, r8
 80002a4:	08000a94 	stmdaeq	r0, {r2, r4, r7, r9, fp}
 80002a8:	20000008 	andcs	r0, r0, r8
 80002ac:	20000070 	andcs	r0, r0, r0, ror r0

080002b0 <ADC1_2_IRQHandler>:
 80002b0:	e7fe      	b.n	80002b0 <ADC1_2_IRQHandler>

080002b2 <Get_CRLH_Position>:
 80002b2:	b480      	push	{r7}
 80002b4:	b083      	sub	sp, #12
 80002b6:	af00      	add	r7, sp, #0
 80002b8:	4603      	mov	r3, r0
 80002ba:	80fb      	strh	r3, [r7, #6]
 80002bc:	88fb      	ldrh	r3, [r7, #6]
 80002be:	2b80      	cmp	r3, #128	; 0x80
 80002c0:	d042      	beq.n	8000348 <Get_CRLH_Position+0x96>
 80002c2:	2b80      	cmp	r3, #128	; 0x80
 80002c4:	dc11      	bgt.n	80002ea <Get_CRLH_Position+0x38>
 80002c6:	2b08      	cmp	r3, #8
 80002c8:	d036      	beq.n	8000338 <Get_CRLH_Position+0x86>
 80002ca:	2b08      	cmp	r3, #8
 80002cc:	dc06      	bgt.n	80002dc <Get_CRLH_Position+0x2a>
 80002ce:	2b02      	cmp	r3, #2
 80002d0:	d02e      	beq.n	8000330 <Get_CRLH_Position+0x7e>
 80002d2:	2b04      	cmp	r3, #4
 80002d4:	d02e      	beq.n	8000334 <Get_CRLH_Position+0x82>
 80002d6:	2b01      	cmp	r3, #1
 80002d8:	d028      	beq.n	800032c <Get_CRLH_Position+0x7a>
 80002da:	e047      	b.n	800036c <Get_CRLH_Position+0xba>
 80002dc:	2b20      	cmp	r3, #32
 80002de:	d02f      	beq.n	8000340 <Get_CRLH_Position+0x8e>
 80002e0:	2b40      	cmp	r3, #64	; 0x40
 80002e2:	d02f      	beq.n	8000344 <Get_CRLH_Position+0x92>
 80002e4:	2b10      	cmp	r3, #16
 80002e6:	d029      	beq.n	800033c <Get_CRLH_Position+0x8a>
 80002e8:	e040      	b.n	800036c <Get_CRLH_Position+0xba>
 80002ea:	f5b3 6f00 	cmp.w	r3, #2048	; 0x800
 80002ee:	d033      	beq.n	8000358 <Get_CRLH_Position+0xa6>
 80002f0:	f5b3 6f00 	cmp.w	r3, #2048	; 0x800
 80002f4:	dc09      	bgt.n	800030a <Get_CRLH_Position+0x58>
 80002f6:	f5b3 7f00 	cmp.w	r3, #512	; 0x200
 80002fa:	d029      	beq.n	8000350 <Get_CRLH_Position+0x9e>
 80002fc:	f5b3 6f80 	cmp.w	r3, #1024	; 0x400
 8000300:	d028      	beq.n	8000354 <Get_CRLH_Position+0xa2>
 8000302:	f5b3 7f80 	cmp.w	r3, #256	; 0x100
 8000306:	d021      	beq.n	800034c <Get_CRLH_Position+0x9a>
 8000308:	e030      	b.n	800036c <Get_CRLH_Position+0xba>
 800030a:	f5b3 5f00 	cmp.w	r3, #8192	; 0x2000
 800030e:	d027      	beq.n	8000360 <Get_CRLH_Position+0xae>
 8000310:	f5b3 5f00 	cmp.w	r3, #8192	; 0x2000
 8000314:	dc03      	bgt.n	800031e <Get_CRLH_Position+0x6c>
 8000316:	f5b3 5f80 	cmp.w	r3, #4096	; 0x1000
 800031a:	d01f      	beq.n	800035c <Get_CRLH_Position+0xaa>
 800031c:	e026      	b.n	800036c <Get_CRLH_Position+0xba>
 800031e:	f5b3 4f80 	cmp.w	r3, #16384	; 0x4000
 8000322:	d01f      	beq.n	8000364 <Get_CRLH_Position+0xb2>
 8000324:	f5b3 4f00 	cmp.w	r3, #32768	; 0x8000
 8000328:	d01e      	beq.n	8000368 <Get_CRLH_Position+0xb6>
 800032a:	e01f      	b.n	800036c <Get_CRLH_Position+0xba>
 800032c:	2300      	movs	r3, #0
 800032e:	e01e      	b.n	800036e <Get_CRLH_Position+0xbc>
 8000330:	2304      	movs	r3, #4
 8000332:	e01c      	b.n	800036e <Get_CRLH_Position+0xbc>
 8000334:	2308      	movs	r3, #8
 8000336:	e01a      	b.n	800036e <Get_CRLH_Position+0xbc>
 8000338:	230c      	movs	r3, #12
 800033a:	e018      	b.n	800036e <Get_CRLH_Position+0xbc>
 800033c:	2310      	movs	r3, #16
 800033e:	e016      	b.n	800036e <Get_CRLH_Position+0xbc>
 8000340:	2314      	movs	r3, #20
 8000342:	e014      	b.n	800036e <Get_CRLH_Position+0xbc>
 8000344:	2318      	movs	r3, #24
 8000346:	e012      	b.n	800036e <Get_CRLH_Position+0xbc>
 8000348:	231c      	movs	r3, #28
 800034a:	e010      	b.n	800036e <Get_CRLH_Position+0xbc>
 800034c:	2300      	movs	r3, #0
 800034e:	e00e      	b.n	800036e <Get_CRLH_Position+0xbc>
 8000350:	2304      	movs	r3, #4
 8000352:	e00c      	b.n	800036e <Get_CRLH_Position+0xbc>
 8000354:	2308      	movs	r3, #8
 8000356:	e00a      	b.n	800036e <Get_CRLH_Position+0xbc>
 8000358:	230c      	movs	r3, #12
 800035a:	e008      	b.n	800036e <Get_CRLH_Position+0xbc>
 800035c:	2310      	movs	r3, #16
 800035e:	e006      	b.n	800036e <Get_CRLH_Position+0xbc>
 8000360:	2314      	movs	r3, #20
 8000362:	e004      	b.n	800036e <Get_CRLH_Position+0xbc>
 8000364:	2318      	movs	r3, #24
 8000366:	e002      	b.n	800036e <Get_CRLH_Position+0xbc>
 8000368:	231c      	movs	r3, #28
 800036a:	e000      	b.n	800036e <Get_CRLH_Position+0xbc>
 800036c:	2300      	movs	r3, #0
 800036e:	4618      	mov	r0, r3
 8000370:	370c      	adds	r7, #12
 8000372:	46bd      	mov	sp, r7
 8000374:	bc80      	pop	{r7}
 8000376:	4770      	bx	lr

08000378 <MCAL_GPIO_Init>:
 8000378:	b590      	push	{r4, r7, lr}
 800037a:	b085      	sub	sp, #20
 800037c:	af00      	add	r7, sp, #0
 800037e:	6078      	str	r0, [r7, #4]
 8000380:	6039      	str	r1, [r7, #0]
 8000382:	2300      	movs	r3, #0
 8000384:	60bb      	str	r3, [r7, #8]
 8000386:	2300      	movs	r3, #0
 8000388:	73fb      	strb	r3, [r7, #15]
 800038a:	683b      	ldr	r3, [r7, #0]
 800038c:	881b      	ldrh	r3, [r3, #0]
 800038e:	2bff      	cmp	r3, #255	; 0xff
 8000390:	d801      	bhi.n	8000396 <MCAL_GPIO_Init+0x1e>
 8000392:	687b      	ldr	r3, [r7, #4]
 8000394:	e001      	b.n	800039a <MCAL_GPIO_Init+0x22>
 8000396:	687b      	ldr	r3, [r7, #4]
 8000398:	3304      	adds	r3, #4
 800039a:	60bb      	str	r3, [r7, #8]
 800039c:	683b      	ldr	r3, [r7, #0]
 800039e:	881b      	ldrh	r3, [r3, #0]
 80003a0:	4618      	mov	r0, r3
 80003a2:	f7ff ff86 	bl	80002b2 <Get_CRLH_Position>
 80003a6:	4603      	mov	r3, r0
 80003a8:	461a      	mov	r2, r3
 80003aa:	230f      	movs	r3, #15
 80003ac:	4093      	lsls	r3, r2
 80003ae:	43da      	mvns	r2, r3
 80003b0:	68bb      	ldr	r3, [r7, #8]
 80003b2:	681b      	ldr	r3, [r3, #0]
 80003b4:	401a      	ands	r2, r3
 80003b6:	68bb      	ldr	r3, [r7, #8]
 80003b8:	601a      	str	r2, [r3, #0]
 80003ba:	683b      	ldr	r3, [r7, #0]
 80003bc:	789b      	ldrb	r3, [r3, #2]
 80003be:	2b07      	cmp	r3, #7
 80003c0:	d00b      	beq.n	80003da <MCAL_GPIO_Init+0x62>
 80003c2:	683b      	ldr	r3, [r7, #0]
 80003c4:	789b      	ldrb	r3, [r3, #2]
 80003c6:	2b06      	cmp	r3, #6
 80003c8:	d007      	beq.n	80003da <MCAL_GPIO_Init+0x62>
 80003ca:	683b      	ldr	r3, [r7, #0]
 80003cc:	789b      	ldrb	r3, [r3, #2]
 80003ce:	2b05      	cmp	r3, #5
 80003d0:	d003      	beq.n	80003da <MCAL_GPIO_Init+0x62>
 80003d2:	683b      	ldr	r3, [r7, #0]
 80003d4:	789b      	ldrb	r3, [r3, #2]
 80003d6:	2b04      	cmp	r3, #4
 80003d8:	d10e      	bne.n	80003f8 <MCAL_GPIO_Init+0x80>
 80003da:	683b      	ldr	r3, [r7, #0]
 80003dc:	789b      	ldrb	r3, [r3, #2]
 80003de:	3b04      	subs	r3, #4
 80003e0:	009b      	lsls	r3, r3, #2
 80003e2:	b25a      	sxtb	r2, r3
 80003e4:	683b      	ldr	r3, [r7, #0]
 80003e6:	78db      	ldrb	r3, [r3, #3]
 80003e8:	b25b      	sxtb	r3, r3
 80003ea:	4313      	orrs	r3, r2
 80003ec:	b25b      	sxtb	r3, r3
 80003ee:	b2db      	uxtb	r3, r3
 80003f0:	f003 030f 	and.w	r3, r3, #15
 80003f4:	73fb      	strb	r3, [r7, #15]
 80003f6:	e02c      	b.n	8000452 <MCAL_GPIO_Init+0xda>
 80003f8:	683b      	ldr	r3, [r7, #0]
 80003fa:	789b      	ldrb	r3, [r3, #2]
 80003fc:	2b01      	cmp	r3, #1
 80003fe:	d003      	beq.n	8000408 <MCAL_GPIO_Init+0x90>
 8000400:	683b      	ldr	r3, [r7, #0]
 8000402:	789b      	ldrb	r3, [r3, #2]
 8000404:	2b00      	cmp	r3, #0
 8000406:	d107      	bne.n	8000418 <MCAL_GPIO_Init+0xa0>
 8000408:	683b      	ldr	r3, [r7, #0]
 800040a:	789b      	ldrb	r3, [r3, #2]
 800040c:	009b      	lsls	r3, r3, #2
 800040e:	b2db      	uxtb	r3, r3
 8000410:	f003 030f 	and.w	r3, r3, #15
 8000414:	73fb      	strb	r3, [r7, #15]
 8000416:	e01c      	b.n	8000452 <MCAL_GPIO_Init+0xda>
 8000418:	683b      	ldr	r3, [r7, #0]
 800041a:	789b      	ldrb	r3, [r3, #2]
 800041c:	2b08      	cmp	r3, #8
 800041e:	d102      	bne.n	8000426 <MCAL_GPIO_Init+0xae>
 8000420:	2304      	movs	r3, #4
 8000422:	73fb      	strb	r3, [r7, #15]
 8000424:	e015      	b.n	8000452 <MCAL_GPIO_Init+0xda>
 8000426:	2308      	movs	r3, #8
 8000428:	73fb      	strb	r3, [r7, #15]
 800042a:	683b      	ldr	r3, [r7, #0]
 800042c:	789b      	ldrb	r3, [r3, #2]
 800042e:	2b02      	cmp	r3, #2
 8000430:	d107      	bne.n	8000442 <MCAL_GPIO_Init+0xca>
 8000432:	687b      	ldr	r3, [r7, #4]
 8000434:	68db      	ldr	r3, [r3, #12]
 8000436:	683a      	ldr	r2, [r7, #0]
 8000438:	8812      	ldrh	r2, [r2, #0]
 800043a:	431a      	orrs	r2, r3
 800043c:	687b      	ldr	r3, [r7, #4]
 800043e:	60da      	str	r2, [r3, #12]
 8000440:	e007      	b.n	8000452 <MCAL_GPIO_Init+0xda>
 8000442:	687b      	ldr	r3, [r7, #4]
 8000444:	68db      	ldr	r3, [r3, #12]
 8000446:	683a      	ldr	r2, [r7, #0]
 8000448:	8812      	ldrh	r2, [r2, #0]
 800044a:	43d2      	mvns	r2, r2
 800044c:	401a      	ands	r2, r3
 800044e:	687b      	ldr	r3, [r7, #4]
 8000450:	60da      	str	r2, [r3, #12]
 8000452:	7bfc      	ldrb	r4, [r7, #15]
 8000454:	683b      	ldr	r3, [r7, #0]
 8000456:	881b      	ldrh	r3, [r3, #0]
 8000458:	4618      	mov	r0, r3
 800045a:	f7ff ff2a 	bl	80002b2 <Get_CRLH_Position>
 800045e:	4603      	mov	r3, r0
 8000460:	fa04 f203 	lsl.w	r2, r4, r3
 8000464:	68bb      	ldr	r3, [r7, #8]
 8000466:	681b      	ldr	r3, [r3, #0]
 8000468:	431a      	orrs	r2, r3
 800046a:	68bb      	ldr	r3, [r7, #8]
 800046c:	601a      	str	r2, [r3, #0]
 800046e:	bf00      	nop
 8000470:	3714      	adds	r7, #20
 8000472:	46bd      	mov	sp, r7
 8000474:	bd90      	pop	{r4, r7, pc}
	...

08000478 <Enable_NVIC>:
 8000478:	b480      	push	{r7}
 800047a:	b083      	sub	sp, #12
 800047c:	af00      	add	r7, sp, #0
 800047e:	4603      	mov	r3, r0
 8000480:	80fb      	strh	r3, [r7, #6]
 8000482:	88fb      	ldrh	r3, [r7, #6]
 8000484:	2b0f      	cmp	r3, #15
 8000486:	d854      	bhi.n	8000532 <Enable_NVIC+0xba>
 8000488:	a201      	add	r2, pc, #4	; (adr r2, 8000490 <Enable_NVIC+0x18>)
 800048a:	f852 f023 	ldr.w	pc, [r2, r3, lsl #2]
 800048e:	bf00      	nop
 8000490:	080004d1 	stmdaeq	r0, {r0, r4, r6, r7, sl}
 8000494:	080004df 	stmdaeq	r0, {r0, r1, r2, r3, r4, r6, r7, sl}
 8000498:	080004ed 	stmdaeq	r0, {r0, r2, r3, r5, r6, r7, sl}
 800049c:	080004fb 	stmdaeq	r0, {r0, r1, r3, r4, r5, r6, r7, sl}
 80004a0:	08000509 	stmdaeq	r0, {r0, r3, r8, sl}
 80004a4:	08000517 	stmdaeq	r0, {r0, r1, r2, r4, r8, sl}
 80004a8:	08000517 	stmdaeq	r0, {r0, r1, r2, r4, r8, sl}
 80004ac:	08000517 	stmdaeq	r0, {r0, r1, r2, r4, r8, sl}
 80004b0:	08000517 	stmdaeq	r0, {r0, r1, r2, r4, r8, sl}
 80004b4:	08000517 	stmdaeq	r0, {r0, r1, r2, r4, r8, sl}
 80004b8:	08000525 	stmdaeq	r0, {r0, r2, r5, r8, sl}
 80004bc:	08000525 	stmdaeq	r0, {r0, r2, r5, r8, sl}
 80004c0:	08000525 	stmdaeq	r0, {r0, r2, r5, r8, sl}
 80004c4:	08000525 	stmdaeq	r0, {r0, r2, r5, r8, sl}
 80004c8:	08000525 	stmdaeq	r0, {r0, r2, r5, r8, sl}
 80004cc:	08000525 	stmdaeq	r0, {r0, r2, r5, r8, sl}
 80004d0:	4b1a      	ldr	r3, [pc, #104]	; (800053c <Enable_NVIC+0xc4>)
 80004d2:	681b      	ldr	r3, [r3, #0]
 80004d4:	4a19      	ldr	r2, [pc, #100]	; (800053c <Enable_NVIC+0xc4>)
 80004d6:	f043 0340 	orr.w	r3, r3, #64	; 0x40
 80004da:	6013      	str	r3, [r2, #0]
 80004dc:	e029      	b.n	8000532 <Enable_NVIC+0xba>
 80004de:	4b17      	ldr	r3, [pc, #92]	; (800053c <Enable_NVIC+0xc4>)
 80004e0:	681b      	ldr	r3, [r3, #0]
 80004e2:	4a16      	ldr	r2, [pc, #88]	; (800053c <Enable_NVIC+0xc4>)
 80004e4:	f043 0380 	orr.w	r3, r3, #128	; 0x80
 80004e8:	6013      	str	r3, [r2, #0]
 80004ea:	e022      	b.n	8000532 <Enable_NVIC+0xba>
 80004ec:	4b13      	ldr	r3, [pc, #76]	; (800053c <Enable_NVIC+0xc4>)
 80004ee:	681b      	ldr	r3, [r3, #0]
 80004f0:	4a12      	ldr	r2, [pc, #72]	; (800053c <Enable_NVIC+0xc4>)
 80004f2:	f443 7380 	orr.w	r3, r3, #256	; 0x100
 80004f6:	6013      	str	r3, [r2, #0]
 80004f8:	e01b      	b.n	8000532 <Enable_NVIC+0xba>
 80004fa:	4b10      	ldr	r3, [pc, #64]	; (800053c <Enable_NVIC+0xc4>)
 80004fc:	681b      	ldr	r3, [r3, #0]
 80004fe:	4a0f      	ldr	r2, [pc, #60]	; (800053c <Enable_NVIC+0xc4>)
 8000500:	f443 7300 	orr.w	r3, r3, #512	; 0x200
 8000504:	6013      	str	r3, [r2, #0]
 8000506:	e014      	b.n	8000532 <Enable_NVIC+0xba>
 8000508:	4b0c      	ldr	r3, [pc, #48]	; (800053c <Enable_NVIC+0xc4>)
 800050a:	681b      	ldr	r3, [r3, #0]
 800050c:	4a0b      	ldr	r2, [pc, #44]	; (800053c <Enable_NVIC+0xc4>)
 800050e:	f443 6380 	orr.w	r3, r3, #1024	; 0x400
 8000512:	6013      	str	r3, [r2, #0]
 8000514:	e00d      	b.n	8000532 <Enable_NVIC+0xba>
 8000516:	4b09      	ldr	r3, [pc, #36]	; (800053c <Enable_NVIC+0xc4>)
 8000518:	681b      	ldr	r3, [r3, #0]
 800051a:	4a08      	ldr	r2, [pc, #32]	; (800053c <Enable_NVIC+0xc4>)
 800051c:	f443 0300 	orr.w	r3, r3, #8388608	; 0x800000
 8000520:	6013      	str	r3, [r2, #0]
 8000522:	e006      	b.n	8000532 <Enable_NVIC+0xba>
 8000524:	4b06      	ldr	r3, [pc, #24]	; (8000540 <Enable_NVIC+0xc8>)
 8000526:	681b      	ldr	r3, [r3, #0]
 8000528:	4a05      	ldr	r2, [pc, #20]	; (8000540 <Enable_NVIC+0xc8>)
 800052a:	f443 7380 	orr.w	r3, r3, #256	; 0x100
 800052e:	6013      	str	r3, [r2, #0]
 8000530:	bf00      	nop
 8000532:	bf00      	nop
 8000534:	370c      	adds	r7, #12
 8000536:	46bd      	mov	sp, r7
 8000538:	bc80      	pop	{r7}
 800053a:	4770      	bx	lr
 800053c:	e000e100 	and	lr, r0, r0, lsl #2
 8000540:	e000e104 	and	lr, r0, r4, lsl #2

08000544 <Disable_NVIC>:
 8000544:	b480      	push	{r7}
 8000546:	b083      	sub	sp, #12
 8000548:	af00      	add	r7, sp, #0
 800054a:	4603      	mov	r3, r0
 800054c:	80fb      	strh	r3, [r7, #6]
 800054e:	88fb      	ldrh	r3, [r7, #6]
 8000550:	2b0f      	cmp	r3, #15
 8000552:	d854      	bhi.n	80005fe <Disable_NVIC+0xba>
 8000554:	a201      	add	r2, pc, #4	; (adr r2, 800055c <Disable_NVIC+0x18>)
 8000556:	f852 f023 	ldr.w	pc, [r2, r3, lsl #2]
 800055a:	bf00      	nop
 800055c:	0800059d 	stmdaeq	r0, {r0, r2, r3, r4, r7, r8, sl}
 8000560:	080005ab 	stmdaeq	r0, {r0, r1, r3, r5, r7, r8, sl}
 8000564:	080005b9 	stmdaeq	r0, {r0, r3, r4, r5, r7, r8, sl}
 8000568:	080005c7 	stmdaeq	r0, {r0, r1, r2, r6, r7, r8, sl}
 800056c:	080005d5 	stmdaeq	r0, {r0, r2, r4, r6, r7, r8, sl}
 8000570:	080005e3 	stmdaeq	r0, {r0, r1, r5, r6, r7, r8, sl}
 8000574:	080005e3 	stmdaeq	r0, {r0, r1, r5, r6, r7, r8, sl}
 8000578:	080005e3 	stmdaeq	r0, {r0, r1, r5, r6, r7, r8, sl}
 800057c:	080005e3 	stmdaeq	r0, {r0, r1, r5, r6, r7, r8, sl}
 8000580:	080005e3 	stmdaeq	r0, {r0, r1, r5, r6, r7, r8, sl}
 8000584:	080005f1 	stmdaeq	r0, {r0, r4, r5, r6, r7, r8, sl}
 8000588:	080005f1 	stmdaeq	r0, {r0, r4, r5, r6, r7, r8, sl}
 800058c:	080005f1 	stmdaeq	r0, {r0, r4, r5, r6, r7, r8, sl}
 8000590:	080005f1 	stmdaeq	r0, {r0, r4, r5, r6, r7, r8, sl}
 8000594:	080005f1 	stmdaeq	r0, {r0, r4, r5, r6, r7, r8, sl}
 8000598:	080005f1 	stmdaeq	r0, {r0, r4, r5, r6, r7, r8, sl}
 800059c:	4b1a      	ldr	r3, [pc, #104]	; (8000608 <Disable_NVIC+0xc4>)
 800059e:	681b      	ldr	r3, [r3, #0]
 80005a0:	4a19      	ldr	r2, [pc, #100]	; (8000608 <Disable_NVIC+0xc4>)
 80005a2:	f043 0340 	orr.w	r3, r3, #64	; 0x40
 80005a6:	6013      	str	r3, [r2, #0]
 80005a8:	e029      	b.n	80005fe <Disable_NVIC+0xba>
 80005aa:	4b17      	ldr	r3, [pc, #92]	; (8000608 <Disable_NVIC+0xc4>)
 80005ac:	681b      	ldr	r3, [r3, #0]
 80005ae:	4a16      	ldr	r2, [pc, #88]	; (8000608 <Disable_NVIC+0xc4>)
 80005b0:	f043 0380 	orr.w	r3, r3, #128	; 0x80
 80005b4:	6013      	str	r3, [r2, #0]
 80005b6:	e022      	b.n	80005fe <Disable_NVIC+0xba>
 80005b8:	4b13      	ldr	r3, [pc, #76]	; (8000608 <Disable_NVIC+0xc4>)
 80005ba:	681b      	ldr	r3, [r3, #0]
 80005bc:	4a12      	ldr	r2, [pc, #72]	; (8000608 <Disable_NVIC+0xc4>)
 80005be:	f443 7380 	orr.w	r3, r3, #256	; 0x100
 80005c2:	6013      	str	r3, [r2, #0]
 80005c4:	e01b      	b.n	80005fe <Disable_NVIC+0xba>
 80005c6:	4b10      	ldr	r3, [pc, #64]	; (8000608 <Disable_NVIC+0xc4>)
 80005c8:	681b      	ldr	r3, [r3, #0]
 80005ca:	4a0f      	ldr	r2, [pc, #60]	; (8000608 <Disable_NVIC+0xc4>)
 80005cc:	f443 7300 	orr.w	r3, r3, #512	; 0x200
 80005d0:	6013      	str	r3, [r2, #0]
 80005d2:	e014      	b.n	80005fe <Disable_NVIC+0xba>
 80005d4:	4b0c      	ldr	r3, [pc, #48]	; (8000608 <Disable_NVIC+0xc4>)
 80005d6:	681b      	ldr	r3, [r3, #0]
 80005d8:	4a0b      	ldr	r2, [pc, #44]	; (8000608 <Disable_NVIC+0xc4>)
 80005da:	f443 6380 	orr.w	r3, r3, #1024	; 0x400
 80005de:	6013      	str	r3, [r2, #0]
 80005e0:	e00d      	b.n	80005fe <Disable_NVIC+0xba>
 80005e2:	4b09      	ldr	r3, [pc, #36]	; (8000608 <Disable_NVIC+0xc4>)
 80005e4:	681b      	ldr	r3, [r3, #0]
 80005e6:	4a08      	ldr	r2, [pc, #32]	; (8000608 <Disable_NVIC+0xc4>)
 80005e8:	f443 0300 	orr.w	r3, r3, #8388608	; 0x800000
 80005ec:	6013      	str	r3, [r2, #0]
 80005ee:	e006      	b.n	80005fe <Disable_NVIC+0xba>
 80005f0:	4b06      	ldr	r3, [pc, #24]	; (800060c <Disable_NVIC+0xc8>)
 80005f2:	681b      	ldr	r3, [r3, #0]
 80005f4:	4a05      	ldr	r2, [pc, #20]	; (800060c <Disable_NVIC+0xc8>)
 80005f6:	f443 7380 	orr.w	r3, r3, #256	; 0x100
 80005fa:	6013      	str	r3, [r2, #0]
 80005fc:	bf00      	nop
 80005fe:	bf00      	nop
 8000600:	370c      	adds	r7, #12
 8000602:	46bd      	mov	sp, r7
 8000604:	bc80      	pop	{r7}
 8000606:	4770      	bx	lr
 8000608:	e000e180 	and	lr, r0, r0, lsl #3
 800060c:	e000e184 	and	lr, r0, r4, lsl #3

08000610 <Update_EXTI>:
 8000610:	b580      	push	{r7, lr}
 8000612:	b084      	sub	sp, #16
 8000614:	af00      	add	r7, sp, #0
 8000616:	6078      	str	r0, [r7, #4]
 8000618:	687b      	ldr	r3, [r7, #4]
 800061a:	891b      	ldrh	r3, [r3, #8]
 800061c:	813b      	strh	r3, [r7, #8]
 800061e:	2301      	movs	r3, #1
 8000620:	72bb      	strb	r3, [r7, #10]
 8000622:	687b      	ldr	r3, [r7, #4]
 8000624:	685b      	ldr	r3, [r3, #4]
 8000626:	f107 0208 	add.w	r2, r7, #8
 800062a:	4611      	mov	r1, r2
 800062c:	4618      	mov	r0, r3
 800062e:	f7ff fea3 	bl	8000378 <MCAL_GPIO_Init>
 8000632:	687b      	ldr	r3, [r7, #4]
 8000634:	881b      	ldrh	r3, [r3, #0]
 8000636:	089b      	lsrs	r3, r3, #2
 8000638:	b29b      	uxth	r3, r3
 800063a:	73fb      	strb	r3, [r7, #15]
 800063c:	687b      	ldr	r3, [r7, #4]
 800063e:	881b      	ldrh	r3, [r3, #0]
 8000640:	b2db      	uxtb	r3, r3
 8000642:	f003 0303 	and.w	r3, r3, #3
 8000646:	b2db      	uxtb	r3, r3
 8000648:	009b      	lsls	r3, r3, #2
 800064a:	73bb      	strb	r3, [r7, #14]
 800064c:	4a5f      	ldr	r2, [pc, #380]	; (80007cc <Update_EXTI+0x1bc>)
 800064e:	7bfb      	ldrb	r3, [r7, #15]
 8000650:	3302      	adds	r3, #2
 8000652:	f852 2023 	ldr.w	r2, [r2, r3, lsl #2]
 8000656:	7bbb      	ldrb	r3, [r7, #14]
 8000658:	210f      	movs	r1, #15
 800065a:	fa01 f303 	lsl.w	r3, r1, r3
 800065e:	43db      	mvns	r3, r3
 8000660:	4618      	mov	r0, r3
 8000662:	495a      	ldr	r1, [pc, #360]	; (80007cc <Update_EXTI+0x1bc>)
 8000664:	7bfb      	ldrb	r3, [r7, #15]
 8000666:	4002      	ands	r2, r0
 8000668:	3302      	adds	r3, #2
 800066a:	f841 2023 	str.w	r2, [r1, r3, lsl #2]
 800066e:	4a57      	ldr	r2, [pc, #348]	; (80007cc <Update_EXTI+0x1bc>)
 8000670:	7bfb      	ldrb	r3, [r7, #15]
 8000672:	3302      	adds	r3, #2
 8000674:	f852 2023 	ldr.w	r2, [r2, r3, lsl #2]
 8000678:	687b      	ldr	r3, [r7, #4]
 800067a:	685b      	ldr	r3, [r3, #4]
 800067c:	4954      	ldr	r1, [pc, #336]	; (80007d0 <Update_EXTI+0x1c0>)
 800067e:	428b      	cmp	r3, r1
 8000680:	d016      	beq.n	80006b0 <Update_EXTI+0xa0>
 8000682:	687b      	ldr	r3, [r7, #4]
 8000684:	685b      	ldr	r3, [r3, #4]
 8000686:	4953      	ldr	r1, [pc, #332]	; (80007d4 <Update_EXTI+0x1c4>)
 8000688:	428b      	cmp	r3, r1
 800068a:	d00f      	beq.n	80006ac <Update_EXTI+0x9c>
 800068c:	687b      	ldr	r3, [r7, #4]
 800068e:	685b      	ldr	r3, [r3, #4]
 8000690:	4951      	ldr	r1, [pc, #324]	; (80007d8 <Update_EXTI+0x1c8>)
 8000692:	428b      	cmp	r3, r1
 8000694:	d008      	beq.n	80006a8 <Update_EXTI+0x98>
 8000696:	687b      	ldr	r3, [r7, #4]
 8000698:	685b      	ldr	r3, [r3, #4]
 800069a:	4950      	ldr	r1, [pc, #320]	; (80007dc <Update_EXTI+0x1cc>)
 800069c:	428b      	cmp	r3, r1
 800069e:	d101      	bne.n	80006a4 <Update_EXTI+0x94>
 80006a0:	2303      	movs	r3, #3
 80006a2:	e006      	b.n	80006b2 <Update_EXTI+0xa2>
 80006a4:	2300      	movs	r3, #0
 80006a6:	e004      	b.n	80006b2 <Update_EXTI+0xa2>
 80006a8:	2302      	movs	r3, #2
 80006aa:	e002      	b.n	80006b2 <Update_EXTI+0xa2>
 80006ac:	2301      	movs	r3, #1
 80006ae:	e000      	b.n	80006b2 <Update_EXTI+0xa2>
 80006b0:	2300      	movs	r3, #0
 80006b2:	7bb9      	ldrb	r1, [r7, #14]
 80006b4:	408b      	lsls	r3, r1
 80006b6:	4618      	mov	r0, r3
 80006b8:	4944      	ldr	r1, [pc, #272]	; (80007cc <Update_EXTI+0x1bc>)
 80006ba:	7bfb      	ldrb	r3, [r7, #15]
 80006bc:	4302      	orrs	r2, r0
 80006be:	3302      	adds	r3, #2
 80006c0:	f841 2023 	str.w	r2, [r1, r3, lsl #2]
 80006c4:	4b46      	ldr	r3, [pc, #280]	; (80007e0 <Update_EXTI+0x1d0>)
 80006c6:	689b      	ldr	r3, [r3, #8]
 80006c8:	687a      	ldr	r2, [r7, #4]
 80006ca:	8812      	ldrh	r2, [r2, #0]
 80006cc:	4611      	mov	r1, r2
 80006ce:	2201      	movs	r2, #1
 80006d0:	408a      	lsls	r2, r1
 80006d2:	43d2      	mvns	r2, r2
 80006d4:	4611      	mov	r1, r2
 80006d6:	4a42      	ldr	r2, [pc, #264]	; (80007e0 <Update_EXTI+0x1d0>)
 80006d8:	400b      	ands	r3, r1
 80006da:	6093      	str	r3, [r2, #8]
 80006dc:	4b40      	ldr	r3, [pc, #256]	; (80007e0 <Update_EXTI+0x1d0>)
 80006de:	68db      	ldr	r3, [r3, #12]
 80006e0:	687a      	ldr	r2, [r7, #4]
 80006e2:	8812      	ldrh	r2, [r2, #0]
 80006e4:	4611      	mov	r1, r2
 80006e6:	2201      	movs	r2, #1
 80006e8:	408a      	lsls	r2, r1
 80006ea:	43d2      	mvns	r2, r2
 80006ec:	4611      	mov	r1, r2
 80006ee:	4a3c      	ldr	r2, [pc, #240]	; (80007e0 <Update_EXTI+0x1d0>)
 80006f0:	400b      	ands	r3, r1
 80006f2:	60d3      	str	r3, [r2, #12]
 80006f4:	687b      	ldr	r3, [r7, #4]
 80006f6:	7b1b      	ldrb	r3, [r3, #12]
 80006f8:	2b00      	cmp	r3, #0
 80006fa:	d10b      	bne.n	8000714 <Update_EXTI+0x104>
 80006fc:	4b38      	ldr	r3, [pc, #224]	; (80007e0 <Update_EXTI+0x1d0>)
 80006fe:	689b      	ldr	r3, [r3, #8]
 8000700:	687a      	ldr	r2, [r7, #4]
 8000702:	8812      	ldrh	r2, [r2, #0]
 8000704:	4611      	mov	r1, r2
 8000706:	2201      	movs	r2, #1
 8000708:	408a      	lsls	r2, r1
 800070a:	4611      	mov	r1, r2
 800070c:	4a34      	ldr	r2, [pc, #208]	; (80007e0 <Update_EXTI+0x1d0>)
 800070e:	430b      	orrs	r3, r1
 8000710:	6093      	str	r3, [r2, #8]
 8000712:	e029      	b.n	8000768 <Update_EXTI+0x158>
 8000714:	687b      	ldr	r3, [r7, #4]
 8000716:	7b1b      	ldrb	r3, [r3, #12]
 8000718:	2b01      	cmp	r3, #1
 800071a:	d10b      	bne.n	8000734 <Update_EXTI+0x124>
 800071c:	4b30      	ldr	r3, [pc, #192]	; (80007e0 <Update_EXTI+0x1d0>)
 800071e:	68db      	ldr	r3, [r3, #12]
 8000720:	687a      	ldr	r2, [r7, #4]
 8000722:	8812      	ldrh	r2, [r2, #0]
 8000724:	4611      	mov	r1, r2
 8000726:	2201      	movs	r2, #1
 8000728:	408a      	lsls	r2, r1
 800072a:	4611      	mov	r1, r2
 800072c:	4a2c      	ldr	r2, [pc, #176]	; (80007e0 <Update_EXTI+0x1d0>)
 800072e:	430b      	orrs	r3, r1
 8000730:	60d3      	str	r3, [r2, #12]
 8000732:	e019      	b.n	8000768 <Update_EXTI+0x158>
 8000734:	687b      	ldr	r3, [r7, #4]
 8000736:	7b1b      	ldrb	r3, [r3, #12]
 8000738:	2b02      	cmp	r3, #2
 800073a:	d115      	bne.n	8000768 <Update_EXTI+0x158>
 800073c:	4b28      	ldr	r3, [pc, #160]	; (80007e0 <Update_EXTI+0x1d0>)
 800073e:	689b      	ldr	r3, [r3, #8]
 8000740:	687a      	ldr	r2, [r7, #4]
 8000742:	8812      	ldrh	r2, [r2, #0]
 8000744:	4611      	mov	r1, r2
 8000746:	2201      	movs	r2, #1
 8000748:	408a      	lsls	r2, r1
 800074a:	4611      	mov	r1, r2
 800074c:	4a24      	ldr	r2, [pc, #144]	; (80007e0 <Update_EXTI+0x1d0>)
 800074e:	430b      	orrs	r3, r1
 8000750:	6093      	str	r3, [r2, #8]
 8000752:	4b23      	ldr	r3, [pc, #140]	; (80007e0 <Update_EXTI+0x1d0>)
 8000754:	68db      	ldr	r3, [r3, #12]
 8000756:	687a      	ldr	r2, [r7, #4]
 8000758:	8812      	ldrh	r2, [r2, #0]
 800075a:	4611      	mov	r1, r2
 800075c:	2201      	movs	r2, #1
 800075e:	408a      	lsls	r2, r1
 8000760:	4611      	mov	r1, r2
 8000762:	4a1f      	ldr	r2, [pc, #124]	; (80007e0 <Update_EXTI+0x1d0>)
 8000764:	430b      	orrs	r3, r1
 8000766:	60d3      	str	r3, [r2, #12]
 8000768:	687b      	ldr	r3, [r7, #4]
 800076a:	881b      	ldrh	r3, [r3, #0]
 800076c:	4619      	mov	r1, r3
 800076e:	687b      	ldr	r3, [r7, #4]
 8000770:	691b      	ldr	r3, [r3, #16]
 8000772:	4a1c      	ldr	r2, [pc, #112]	; (80007e4 <Update_EXTI+0x1d4>)
 8000774:	f842 3021 	str.w	r3, [r2, r1, lsl #2]
 8000778:	687b      	ldr	r3, [r7, #4]
 800077a:	7b5b      	ldrb	r3, [r3, #13]
 800077c:	2b00      	cmp	r3, #0
 800077e:	d110      	bne.n	80007a2 <Update_EXTI+0x192>
 8000780:	4b17      	ldr	r3, [pc, #92]	; (80007e0 <Update_EXTI+0x1d0>)
 8000782:	681b      	ldr	r3, [r3, #0]
 8000784:	687a      	ldr	r2, [r7, #4]
 8000786:	8812      	ldrh	r2, [r2, #0]
 8000788:	4611      	mov	r1, r2
 800078a:	2201      	movs	r2, #1
 800078c:	408a      	lsls	r2, r1
 800078e:	4611      	mov	r1, r2
 8000790:	4a13      	ldr	r2, [pc, #76]	; (80007e0 <Update_EXTI+0x1d0>)
 8000792:	430b      	orrs	r3, r1
 8000794:	6013      	str	r3, [r2, #0]
 8000796:	687b      	ldr	r3, [r7, #4]
 8000798:	881b      	ldrh	r3, [r3, #0]
 800079a:	4618      	mov	r0, r3
 800079c:	f7ff fe6c 	bl	8000478 <Enable_NVIC>
 80007a0:	e010      	b.n	80007c4 <Update_EXTI+0x1b4>
 80007a2:	4b0f      	ldr	r3, [pc, #60]	; (80007e0 <Update_EXTI+0x1d0>)
 80007a4:	681b      	ldr	r3, [r3, #0]
 80007a6:	687a      	ldr	r2, [r7, #4]
 80007a8:	8812      	ldrh	r2, [r2, #0]
 80007aa:	4611      	mov	r1, r2
 80007ac:	2201      	movs	r2, #1
 80007ae:	408a      	lsls	r2, r1
 80007b0:	43d2      	mvns	r2, r2
 80007b2:	4611      	mov	r1, r2
 80007b4:	4a0a      	ldr	r2, [pc, #40]	; (80007e0 <Update_EXTI+0x1d0>)
 80007b6:	400b      	ands	r3, r1
 80007b8:	6013      	str	r3, [r2, #0]
 80007ba:	687b      	ldr	r3, [r7, #4]
 80007bc:	881b      	ldrh	r3, [r3, #0]
 80007be:	4618      	mov	r0, r3
 80007c0:	f7ff fec0 	bl	8000544 <Disable_NVIC>
 80007c4:	bf00      	nop
 80007c6:	3710      	adds	r7, #16
 80007c8:	46bd      	mov	sp, r7
 80007ca:	bd80      	pop	{r7, pc}
 80007cc:	40010000 	andmi	r0, r1, r0
 80007d0:	40010800 	andmi	r0, r1, r0, lsl #16
 80007d4:	40010c00 	andmi	r0, r1, r0, lsl #24
 80007d8:	40011000 	andmi	r1, r1, r0
 80007dc:	40011400 	andmi	r1, r1, r0, lsl #8
 80007e0:	40010400 	andmi	r0, r1, r0, lsl #8
 80007e4:	20000034 	andcs	r0, r0, r4, lsr r0

080007e8 <MCAL_EXTI_GPIO_Init>:
 80007e8:	b580      	push	{r7, lr}
 80007ea:	b082      	sub	sp, #8
 80007ec:	af00      	add	r7, sp, #0
 80007ee:	6078      	str	r0, [r7, #4]
 80007f0:	6878      	ldr	r0, [r7, #4]
 80007f2:	f7ff ff0d 	bl	8000610 <Update_EXTI>
 80007f6:	bf00      	nop
 80007f8:	3708      	adds	r7, #8
 80007fa:	46bd      	mov	sp, r7
 80007fc:	bd80      	pop	{r7, pc}
	...

08000800 <EXTI0_IRQHandler>:
 8000800:	b580      	push	{r7, lr}
 8000802:	af00      	add	r7, sp, #0
 8000804:	4b05      	ldr	r3, [pc, #20]	; (800081c <EXTI0_IRQHandler+0x1c>)
 8000806:	695b      	ldr	r3, [r3, #20]
 8000808:	4a04      	ldr	r2, [pc, #16]	; (800081c <EXTI0_IRQHandler+0x1c>)
 800080a:	f043 0301 	orr.w	r3, r3, #1
 800080e:	6153      	str	r3, [r2, #20]
 8000810:	4b03      	ldr	r3, [pc, #12]	; (8000820 <EXTI0_IRQHandler+0x20>)
 8000812:	681b      	ldr	r3, [r3, #0]
 8000814:	4798      	blx	r3
 8000816:	bf00      	nop
 8000818:	bd80      	pop	{r7, pc}
 800081a:	bf00      	nop
 800081c:	40010400 	andmi	r0, r1, r0, lsl #8
 8000820:	20000034 	andcs	r0, r0, r4, lsr r0

08000824 <EXTI1_IRQHandler>:
 8000824:	b580      	push	{r7, lr}
 8000826:	af00      	add	r7, sp, #0
 8000828:	4b05      	ldr	r3, [pc, #20]	; (8000840 <EXTI1_IRQHandler+0x1c>)
 800082a:	695b      	ldr	r3, [r3, #20]
 800082c:	4a04      	ldr	r2, [pc, #16]	; (8000840 <EXTI1_IRQHandler+0x1c>)
 800082e:	f043 0302 	orr.w	r3, r3, #2
 8000832:	6153      	str	r3, [r2, #20]
 8000834:	4b03      	ldr	r3, [pc, #12]	; (8000844 <EXTI1_IRQHandler+0x20>)
 8000836:	685b      	ldr	r3, [r3, #4]
 8000838:	4798      	blx	r3
 800083a:	bf00      	nop
 800083c:	bd80      	pop	{r7, pc}
 800083e:	bf00      	nop
 8000840:	40010400 	andmi	r0, r1, r0, lsl #8
 8000844:	20000034 	andcs	r0, r0, r4, lsr r0

08000848 <EXTI2_IRQHandler>:
 8000848:	b580      	push	{r7, lr}
 800084a:	af00      	add	r7, sp, #0
 800084c:	4b05      	ldr	r3, [pc, #20]	; (8000864 <EXTI2_IRQHandler+0x1c>)
 800084e:	695b      	ldr	r3, [r3, #20]
 8000850:	4a04      	ldr	r2, [pc, #16]	; (8000864 <EXTI2_IRQHandler+0x1c>)
 8000852:	f043 0304 	orr.w	r3, r3, #4
 8000856:	6153      	str	r3, [r2, #20]
 8000858:	4b03      	ldr	r3, [pc, #12]	; (8000868 <EXTI2_IRQHandler+0x20>)
 800085a:	689b      	ldr	r3, [r3, #8]
 800085c:	4798      	blx	r3
 800085e:	bf00      	nop
 8000860:	bd80      	pop	{r7, pc}
 8000862:	bf00      	nop
 8000864:	40010400 	andmi	r0, r1, r0, lsl #8
 8000868:	20000034 	andcs	r0, r0, r4, lsr r0

0800086c <EXTI3_IRQHandler>:
 800086c:	b580      	push	{r7, lr}
 800086e:	af00      	add	r7, sp, #0
 8000870:	4b05      	ldr	r3, [pc, #20]	; (8000888 <EXTI3_IRQHandler+0x1c>)
 8000872:	695b      	ldr	r3, [r3, #20]
 8000874:	4a04      	ldr	r2, [pc, #16]	; (8000888 <EXTI3_IRQHandler+0x1c>)
 8000876:	f043 0308 	orr.w	r3, r3, #8
 800087a:	6153      	str	r3, [r2, #20]
 800087c:	4b03      	ldr	r3, [pc, #12]	; (800088c <EXTI3_IRQHandler+0x20>)
 800087e:	68db      	ldr	r3, [r3, #12]
 8000880:	4798      	blx	r3
 8000882:	bf00      	nop
 8000884:	bd80      	pop	{r7, pc}
 8000886:	bf00      	nop
 8000888:	40010400 	andmi	r0, r1, r0, lsl #8
 800088c:	20000034 	andcs	r0, r0, r4, lsr r0

08000890 <EXTI4_IRQHandler>:
 8000890:	b580      	push	{r7, lr}
 8000892:	af00      	add	r7, sp, #0
 8000894:	4b05      	ldr	r3, [pc, #20]	; (80008ac <EXTI4_IRQHandler+0x1c>)
 8000896:	695b      	ldr	r3, [r3, #20]
 8000898:	4a04      	ldr	r2, [pc, #16]	; (80008ac <EXTI4_IRQHandler+0x1c>)
 800089a:	f043 0310 	orr.w	r3, r3, #16
 800089e:	6153      	str	r3, [r2, #20]
 80008a0:	4b03      	ldr	r3, [pc, #12]	; (80008b0 <EXTI4_IRQHandler+0x20>)
 80008a2:	691b      	ldr	r3, [r3, #16]
 80008a4:	4798      	blx	r3
 80008a6:	bf00      	nop
 80008a8:	bd80      	pop	{r7, pc}
 80008aa:	bf00      	nop
 80008ac:	40010400 	andmi	r0, r1, r0, lsl #8
 80008b0:	20000034 	andcs	r0, r0, r4, lsr r0

080008b4 <EXTI9_5_IRQHandler>:
 80008b4:	b580      	push	{r7, lr}
 80008b6:	af00      	add	r7, sp, #0
 80008b8:	4b26      	ldr	r3, [pc, #152]	; (8000954 <EXTI9_5_IRQHandler+0xa0>)
 80008ba:	695b      	ldr	r3, [r3, #20]
 80008bc:	f003 0320 	and.w	r3, r3, #32
 80008c0:	2b00      	cmp	r3, #0
 80008c2:	d008      	beq.n	80008d6 <EXTI9_5_IRQHandler+0x22>
 80008c4:	4b23      	ldr	r3, [pc, #140]	; (8000954 <EXTI9_5_IRQHandler+0xa0>)
 80008c6:	695b      	ldr	r3, [r3, #20]
 80008c8:	4a22      	ldr	r2, [pc, #136]	; (8000954 <EXTI9_5_IRQHandler+0xa0>)
 80008ca:	f043 0320 	orr.w	r3, r3, #32
 80008ce:	6153      	str	r3, [r2, #20]
 80008d0:	4b21      	ldr	r3, [pc, #132]	; (8000958 <EXTI9_5_IRQHandler+0xa4>)
 80008d2:	695b      	ldr	r3, [r3, #20]
 80008d4:	4798      	blx	r3
 80008d6:	4b1f      	ldr	r3, [pc, #124]	; (8000954 <EXTI9_5_IRQHandler+0xa0>)
 80008d8:	695b      	ldr	r3, [r3, #20]
 80008da:	f003 0340 	and.w	r3, r3, #64	; 0x40
 80008de:	2b00      	cmp	r3, #0
 80008e0:	d008      	beq.n	80008f4 <EXTI9_5_IRQHandler+0x40>
 80008e2:	4b1c      	ldr	r3, [pc, #112]	; (8000954 <EXTI9_5_IRQHandler+0xa0>)
 80008e4:	695b      	ldr	r3, [r3, #20]
 80008e6:	4a1b      	ldr	r2, [pc, #108]	; (8000954 <EXTI9_5_IRQHandler+0xa0>)
 80008e8:	f043 0340 	orr.w	r3, r3, #64	; 0x40
 80008ec:	6153      	str	r3, [r2, #20]
 80008ee:	4b1a      	ldr	r3, [pc, #104]	; (8000958 <EXTI9_5_IRQHandler+0xa4>)
 80008f0:	699b      	ldr	r3, [r3, #24]
 80008f2:	4798      	blx	r3
 80008f4:	4b17      	ldr	r3, [pc, #92]	; (8000954 <EXTI9_5_IRQHandler+0xa0>)
 80008f6:	695b      	ldr	r3, [r3, #20]
 80008f8:	f003 0380 	and.w	r3, r3, #128	; 0x80
 80008fc:	2b00      	cmp	r3, #0
 80008fe:	d008      	beq.n	8000912 <EXTI9_5_IRQHandler+0x5e>
 8000900:	4b14      	ldr	r3, [pc, #80]	; (8000954 <EXTI9_5_IRQHandler+0xa0>)
 8000902:	695b      	ldr	r3, [r3, #20]
 8000904:	4a13      	ldr	r2, [pc, #76]	; (8000954 <EXTI9_5_IRQHandler+0xa0>)
 8000906:	f043 0380 	orr.w	r3, r3, #128	; 0x80
 800090a:	6153      	str	r3, [r2, #20]
 800090c:	4b12      	ldr	r3, [pc, #72]	; (8000958 <EXTI9_5_IRQHandler+0xa4>)
 800090e:	69db      	ldr	r3, [r3, #28]
 8000910:	4798      	blx	r3
 8000912:	4b10      	ldr	r3, [pc, #64]	; (8000954 <EXTI9_5_IRQHandler+0xa0>)
 8000914:	695b      	ldr	r3, [r3, #20]
 8000916:	f403 7380 	and.w	r3, r3, #256	; 0x100
 800091a:	2b00      	cmp	r3, #0
 800091c:	d008      	beq.n	8000930 <EXTI9_5_IRQHandler+0x7c>
 800091e:	4b0d      	ldr	r3, [pc, #52]	; (8000954 <EXTI9_5_IRQHandler+0xa0>)
 8000920:	695b      	ldr	r3, [r3, #20]
 8000922:	4a0c      	ldr	r2, [pc, #48]	; (8000954 <EXTI9_5_IRQHandler+0xa0>)
 8000924:	f443 7380 	orr.w	r3, r3, #256	; 0x100
 8000928:	6153      	str	r3, [r2, #20]
 800092a:	4b0b      	ldr	r3, [pc, #44]	; (8000958 <EXTI9_5_IRQHandler+0xa4>)
 800092c:	6a1b      	ldr	r3, [r3, #32]
 800092e:	4798      	blx	r3
 8000930:	4b08      	ldr	r3, [pc, #32]	; (8000954 <EXTI9_5_IRQHandler+0xa0>)
 8000932:	695b      	ldr	r3, [r3, #20]
 8000934:	f403 7300 	and.w	r3, r3, #512	; 0x200
 8000938:	2b00      	cmp	r3, #0
 800093a:	d008      	beq.n	800094e <EXTI9_5_IRQHandler+0x9a>
 800093c:	4b05      	ldr	r3, [pc, #20]	; (8000954 <EXTI9_5_IRQHandler+0xa0>)
 800093e:	695b      	ldr	r3, [r3, #20]
 8000940:	4a04      	ldr	r2, [pc, #16]	; (8000954 <EXTI9_5_IRQHandler+0xa0>)
 8000942:	f443 7300 	orr.w	r3, r3, #512	; 0x200
 8000946:	6153      	str	r3, [r2, #20]
 8000948:	4b03      	ldr	r3, [pc, #12]	; (8000958 <EXTI9_5_IRQHandler+0xa4>)
 800094a:	6a5b      	ldr	r3, [r3, #36]	; 0x24
 800094c:	4798      	blx	r3
 800094e:	bf00      	nop
 8000950:	bd80      	pop	{r7, pc}
 8000952:	bf00      	nop
 8000954:	40010400 	andmi	r0, r1, r0, lsl #8
 8000958:	20000034 	andcs	r0, r0, r4, lsr r0

0800095c <EXTI15_10_IRQHandler>:
 800095c:	b580      	push	{r7, lr}
 800095e:	af00      	add	r7, sp, #0
 8000960:	4b2d      	ldr	r3, [pc, #180]	; (8000a18 <EXTI15_10_IRQHandler+0xbc>)
 8000962:	695b      	ldr	r3, [r3, #20]
 8000964:	f403 6380 	and.w	r3, r3, #1024	; 0x400
 8000968:	2b00      	cmp	r3, #0
 800096a:	d008      	beq.n	800097e <EXTI15_10_IRQHandler+0x22>
 800096c:	4b2a      	ldr	r3, [pc, #168]	; (8000a18 <EXTI15_10_IRQHandler+0xbc>)
 800096e:	695b      	ldr	r3, [r3, #20]
 8000970:	4a29      	ldr	r2, [pc, #164]	; (8000a18 <EXTI15_10_IRQHandler+0xbc>)
 8000972:	f443 6380 	orr.w	r3, r3, #1024	; 0x400
 8000976:	6153      	str	r3, [r2, #20]
 8000978:	4b28      	ldr	r3, [pc, #160]	; (8000a1c <EXTI15_10_IRQHandler+0xc0>)
 800097a:	6a9b      	ldr	r3, [r3, #40]	; 0x28
 800097c:	4798      	blx	r3
 800097e:	4b26      	ldr	r3, [pc, #152]	; (8000a18 <EXTI15_10_IRQHandler+0xbc>)
 8000980:	695b      	ldr	r3, [r3, #20]
 8000982:	f403 6300 	and.w	r3, r3, #2048	; 0x800
 8000986:	2b00      	cmp	r3, #0
 8000988:	d008      	beq.n	800099c <EXTI15_10_IRQHandler+0x40>
 800098a:	4b23      	ldr	r3, [pc, #140]	; (8000a18 <EXTI15_10_IRQHandler+0xbc>)
 800098c:	695b      	ldr	r3, [r3, #20]
 800098e:	4a22      	ldr	r2, [pc, #136]	; (8000a18 <EXTI15_10_IRQHandler+0xbc>)
 8000990:	f443 6300 	orr.w	r3, r3, #2048	; 0x800
 8000994:	6153      	str	r3, [r2, #20]
 8000996:	4b21      	ldr	r3, [pc, #132]	; (8000a1c <EXTI15_10_IRQHandler+0xc0>)
 8000998:	6adb      	ldr	r3, [r3, #44]	; 0x2c
 800099a:	4798      	blx	r3
 800099c:	4b1e      	ldr	r3, [pc, #120]	; (8000a18 <EXTI15_10_IRQHandler+0xbc>)
 800099e:	695b      	ldr	r3, [r3, #20]
 80009a0:	f403 5380 	and.w	r3, r3, #4096	; 0x1000
 80009a4:	2b00      	cmp	r3, #0
 80009a6:	d008      	beq.n	80009ba <EXTI15_10_IRQHandler+0x5e>
 80009a8:	4b1b      	ldr	r3, [pc, #108]	; (8000a18 <EXTI15_10_IRQHandler+0xbc>)
 80009aa:	695b      	ldr	r3, [r3, #20]
 80009ac:	4a1a      	ldr	r2, [pc, #104]	; (8000a18 <EXTI15_10_IRQHandler+0xbc>)
 80009ae:	f443 5380 	orr.w	r3, r3, #4096	; 0x1000
 80009b2:	6153      	str	r3, [r2, #20]
 80009b4:	4b19      	ldr	r3, [pc, #100]	; (8000a1c <EXTI15_10_IRQHandler+0xc0>)
 80009b6:	6b1b      	ldr	r3, [r3, #48]	; 0x30
 80009b8:	4798      	blx	r3
 80009ba:	4b17      	ldr	r3, [pc, #92]	; (8000a18 <EXTI15_10_IRQHandler+0xbc>)
 80009bc:	695b      	ldr	r3, [r3, #20]
 80009be:	f403 5300 	and.w	r3, r3, #8192	; 0x2000
 80009c2:	2b00      	cmp	r3, #0
 80009c4:	d008      	beq.n	80009d8 <EXTI15_10_IRQHandler+0x7c>
 80009c6:	4b14      	ldr	r3, [pc, #80]	; (8000a18 <EXTI15_10_IRQHandler+0xbc>)
 80009c8:	695b      	ldr	r3, [r3, #20]
 80009ca:	4a13      	ldr	r2, [pc, #76]	; (8000a18 <EXTI15_10_IRQHandler+0xbc>)
 80009cc:	f443 5300 	orr.w	r3, r3, #8192	; 0x2000
 80009d0:	6153      	str	r3, [r2, #20]
 80009d2:	4b12      	ldr	r3, [pc, #72]	; (8000a1c <EXTI15_10_IRQHandler+0xc0>)
 80009d4:	6b5b      	ldr	r3, [r3, #52]	; 0x34
 80009d6:	4798      	blx	r3
 80009d8:	4b0f      	ldr	r3, [pc, #60]	; (8000a18 <EXTI15_10_IRQHandler+0xbc>)
 80009da:	695b      	ldr	r3, [r3, #20]
 80009dc:	f403 4380 	and.w	r3, r3, #16384	; 0x4000
 80009e0:	2b00      	cmp	r3, #0
 80009e2:	d008      	beq.n	80009f6 <EXTI15_10_IRQHandler+0x9a>
 80009e4:	4b0c      	ldr	r3, [pc, #48]	; (8000a18 <EXTI15_10_IRQHandler+0xbc>)
 80009e6:	695b      	ldr	r3, [r3, #20]
 80009e8:	4a0b      	ldr	r2, [pc, #44]	; (8000a18 <EXTI15_10_IRQHandler+0xbc>)
 80009ea:	f443 4380 	orr.w	r3, r3, #16384	; 0x4000
 80009ee:	6153      	str	r3, [r2, #20]
 80009f0:	4b0a      	ldr	r3, [pc, #40]	; (8000a1c <EXTI15_10_IRQHandler+0xc0>)
 80009f2:	6b9b      	ldr	r3, [r3, #56]	; 0x38
 80009f4:	4798      	blx	r3
 80009f6:	4b08      	ldr	r3, [pc, #32]	; (8000a18 <EXTI15_10_IRQHandler+0xbc>)
 80009f8:	695b      	ldr	r3, [r3, #20]
 80009fa:	f403 4380 	and.w	r3, r3, #16384	; 0x4000
 80009fe:	2b00      	cmp	r3, #0
 8000a00:	d008      	beq.n	8000a14 <EXTI15_10_IRQHandler+0xb8>
 8000a02:	4b05      	ldr	r3, [pc, #20]	; (8000a18 <EXTI15_10_IRQHandler+0xbc>)
 8000a04:	695b      	ldr	r3, [r3, #20]
 8000a06:	4a04      	ldr	r2, [pc, #16]	; (8000a18 <EXTI15_10_IRQHandler+0xbc>)
 8000a08:	f443 4300 	orr.w	r3, r3, #32768	; 0x8000
 8000a0c:	6153      	str	r3, [r2, #20]
 8000a0e:	4b03      	ldr	r3, [pc, #12]	; (8000a1c <EXTI15_10_IRQHandler+0xc0>)
 8000a10:	6bdb      	ldr	r3, [r3, #60]	; 0x3c
 8000a12:	4798      	blx	r3
 8000a14:	bf00      	nop
 8000a16:	bd80      	pop	{r7, pc}
 8000a18:	40010400 	andmi	r0, r1, r0, lsl #8
 8000a1c:	20000034 	andcs	r0, r0, r4, lsr r0

08000a20 <__libc_init_array>:
 8000a20:	b570      	push	{r4, r5, r6, lr}
 8000a22:	2500      	movs	r5, #0
 8000a24:	4e0c      	ldr	r6, [pc, #48]	; (8000a58 <__libc_init_array+0x38>)
 8000a26:	4c0d      	ldr	r4, [pc, #52]	; (8000a5c <__libc_init_array+0x3c>)
 8000a28:	1ba4      	subs	r4, r4, r6
 8000a2a:	10a4      	asrs	r4, r4, #2
 8000a2c:	42a5      	cmp	r5, r4
 8000a2e:	d109      	bne.n	8000a44 <__libc_init_array+0x24>
 8000a30:	f000 f81a 	bl	8000a68 <_init>
 8000a34:	2500      	movs	r5, #0
 8000a36:	4e0a      	ldr	r6, [pc, #40]	; (8000a60 <__libc_init_array+0x40>)
 8000a38:	4c0a      	ldr	r4, [pc, #40]	; (8000a64 <__libc_init_array+0x44>)
 8000a3a:	1ba4      	subs	r4, r4, r6
 8000a3c:	10a4      	asrs	r4, r4, #2
 8000a3e:	42a5      	cmp	r5, r4
 8000a40:	d105      	bne.n	8000a4e <__libc_init_array+0x2e>
 8000a42:	bd70      	pop	{r4, r5, r6, pc}
 8000a44:	f856 3025 	ldr.w	r3, [r6, r5, lsl #2]
 8000a48:	4798      	blx	r3
 8000a4a:	3501      	adds	r5, #1
 8000a4c:	e7ee      	b.n	8000a2c <__libc_init_array+0xc>
 8000a4e:	f856 3025 	ldr.w	r3, [r6, r5, lsl #2]
 8000a52:	4798      	blx	r3
 8000a54:	3501      	adds	r5, #1
 8000a56:	e7f2      	b.n	8000a3e <__libc_init_array+0x1e>
 8000a58:	08000a8c 	stmdaeq	r0, {r2, r3, r7, r9, fp}
 8000a5c:	08000a8c 	stmdaeq	r0, {r2, r3, r7, r9, fp}
 8000a60:	08000a8c 	stmdaeq	r0, {r2, r3, r7, r9, fp}
 8000a64:	08000a90 	stmdaeq	r0, {r4, r7, r9, fp}

08000a68 <_init>:
 8000a68:	b5f8      	push	{r3, r4, r5, r6, r7, lr}
 8000a6a:	bf00      	nop
 8000a6c:	bcf8      	pop	{r3, r4, r5, r6, r7}
 8000a6e:	bc08      	pop	{r3}
 8000a70:	469e      	mov	lr, r3
 8000a72:	4770      	bx	lr

08000a74 <_fini>:
 8000a74:	b5f8      	push	{r3, r4, r5, r6, r7, lr}
 8000a76:	bf00      	nop
 8000a78:	bcf8      	pop	{r3, r4, r5, r6, r7}
 8000a7a:	bc08      	pop	{r3}
 8000a7c:	469e      	mov	lr, r3
 8000a7e:	4770      	bx	lr

Disassembly of section .rodata:

08000a80 <.rodata>:
 8000a80:	00000009 	andeq	r0, r0, r9
 8000a84:	40010c00 	andmi	r0, r1, r0, lsl #24
 8000a88:	00170200 	andseq	r0, r7, r0, lsl #4

Disassembly of section .init_array:

08000a8c <__frame_dummy_init_array_entry>:
 8000a8c:	08000155 	stmdaeq	r0, {r0, r2, r4, r6, r8}

Disassembly of section .fini_array:

08000a90 <__do_global_dtors_aux_fini_array_entry>:
 8000a90:	08000131 	stmdaeq	r0, {r0, r4, r5, r8}

Disassembly of section .data:

20000000 <VAL1>:
20000000:	00000003 	andeq	r0, r0, r3

20000004 <VAL2>:
20000004:	00000007 	andeq	r0, r0, r7

Disassembly of section .bss:

20000008 <__bss_start__>:
20000008:	00000000 	andeq	r0, r0, r0

2000000c <object.8661>:
	...

20000024 <CPU_Control_register>:
20000024:	00000000 	andeq	r0, r0, r0

20000028 <CPU_IPSR_register>:
20000028:	00000000 	andeq	r0, r0, r0

2000002c <IRQ_Flag>:
2000002c:	00000000 	andeq	r0, r0, r0

20000030 <VAL3>:
20000030:	00000000 	andeq	r0, r0, r0

20000034 <GP_IRQ_CallBack>:
	...

Disassembly of section ._user_heap_stack:

20000070 <_end>:
	...

Disassembly of section .ARM.attributes:

00000000 <.ARM.attributes>:
   0:	00002841 	andeq	r2, r0, r1, asr #16
   4:	61656100 	cmnvs	r5, r0, lsl #2
   8:	01006962 	tsteq	r0, r2, ror #18
   c:	0000001e 	andeq	r0, r0, lr, lsl r0
  10:	4d2d3705 	stcmi	7, cr3, [sp, #-20]!	; 0xffffffec
  14:	070a0600 	streq	r0, [sl, -r0, lsl #12]
  18:	1202094d 	andne	r0, r2, #1261568	; 0x134000
  1c:	15011404 	strne	r1, [r1, #-1028]	; 0xfffffbfc
  20:	18031701 	stmdane	r3, {r0, r8, r9, sl, ip}
  24:	22011a01 	andcs	r1, r1, #4096	; 0x1000
  28:	Address 0x0000000000000028 is out of bounds.


Disassembly of section .debug_info:

00000000 <.debug_info>:
       0:	00000c23 	andeq	r0, r0, r3, lsr #24
       4:	00000002 	andeq	r0, r0, r2
       8:	01040000 	mrseq	r0, (UNDEF: 4)
       c:	00008585 	andeq	r8, r0, r5, lsl #11
      10:	0030110c 	eorseq	r1, r0, ip, lsl #2
      14:	0022f700 	eoreq	pc, r2, r0, lsl #14
	...
      2c:	07040200 	streq	r0, [r4, -r0, lsl #4]
      30:	000020ff 	strdeq	r2, [r0], -pc	; <UNPREDICTABLE>
      34:	69050403 	stmdbvs	r5, {r0, r1, sl}
      38:	0200746e 	andeq	r7, r0, #1845493760	; 0x6e000000
      3c:	4fd70508 	svcmi	0x00d70508
      40:	08020000 	stmdaeq	r2, {}	; <UNPREDICTABLE>
      44:	00034104 	andeq	r4, r3, r4, lsl #2
      48:	06010200 	streq	r0, [r1], -r0, lsl #4
      4c:	000007e1 	andeq	r0, r0, r1, ror #15
      50:	00126904 	andseq	r6, r2, r4, lsl #18
      54:	5b2b0200 	blpl	ac085c <_Min_Stack_Size+0xac045c>
      58:	02000000 	andeq	r0, r0, #0
      5c:	2fd80801 	svccs	0x00d80801
      60:	02020000 	andeq	r0, r2, #0
      64:	0009fd05 	andeq	pc, r9, r5, lsl #26
      68:	2a1d0400 	bcs	741070 <_Min_Stack_Size+0x740c70>
      6c:	39020000 	stmdbcc	r2, {}	; <UNPREDICTABLE>
      70:	00000074 	andeq	r0, r0, r4, ror r0
      74:	9b070202 	blls	1c0884 <_Min_Stack_Size+0x1c0484>
      78:	02000066 	andeq	r0, r0, #102	; 0x66
      7c:	69840504 	stmibvs	r4, {r2, r8, sl}
      80:	98040000 	stmdals	r4, {}	; <UNPREDICTABLE>
      84:	02000040 	andeq	r0, r0, #64	; 0x40
      88:	00008d4f 	andeq	r8, r0, pc, asr #26
      8c:	07040200 	streq	r0, [r4, -r0, lsl #4]
      90:	000019d4 	ldrdeq	r1, [r0], -r4
      94:	09070802 	stmdbeq	r7, {r1, fp}
      98:	0400003d 	streq	r0, [r0], #-61	; 0xffffffc3
      9c:	000042fa 	strdeq	r4, [r0], -sl
      a0:	00340c03 	eorseq	r0, r4, r3, lsl #24
      a4:	7b040000 	blvc	1000ac <_Min_Stack_Size+0xffcac>
      a8:	04000082 	streq	r0, [r0], #-130	; 0xffffff7e
      ac:	00007b2c 	andeq	r7, r0, ip, lsr #22
      b0:	620f0400 	andvs	r0, pc, #0, 8
      b4:	72040000 	andvc	r0, r4, #0
      b8:	0000007b 	andeq	r0, r0, fp, ror r0
      bc:	0022a205 	eoreq	sl, r2, r5, lsl #4
      c0:	01650500 	cmneq	r5, r0, lsl #10
      c4:	0000002d 	andeq	r0, r0, sp, lsr #32
      c8:	a6040406 	strge	r0, [r4], -r6, lsl #8
      cc:	000000e7 	andeq	r0, r0, r7, ror #1
      d0:	00143607 	andseq	r3, r4, r7, lsl #12
      d4:	bca80400 	cfstrslt	mvf0, [r8]
      d8:	07000000 	streq	r0, [r0, -r0]
      dc:	0000622d 	andeq	r6, r0, sp, lsr #4
      e0:	00e7a904 	rsceq	sl, r7, r4, lsl #18
      e4:	08000000 	stmdaeq	r0, {}	; <UNPREDICTABLE>
      e8:	0000005b 	andeq	r0, r0, fp, asr r0
      ec:	000000f7 	strdeq	r0, [r0], -r7
      f0:	00002d09 	andeq	r2, r0, r9, lsl #26
      f4:	0a000300 	beq	cfc <_Min_Stack_Size+0x8fc>
      f8:	1ca30408 	cfstrsne	mvf0, [r3], #32
      fc:	0b000001 	bleq	108 <_Min_Heap_Size-0xf8>
     100:	00005c51 	andeq	r5, r0, r1, asr ip
     104:	0034a504 	eorseq	sl, r4, r4, lsl #10
     108:	23020000 	movwcs	r0, #8192	; 0x2000
     10c:	02050b00 	andeq	r0, r5, #0, 22
     110:	aa040000 	bge	100118 <_Min_Stack_Size+0xffd18>
     114:	000000c8 	andeq	r0, r0, r8, asr #1
     118:	00042302 	andeq	r2, r4, r2, lsl #6
     11c:	00511004 	subseq	r1, r1, r4
     120:	f7ab0400 			; <UNDEFINED> instruction: 0xf7ab0400
     124:	04000000 	streq	r0, [r0], #-0
     128:	00006ac6 	andeq	r6, r0, r6, asr #21
     12c:	009baf04 	addseq	sl, fp, r4, lsl #30
     130:	040c0000 	streq	r0, [ip], #-0
     134:	013a040d 	teqeq	sl, sp, lsl #8
     138:	01020000 	mrseq	r0, (UNDEF: 2)
     13c:	0007e808 	andeq	lr, r7, r8, lsl #16
     140:	013a0e00 	teqeq	sl, r0, lsl #28
     144:	48040000 	stmdami	r4, {}	; <UNPREDICTABLE>
     148:	0600007f 			; <UNDEFINED> instruction: 0x0600007f
     14c:	00008d16 	andeq	r8, r0, r6, lsl sp
     150:	47e50f00 	strbmi	r0, [r5, r0, lsl #30]!
     154:	06180000 	ldreq	r0, [r8], -r0
     158:	0001b02f 	andeq	fp, r1, pc, lsr #32
     15c:	59580b00 	ldmdbpl	r8, {r8, r9, fp}^
     160:	31060000 	mrscc	r0, (UNDEF: 6)
     164:	000001b0 			; <UNDEFINED> instruction: 0x000001b0
     168:	10002302 	andne	r2, r0, r2, lsl #6
     16c:	06006b5f 			; <UNDEFINED> instruction: 0x06006b5f
     170:	00003432 	andeq	r3, r0, r2, lsr r4
     174:	04230200 	strteq	r0, [r3], #-512	; 0xfffffe00
     178:	0077e00b 	rsbseq	lr, r7, fp
     17c:	34320600 	ldrtcc	r0, [r2], #-1536	; 0xfffffa00
     180:	02000000 	andeq	r0, r0, #0
     184:	1b0b0823 	blne	2c2218 <_Min_Stack_Size+0x2c1e18>
     188:	06000051 			; <UNDEFINED> instruction: 0x06000051
     18c:	00003432 	andeq	r3, r0, r2, lsr r4
     190:	0c230200 	sfmeq	f0, 4, [r3], #-0
     194:	0034380b 	eorseq	r3, r4, fp, lsl #16
     198:	34320600 	ldrtcc	r0, [r2], #-1536	; 0xfffffa00
     19c:	02000000 	andeq	r0, r0, #0
     1a0:	5f101023 	svcpl	0x00101023
     1a4:	33060078 	movwcc	r0, #24696	; 0x6078
     1a8:	000001b6 			; <UNDEFINED> instruction: 0x000001b6
     1ac:	00142302 	andseq	r2, r4, r2, lsl #6
     1b0:	0151040d 	cmpeq	r1, sp, lsl #8
     1b4:	46080000 	strmi	r0, [r8], -r0
     1b8:	c6000001 	strgt	r0, [r0], -r1
     1bc:	09000001 	stmdbeq	r0, {r0}
     1c0:	0000002d 	andeq	r0, r0, sp, lsr #32
     1c4:	ba0f0000 	blt	3c01cc <_Min_Stack_Size+0x3bfdcc>
     1c8:	24000009 	strcs	r0, [r0], #-9
     1cc:	02513706 	subseq	r3, r1, #1572864	; 0x180000
     1d0:	d60b0000 	strle	r0, [fp], -r0
     1d4:	06000009 	streq	r0, [r0], -r9
     1d8:	00003439 	andeq	r3, r0, r9, lsr r4
     1dc:	00230200 	eoreq	r0, r3, r0, lsl #4
     1e0:	008b540b 	addeq	r5, fp, fp, lsl #8
     1e4:	343a0600 	ldrtcc	r0, [sl], #-1536	; 0xfffffa00
     1e8:	02000000 	andeq	r0, r0, #0
     1ec:	cd0b0423 	cfstrsgt	mvf0, [fp, #-140]	; 0xffffff74
     1f0:	06000083 	streq	r0, [r0], -r3, lsl #1
     1f4:	0000343b 	andeq	r3, r0, fp, lsr r4
     1f8:	08230200 	stmdaeq	r3!, {r9}
     1fc:	0057570b 	subseq	r5, r7, fp, lsl #14
     200:	343c0600 	ldrtcc	r0, [ip], #-1536	; 0xfffffa00
     204:	02000000 	andeq	r0, r0, #0
     208:	870b0c23 	strhi	r0, [fp, -r3, lsr #24]
     20c:	0600001a 			; <UNDEFINED> instruction: 0x0600001a
     210:	0000343d 	andeq	r3, r0, sp, lsr r4
     214:	10230200 	eorne	r0, r3, r0, lsl #4
     218:	0078580b 	rsbseq	r5, r8, fp, lsl #16
     21c:	343e0600 	ldrtcc	r0, [lr], #-1536	; 0xfffffa00
     220:	02000000 	andeq	r0, r0, #0
     224:	210b1423 	tstcs	fp, r3, lsr #8
     228:	0600005e 			; <UNDEFINED> instruction: 0x0600005e
     22c:	0000343f 	andeq	r3, r0, pc, lsr r4
     230:	18230200 	stmdane	r3!, {r9}
     234:	005f4a0b 	subseq	r4, pc, fp, lsl #20
     238:	34400600 	strbcc	r0, [r0], #-1536	; 0xfffffa00
     23c:	02000000 	andeq	r0, r0, #0
     240:	510b1c23 	tstpl	fp, r3, lsr #24
     244:	06000089 	streq	r0, [r0], -r9, lsl #1
     248:	00003441 	andeq	r3, r0, r1, asr #8
     24c:	20230200 	eorcs	r0, r3, r0, lsl #4
     250:	13531100 	cmpne	r3, #0, 2
     254:	01080000 	mrseq	r0, (UNDEF: 8)
     258:	029a4a06 	addseq	r4, sl, #24576	; 0x6000
     25c:	210b0000 	mrscs	r0, (UNDEF: 11)
     260:	0600000c 	streq	r0, [r0], -ip
     264:	00029a4b 	andeq	r9, r2, fp, asr #20
     268:	00230200 	eoreq	r0, r3, r0, lsl #4
     26c:	0065c50b 	rsbeq	ip, r5, fp, lsl #10
     270:	9a4c0600 	bls	1301a78 <_Min_Stack_Size+0x1301678>
     274:	03000002 	movweq	r0, #2
     278:	0b018023 	bleq	6030c <_Min_Stack_Size+0x5ff0c>
     27c:	00001953 	andeq	r1, r0, r3, asr r9
     280:	01464e06 	cmpeq	r6, r6, lsl #28
     284:	23030000 	movwcs	r0, #12288	; 0x3000
     288:	e30b0280 	movw	r0, #45696	; 0xb280
     28c:	0600007d 			; <UNDEFINED> instruction: 0x0600007d
     290:	00014651 	andeq	r4, r1, r1, asr r6
     294:	84230300 	strthi	r0, [r3], #-768	; 0xfffffd00
     298:	32080002 	andcc	r0, r8, #2
     29c:	aa000001 	bge	2a8 <_Min_Heap_Size+0xa8>
     2a0:	09000002 	stmdbeq	r0, {r1}
     2a4:	0000002d 	andeq	r0, r0, sp, lsr #32
     2a8:	c00f001f 	andgt	r0, pc, pc, lsl r0	; <UNPREDICTABLE>
     2ac:	8c000046 	stchi	0, cr0, [r0], {70}	; 0x46
     2b0:	02f05506 	rscseq	r5, r0, #25165824	; 0x1800000
     2b4:	580b0000 	stmdapl	fp, {}	; <UNPREDICTABLE>
     2b8:	06000059 			; <UNDEFINED> instruction: 0x06000059
     2bc:	0002f056 	andeq	pc, r2, r6, asr r0	; <UNPREDICTABLE>
     2c0:	00230200 	eoreq	r0, r3, r0, lsl #4
     2c4:	007c520b 	rsbseq	r5, ip, fp, lsl #4
     2c8:	34570600 	ldrbcc	r0, [r7], #-1536	; 0xfffffa00
     2cc:	02000000 	andeq	r0, r0, #0
     2d0:	b90b0423 	stmdblt	fp, {r0, r1, r5, sl}
     2d4:	06000027 	streq	r0, [r0], -r7, lsr #32
     2d8:	0002f658 	andeq	pc, r2, r8, asr r6	; <UNPREDICTABLE>
     2dc:	08230200 	stmdaeq	r3!, {r9}
     2e0:	002cff0b 	eoreq	pc, ip, fp, lsl #30
     2e4:	0e590600 	cdpeq	6, 5, cr0, cr9, cr0, {0}
     2e8:	03000003 	movweq	r0, #3
     2ec:	00018823 	andeq	r8, r1, r3, lsr #16
     2f0:	02aa040d 	adceq	r0, sl, #218103808	; 0xd000000
     2f4:	06080000 	streq	r0, [r8], -r0
     2f8:	06000003 	streq	r0, [r0], -r3
     2fc:	09000003 	stmdbeq	r0, {r0, r1}
     300:	0000002d 	andeq	r0, r0, sp, lsr #32
     304:	040d001f 	streq	r0, [sp], #-31	; 0xffffffe1
     308:	0000030c 	andeq	r0, r0, ip, lsl #6
     30c:	040d0112 	streq	r0, [sp], #-274	; 0xfffffeee
     310:	00000251 	andeq	r0, r0, r1, asr r2
     314:	0003700f 	andeq	r7, r3, pc
     318:	75060800 	strvc	r0, [r6, #-2048]	; 0xfffff800
     31c:	0000033d 	andeq	r0, r0, sp, lsr r3
     320:	00683a0b 	rsbeq	r3, r8, fp, lsl #20
     324:	3d760600 	ldclcc	6, cr0, [r6, #-0]
     328:	02000003 	andeq	r0, r0, #3
     32c:	130b0023 	movwne	r0, #45091	; 0xb023
     330:	06000080 	streq	r0, [r0], -r0, lsl #1
     334:	00003477 	andeq	r3, r0, r7, ror r4
     338:	04230200 	strteq	r0, [r3], #-512	; 0xfffffe00
     33c:	5b040d00 	blpl	103744 <_Min_Stack_Size+0x103344>
     340:	0f000000 	svceq	0x00000000
     344:	00003403 	andeq	r3, r0, r3, lsl #8
     348:	bd990620 	ldclt	6, cr0, [r9, #128]	; 0x80
     34c:	10000003 	andne	r0, r0, r3
     350:	0600705f 			; <UNDEFINED> instruction: 0x0600705f
     354:	00033d9a 	muleq	r3, sl, sp
     358:	00230200 	eoreq	r0, r3, r0, lsl #4
     35c:	00725f10 	rsbseq	r5, r2, r0, lsl pc
     360:	00349b06 	eorseq	r9, r4, r6, lsl #22
     364:	23020000 	movwcs	r0, #8192	; 0x2000
     368:	775f1004 	ldrbvc	r1, [pc, -r4]
     36c:	349c0600 	ldrcc	r0, [ip], #1536	; 0x600
     370:	02000000 	andeq	r0, r0, #0
     374:	760b0823 	strvc	r0, [fp], -r3, lsr #16
     378:	06000059 			; <UNDEFINED> instruction: 0x06000059
     37c:	0000629d 	muleq	r0, sp, r2
     380:	0c230200 	sfmeq	f0, 4, [r3], #-0
     384:	0013020b 	andseq	r0, r3, fp, lsl #4
     388:	629e0600 	addsvs	r0, lr, #0, 12
     38c:	02000000 	andeq	r0, r0, #0
     390:	5f100e23 	svcpl	0x00100e23
     394:	06006662 	streq	r6, [r0], -r2, ror #12
     398:	0003149f 	muleq	r3, pc, r4	; <UNPREDICTABLE>
     39c:	10230200 	eorne	r0, r3, r0, lsl #4
     3a0:	007be00b 	rsbseq	lr, fp, fp
     3a4:	34a00600 	strtcc	r0, [r0], #1536	; 0x600
     3a8:	02000000 	andeq	r0, r0, #0
     3ac:	e80b1823 	stmda	fp, {r0, r1, r5, fp, ip}
     3b0:	0600006c 	streq	r0, [r0], -ip, rrx
     3b4:	00051aa2 	andeq	r1, r5, r2, lsr #21
     3b8:	1c230200 	sfmne	f0, 4, [r3], #-0
     3bc:	03430e00 	movteq	r0, #15872	; 0x3e00
     3c0:	19130000 	ldmdbne	r3, {}	; <UNPREDICTABLE>
     3c4:	6000001c 	andvs	r0, r0, ip, lsl r0
     3c8:	1a017406 	bne	5d3e8 <_Min_Stack_Size+0x5cfe8>
     3cc:	14000005 	strne	r0, [r0], #-5
     3d0:	000043ef 	andeq	r4, r0, pc, ror #7
     3d4:	34017806 	strcc	r7, [r1], #-2054	; 0xfffff7fa
     3d8:	02000000 	andeq	r0, r0, #0
     3dc:	c3140023 	tstgt	r4, #35	; 0x23
     3e0:	0600001e 			; <UNDEFINED> instruction: 0x0600001e
     3e4:	077c017d 			; <UNDEFINED> instruction: 0x077c017d
     3e8:	23020000 	movwcs	r0, #8192	; 0x2000
     3ec:	52f71404 	rscspl	r1, r7, #4, 8	; 0x4000000
     3f0:	7d060000 	stcvc	0, cr0, [r6, #-0]
     3f4:	00077c01 	andeq	r7, r7, r1, lsl #24
     3f8:	08230200 	stmdaeq	r3!, {r9}
     3fc:	00438414 	subeq	r8, r3, r4, lsl r4
     400:	017d0600 	cmneq	sp, r0, lsl #12
     404:	0000077c 	andeq	r0, r0, ip, ror r7
     408:	140c2302 	strne	r2, [ip], #-770	; 0xfffffcfe
     40c:	00002596 	muleq	r0, r6, r5
     410:	34017f06 	strcc	r7, [r1], #-3846	; 0xfffff0fa
     414:	02000000 	andeq	r0, r0, #0
     418:	79141023 	ldmdbvc	r4, {r0, r1, r5, ip}
     41c:	06000053 			; <UNDEFINED> instruction: 0x06000053
     420:	01340181 	teqeq	r4, r1, lsl #3
     424:	23020000 	movwcs	r0, #8192	; 0x2000
     428:	40f31414 	rscsmi	r1, r3, r4, lsl r4
     42c:	83060000 	movwhi	r0, #24576	; 0x6000
     430:	00003401 	andeq	r3, r0, r1, lsl #8
     434:	18230200 	stmdane	r3!, {r9}
     438:	00228214 	eoreq	r8, r2, r4, lsl r2
     43c:	01850600 	orreq	r0, r5, r0, lsl #12
     440:	00000034 	andeq	r0, r0, r4, lsr r0
     444:	141c2302 	ldrne	r2, [ip], #-770	; 0xfffffcfe
     448:	00007f40 	andeq	r7, r0, r0, asr #30
     44c:	f5018606 			; <UNDEFINED> instruction: 0xf5018606
     450:	02000008 	andeq	r0, r0, #8
     454:	5f152023 	svcpl	0x00152023
     458:	0600706d 	streq	r7, [r0], -sp, rrx
     45c:	08fb0188 	ldmeq	fp!, {r3, r7, r8}^
     460:	23020000 	movwcs	r0, #8192	; 0x2000
     464:	499c1424 	ldmibmi	ip, {r2, r5, sl, ip}
     468:	8a060000 	bhi	180470 <_Min_Stack_Size+0x180070>
     46c:	00090d01 	andeq	r0, r9, r1, lsl #26
     470:	28230200 	stmdacs	r3!, {r9}
     474:	004f8714 	subeq	r8, pc, r4, lsl r7	; <UNPREDICTABLE>
     478:	018c0600 	orreq	r0, ip, r0, lsl #12
     47c:	00000034 	andeq	r0, r0, r4, lsr r0
     480:	142c2302 	strtne	r2, [ip], #-770	; 0xfffffcfe
     484:	00000631 	andeq	r0, r0, r1, lsr r6
     488:	34018f06 	strcc	r8, [r1], #-3846	; 0xfffff0fa
     48c:	02000000 	andeq	r0, r0, #0
     490:	c6143023 	ldrgt	r3, [r4], -r3, lsr #32
     494:	06000036 			; <UNDEFINED> instruction: 0x06000036
     498:	01340190 	teqeq	r4, r0	; <illegal shifter operand>
     49c:	23020000 	movwcs	r0, #8192	; 0x2000
     4a0:	6c171434 	cfldrsvs	mvf1, [r7], {52}	; 0x34
     4a4:	92060000 	andls	r0, r6, #0
     4a8:	00091301 	andeq	r1, r9, r1, lsl #6
     4ac:	38230200 	stmdacc	r3!, {r9}
     4b0:	0017fe14 	andseq	pc, r7, r4, lsl lr	; <UNPREDICTABLE>
     4b4:	01930600 	orrseq	r0, r3, r0, lsl #12
     4b8:	00000919 	andeq	r0, r0, r9, lsl r9
     4bc:	143c2302 	ldrtne	r2, [ip], #-770	; 0xfffffcfe
     4c0:	0000060d 	andeq	r0, r0, sp, lsl #12
     4c4:	34019406 	strcc	r9, [r1], #-1030	; 0xfffffbfa
     4c8:	02000001 	andeq	r0, r0, #1
     4cc:	fa144023 	blx	510560 <_Min_Stack_Size+0x510160>
     4d0:	06000034 			; <UNDEFINED> instruction: 0x06000034
     4d4:	092b0197 	stmdbeq	fp!, {r0, r1, r2, r4, r7, r8}
     4d8:	23020000 	movwcs	r0, #8192	; 0x2000
     4dc:	885c1444 	ldmdahi	ip, {r2, r6, sl, ip}^
     4e0:	9f060000 	svcls	0x00060000
     4e4:	00073b01 	andeq	r3, r7, r1, lsl #22
     4e8:	48230200 	stmdami	r3!, {r9}
     4ec:	0002cf14 	andeq	ip, r2, r4, lsl pc
     4f0:	01a00600 	lsleq	r0, r0, #12
     4f4:	0000077c 	andeq	r0, r0, ip, ror r7
     4f8:	14542302 	ldrbne	r2, [r4], #-770	; 0xfffffcfe
     4fc:	00007f16 	andeq	r7, r0, r6, lsl pc
     500:	3701a106 	strcc	sl, [r1, -r6, lsl #2]
     504:	02000009 	andeq	r0, r0, #9
     508:	04145823 	ldreq	r5, [r4], #-2083	; 0xfffff7dd
     50c:	06000046 	streq	r0, [r0], -r6, asr #32
     510:	013401a2 	teqeq	r4, r2, lsr #3
     514:	23020000 	movwcs	r0, #8192	; 0x2000
     518:	040d005c 	streq	r0, [sp], #-92	; 0xffffffa4
     51c:	000003c2 	andeq	r0, r0, r2, asr #7
     520:	00051a0e 	andeq	r1, r5, lr, lsl #20
     524:	83e30f00 	mvnhi	r0, #0, 30
     528:	06680000 	strbteq	r0, [r8], -r0
     52c:	00067fb5 			; <UNDEFINED> instruction: 0x00067fb5
     530:	705f1000 	subsvc	r1, pc, r0
     534:	3db60600 	ldccc	6, cr0, [r6]
     538:	02000003 	andeq	r0, r0, #3
     53c:	5f100023 	svcpl	0x00100023
     540:	b7060072 	smlsdxlt	r6, r2, r0, r0
     544:	00000034 	andeq	r0, r0, r4, lsr r0
     548:	10042302 	andne	r2, r4, r2, lsl #6
     54c:	0600775f 			; <UNDEFINED> instruction: 0x0600775f
     550:	000034b8 			; <UNDEFINED> instruction: 0x000034b8
     554:	08230200 	stmdaeq	r3!, {r9}
     558:	0059760b 	subseq	r7, r9, fp, lsl #12
     55c:	62b90600 	adcsvs	r0, r9, #0, 12
     560:	02000000 	andeq	r0, r0, #0
     564:	020b0c23 	andeq	r0, fp, #8960	; 0x2300
     568:	06000013 			; <UNDEFINED> instruction: 0x06000013
     56c:	000062ba 			; <UNDEFINED> instruction: 0x000062ba
     570:	0e230200 	cdpeq	2, 2, cr0, cr3, cr0, {0}
     574:	66625f10 	uqadd16vs	r5, r2, r0
     578:	14bb0600 	ldrtne	r0, [fp], #1536	; 0x600
     57c:	02000003 	andeq	r0, r0, #3
     580:	e00b1023 	and	r1, fp, r3, lsr #32
     584:	0600007b 			; <UNDEFINED> instruction: 0x0600007b
     588:	000034bc 			; <UNDEFINED> instruction: 0x000034bc
     58c:	18230200 	stmdane	r3!, {r9}
     590:	006ce80b 	rsbeq	lr, ip, fp, lsl #16
     594:	1abf0600 	bne	fefc1d9c <_estack+0xdefbf59c>
     598:	02000005 	andeq	r0, r0, #5
     59c:	8d0b1c23 	stchi	12, cr1, [fp, #-140]	; 0xffffff74
     5a0:	06000033 			; <UNDEFINED> instruction: 0x06000033
     5a4:	000132c3 	andeq	r3, r1, r3, asr #5
     5a8:	20230200 	eorcs	r0, r3, r0, lsl #4
     5ac:	0003770b 	andeq	r7, r3, fp, lsl #14
     5b0:	9ec50600 	cdpls	6, 12, cr0, cr5, cr0, {0}
     5b4:	02000006 	andeq	r0, r0, #6
     5b8:	940b2423 	strls	r2, [fp], #-1059	; 0xfffffbdd
     5bc:	06000005 	streq	r0, [r0], -r5
     5c0:	0006c9c7 	andeq	ip, r6, r7, asr #19
     5c4:	28230200 	stmdacs	r3!, {r9}
     5c8:	0061050b 	rsbeq	r0, r1, fp, lsl #10
     5cc:	eeca0600 	cdp	6, 12, cr0, cr10, cr0, {0}
     5d0:	02000006 	andeq	r0, r0, #6
     5d4:	f30b2c23 			; <UNDEFINED> instruction: 0xf30b2c23
     5d8:	0600005e 			; <UNDEFINED> instruction: 0x0600005e
     5dc:	000709cb 	andeq	r0, r7, fp, asr #19
     5e0:	30230200 	eorcc	r0, r3, r0, lsl #4
     5e4:	62755f10 	rsbsvs	r5, r5, #16, 30	; 0x40
     5e8:	14ce0600 	strbne	r0, [lr], #1536	; 0x600
     5ec:	02000003 	andeq	r0, r0, #3
     5f0:	5f103423 	svcpl	0x00103423
     5f4:	06007075 			; <UNDEFINED> instruction: 0x06007075
     5f8:	00033dcf 	andeq	r3, r3, pc, asr #27
     5fc:	3c230200 	sfmcc	f0, 4, [r3], #-0
     600:	72755f10 	rsbsvc	r5, r5, #16, 30	; 0x40
     604:	34d00600 	ldrbcc	r0, [r0], #1536	; 0x600
     608:	02000000 	andeq	r0, r0, #0
     60c:	370b4023 	strcc	r4, [fp, -r3, lsr #32]
     610:	06000058 			; <UNDEFINED> instruction: 0x06000058
     614:	00070fd3 	ldrdeq	r0, [r7], -r3
     618:	44230200 	strtmi	r0, [r3], #-512	; 0xfffffe00
     61c:	0009d00b 	andeq	sp, r9, fp
     620:	1fd40600 	svcne	0x00d40600
     624:	02000007 	andeq	r0, r0, #7
     628:	5f104723 	svcpl	0x00104723
     62c:	0600626c 	streq	r6, [r0], -ip, ror #4
     630:	000314d7 	ldrdeq	r1, [r3], -r7
     634:	48230200 	stmdami	r3!, {r9}
     638:	0067e00b 	rsbeq	lr, r7, fp
     63c:	34da0600 	ldrbcc	r0, [sl], #1536	; 0x600
     640:	02000000 	andeq	r0, r0, #0
     644:	630b5023 	movwvs	r5, #45091	; 0xb023
     648:	06000036 			; <UNDEFINED> instruction: 0x06000036
     64c:	0000a6db 	ldrdeq	sl, [r0], -fp
     650:	54230200 	strtpl	r0, [r3], #-512	; 0xfffffe00
     654:	000c290b 	andeq	r2, ip, fp, lsl #18
     658:	27e20600 	strbcs	r0, [r2, r0, lsl #12]!
     65c:	02000001 	andeq	r0, r0, #1
     660:	040b5823 	streq	r5, [fp], #-2083	; 0xfffff7dd
     664:	06000059 			; <UNDEFINED> instruction: 0x06000059
     668:	00011ce4 	andeq	r1, r1, r4, ror #25
     66c:	5c230200 	sfmpl	f0, 4, [r3], #-0
     670:	0053350b 	subseq	r3, r3, fp, lsl #10
     674:	34e50600 	strbtcc	r0, [r5], #1536	; 0x600
     678:	02000000 	andeq	r0, r0, #0
     67c:	16006423 	strne	r6, [r0], -r3, lsr #8
     680:	00003401 	andeq	r3, r0, r1, lsl #8
     684:	00069e00 	andeq	r9, r6, r0, lsl #28
     688:	051a1700 	ldreq	r1, [sl, #-1792]	; 0xfffff900
     68c:	32170000 	andscc	r0, r7, #0
     690:	17000001 	strne	r0, [r0, -r1]
     694:	00000134 	andeq	r0, r0, r4, lsr r1
     698:	00003417 	andeq	r3, r0, r7, lsl r4
     69c:	040d0000 	streq	r0, [sp], #-0
     6a0:	0000067f 	andeq	r0, r0, pc, ror r6
     6a4:	00340116 	eorseq	r0, r4, r6, lsl r1
     6a8:	06c30000 	strbeq	r0, [r3], r0
     6ac:	1a170000 	bne	5c06b4 <_Min_Stack_Size+0x5c02b4>
     6b0:	17000005 	strne	r0, [r0, -r5]
     6b4:	00000132 	andeq	r0, r0, r2, lsr r1
     6b8:	0006c317 	andeq	ip, r6, r7, lsl r3
     6bc:	00341700 	eorseq	r1, r4, r0, lsl #14
     6c0:	0d000000 	stceq	0, cr0, [r0, #-0]
     6c4:	00014104 	andeq	r4, r1, r4, lsl #2
     6c8:	a4040d00 	strge	r0, [r4], #-3328	; 0xfffff300
     6cc:	16000006 	strne	r0, [r0], -r6
     6d0:	0000b101 	andeq	fp, r0, r1, lsl #2
     6d4:	0006ee00 	andeq	lr, r6, r0, lsl #28
     6d8:	051a1700 	ldreq	r1, [sl, #-1792]	; 0xfffff900
     6dc:	32170000 	andscc	r0, r7, #0
     6e0:	17000001 	strne	r0, [r0, -r1]
     6e4:	000000b1 	strheq	r0, [r0], -r1
     6e8:	00003417 	andeq	r3, r0, r7, lsl r4
     6ec:	040d0000 	streq	r0, [sp], #-0
     6f0:	000006cf 	andeq	r0, r0, pc, asr #13
     6f4:	00340116 	eorseq	r0, r4, r6, lsl r1
     6f8:	07090000 	streq	r0, [r9, -r0]
     6fc:	1a170000 	bne	5c0704 <_Min_Stack_Size+0x5c0304>
     700:	17000005 	strne	r0, [r0, -r5]
     704:	00000132 	andeq	r0, r0, r2, lsr r1
     708:	f4040d00 			; <UNDEFINED> instruction: 0xf4040d00
     70c:	08000006 	stmdaeq	r0, {r1, r2}
     710:	0000005b 	andeq	r0, r0, fp, asr r0
     714:	0000071f 	andeq	r0, r0, pc, lsl r7
     718:	00002d09 	andeq	r2, r0, r9, lsl #26
     71c:	08000200 	stmdaeq	r0, {r9}
     720:	0000005b 	andeq	r0, r0, fp, asr r0
     724:	0000072f 	andeq	r0, r0, pc, lsr #14
     728:	00002d09 	andeq	r2, r0, r9, lsl #26
     72c:	05000000 	streq	r0, [r0, #-0]
     730:	00006aef 	andeq	r6, r0, pc, ror #21
     734:	25011f06 	strcs	r1, [r1, #-3846]	; 0xfffff0fa
     738:	13000005 	movwne	r0, #5
     73c:	0000510a 	andeq	r5, r0, sl, lsl #2
     740:	0123060c 			; <UNDEFINED> instruction: 0x0123060c
     744:	00000776 	andeq	r0, r0, r6, ror r7
     748:	00595814 	subseq	r5, r9, r4, lsl r8
     74c:	01250600 			; <UNDEFINED> instruction: 0x01250600
     750:	00000776 	andeq	r0, r0, r6, ror r7
     754:	14002302 	strne	r2, [r0], #-770	; 0xfffffcfe
     758:	00002bf5 	strdeq	r2, [r0], -r5
     75c:	34012606 	strcc	r2, [r1], #-1542	; 0xfffff9fa
     760:	02000000 	andeq	r0, r0, #0
     764:	9c140423 	cfldrsls	mvf0, [r4], {35}	; 0x23
     768:	06000037 			; <UNDEFINED> instruction: 0x06000037
     76c:	077c0127 	ldrbeq	r0, [ip, -r7, lsr #2]!
     770:	23020000 	movwcs	r0, #8192	; 0x2000
     774:	040d0008 	streq	r0, [sp], #-8
     778:	0000073b 	andeq	r0, r0, fp, lsr r7
     77c:	072f040d 	streq	r0, [pc, -sp, lsl #8]!
     780:	20130000 	andscs	r0, r3, r0
     784:	18000066 	stmdane	r0, {r1, r2, r5, r6}
     788:	cc013f06 	stcgt	15, cr3, [r1], {6}
     78c:	14000007 	strne	r0, [r0], #-7
     790:	00006082 	andeq	r6, r0, r2, lsl #1
     794:	cc014006 	stcgt	0, cr4, [r1], {6}
     798:	02000007 	andeq	r0, r0, #7
     79c:	ce140023 	cdpgt	0, 1, cr0, cr4, cr3, {1}
     7a0:	0600000d 	streq	r0, [r0], -sp
     7a4:	07cc0141 	strbeq	r0, [ip, r1, asr #2]
     7a8:	23020000 	movwcs	r0, #8192	; 0x2000
     7ac:	83771406 	cmnhi	r7, #100663296	; 0x6000000
     7b0:	42060000 	andmi	r0, r6, #0
     7b4:	00007401 	andeq	r7, r0, r1, lsl #8
     7b8:	0c230200 	sfmeq	f0, 4, [r3], #-0
     7bc:	00595314 	subseq	r5, r9, r4, lsl r3
     7c0:	01450600 	cmpeq	r5, r0, lsl #12
     7c4:	00000094 	muleq	r0, r4, r0
     7c8:	00102302 	andseq	r2, r0, r2, lsl #6
     7cc:	00007408 	andeq	r7, r0, r8, lsl #8
     7d0:	0007dc00 	andeq	sp, r7, r0, lsl #24
     7d4:	002d0900 	eoreq	r0, sp, r0, lsl #18
     7d8:	00020000 	andeq	r0, r2, r0
     7dc:	007ee913 	rsbseq	lr, lr, r3, lsl r9
     7e0:	58061000 	stmdapl	r6, {ip}
     7e4:	00082601 	andeq	r2, r8, r1, lsl #12
     7e8:	80451400 	subhi	r1, r5, r0, lsl #8
     7ec:	5b060000 	blpl	1807f4 <_Min_Stack_Size+0x1803f4>
     7f0:	0001b001 	andeq	fp, r1, r1
     7f4:	00230200 	eoreq	r0, r3, r0, lsl #4
     7f8:	00165214 	andseq	r5, r6, r4, lsl r2
     7fc:	015c0600 	cmpeq	ip, r0, lsl #12
     800:	00000034 	andeq	r0, r0, r4, lsr r0
     804:	14042302 	strne	r2, [r4], #-770	; 0xfffffcfe
     808:	000033a8 	andeq	r3, r0, r8, lsr #7
     80c:	b0015d06 	andlt	r5, r1, r6, lsl #26
     810:	02000001 	andeq	r0, r0, #1
     814:	b5140823 	ldrlt	r0, [r4, #-2083]	; 0xfffff7dd
     818:	06000050 			; <UNDEFINED> instruction: 0x06000050
     81c:	0826015e 	stmdaeq	r6!, {r1, r2, r3, r4, r6, r8}
     820:	23020000 	movwcs	r0, #8192	; 0x2000
     824:	040d000c 	streq	r0, [sp], #-12
     828:	000001b0 			; <UNDEFINED> instruction: 0x000001b0
     82c:	001c1413 	andseq	r1, ip, r3, lsl r4
     830:	62065000 	andvs	r5, r6, #0
     834:	0008df01 	andeq	sp, r8, r1, lsl #30
     838:	69101400 	ldmdbvs	r0, {sl, ip}
     83c:	65060000 	strvs	r0, [r6, #-0]
     840:	00013401 	andeq	r3, r1, r1, lsl #8
     844:	00230200 	eoreq	r0, r3, r0, lsl #4
     848:	0072da14 	rsbseq	sp, r2, r4, lsl sl
     84c:	01660600 	cmneq	r6, r0, lsl #12
     850:	0000011c 	andeq	r0, r0, ip, lsl r1
     854:	14042302 	strne	r2, [r4], #-770	; 0xfffffcfe
     858:	000058dc 	ldrdeq	r5, [r0], -ip
     85c:	1c016706 	stcne	7, cr6, [r1], {6}
     860:	02000001 	andeq	r0, r0, #1
     864:	f6140c23 			; <UNDEFINED> instruction: 0xf6140c23
     868:	06000062 	streq	r0, [r0], -r2, rrx
     86c:	011c0168 	tsteq	ip, r8, ror #2
     870:	23020000 	movwcs	r0, #8192	; 0x2000
     874:	0a811414 	beq	fe0458cc <_estack+0xde0430cc>
     878:	69060000 	stmdbvs	r6, {}	; <UNPREDICTABLE>
     87c:	0008df01 	andeq	sp, r8, r1, lsl #30
     880:	1c230200 	sfmne	f0, 4, [r3], #-0
     884:	000dc114 	andeq	ip, sp, r4, lsl r1
     888:	016a0600 	cmneq	sl, r0, lsl #12
     88c:	00000034 	andeq	r0, r0, r4, lsr r0
     890:	14242302 	strtne	r2, [r4], #-770	; 0xfffffcfe
     894:	000015e4 	andeq	r1, r0, r4, ror #11
     898:	1c016b06 			; <UNDEFINED> instruction: 0x1c016b06
     89c:	02000001 	andeq	r0, r0, #1
     8a0:	cb142823 	blgt	50a934 <_Min_Stack_Size+0x50a534>
     8a4:	06000069 	streq	r0, [r0], -r9, rrx
     8a8:	011c016c 	tsteq	ip, ip, ror #2
     8ac:	23020000 	movwcs	r0, #8192	; 0x2000
     8b0:	85091430 	strhi	r1, [r9, #-1072]	; 0xfffffbd0
     8b4:	6d060000 	stcvs	0, cr0, [r6, #-0]
     8b8:	00011c01 	andeq	r1, r1, r1, lsl #24
     8bc:	38230200 	stmdacc	r3!, {r9}
     8c0:	00567114 	subseq	r7, r6, r4, lsl r1
     8c4:	016e0600 	cmneq	lr, r0, lsl #12
     8c8:	0000011c 	andeq	r0, r0, ip, lsl r1
     8cc:	14402302 	strbne	r2, [r0], #-770	; 0xfffffcfe
     8d0:	000009bf 			; <UNDEFINED> instruction: 0x000009bf
     8d4:	1c016f06 	stcne	15, cr6, [r1], {6}
     8d8:	02000001 	andeq	r0, r0, #1
     8dc:	08004823 	stmdaeq	r0, {r0, r1, r5, fp, lr}
     8e0:	0000013a 	andeq	r0, r0, sl, lsr r1
     8e4:	000008ef 	andeq	r0, r0, pc, ror #17
     8e8:	00002d09 	andeq	r2, r0, r9, lsl #26
     8ec:	18000700 	stmdane	r0, {r8, r9, sl}
     8f0:	000001e1 	andeq	r0, r0, r1, ror #3
     8f4:	ef040d01 	svc	0x00040d01
     8f8:	0d000008 	stceq	0, cr0, [r0, #-32]	; 0xffffffe0
     8fc:	0007dc04 	andeq	sp, r7, r4, lsl #24
     900:	0d011900 	vstreq.16	s2, [r1, #-0]	; <UNPREDICTABLE>
     904:	17000009 	strne	r0, [r0, -r9]
     908:	0000051a 	andeq	r0, r0, sl, lsl r5
     90c:	01040d00 	tsteq	r4, r0, lsl #26
     910:	0d000009 	stceq	0, cr0, [r0, #-36]	; 0xffffffdc
     914:	00078204 	andeq	r8, r7, r4, lsl #4
     918:	c6040d00 	strgt	r0, [r4], -r0, lsl #26
     91c:	19000001 	stmdbne	r0, {r0}
     920:	00092b01 	andeq	r2, r9, r1, lsl #22
     924:	00341700 	eorseq	r1, r4, r0, lsl #14
     928:	0d000000 	stceq	0, cr0, [r0, #-0]
     92c:	00093104 	andeq	r3, r9, r4, lsl #2
     930:	1f040d00 	svcne	0x00040d00
     934:	0d000009 	stceq	0, cr0, [r0, #-36]	; 0xffffffdc
     938:	00082c04 	andeq	r2, r8, r4, lsl #24
     93c:	1eba1a00 	vmovne.f32	s2, #160	; 0xc1000000 -8.0
     940:	ca060000 	bgt	180948 <_Min_Stack_Size+0x180548>
     944:	0003bd01 	andeq	fp, r3, r1, lsl #26
     948:	1a010100 	bne	40d50 <_Min_Stack_Size+0x40950>
     94c:	000052ee 	andeq	r5, r0, lr, ror #5
     950:	bd01cb06 	vstrlt	d12, [r1, #-24]	; 0xffffffe8
     954:	01000003 	tsteq	r0, r3
     958:	437b1a01 	cmnmi	fp, #4096	; 0x1000
     95c:	cc060000 	stcgt	0, cr0, [r6], {-0}
     960:	0003bd01 	andeq	fp, r3, r1, lsl #26
     964:	1a010100 	bne	40d6c <_Min_Stack_Size+0x4096c>
     968:	00002b50 	andeq	r2, r0, r0, asr fp
     96c:	1a032e06 	bne	cc18c <_Min_Stack_Size+0xcbd8c>
     970:	01000005 	tsteq	r0, r5
     974:	782f1a01 	stmdavc	pc!, {r0, r9, fp, ip}	; <UNPREDICTABLE>
     978:	2f060000 	svccs	0x00060000
     97c:	00052003 	andeq	r2, r5, r3
     980:	1a010100 	bne	40d88 <_Min_Stack_Size+0x40988>
     984:	000046b9 			; <UNDEFINED> instruction: 0x000046b9
     988:	f0034106 			; <UNDEFINED> instruction: 0xf0034106
     98c:	01000002 	tsteq	r0, r2
     990:	76ff1b01 	ldrbtvc	r1, [pc], r1, lsl #22
     994:	63070000 	movwvs	r0, #28672	; 0x7000
     998:	00000134 	andeq	r0, r0, r4, lsr r1
     99c:	6b040101 	blvs	100da8 <_Min_Stack_Size+0x1009a8>
     9a0:	08000012 	stmdaeq	r0, {r1, r4}
     9a4:	00005018 	andeq	r5, r0, r8, lsl r0
     9a8:	2a1f0400 	bcs	7c19b0 <_Min_Stack_Size+0x7c15b0>
     9ac:	24080000 	strcs	r0, [r8], #-0
     9b0:	00000069 	andeq	r0, r0, r9, rrx
     9b4:	00409a04 	subeq	r9, r0, r4, lsl #20
     9b8:	82300800 	eorshi	r0, r0, #0, 16
     9bc:	1c000000 	stcne	0, cr0, [r0], {-0}
     9c0:	000009b4 			; <UNDEFINED> instruction: 0x000009b4
     9c4:	50091c0a 	andpl	r1, r9, sl, lsl #24
     9c8:	00000a2f 	andeq	r0, r0, pc, lsr #20
     9cc:	4c524310 	mrrcmi	3, 1, r4, r2, cr0
     9d0:	bf520900 	svclt	0x00520900
     9d4:	02000009 	andeq	r0, r0, #9
     9d8:	43100023 	tstmi	r0, #35	; 0x23
     9dc:	09004852 	stmdbeq	r0, {r1, r4, r6, fp, lr}
     9e0:	0009bf53 	andeq	fp, r9, r3, asr pc
     9e4:	04230200 	strteq	r0, [r3], #-512	; 0xfffffe00
     9e8:	52444910 	subpl	r4, r4, #16, 18	; 0x40000
     9ec:	bf540900 	svclt	0x00540900
     9f0:	02000009 	andeq	r0, r0, #9
     9f4:	4f100823 	svcmi	0x00100823
     9f8:	09005244 	stmdbeq	r0, {r2, r6, r9, ip, lr}
     9fc:	0009bf55 	andeq	fp, r9, r5, asr pc
     a00:	0c230200 	sfmeq	f0, 4, [r3], #-0
     a04:	007a5a0b 	rsbseq	r5, sl, fp, lsl #20
     a08:	bf560900 	svclt	0x00560900
     a0c:	02000009 	andeq	r0, r0, #9
     a10:	42101023 	andsmi	r1, r0, #35	; 0x23
     a14:	09005252 	stmdbeq	r0, {r1, r4, r6, r9, ip, lr}
     a18:	0009bf57 	andeq	fp, r9, r7, asr pc
     a1c:	14230200 	strtne	r0, [r3], #-512	; 0xfffffe00
     a20:	0046100b 	subeq	r1, r6, fp
     a24:	bf580900 	svclt	0x00580900
     a28:	02000009 	andeq	r0, r0, #9
     a2c:	04001823 	streq	r1, [r0], #-2083	; 0xfffff7dd
     a30:	00007b9a 	muleq	r0, sl, fp
     a34:	09c45909 	stmibeq	r4, {r0, r3, r8, fp, ip, lr}^
     a38:	280a0000 	stmdacs	sl, {}	; <UNPREDICTABLE>
     a3c:	0ace5e09 	beq	ff398268 <_estack+0xdf395a68>
     a40:	43100000 	tstmi	r0, #0
     a44:	60090052 	andvs	r0, r9, r2, asr r0
     a48:	000009bf 			; <UNDEFINED> instruction: 0x000009bf
     a4c:	0b002302 	bleq	965c <_Min_Stack_Size+0x925c>
     a50:	00003619 	andeq	r3, r0, r9, lsl r6
     a54:	09bf6109 	ldmibeq	pc!, {r0, r3, r8, sp, lr}	; <UNPREDICTABLE>
     a58:	23020000 	movwcs	r0, #8192	; 0x2000
     a5c:	49431004 	stmdbmi	r3, {r2, ip}^
     a60:	62090052 	andvs	r0, r9, #82	; 0x52
     a64:	000009bf 			; <UNDEFINED> instruction: 0x000009bf
     a68:	0b082302 	bleq	209678 <_Min_Stack_Size+0x209278>
     a6c:	00004f96 	muleq	r0, r6, pc	; <UNPREDICTABLE>
     a70:	09bf6309 	ldmibeq	pc!, {r0, r3, r8, r9, sp, lr}	; <UNPREDICTABLE>
     a74:	23020000 	movwcs	r0, #8192	; 0x2000
     a78:	627b0b0c 	rsbsvs	r0, fp, #12, 22	; 0x3000
     a7c:	64090000 	strvs	r0, [r9], #-0
     a80:	000009bf 			; <UNDEFINED> instruction: 0x000009bf
     a84:	0b102302 	bleq	409694 <_Min_Stack_Size+0x409294>
     a88:	00007862 	andeq	r7, r0, r2, ror #16
     a8c:	09bf6509 	ldmibeq	pc!, {r0, r3, r8, sl, sp, lr}	; <UNPREDICTABLE>
     a90:	23020000 	movwcs	r0, #8192	; 0x2000
     a94:	1abd0b14 	bne	fef436ec <_estack+0xdef40eec>
     a98:	66090000 	strvs	r0, [r9], -r0
     a9c:	000009bf 			; <UNDEFINED> instruction: 0x000009bf
     aa0:	0b182302 	bleq	6096b0 <_Min_Stack_Size+0x6092b0>
     aa4:	000062ee 	andeq	r6, r0, lr, ror #5
     aa8:	09bf6709 	ldmibeq	pc!, {r0, r3, r8, r9, sl, sp, lr}	; <UNPREDICTABLE>
     aac:	23020000 	movwcs	r0, #8192	; 0x2000
     ab0:	31130b1c 	tstcc	r3, ip, lsl fp
     ab4:	68090000 	stmdavs	r9, {}	; <UNPREDICTABLE>
     ab8:	000009bf 			; <UNDEFINED> instruction: 0x000009bf
     abc:	10202302 	eorne	r2, r0, r2, lsl #6
     ac0:	00525343 	subseq	r5, r2, r3, asr #6
     ac4:	09bf6909 	ldmibeq	pc!, {r0, r3, r8, fp, sp, lr}	; <UNPREDICTABLE>
     ac8:	23020000 	movwcs	r0, #8192	; 0x2000
     acc:	ae040024 	cdpge	0, 0, cr0, cr4, cr4, {1}
     ad0:	09000072 	stmdbeq	r0, {r1, r4, r5, r6}
     ad4:	000a3a6a 	andeq	r3, sl, sl, ror #20
     ad8:	0a0c0a00 	beq	3032e0 <_Min_Stack_Size+0x302ee0>
     adc:	000b1a17 	andeq	r1, fp, r7, lsl sl
     ae0:	4e210b00 	vmulmi.f64	d0, d1, d0
     ae4:	190a0000 	stmdbne	sl, {}	; <UNPREDICTABLE>
     ae8:	000009a9 	andeq	r0, r0, r9, lsr #19
     aec:	0b002302 	bleq	96fc <_Min_Stack_Size+0x92fc>
     af0:	000066ae 	andeq	r6, r0, lr, lsr #13
     af4:	0b1a1a0a 	bleq	687324 <_Min_Stack_Size+0x686f24>
     af8:	23020000 	movwcs	r0, #8192	; 0x2000
     afc:	67fc0b04 	ldrbvs	r0, [ip, r4, lsl #22]!
     b00:	1b0a0000 	blne	280b08 <_Min_Stack_Size+0x280708>
     b04:	000009a9 	andeq	r0, r0, r9, lsr #19
     b08:	0b082302 	bleq	209718 <_Min_Stack_Size+0x209318>
     b0c:	000088b8 			; <UNDEFINED> instruction: 0x000088b8
     b10:	099e1c0a 	ldmibeq	lr, {r1, r3, sl, fp, ip}
     b14:	23020000 	movwcs	r0, #8192	; 0x2000
     b18:	040d000a 	streq	r0, [sp], #-10
     b1c:	00000a2f 	andeq	r0, r0, pc, lsr #20
     b20:	008b8e04 	addeq	r8, fp, r4, lsl #28
     b24:	d91d0a00 	ldmdble	sp, {r9, fp}
     b28:	0a00000a 	beq	b58 <_Min_Stack_Size+0x758>
     b2c:	6c1f0a14 			; <UNDEFINED> instruction: 0x6c1f0a14
     b30:	0b00000b 	bleq	b64 <_Min_Stack_Size+0x764>
     b34:	00005007 	andeq	r5, r0, r7
     b38:	0b20210a 	bleq	808f68 <_Min_Stack_Size+0x808b68>
     b3c:	23020000 	movwcs	r0, #8192	; 0x2000
     b40:	31180b00 	tstcc	r8, r0, lsl #22
     b44:	240a0000 	strcs	r0, [sl], #-0
     b48:	0000099e 	muleq	r0, lr, r9
     b4c:	0b0c2302 	bleq	30975c <_Min_Stack_Size+0x30935c>
     b50:	000066f8 	strdeq	r6, [r0], -r8
     b54:	099e270a 	ldmibeq	lr, {r1, r3, r8, r9, sl, sp}
     b58:	23020000 	movwcs	r0, #8192	; 0x2000
     b5c:	904d0b0d 	subls	r0, sp, sp, lsl #22
     b60:	2a0a0000 	bcs	280b68 <_Min_Stack_Size+0x280768>
     b64:	00000306 	andeq	r0, r0, r6, lsl #6
     b68:	00102302 	andseq	r2, r0, r2, lsl #6
     b6c:	002b7204 	eoreq	r7, fp, r4, lsl #4
     b70:	2b2b0a00 	blcs	ac3378 <_Min_Stack_Size+0xac2f78>
     b74:	1d00000b 	stcne	0, cr0, [r0, #-44]	; 0xffffffd4
     b78:	00007584 	andeq	r7, r0, r4, lsl #11
     b7c:	002d1b01 	eoreq	r1, sp, r1, lsl #22
     b80:	05010000 	streq	r0, [r1, #-0]
     b84:	00002403 	andeq	r2, r0, r3, lsl #8
     b88:	5f291d20 	svcpl	0x00291d20
     b8c:	1c010000 	stcne	0, cr0, [r1], {-0}
     b90:	0000002d 	andeq	r0, r0, sp, lsr #32
     b94:	28030501 	stmdacs	r3, {r0, r8, sl}
     b98:	1d200000 	stcne	0, cr0, [r0, #-0]
     b9c:	00002f86 	andeq	r2, r0, r6, lsl #31
     ba0:	002d1e01 	eoreq	r1, sp, r1, lsl #28
     ba4:	05010000 	streq	r0, [r1, #-0]
     ba8:	00002c03 	andeq	r2, r0, r3, lsl #24
     bac:	115d1d20 	cmpne	sp, r0, lsr #26
     bb0:	2b010000 	blcs	40bb8 <_Min_Stack_Size+0x407b8>
     bb4:	00000034 	andeq	r0, r0, r4, lsr r0
     bb8:	00030501 	andeq	r0, r3, r1, lsl #10
     bbc:	1d200000 	stcne	0, cr0, [r0, #-0]
     bc0:	00001162 	andeq	r1, r0, r2, ror #2
     bc4:	00342c01 	eorseq	r2, r4, r1, lsl #24
     bc8:	05010000 	streq	r0, [r1, #-0]
     bcc:	00000403 	andeq	r0, r0, r3, lsl #8
     bd0:	11671d20 	cmnne	r7, r0, lsr #26
     bd4:	2d010000 	stccs	0, cr0, [r1, #-0]
     bd8:	00000034 	andeq	r0, r0, r4, lsr r0
     bdc:	30030501 	andcc	r0, r3, r1, lsl #10
     be0:	1e200000 	cdpne	0, 2, cr0, cr0, cr0, {0}
     be4:	00190401 	andseq	r0, r9, r1, lsl #8
     be8:	012f0100 			; <UNDEFINED> instruction: 0x012f0100
     bec:	00000034 	andeq	r0, r0, r4, lsr r0
     bf0:	08000194 	stmdaeq	r0, {r2, r4, r7, r8}
     bf4:	08000260 	stmdaeq	r0, {r5, r6, r9}
     bf8:	00000000 	andeq	r0, r0, r0
     bfc:	000c1001 	andeq	r1, ip, r1
     c00:	71be1f00 			; <UNDEFINED> instruction: 0x71be1f00
     c04:	35010000 	strcc	r0, [r1, #-0]
     c08:	00000b6c 	andeq	r0, r0, ip, ror #22
     c0c:	00649102 	rsbeq	r9, r4, r2, lsl #2
     c10:	102b0120 	eorne	r0, fp, r0, lsr #2
     c14:	22010000 	andcs	r0, r1, #0
     c18:	00017001 	andeq	r7, r1, r1
     c1c:	00019408 	andeq	r9, r1, r8, lsl #8
     c20:	00003808 	andeq	r3, r0, r8, lsl #16
     c24:	1e000100 	adfnes	f0, f0, f0
     c28:	02000000 	andeq	r0, r0, #0
     c2c:	0001aa00 	andeq	sl, r1, r0, lsl #20
     c30:	a4010400 	strge	r0, [r1], #-1024	; 0xfffffc00
     c34:	18000005 	stmdane	r0, {r0, r2}
     c38:	4d000000 	stcmi	0, cr0, [r0, #-0]
     c3c:	7000008d 	andvc	r0, r0, sp, lsl #1
     c40:	bc00008d 	stclt	0, cr0, [r0], {141}	; 0x8d
     c44:	0100008d 	smlabbeq	r0, sp, r0, r0
     c48:	000d5580 	andeq	r5, sp, r0, lsl #11
     c4c:	bc000200 	sfmlt	f0, 4, [r0], {-0}
     c50:	04000001 	streq	r0, [r0], #-1
     c54:	00858501 	addeq	r8, r5, r1, lsl #10
     c58:	8dca0c00 	stclhi	12, cr0, [sl]
     c5c:	8d700000 	ldclhi	0, cr0, [r0, #-0]
     c60:	00380000 	eorseq	r0, r8, r0
	...
     c6c:	06280000 	strteq	r0, [r8], -r0
     c70:	03760000 	cmneq	r6, #0
     c74:	04020000 	streq	r0, [r2], #-0
     c78:	0020ff07 	eoreq	pc, r0, r7, lsl #30
     c7c:	05040300 	streq	r0, [r4, #-768]	; 0xfffffd00
     c80:	00746e69 	rsbseq	r6, r4, r9, ror #28
     c84:	d7050802 	strle	r0, [r5, -r2, lsl #16]
     c88:	0200004f 	andeq	r0, r0, #79	; 0x4f
     c8c:	03410408 	movteq	r0, #5128	; 0x1408
     c90:	01020000 	mrseq	r0, (UNDEF: 2)
     c94:	0007e106 	andeq	lr, r7, r6, lsl #2
     c98:	12690400 	rsbne	r0, r9, #0, 8
     c9c:	2b020000 	blcs	80ca4 <_Min_Stack_Size+0x808a4>
     ca0:	0000005b 	andeq	r0, r0, fp, asr r0
     ca4:	d8080102 	stmdale	r8, {r1, r8}
     ca8:	0200002f 	andeq	r0, r0, #47	; 0x2f
     cac:	09fd0502 	ldmibeq	sp!, {r1, r8, sl}^
     cb0:	1d040000 	stcne	0, cr0, [r4, #-0]
     cb4:	0200002a 	andeq	r0, r0, #42	; 0x2a
     cb8:	00007439 	andeq	r7, r0, r9, lsr r4
     cbc:	07020200 	streq	r0, [r2, -r0, lsl #4]
     cc0:	0000669b 	muleq	r0, fp, r6
     cc4:	84050402 	strhi	r0, [r5], #-1026	; 0xfffffbfe
     cc8:	04000069 	streq	r0, [r0], #-105	; 0xffffff97
     ccc:	00004098 	muleq	r0, r8, r0
     cd0:	008d4f02 	addeq	r4, sp, r2, lsl #30
     cd4:	04020000 	streq	r0, [r2], #-0
     cd8:	0019d407 	andseq	sp, r9, r7, lsl #8
     cdc:	07080200 	streq	r0, [r8, -r0, lsl #4]
     ce0:	00003d09 	andeq	r3, r0, r9, lsl #26
     ce4:	0042fa04 	subeq	pc, r2, r4, lsl #20
     ce8:	340c0300 	strcc	r0, [ip], #-768	; 0xfffffd00
     cec:	04000000 	streq	r0, [r0], #-0
     cf0:	0000827b 	andeq	r8, r0, fp, ror r2
     cf4:	007b2c04 	rsbseq	r2, fp, r4, lsl #24
     cf8:	0f040000 	svceq	0x00040000
     cfc:	04000062 	streq	r0, [r0], #-98	; 0xffffff9e
     d00:	00007b72 	andeq	r7, r0, r2, ror fp
     d04:	22a20500 	adccs	r0, r2, #0, 10
     d08:	65050000 	strvs	r0, [r5, #-0]
     d0c:	00002d01 	andeq	r2, r0, r1, lsl #26
     d10:	04040600 	streq	r0, [r4], #-1536	; 0xfffffa00
     d14:	0000e7a6 	andeq	lr, r0, r6, lsr #15
     d18:	14360700 	ldrtne	r0, [r6], #-1792	; 0xfffff900
     d1c:	a8040000 	stmdage	r4, {}	; <UNPREDICTABLE>
     d20:	000000bc 	strheq	r0, [r0], -ip
     d24:	00622d07 	rsbeq	r2, r2, r7, lsl #26
     d28:	e7a90400 	str	r0, [r9, r0, lsl #8]!
     d2c:	00000000 	andeq	r0, r0, r0
     d30:	00005b08 	andeq	r5, r0, r8, lsl #22
     d34:	0000f700 	andeq	pc, r0, r0, lsl #14
     d38:	002d0900 	eoreq	r0, sp, r0, lsl #18
     d3c:	00030000 	andeq	r0, r3, r0
     d40:	a304080a 	movwge	r0, #18442	; 0x480a
     d44:	0000011c 	andeq	r0, r0, ip, lsl r1
     d48:	005c510b 	subseq	r5, ip, fp, lsl #2
     d4c:	34a50400 	strtcc	r0, [r5], #1024	; 0x400
     d50:	02000000 	andeq	r0, r0, #0
     d54:	050b0023 	streq	r0, [fp, #-35]	; 0xffffffdd
     d58:	04000002 	streq	r0, [r0], #-2
     d5c:	0000c8aa 	andeq	ip, r0, sl, lsr #17
     d60:	04230200 	strteq	r0, [r3], #-512	; 0xfffffe00
     d64:	51100400 	tstpl	r0, r0, lsl #8
     d68:	ab040000 	blge	100d70 <_Min_Stack_Size+0x100970>
     d6c:	000000f7 	strdeq	r0, [r0], -r7
     d70:	006ac604 	rsbeq	ip, sl, r4, lsl #12
     d74:	9baf0400 	blls	febc1d7c <_estack+0xdebbf57c>
     d78:	0c000000 	stceq	0, cr0, [r0], {-0}
     d7c:	3a040d04 	bcc	104194 <_Min_Stack_Size+0x103d94>
     d80:	02000001 	andeq	r0, r0, #1
     d84:	07e80801 	strbeq	r0, [r8, r1, lsl #16]!
     d88:	3a0e0000 	bcc	380d90 <_Min_Stack_Size+0x380990>
     d8c:	04000001 	streq	r0, [r0], #-1
     d90:	00007f48 	andeq	r7, r0, r8, asr #30
     d94:	008d1606 	addeq	r1, sp, r6, lsl #12
     d98:	e50f0000 	str	r0, [pc, #-0]	; da0 <_Min_Stack_Size+0x9a0>
     d9c:	18000047 	stmdane	r0, {r0, r1, r2, r6}
     da0:	01b02f06 	lslseq	r2, r6, #30
     da4:	580b0000 	stmdapl	fp, {}	; <UNPREDICTABLE>
     da8:	06000059 			; <UNDEFINED> instruction: 0x06000059
     dac:	0001b031 	andeq	fp, r1, r1, lsr r0
     db0:	00230200 	eoreq	r0, r3, r0, lsl #4
     db4:	006b5f10 	rsbeq	r5, fp, r0, lsl pc
     db8:	00343206 	eorseq	r3, r4, r6, lsl #4
     dbc:	23020000 	movwcs	r0, #8192	; 0x2000
     dc0:	77e00b04 	strbvc	r0, [r0, r4, lsl #22]!
     dc4:	32060000 	andcc	r0, r6, #0
     dc8:	00000034 	andeq	r0, r0, r4, lsr r0
     dcc:	0b082302 	bleq	2099dc <_Min_Stack_Size+0x2095dc>
     dd0:	0000511b 	andeq	r5, r0, fp, lsl r1
     dd4:	00343206 	eorseq	r3, r4, r6, lsl #4
     dd8:	23020000 	movwcs	r0, #8192	; 0x2000
     ddc:	34380b0c 	ldrtcc	r0, [r8], #-2828	; 0xfffff4f4
     de0:	32060000 	andcc	r0, r6, #0
     de4:	00000034 	andeq	r0, r0, r4, lsr r0
     de8:	10102302 	andsne	r2, r0, r2, lsl #6
     dec:	0600785f 			; <UNDEFINED> instruction: 0x0600785f
     df0:	0001b633 	andeq	fp, r1, r3, lsr r6
     df4:	14230200 	strtne	r0, [r3], #-512	; 0xfffffe00
     df8:	51040d00 	tstpl	r4, r0, lsl #26
     dfc:	08000001 	stmdaeq	r0, {r0}
     e00:	00000146 	andeq	r0, r0, r6, asr #2
     e04:	000001c6 	andeq	r0, r0, r6, asr #3
     e08:	00002d09 	andeq	r2, r0, r9, lsl #26
     e0c:	0f000000 	svceq	0x00000000
     e10:	000009ba 			; <UNDEFINED> instruction: 0x000009ba
     e14:	51370624 	teqpl	r7, r4, lsr #12
     e18:	0b000002 	bleq	e28 <_Min_Stack_Size+0xa28>
     e1c:	000009d6 	ldrdeq	r0, [r0], -r6
     e20:	00343906 	eorseq	r3, r4, r6, lsl #18
     e24:	23020000 	movwcs	r0, #8192	; 0x2000
     e28:	8b540b00 	blhi	1503a30 <_Min_Stack_Size+0x1503630>
     e2c:	3a060000 	bcc	180e34 <_Min_Stack_Size+0x180a34>
     e30:	00000034 	andeq	r0, r0, r4, lsr r0
     e34:	0b042302 	bleq	109a44 <_Min_Stack_Size+0x109644>
     e38:	000083cd 	andeq	r8, r0, sp, asr #7
     e3c:	00343b06 	eorseq	r3, r4, r6, lsl #22
     e40:	23020000 	movwcs	r0, #8192	; 0x2000
     e44:	57570b08 	ldrbpl	r0, [r7, -r8, lsl #22]
     e48:	3c060000 	stccc	0, cr0, [r6], {-0}
     e4c:	00000034 	andeq	r0, r0, r4, lsr r0
     e50:	0b0c2302 	bleq	309a60 <_Min_Stack_Size+0x309660>
     e54:	00001a87 	andeq	r1, r0, r7, lsl #21
     e58:	00343d06 	eorseq	r3, r4, r6, lsl #26
     e5c:	23020000 	movwcs	r0, #8192	; 0x2000
     e60:	78580b10 	ldmdavc	r8, {r4, r8, r9, fp}^
     e64:	3e060000 	cdpcc	0, 0, cr0, cr6, cr0, {0}
     e68:	00000034 	andeq	r0, r0, r4, lsr r0
     e6c:	0b142302 	bleq	509a7c <_Min_Stack_Size+0x50967c>
     e70:	00005e21 	andeq	r5, r0, r1, lsr #28
     e74:	00343f06 	eorseq	r3, r4, r6, lsl #30
     e78:	23020000 	movwcs	r0, #8192	; 0x2000
     e7c:	5f4a0b18 	svcpl	0x004a0b18
     e80:	40060000 	andmi	r0, r6, r0
     e84:	00000034 	andeq	r0, r0, r4, lsr r0
     e88:	0b1c2302 	bleq	709a98 <_Min_Stack_Size+0x709698>
     e8c:	00008951 	andeq	r8, r0, r1, asr r9
     e90:	00344106 	eorseq	r4, r4, r6, lsl #2
     e94:	23020000 	movwcs	r0, #8192	; 0x2000
     e98:	53110020 	tstpl	r1, #32
     e9c:	08000013 	stmdaeq	r0, {r0, r1, r4}
     ea0:	9a4a0601 	bls	12826ac <_Min_Stack_Size+0x12822ac>
     ea4:	0b000002 	bleq	eb4 <_Min_Stack_Size+0xab4>
     ea8:	00000c21 	andeq	r0, r0, r1, lsr #24
     eac:	029a4b06 	addseq	r4, sl, #6144	; 0x1800
     eb0:	23020000 	movwcs	r0, #8192	; 0x2000
     eb4:	65c50b00 	strbvs	r0, [r5, #2816]	; 0xb00
     eb8:	4c060000 	stcmi	0, cr0, [r6], {-0}
     ebc:	0000029a 	muleq	r0, sl, r2
     ec0:	01802303 	orreq	r2, r0, r3, lsl #6
     ec4:	0019530b 	andseq	r5, r9, fp, lsl #6
     ec8:	464e0600 	strbmi	r0, [lr], -r0, lsl #12
     ecc:	03000001 	movweq	r0, #1
     ed0:	0b028023 	bleq	a0f64 <_Min_Stack_Size+0xa0b64>
     ed4:	00007de3 	andeq	r7, r0, r3, ror #27
     ed8:	01465106 	cmpeq	r6, r6, lsl #2
     edc:	23030000 	movwcs	r0, #12288	; 0x3000
     ee0:	08000284 	stmdaeq	r0, {r2, r7, r9}
     ee4:	00000132 	andeq	r0, r0, r2, lsr r1
     ee8:	000002aa 	andeq	r0, r0, sl, lsr #5
     eec:	00002d09 	andeq	r2, r0, r9, lsl #26
     ef0:	0f001f00 	svceq	0x00001f00
     ef4:	000046c0 	andeq	r4, r0, r0, asr #13
     ef8:	f055068c 			; <UNDEFINED> instruction: 0xf055068c
     efc:	0b000002 	bleq	f0c <_Min_Stack_Size+0xb0c>
     f00:	00005958 	andeq	r5, r0, r8, asr r9
     f04:	02f05606 	rscseq	r5, r0, #6291456	; 0x600000
     f08:	23020000 	movwcs	r0, #8192	; 0x2000
     f0c:	7c520b00 	mrrcvc	11, 0, r0, r2, cr0
     f10:	57060000 	strpl	r0, [r6, -r0]
     f14:	00000034 	andeq	r0, r0, r4, lsr r0
     f18:	0b042302 	bleq	109b28 <_Min_Stack_Size+0x109728>
     f1c:	000027b9 			; <UNDEFINED> instruction: 0x000027b9
     f20:	02f65806 	rscseq	r5, r6, #393216	; 0x60000
     f24:	23020000 	movwcs	r0, #8192	; 0x2000
     f28:	2cff0b08 	vldmiacs	pc!, {d16-d19}
     f2c:	59060000 	stmdbpl	r6, {}	; <UNPREDICTABLE>
     f30:	0000030e 	andeq	r0, r0, lr, lsl #6
     f34:	01882303 	orreq	r2, r8, r3, lsl #6
     f38:	aa040d00 	bge	104340 <_Min_Stack_Size+0x103f40>
     f3c:	08000002 	stmdaeq	r0, {r1}
     f40:	00000306 	andeq	r0, r0, r6, lsl #6
     f44:	00000306 	andeq	r0, r0, r6, lsl #6
     f48:	00002d09 	andeq	r2, r0, r9, lsl #26
     f4c:	0d001f00 	stceq	15, cr1, [r0, #-0]
     f50:	00030c04 	andeq	r0, r3, r4, lsl #24
     f54:	0d011200 	sfmeq	f1, 4, [r1, #-0]
     f58:	00025104 	andeq	r5, r2, r4, lsl #2
     f5c:	03700f00 	cmneq	r0, #0, 30
     f60:	06080000 	streq	r0, [r8], -r0
     f64:	00033d75 	andeq	r3, r3, r5, ror sp
     f68:	683a0b00 	ldmdavs	sl!, {r8, r9, fp}
     f6c:	76060000 	strvc	r0, [r6], -r0
     f70:	0000033d 	andeq	r0, r0, sp, lsr r3
     f74:	0b002302 	bleq	9b84 <_Min_Stack_Size+0x9784>
     f78:	00008013 	andeq	r8, r0, r3, lsl r0
     f7c:	00347706 	eorseq	r7, r4, r6, lsl #14
     f80:	23020000 	movwcs	r0, #8192	; 0x2000
     f84:	040d0004 	streq	r0, [sp], #-4
     f88:	0000005b 	andeq	r0, r0, fp, asr r0
     f8c:	0034030f 	eorseq	r0, r4, pc, lsl #6
     f90:	99062000 	stmdbls	r6, {sp}
     f94:	000003bd 			; <UNDEFINED> instruction: 0x000003bd
     f98:	00705f10 	rsbseq	r5, r0, r0, lsl pc
     f9c:	033d9a06 	teqeq	sp, #24576	; 0x6000
     fa0:	23020000 	movwcs	r0, #8192	; 0x2000
     fa4:	725f1000 	subsvc	r1, pc, #0
     fa8:	349b0600 	ldrcc	r0, [fp], #1536	; 0x600
     fac:	02000000 	andeq	r0, r0, #0
     fb0:	5f100423 	svcpl	0x00100423
     fb4:	9c060077 	stcls	0, cr0, [r6], {119}	; 0x77
     fb8:	00000034 	andeq	r0, r0, r4, lsr r0
     fbc:	0b082302 	bleq	209bcc <_Min_Stack_Size+0x2097cc>
     fc0:	00005976 	andeq	r5, r0, r6, ror r9
     fc4:	00629d06 	rsbeq	r9, r2, r6, lsl #26
     fc8:	23020000 	movwcs	r0, #8192	; 0x2000
     fcc:	13020b0c 	movwne	r0, #11020	; 0x2b0c
     fd0:	9e060000 	cdpls	0, 0, cr0, cr6, cr0, {0}
     fd4:	00000062 	andeq	r0, r0, r2, rrx
     fd8:	100e2302 	andne	r2, lr, r2, lsl #6
     fdc:	0066625f 	rsbeq	r6, r6, pc, asr r2
     fe0:	03149f06 	tsteq	r4, #6, 30
     fe4:	23020000 	movwcs	r0, #8192	; 0x2000
     fe8:	7be00b10 	blvc	ff803c30 <_estack+0xdf801430>
     fec:	a0060000 	andge	r0, r6, r0
     ff0:	00000034 	andeq	r0, r0, r4, lsr r0
     ff4:	0b182302 	bleq	609c04 <_Min_Stack_Size+0x609804>
     ff8:	00006ce8 	andeq	r6, r0, r8, ror #25
     ffc:	051aa206 	ldreq	sl, [sl, #-518]	; 0xfffffdfa
    1000:	23020000 	movwcs	r0, #8192	; 0x2000
    1004:	430e001c 	movwmi	r0, #57372	; 0xe01c
    1008:	13000003 	movwne	r0, #3
    100c:	00001c19 	andeq	r1, r0, r9, lsl ip
    1010:	01740660 	cmneq	r4, r0, ror #12
    1014:	0000051a 	andeq	r0, r0, sl, lsl r5
    1018:	0043ef14 	subeq	lr, r3, r4, lsl pc
    101c:	01780600 	cmneq	r8, r0, lsl #12
    1020:	00000034 	andeq	r0, r0, r4, lsr r0
    1024:	14002302 	strne	r2, [r0], #-770	; 0xfffffcfe
    1028:	00001ec3 	andeq	r1, r0, r3, asr #29
    102c:	7c017d06 	stcvc	13, cr7, [r1], {6}
    1030:	02000007 	andeq	r0, r0, #7
    1034:	f7140423 			; <UNDEFINED> instruction: 0xf7140423
    1038:	06000052 			; <UNDEFINED> instruction: 0x06000052
    103c:	077c017d 			; <UNDEFINED> instruction: 0x077c017d
    1040:	23020000 	movwcs	r0, #8192	; 0x2000
    1044:	43841408 	orrmi	r1, r4, #8, 8	; 0x8000000
    1048:	7d060000 	stcvc	0, cr0, [r6, #-0]
    104c:	00077c01 	andeq	r7, r7, r1, lsl #24
    1050:	0c230200 	sfmeq	f0, 4, [r3], #-0
    1054:	00259614 	eoreq	r9, r5, r4, lsl r6
    1058:	017f0600 	cmneq	pc, r0, lsl #12
    105c:	00000034 	andeq	r0, r0, r4, lsr r0
    1060:	14102302 	ldrne	r2, [r0], #-770	; 0xfffffcfe
    1064:	00005379 	andeq	r5, r0, r9, ror r3
    1068:	34018106 	strcc	r8, [r1], #-262	; 0xfffffefa
    106c:	02000001 	andeq	r0, r0, #1
    1070:	f3141423 	vshl.u16	d1, d19, d4
    1074:	06000040 	streq	r0, [r0], -r0, asr #32
    1078:	00340183 	eorseq	r0, r4, r3, lsl #3
    107c:	23020000 	movwcs	r0, #8192	; 0x2000
    1080:	22821418 	addcs	r1, r2, #24, 8	; 0x18000000
    1084:	85060000 	strhi	r0, [r6, #-0]
    1088:	00003401 	andeq	r3, r0, r1, lsl #8
    108c:	1c230200 	sfmne	f0, 4, [r3], #-0
    1090:	007f4014 	rsbseq	r4, pc, r4, lsl r0	; <UNPREDICTABLE>
    1094:	01860600 	orreq	r0, r6, r0, lsl #12
    1098:	000008f5 	strdeq	r0, [r0], -r5
    109c:	15202302 	strne	r2, [r0, #-770]!	; 0xfffffcfe
    10a0:	00706d5f 	rsbseq	r6, r0, pc, asr sp
    10a4:	fb018806 	blx	630c6 <_Min_Stack_Size+0x62cc6>
    10a8:	02000008 	andeq	r0, r0, #8
    10ac:	9c142423 	cfldrsls	mvf2, [r4], {35}	; 0x23
    10b0:	06000049 	streq	r0, [r0], -r9, asr #32
    10b4:	090d018a 	stmdbeq	sp, {r1, r3, r7, r8}
    10b8:	23020000 	movwcs	r0, #8192	; 0x2000
    10bc:	4f871428 	svcmi	0x00871428
    10c0:	8c060000 	stchi	0, cr0, [r6], {-0}
    10c4:	00003401 	andeq	r3, r0, r1, lsl #8
    10c8:	2c230200 	sfmcs	f0, 4, [r3], #-0
    10cc:	00063114 	andeq	r3, r6, r4, lsl r1
    10d0:	018f0600 	orreq	r0, pc, r0, lsl #12
    10d4:	00000034 	andeq	r0, r0, r4, lsr r0
    10d8:	14302302 	ldrtne	r2, [r0], #-770	; 0xfffffcfe
    10dc:	000036c6 	andeq	r3, r0, r6, asr #13
    10e0:	34019006 	strcc	r9, [r1], #-6
    10e4:	02000001 	andeq	r0, r0, #1
    10e8:	17143423 	ldrne	r3, [r4, -r3, lsr #8]
    10ec:	0600006c 	streq	r0, [r0], -ip, rrx
    10f0:	09130192 	ldmdbeq	r3, {r1, r4, r7, r8}
    10f4:	23020000 	movwcs	r0, #8192	; 0x2000
    10f8:	17fe1438 			; <UNDEFINED> instruction: 0x17fe1438
    10fc:	93060000 	movwls	r0, #24576	; 0x6000
    1100:	00091901 	andeq	r1, r9, r1, lsl #18
    1104:	3c230200 	sfmcc	f0, 4, [r3], #-0
    1108:	00060d14 	andeq	r0, r6, r4, lsl sp
    110c:	01940600 	orrseq	r0, r4, r0, lsl #12
    1110:	00000134 	andeq	r0, r0, r4, lsr r1
    1114:	14402302 	strbne	r2, [r0], #-770	; 0xfffffcfe
    1118:	000034fa 	strdeq	r3, [r0], -sl
    111c:	2b019706 	blcs	66d3c <_Min_Stack_Size+0x6693c>
    1120:	02000009 	andeq	r0, r0, #9
    1124:	5c144423 	cfldrspl	mvf4, [r4], {35}	; 0x23
    1128:	06000088 	streq	r0, [r0], -r8, lsl #1
    112c:	073b019f 			; <UNDEFINED> instruction: 0x073b019f
    1130:	23020000 	movwcs	r0, #8192	; 0x2000
    1134:	02cf1448 	sbceq	r1, pc, #72, 8	; 0x48000000
    1138:	a0060000 	andge	r0, r6, r0
    113c:	00077c01 	andeq	r7, r7, r1, lsl #24
    1140:	54230200 	strtpl	r0, [r3], #-512	; 0xfffffe00
    1144:	007f1614 	rsbseq	r1, pc, r4, lsl r6	; <UNPREDICTABLE>
    1148:	01a10600 			; <UNDEFINED> instruction: 0x01a10600
    114c:	00000937 	andeq	r0, r0, r7, lsr r9
    1150:	14582302 	ldrbne	r2, [r8], #-770	; 0xfffffcfe
    1154:	00004604 	andeq	r4, r0, r4, lsl #12
    1158:	3401a206 	strcc	sl, [r1], #-518	; 0xfffffdfa
    115c:	02000001 	andeq	r0, r0, #1
    1160:	0d005c23 	stceq	12, cr5, [r0, #-140]	; 0xffffff74
    1164:	0003c204 	andeq	ip, r3, r4, lsl #4
    1168:	051a0e00 	ldreq	r0, [sl, #-3584]	; 0xfffff200
    116c:	e30f0000 	movw	r0, #61440	; 0xf000
    1170:	68000083 	stmdavs	r0, {r0, r1, r7}
    1174:	067fb506 	ldrbteq	fp, [pc], -r6, lsl #10
    1178:	5f100000 	svcpl	0x00100000
    117c:	b6060070 			; <UNDEFINED> instruction: 0xb6060070
    1180:	0000033d 	andeq	r0, r0, sp, lsr r3
    1184:	10002302 	andne	r2, r0, r2, lsl #6
    1188:	0600725f 			; <UNDEFINED> instruction: 0x0600725f
    118c:	000034b7 			; <UNDEFINED> instruction: 0x000034b7
    1190:	04230200 	strteq	r0, [r3], #-512	; 0xfffffe00
    1194:	00775f10 	rsbseq	r5, r7, r0, lsl pc
    1198:	0034b806 	eorseq	fp, r4, r6, lsl #16
    119c:	23020000 	movwcs	r0, #8192	; 0x2000
    11a0:	59760b08 	ldmdbpl	r6!, {r3, r8, r9, fp}^
    11a4:	b9060000 	stmdblt	r6, {}	; <UNPREDICTABLE>
    11a8:	00000062 	andeq	r0, r0, r2, rrx
    11ac:	0b0c2302 	bleq	309dbc <_Min_Stack_Size+0x3099bc>
    11b0:	00001302 	andeq	r1, r0, r2, lsl #6
    11b4:	0062ba06 	rsbeq	fp, r2, r6, lsl #20
    11b8:	23020000 	movwcs	r0, #8192	; 0x2000
    11bc:	625f100e 	subsvs	r1, pc, #14
    11c0:	bb060066 	bllt	181360 <_Min_Stack_Size+0x180f60>
    11c4:	00000314 	andeq	r0, r0, r4, lsl r3
    11c8:	0b102302 	bleq	409dd8 <_Min_Stack_Size+0x4099d8>
    11cc:	00007be0 	andeq	r7, r0, r0, ror #23
    11d0:	0034bc06 	eorseq	fp, r4, r6, lsl #24
    11d4:	23020000 	movwcs	r0, #8192	; 0x2000
    11d8:	6ce80b18 	vstmiavs	r8!, {d16-d27}
    11dc:	bf060000 	svclt	0x00060000
    11e0:	0000051a 	andeq	r0, r0, sl, lsl r5
    11e4:	0b1c2302 	bleq	709df4 <_Min_Stack_Size+0x7099f4>
    11e8:	0000338d 	andeq	r3, r0, sp, lsl #7
    11ec:	0132c306 	teqeq	r2, r6, lsl #6
    11f0:	23020000 	movwcs	r0, #8192	; 0x2000
    11f4:	03770b20 	cmneq	r7, #32, 22	; 0x8000
    11f8:	c5060000 	strgt	r0, [r6, #-0]
    11fc:	0000069e 	muleq	r0, lr, r6
    1200:	0b242302 	bleq	909e10 <_Min_Stack_Size+0x909a10>
    1204:	00000594 	muleq	r0, r4, r5
    1208:	06c9c706 	strbeq	ip, [r9], r6, lsl #14
    120c:	23020000 	movwcs	r0, #8192	; 0x2000
    1210:	61050b28 	tstvs	r5, r8, lsr #22
    1214:	ca060000 	bgt	18121c <_Min_Stack_Size+0x180e1c>
    1218:	000006ee 	andeq	r0, r0, lr, ror #13
    121c:	0b2c2302 	bleq	b09e2c <_Min_Stack_Size+0xb09a2c>
    1220:	00005ef3 	strdeq	r5, [r0], -r3
    1224:	0709cb06 	streq	ip, [r9, -r6, lsl #22]
    1228:	23020000 	movwcs	r0, #8192	; 0x2000
    122c:	755f1030 	ldrbvc	r1, [pc, #-48]	; 1204 <_Min_Stack_Size+0xe04>
    1230:	ce060062 	cdpgt	0, 0, cr0, cr6, cr2, {3}
    1234:	00000314 	andeq	r0, r0, r4, lsl r3
    1238:	10342302 	eorsne	r2, r4, r2, lsl #6
    123c:	0070755f 	rsbseq	r7, r0, pc, asr r5
    1240:	033dcf06 	teqeq	sp, #6, 30
    1244:	23020000 	movwcs	r0, #8192	; 0x2000
    1248:	755f103c 	ldrbvc	r1, [pc, #-60]	; 1214 <_Min_Stack_Size+0xe14>
    124c:	d0060072 	andle	r0, r6, r2, ror r0
    1250:	00000034 	andeq	r0, r0, r4, lsr r0
    1254:	0b402302 	bleq	1009e64 <_Min_Stack_Size+0x1009a64>
    1258:	00005837 	andeq	r5, r0, r7, lsr r8
    125c:	070fd306 	streq	sp, [pc, -r6, lsl #6]
    1260:	23020000 	movwcs	r0, #8192	; 0x2000
    1264:	09d00b44 	ldmibeq	r0, {r2, r6, r8, r9, fp}^
    1268:	d4060000 	strle	r0, [r6], #-0
    126c:	0000071f 	andeq	r0, r0, pc, lsl r7
    1270:	10472302 	subne	r2, r7, r2, lsl #6
    1274:	00626c5f 	rsbeq	r6, r2, pc, asr ip
    1278:	0314d706 	tsteq	r4, #1572864	; 0x180000
    127c:	23020000 	movwcs	r0, #8192	; 0x2000
    1280:	67e00b48 	strbvs	r0, [r0, r8, asr #22]!
    1284:	da060000 	ble	18128c <_Min_Stack_Size+0x180e8c>
    1288:	00000034 	andeq	r0, r0, r4, lsr r0
    128c:	0b502302 	bleq	1409e9c <_Min_Stack_Size+0x1409a9c>
    1290:	00003663 	andeq	r3, r0, r3, ror #12
    1294:	00a6db06 	adceq	sp, r6, r6, lsl #22
    1298:	23020000 	movwcs	r0, #8192	; 0x2000
    129c:	0c290b54 			; <UNDEFINED> instruction: 0x0c290b54
    12a0:	e2060000 	and	r0, r6, #0
    12a4:	00000127 	andeq	r0, r0, r7, lsr #2
    12a8:	0b582302 	bleq	1609eb8 <_Min_Stack_Size+0x1609ab8>
    12ac:	00005904 	andeq	r5, r0, r4, lsl #18
    12b0:	011ce406 	tsteq	ip, r6, lsl #8
    12b4:	23020000 	movwcs	r0, #8192	; 0x2000
    12b8:	53350b5c 	teqpl	r5, #92, 22	; 0x17000
    12bc:	e5060000 	str	r0, [r6, #-0]
    12c0:	00000034 	andeq	r0, r0, r4, lsr r0
    12c4:	00642302 	rsbeq	r2, r4, r2, lsl #6
    12c8:	00340116 	eorseq	r0, r4, r6, lsl r1
    12cc:	069e0000 	ldreq	r0, [lr], r0
    12d0:	1a170000 	bne	5c12d8 <_Min_Stack_Size+0x5c0ed8>
    12d4:	17000005 	strne	r0, [r0, -r5]
    12d8:	00000132 	andeq	r0, r0, r2, lsr r1
    12dc:	00013417 	andeq	r3, r1, r7, lsl r4
    12e0:	00341700 	eorseq	r1, r4, r0, lsl #14
    12e4:	0d000000 	stceq	0, cr0, [r0, #-0]
    12e8:	00067f04 	andeq	r7, r6, r4, lsl #30
    12ec:	34011600 	strcc	r1, [r1], #-1536	; 0xfffffa00
    12f0:	c3000000 	movwgt	r0, #0
    12f4:	17000006 	strne	r0, [r0, -r6]
    12f8:	0000051a 	andeq	r0, r0, sl, lsl r5
    12fc:	00013217 	andeq	r3, r1, r7, lsl r2
    1300:	06c31700 	strbeq	r1, [r3], r0, lsl #14
    1304:	34170000 	ldrcc	r0, [r7], #-0
    1308:	00000000 	andeq	r0, r0, r0
    130c:	0141040d 	cmpeq	r1, sp, lsl #8
    1310:	040d0000 	streq	r0, [sp], #-0
    1314:	000006a4 	andeq	r0, r0, r4, lsr #13
    1318:	00b10116 	adcseq	r0, r1, r6, lsl r1
    131c:	06ee0000 	strbteq	r0, [lr], r0
    1320:	1a170000 	bne	5c1328 <_Min_Stack_Size+0x5c0f28>
    1324:	17000005 	strne	r0, [r0, -r5]
    1328:	00000132 	andeq	r0, r0, r2, lsr r1
    132c:	0000b117 	andeq	fp, r0, r7, lsl r1
    1330:	00341700 	eorseq	r1, r4, r0, lsl #14
    1334:	0d000000 	stceq	0, cr0, [r0, #-0]
    1338:	0006cf04 	andeq	ip, r6, r4, lsl #30
    133c:	34011600 	strcc	r1, [r1], #-1536	; 0xfffffa00
    1340:	09000000 	stmdbeq	r0, {}	; <UNPREDICTABLE>
    1344:	17000007 	strne	r0, [r0, -r7]
    1348:	0000051a 	andeq	r0, r0, sl, lsl r5
    134c:	00013217 	andeq	r3, r1, r7, lsl r2
    1350:	040d0000 	streq	r0, [sp], #-0
    1354:	000006f4 	strdeq	r0, [r0], -r4
    1358:	00005b08 	andeq	r5, r0, r8, lsl #22
    135c:	00071f00 	andeq	r1, r7, r0, lsl #30
    1360:	002d0900 	eoreq	r0, sp, r0, lsl #18
    1364:	00020000 	andeq	r0, r2, r0
    1368:	00005b08 	andeq	r5, r0, r8, lsl #22
    136c:	00072f00 	andeq	r2, r7, r0, lsl #30
    1370:	002d0900 	eoreq	r0, sp, r0, lsl #18
    1374:	00000000 	andeq	r0, r0, r0
    1378:	006aef05 	rsbeq	lr, sl, r5, lsl #30
    137c:	011f0600 	tsteq	pc, r0, lsl #12
    1380:	00000525 	andeq	r0, r0, r5, lsr #10
    1384:	00510a13 	subseq	r0, r1, r3, lsl sl
    1388:	23060c00 	movwcs	r0, #27648	; 0x6c00
    138c:	00077601 	andeq	r7, r7, r1, lsl #12
    1390:	59581400 	ldmdbpl	r8, {sl, ip}^
    1394:	25060000 	strcs	r0, [r6, #-0]
    1398:	00077601 	andeq	r7, r7, r1, lsl #12
    139c:	00230200 	eoreq	r0, r3, r0, lsl #4
    13a0:	002bf514 	eoreq	pc, fp, r4, lsl r5	; <UNPREDICTABLE>
    13a4:	01260600 			; <UNDEFINED> instruction: 0x01260600
    13a8:	00000034 	andeq	r0, r0, r4, lsr r0
    13ac:	14042302 	strne	r2, [r4], #-770	; 0xfffffcfe
    13b0:	0000379c 	muleq	r0, ip, r7
    13b4:	7c012706 	stcvc	7, cr2, [r1], {6}
    13b8:	02000007 	andeq	r0, r0, #7
    13bc:	0d000823 	stceq	8, cr0, [r0, #-140]	; 0xffffff74
    13c0:	00073b04 	andeq	r3, r7, r4, lsl #22
    13c4:	2f040d00 	svccs	0x00040d00
    13c8:	13000007 	movwne	r0, #7
    13cc:	00006620 	andeq	r6, r0, r0, lsr #12
    13d0:	013f0618 	teqeq	pc, r8, lsl r6	; <UNPREDICTABLE>
    13d4:	000007cc 	andeq	r0, r0, ip, asr #15
    13d8:	00608214 	rsbeq	r8, r0, r4, lsl r2
    13dc:	01400600 	cmpeq	r0, r0, lsl #12
    13e0:	000007cc 	andeq	r0, r0, ip, asr #15
    13e4:	14002302 	strne	r2, [r0], #-770	; 0xfffffcfe
    13e8:	00000dce 	andeq	r0, r0, lr, asr #27
    13ec:	cc014106 	stfgts	f4, [r1], {6}
    13f0:	02000007 	andeq	r0, r0, #7
    13f4:	77140623 	ldrvc	r0, [r4, -r3, lsr #12]
    13f8:	06000083 	streq	r0, [r0], -r3, lsl #1
    13fc:	00740142 	rsbseq	r0, r4, r2, asr #2
    1400:	23020000 	movwcs	r0, #8192	; 0x2000
    1404:	5953140c 	ldmdbpl	r3, {r2, r3, sl, ip}^
    1408:	45060000 	strmi	r0, [r6, #-0]
    140c:	00009401 	andeq	r9, r0, r1, lsl #8
    1410:	10230200 	eorne	r0, r3, r0, lsl #4
    1414:	00740800 	rsbseq	r0, r4, r0, lsl #16
    1418:	07dc0000 	ldrbeq	r0, [ip, r0]
    141c:	2d090000 	stccs	0, cr0, [r9, #-0]
    1420:	02000000 	andeq	r0, r0, #0
    1424:	7ee91300 	cdpvc	3, 14, cr1, cr9, cr0, {0}
    1428:	06100000 	ldreq	r0, [r0], -r0
    142c:	08260158 	stmdaeq	r6!, {r3, r4, r6, r8}
    1430:	45140000 	ldrmi	r0, [r4, #-0]
    1434:	06000080 	streq	r0, [r0], -r0, lsl #1
    1438:	01b0015b 	asrseq	r0, fp, r1
    143c:	23020000 	movwcs	r0, #8192	; 0x2000
    1440:	16521400 	ldrbne	r1, [r2], -r0, lsl #8
    1444:	5c060000 	stcpl	0, cr0, [r6], {-0}
    1448:	00003401 	andeq	r3, r0, r1, lsl #8
    144c:	04230200 	strteq	r0, [r3], #-512	; 0xfffffe00
    1450:	0033a814 	eorseq	sl, r3, r4, lsl r8
    1454:	015d0600 	cmpeq	sp, r0, lsl #12
    1458:	000001b0 			; <UNDEFINED> instruction: 0x000001b0
    145c:	14082302 	strne	r2, [r8], #-770	; 0xfffffcfe
    1460:	000050b5 	strheq	r5, [r0], -r5	; <UNPREDICTABLE>
    1464:	26015e06 	strcs	r5, [r1], -r6, lsl #28
    1468:	02000008 	andeq	r0, r0, #8
    146c:	0d000c23 	stceq	12, cr0, [r0, #-140]	; 0xffffff74
    1470:	0001b004 	andeq	fp, r1, r4
    1474:	1c141300 	ldcne	3, cr1, [r4], {-0}
    1478:	06500000 	ldrbeq	r0, [r0], -r0
    147c:	08df0162 	ldmeq	pc, {r1, r5, r6, r8}^	; <UNPREDICTABLE>
    1480:	10140000 	andsne	r0, r4, r0
    1484:	06000069 	streq	r0, [r0], -r9, rrx
    1488:	01340165 	teqeq	r4, r5, ror #2
    148c:	23020000 	movwcs	r0, #8192	; 0x2000
    1490:	72da1400 	sbcsvc	r1, sl, #0, 8
    1494:	66060000 	strvs	r0, [r6], -r0
    1498:	00011c01 	andeq	r1, r1, r1, lsl #24
    149c:	04230200 	strteq	r0, [r3], #-512	; 0xfffffe00
    14a0:	0058dc14 	subseq	sp, r8, r4, lsl ip
    14a4:	01670600 	cmneq	r7, r0, lsl #12
    14a8:	0000011c 	andeq	r0, r0, ip, lsl r1
    14ac:	140c2302 	strne	r2, [ip], #-770	; 0xfffffcfe
    14b0:	000062f6 	strdeq	r6, [r0], -r6	; <UNPREDICTABLE>
    14b4:	1c016806 	stcne	8, cr6, [r1], {6}
    14b8:	02000001 	andeq	r0, r0, #1
    14bc:	81141423 	tsthi	r4, r3, lsr #8
    14c0:	0600000a 	streq	r0, [r0], -sl
    14c4:	08df0169 	ldmeq	pc, {r0, r3, r5, r6, r8}^	; <UNPREDICTABLE>
    14c8:	23020000 	movwcs	r0, #8192	; 0x2000
    14cc:	0dc1141c 	cfstrdeq	mvd1, [r1, #112]	; 0x70
    14d0:	6a060000 	bvs	1814d8 <_Min_Stack_Size+0x1810d8>
    14d4:	00003401 	andeq	r3, r0, r1, lsl #8
    14d8:	24230200 	strtcs	r0, [r3], #-512	; 0xfffffe00
    14dc:	0015e414 	andseq	lr, r5, r4, lsl r4
    14e0:	016b0600 	cmneq	fp, r0, lsl #12
    14e4:	0000011c 	andeq	r0, r0, ip, lsl r1
    14e8:	14282302 	strtne	r2, [r8], #-770	; 0xfffffcfe
    14ec:	000069cb 	andeq	r6, r0, fp, asr #19
    14f0:	1c016c06 	stcne	12, cr6, [r1], {6}
    14f4:	02000001 	andeq	r0, r0, #1
    14f8:	09143023 	ldmdbeq	r4, {r0, r1, r5, ip, sp}
    14fc:	06000085 	streq	r0, [r0], -r5, lsl #1
    1500:	011c016d 	tsteq	ip, sp, ror #2
    1504:	23020000 	movwcs	r0, #8192	; 0x2000
    1508:	56711438 			; <UNDEFINED> instruction: 0x56711438
    150c:	6e060000 	cdpvs	0, 0, cr0, cr6, cr0, {0}
    1510:	00011c01 	andeq	r1, r1, r1, lsl #24
    1514:	40230200 	eormi	r0, r3, r0, lsl #4
    1518:	0009bf14 	andeq	fp, r9, r4, lsl pc
    151c:	016f0600 	cmneq	pc, r0, lsl #12
    1520:	0000011c 	andeq	r0, r0, ip, lsl r1
    1524:	00482302 	subeq	r2, r8, r2, lsl #6
    1528:	00013a08 	andeq	r3, r1, r8, lsl #20
    152c:	0008ef00 	andeq	lr, r8, r0, lsl #30
    1530:	002d0900 	eoreq	r0, sp, r0, lsl #18
    1534:	00070000 	andeq	r0, r7, r0
    1538:	0001e118 	andeq	lr, r1, r8, lsl r1
    153c:	040d0100 	streq	r0, [sp], #-256	; 0xffffff00
    1540:	000008ef 	andeq	r0, r0, pc, ror #17
    1544:	07dc040d 	ldrbeq	r0, [ip, sp, lsl #8]
    1548:	01190000 	tsteq	r9, r0
    154c:	0000090d 	andeq	r0, r0, sp, lsl #18
    1550:	00051a17 	andeq	r1, r5, r7, lsl sl
    1554:	040d0000 	streq	r0, [sp], #-0
    1558:	00000901 	andeq	r0, r0, r1, lsl #18
    155c:	0782040d 	streq	r0, [r2, sp, lsl #8]
    1560:	040d0000 	streq	r0, [sp], #-0
    1564:	000001c6 	andeq	r0, r0, r6, asr #3
    1568:	092b0119 	stmdbeq	fp!, {r0, r3, r4, r8}
    156c:	34170000 	ldrcc	r0, [r7], #-0
    1570:	00000000 	andeq	r0, r0, r0
    1574:	0931040d 	ldmdbeq	r1!, {r0, r2, r3, sl}
    1578:	040d0000 	streq	r0, [sp], #-0
    157c:	0000091f 	andeq	r0, r0, pc, lsl r9
    1580:	082c040d 	stmdaeq	ip!, {r0, r2, r3, sl}
    1584:	ba1a0000 	blt	68158c <_Min_Stack_Size+0x68118c>
    1588:	0600001e 			; <UNDEFINED> instruction: 0x0600001e
    158c:	03bd01ca 			; <UNDEFINED> instruction: 0x03bd01ca
    1590:	01010000 	mrseq	r0, (UNDEF: 1)
    1594:	0052ee1a 	subseq	lr, r2, sl, lsl lr
    1598:	01cb0600 	biceq	r0, fp, r0, lsl #12
    159c:	000003bd 			; <UNDEFINED> instruction: 0x000003bd
    15a0:	7b1a0101 	blvc	6819ac <_Min_Stack_Size+0x6815ac>
    15a4:	06000043 	streq	r0, [r0], -r3, asr #32
    15a8:	03bd01cc 			; <UNDEFINED> instruction: 0x03bd01cc
    15ac:	01010000 	mrseq	r0, (UNDEF: 1)
    15b0:	002b501a 	eoreq	r5, fp, sl, lsl r0
    15b4:	032e0600 			; <UNDEFINED> instruction: 0x032e0600
    15b8:	0000051a 	andeq	r0, r0, sl, lsl r5
    15bc:	2f1a0101 	svccs	0x001a0101
    15c0:	06000078 			; <UNDEFINED> instruction: 0x06000078
    15c4:	0520032f 	streq	r0, [r0, #-815]!	; 0xfffffcd1
    15c8:	01010000 	mrseq	r0, (UNDEF: 1)
    15cc:	0046b91a 	subeq	fp, r6, sl, lsl r9
    15d0:	03410600 	movteq	r0, #5632	; 0x1600
    15d4:	000002f0 	strdeq	r0, [r0], -r0	; <UNPREDICTABLE>
    15d8:	ff1b0101 			; <UNDEFINED> instruction: 0xff1b0101
    15dc:	07000076 	smlsdxeq	r0, r6, r0, r0
    15e0:	00013463 	andeq	r3, r1, r3, ror #8
    15e4:	04010100 	streq	r0, [r1], #-256	; 0xffffff00
    15e8:	0000126b 	andeq	r1, r0, fp, ror #4
    15ec:	00501808 	subseq	r1, r0, r8, lsl #16
    15f0:	1f040000 	svcne	0x00040000
    15f4:	0800002a 	stmdaeq	r0, {r1, r3, r5}
    15f8:	00006924 	andeq	r6, r0, r4, lsr #18
    15fc:	409a0400 	addsmi	r0, sl, r0, lsl #8
    1600:	30080000 	andcc	r0, r8, r0
    1604:	00000082 	andeq	r0, r0, r2, lsl #1
    1608:	0009b41c 	andeq	fp, r9, ip, lsl r4
    160c:	091c0a00 	ldmdbeq	ip, {r9, fp}
    1610:	000a2f50 	andeq	r2, sl, r0, asr pc
    1614:	52431000 	subpl	r1, r3, #0
    1618:	5209004c 	andpl	r0, r9, #76	; 0x4c
    161c:	000009bf 			; <UNDEFINED> instruction: 0x000009bf
    1620:	10002302 	andne	r2, r0, r2, lsl #6
    1624:	00485243 	subeq	r5, r8, r3, asr #4
    1628:	09bf5309 	ldmibeq	pc!, {r0, r3, r8, r9, ip, lr}	; <UNPREDICTABLE>
    162c:	23020000 	movwcs	r0, #8192	; 0x2000
    1630:	44491004 	strbmi	r1, [r9], #-4
    1634:	54090052 	strpl	r0, [r9], #-82	; 0xffffffae
    1638:	000009bf 			; <UNDEFINED> instruction: 0x000009bf
    163c:	10082302 	andne	r2, r8, r2, lsl #6
    1640:	0052444f 	subseq	r4, r2, pc, asr #8
    1644:	09bf5509 	ldmibeq	pc!, {r0, r3, r8, sl, ip, lr}	; <UNPREDICTABLE>
    1648:	23020000 	movwcs	r0, #8192	; 0x2000
    164c:	7a5a0b0c 	bvc	1684284 <_Min_Stack_Size+0x1683e84>
    1650:	56090000 	strpl	r0, [r9], -r0
    1654:	000009bf 			; <UNDEFINED> instruction: 0x000009bf
    1658:	10102302 	andsne	r2, r0, r2, lsl #6
    165c:	00525242 	subseq	r5, r2, r2, asr #4
    1660:	09bf5709 	ldmibeq	pc!, {r0, r3, r8, r9, sl, ip, lr}	; <UNPREDICTABLE>
    1664:	23020000 	movwcs	r0, #8192	; 0x2000
    1668:	46100b14 			; <UNDEFINED> instruction: 0x46100b14
    166c:	58090000 	stmdapl	r9, {}	; <UNPREDICTABLE>
    1670:	000009bf 			; <UNDEFINED> instruction: 0x000009bf
    1674:	00182302 	andseq	r2, r8, r2, lsl #6
    1678:	007b9a04 	rsbseq	r9, fp, r4, lsl #20
    167c:	c4590900 	ldrbgt	r0, [r9], #-2304	; 0xfffff700
    1680:	0a000009 	beq	16ac <_Min_Stack_Size+0x12ac>
    1684:	ce5e0928 	vnmlsgt.f16	s1, s28, s17	; <UNPREDICTABLE>
    1688:	1000000a 	andne	r0, r0, sl
    168c:	09005243 	stmdbeq	r0, {r0, r1, r6, r9, ip, lr}
    1690:	0009bf60 	andeq	fp, r9, r0, ror #30
    1694:	00230200 	eoreq	r0, r3, r0, lsl #4
    1698:	0036190b 	eorseq	r1, r6, fp, lsl #18
    169c:	bf610900 	svclt	0x00610900
    16a0:	02000009 	andeq	r0, r0, #9
    16a4:	43100423 	tstmi	r0, #587202560	; 0x23000000
    16a8:	09005249 	stmdbeq	r0, {r0, r3, r6, r9, ip, lr}
    16ac:	0009bf62 	andeq	fp, r9, r2, ror #30
    16b0:	08230200 	stmdaeq	r3!, {r9}
    16b4:	004f960b 	subeq	r9, pc, fp, lsl #12
    16b8:	bf630900 	svclt	0x00630900
    16bc:	02000009 	andeq	r0, r0, #9
    16c0:	7b0b0c23 	blvc	2c4754 <_Min_Stack_Size+0x2c4354>
    16c4:	09000062 	stmdbeq	r0, {r1, r5, r6}
    16c8:	0009bf64 	andeq	fp, r9, r4, ror #30
    16cc:	10230200 	eorne	r0, r3, r0, lsl #4
    16d0:	0078620b 	rsbseq	r6, r8, fp, lsl #4
    16d4:	bf650900 	svclt	0x00650900
    16d8:	02000009 	andeq	r0, r0, #9
    16dc:	bd0b1423 	cfstrslt	mvf1, [fp, #-140]	; 0xffffff74
    16e0:	0900001a 	stmdbeq	r0, {r1, r3, r4}
    16e4:	0009bf66 	andeq	fp, r9, r6, ror #30
    16e8:	18230200 	stmdane	r3!, {r9}
    16ec:	0062ee0b 	rsbeq	lr, r2, fp, lsl #28
    16f0:	bf670900 	svclt	0x00670900
    16f4:	02000009 	andeq	r0, r0, #9
    16f8:	130b1c23 	movwne	r1, #48163	; 0xbc23
    16fc:	09000031 	stmdbeq	r0, {r0, r4, r5}
    1700:	0009bf68 	andeq	fp, r9, r8, ror #30
    1704:	20230200 	eorcs	r0, r3, r0, lsl #4
    1708:	52534310 	subspl	r4, r3, #16, 6	; 0x40000000
    170c:	bf690900 	svclt	0x00690900
    1710:	02000009 	andeq	r0, r0, #9
    1714:	04002423 	streq	r2, [r0], #-1059	; 0xfffffbdd
    1718:	000072ae 	andeq	r7, r0, lr, lsr #5
    171c:	0a3a6a09 	beq	e9bf48 <_Min_Stack_Size+0xe9bb48>
    1720:	040a0000 	streq	r0, [sl], #-0
    1724:	0b0c150a 	bleq	306b54 <_Min_Stack_Size+0x306754>
    1728:	ff0b0000 			; <UNDEFINED> instruction: 0xff0b0000
    172c:	0a00008e 	beq	196c <_Min_Stack_Size+0x156c>
    1730:	0009a917 	andeq	sl, r9, r7, lsl r9
    1734:	00230200 	eoreq	r0, r3, r0, lsl #4
    1738:	008e3f0b 	addeq	r3, lr, fp, lsl #30
    173c:	9e190a00 	vnmlsls.f32	s0, s18, s0
    1740:	02000009 	andeq	r0, r0, #9
    1744:	110b0223 	tstne	fp, r3, lsr #4
    1748:	0a00008e 	beq	1988 <_Min_Stack_Size+0x1588>
    174c:	00099e1b 	andeq	r9, r9, fp, lsl lr
    1750:	03230200 			; <UNDEFINED> instruction: 0x03230200
    1754:	8e490400 	cdphi	4, 4, cr0, cr9, cr0, {0}
    1758:	1d0a0000 	stcne	0, cr0, [sl, #-0]
    175c:	00000ad9 	ldrdeq	r0, [r0], -r9
    1760:	8ea4011d 	mcrhi	1, 5, r0, cr4, cr13, {0}
    1764:	1b010000 	blne	4176c <_Min_Stack_Size+0x4136c>
    1768:	099e0101 	ldmibeq	lr, {r0, r8}
	...
    1774:	007c0000 	rsbseq	r0, ip, r0
    1778:	64010000 	strvs	r0, [r1], #-0
    177c:	1e00000b 	cdpne	0, 0, cr0, cr0, cr11, {0}
    1780:	00008e8c 	andeq	r8, r0, ip, lsl #29
    1784:	64011b01 	strvs	r1, [r1], #-2817	; 0xfffff4ff
    1788:	0200000b 	andeq	r0, r0, #11
    178c:	041e6c91 	ldreq	r6, [lr], #-3217	; 0xfffff36f
    1790:	0100008f 	smlabbeq	r0, pc, r0, r0	; <UNPREDICTABLE>
    1794:	09a9011b 	stmibeq	r9!, {r0, r1, r3, r4, r8}
    1798:	91020000 	mrsls	r0, (UNDEF: 2)
    179c:	6d741f6a 	ldclvs	15, cr1, [r4, #-424]!	; 0xfffffe58
    17a0:	30010070 	andcc	r0, r1, r0, ror r0
    17a4:	0009bf01 	andeq	fp, r9, r1, lsl #30
    17a8:	74910200 	ldrvc	r0, [r1], #512	; 0x200
    17ac:	2f040d00 	svccs	0x00040d00
    17b0:	2000000a 	andcs	r0, r0, sl
    17b4:	008e5a01 	addeq	r5, lr, r1, lsl #20
    17b8:	010e0100 	mrseq	r0, (UNDEF: 30)
    17bc:	00000001 	andeq	r0, r0, r1
    17c0:	00000000 	andeq	r0, r0, r0
    17c4:	0000d800 	andeq	sp, r0, r0, lsl #16
    17c8:	0ba40100 	bleq	fe901bd0 <_estack+0xde8ff3d0>
    17cc:	8c1e0000 	ldchi	0, cr0, [lr], {-0}
    17d0:	0100008e 	smlabbeq	r0, lr, r0, r0
    17d4:	0b64010e 	bleq	1901c14 <_Min_Stack_Size+0x1901814>
    17d8:	91020000 	mrsls	r0, (UNDEF: 2)
    17dc:	8f041e74 	svchi	0x00041e74
    17e0:	0e010000 	cdpeq	0, 0, cr0, cr1, cr0, {0}
    17e4:	0009a901 	andeq	sl, r9, r1, lsl #18
    17e8:	72910200 	addsvc	r0, r1, #0, 4
    17ec:	c5012000 	strgt	r2, [r1, #-0]
    17f0:	0100008e 	smlabbeq	r0, lr, r0, r0
    17f4:	00010101 	andeq	r0, r1, r1, lsl #2
    17f8:	00000000 	andeq	r0, r0, r0
    17fc:	34000000 	strcc	r0, [r0], #-0
    1800:	01000001 	tsteq	r0, r1
    1804:	00000bde 	ldrdeq	r0, [r0], -lr
    1808:	008e8c1e 	addeq	r8, lr, lr, lsl ip
    180c:	01010100 	mrseq	r0, (UNDEF: 17)
    1810:	00000b64 	andeq	r0, r0, r4, ror #22
    1814:	1e749102 	expnes	f1, f2
    1818:	00008f21 	andeq	r8, r0, r1, lsr #30
    181c:	a9010101 	stmdbge	r1, {r0, r8}
    1820:	02000009 	andeq	r0, r0, #9
    1824:	21007291 			; <UNDEFINED> instruction: 0x21007291
    1828:	008e6e01 	addeq	r6, lr, r1, lsl #28
    182c:	01e10100 	mvneq	r0, r0, lsl #2
	...
    1838:	00000190 	muleq	r0, r0, r1
    183c:	000c2301 	andeq	r2, ip, r1, lsl #6
    1840:	8e8c2200 	cdphi	2, 8, cr2, cr12, cr0, {0}
    1844:	e1010000 	mrs	r0, (UNDEF: 1)
    1848:	00000b64 	andeq	r0, r0, r4, ror #22
    184c:	22749102 	rsbscs	r9, r4, #-2147483648	; 0x80000000
    1850:	00008f04 	andeq	r8, r0, r4, lsl #30
    1854:	09a9e101 	stmibeq	r9!, {r0, r8, sp, lr, pc}
    1858:	91020000 	mrsls	r0, (UNDEF: 2)
    185c:	8f212272 	svchi	0x00212272
    1860:	e1010000 	mrs	r0, (UNDEF: 1)
    1864:	0000099e 	muleq	r0, lr, r9
    1868:	00719102 	rsbseq	r9, r1, r2, lsl #2
    186c:	8f0e0123 	svchi	0x000e0123
    1870:	d1010000 	mrsle	r0, (UNDEF: 1)
    1874:	0009a901 	andeq	sl, r9, r1, lsl #18
	...
    1880:	0001ec00 	andeq	lr, r1, r0, lsl #24
    1884:	0c5e0100 	ldfeqe	f0, [lr], {-0}
    1888:	8c220000 	stchi	0, cr0, [r2], #-0
    188c:	0100008e 	smlabbeq	r0, lr, r0, r0
    1890:	000b64d1 	ldrdeq	r6, [fp], -r1
    1894:	6c910200 	lfmvs	f0, 4, [r1], {0}
    1898:	008eea24 	addeq	lr, lr, r4, lsr #20
    189c:	a9d30100 	ldmibge	r3, {r8}^
    18a0:	02000009 	andeq	r0, r0, #9
    18a4:	23007691 	movwcs	r7, #1681	; 0x691
    18a8:	008e9201 	addeq	r9, lr, r1, lsl #4
    18ac:	01bb0100 			; <UNDEFINED> instruction: 0x01bb0100
    18b0:	0000099e 	muleq	r0, lr, r9
	...
    18bc:	00000248 	andeq	r0, r0, r8, asr #4
    18c0:	000ca701 	andeq	sl, ip, r1, lsl #14
    18c4:	8e8c2200 	cdphi	2, 8, cr2, cr12, cr0, {0}
    18c8:	bb010000 	bllt	418d0 <_Min_Stack_Size+0x414d0>
    18cc:	00000b64 	andeq	r0, r0, r4, ror #22
    18d0:	226c9102 	rsbcs	r9, ip, #-2147483648	; 0x80000000
    18d4:	00008f04 	andeq	r8, r0, r4, lsl #30
    18d8:	09a9bb01 	stmibeq	r9!, {r0, r8, r9, fp, ip, sp, pc}
    18dc:	91020000 	mrsls	r0, (UNDEF: 2)
    18e0:	8ef5246a 	cdphi	4, 15, cr2, cr5, cr10, {3}
    18e4:	bd010000 	stclt	0, cr0, [r1, #-0]
    18e8:	0000099e 	muleq	r0, lr, r9
    18ec:	00779102 	rsbseq	r9, r7, r2, lsl #2
    18f0:	8ed90121 	cdphi	1, 13, cr0, cr9, cr1, {1}
    18f4:	8b010000 	blhi	418fc <_Min_Stack_Size+0x414fc>
    18f8:	00000001 	andeq	r0, r0, r1
    18fc:	00000000 	andeq	r0, r0, r0
    1900:	0002a400 	andeq	sl, r2, r0, lsl #8
    1904:	0cd00100 	ldfeqe	f0, [r0], {0}
    1908:	8c220000 	stchi	0, cr0, [r2], #-0
    190c:	0100008e 	smlabbeq	r0, lr, r0, r0
    1910:	000b648b 	andeq	r6, fp, fp, lsl #9
    1914:	74910200 	ldrvc	r0, [r1], #512	; 0x200
    1918:	02012500 	andeq	r2, r1, #0, 10
    191c:	0100008e 	smlabbeq	r0, lr, r0, r0
    1920:	03780151 	cmneq	r8, #1073741844	; 0x40000014
    1924:	04760800 	ldrbteq	r0, [r6], #-2048	; 0xfffff800
    1928:	03000800 	movweq	r0, #2048	; 0x800
    192c:	23010000 	movwcs	r0, #4096	; 0x1000
    1930:	2200000d 	andcs	r0, r0, #13
    1934:	00008e8c 	andeq	r8, r0, ip, lsl #29
    1938:	0b645101 	bleq	1915d44 <_Min_Stack_Size+0x1915944>
    193c:	91020000 	mrsls	r0, (UNDEF: 2)
    1940:	8e232264 	cdphi	2, 2, cr2, cr3, cr4, {3}
    1944:	51010000 	mrspl	r0, (UNDEF: 1)
    1948:	00000d23 	andeq	r0, r0, r3, lsr #26
    194c:	24609102 	strbtcs	r9, [r0], #-258	; 0xfffffefe
    1950:	00008eb6 			; <UNDEFINED> instruction: 0x00008eb6
    1954:	0d295501 	cfstr32eq	mvfx5, [r9, #-4]!
    1958:	91020000 	mrsls	r0, (UNDEF: 2)
    195c:	8e812468 	cdphi	4, 8, cr2, cr1, cr8, {3}
    1960:	56010000 	strpl	r0, [r1], -r0
    1964:	0000099e 	muleq	r0, lr, r9
    1968:	006f9102 	rsbeq	r9, pc, r2, lsl #2
    196c:	0b0c040d 	bleq	3029a8 <_Min_Stack_Size+0x3025a8>
    1970:	040d0000 	streq	r0, [sp], #-0
    1974:	000009bf 			; <UNDEFINED> instruction: 0x000009bf
    1978:	8e2d0126 	sufhiep	f0, f5, f6
    197c:	0d010000 	stceq	0, cr0, [r1, #-0]
    1980:	00099e01 	andeq	r9, r9, r1, lsl #28
    1984:	0002b200 	andeq	fp, r2, r0, lsl #4
    1988:	00037808 	andeq	r7, r3, r8, lsl #16
    198c:	00035008 	andeq	r5, r3, r8
    1990:	04220100 	strteq	r0, [r2], #-256	; 0xffffff00
    1994:	0100008f 	smlabbeq	r0, pc, r0, r0	; <UNPREDICTABLE>
    1998:	0009a90d 	andeq	sl, r9, sp, lsl #18
    199c:	76910200 	ldrvc	r0, [r1], r0, lsl #4
    19a0:	0db50000 	ldceq	0, cr0, [r5]
    19a4:	00020000 	andeq	r0, r2, r0
    19a8:	000003ee 	andeq	r0, r0, lr, ror #7
    19ac:	85850104 	strhi	r0, [r5, #260]	; 0x104
    19b0:	440c0000 	strmi	r0, [ip], #-0
    19b4:	7000008f 	andvc	r0, r0, pc, lsl #1
    19b8:	8800008d 	stmdahi	r0, {r0, r2, r3, r7}
	...
    19c4:	c7000000 	strgt	r0, [r0, -r0]
    19c8:	b500000c 	strlt	r0, [r0, #-12]
    19cc:	02000004 	andeq	r0, r0, #4
    19d0:	20ff0704 	rscscs	r0, pc, r4, lsl #14
    19d4:	04030000 	streq	r0, [r3], #-0
    19d8:	746e6905 	strbtvc	r6, [lr], #-2309	; 0xfffff6fb
    19dc:	05080200 	streq	r0, [r8, #-512]	; 0xfffffe00
    19e0:	00004fd7 	ldrdeq	r4, [r0], -r7
    19e4:	41040802 	tstmi	r4, r2, lsl #16
    19e8:	02000003 	andeq	r0, r0, #3
    19ec:	07e10601 	strbeq	r0, [r1, r1, lsl #12]!
    19f0:	69040000 	stmdbvs	r4, {}	; <UNPREDICTABLE>
    19f4:	02000012 	andeq	r0, r0, #18
    19f8:	00005b2b 	andeq	r5, r0, fp, lsr #22
    19fc:	08010200 	stmdaeq	r1, {r9}
    1a00:	00002fd8 	ldrdeq	r2, [r0], -r8
    1a04:	fd050202 	stc2	2, cr0, [r5, #-8]
    1a08:	04000009 	streq	r0, [r0], #-9
    1a0c:	00002a1d 	andeq	r2, r0, sp, lsl sl
    1a10:	00743902 	rsbseq	r3, r4, r2, lsl #18
    1a14:	02020000 	andeq	r0, r2, #0
    1a18:	00669b07 	rsbeq	r9, r6, r7, lsl #22
    1a1c:	05040200 	streq	r0, [r4, #-512]	; 0xfffffe00
    1a20:	00006984 	andeq	r6, r0, r4, lsl #19
    1a24:	00409804 	subeq	r9, r0, r4, lsl #16
    1a28:	8d4f0200 	sfmhi	f0, 2, [pc, #-0]	; 1a30 <_Min_Stack_Size+0x1630>
    1a2c:	02000000 	andeq	r0, r0, #0
    1a30:	19d40704 	ldmibne	r4, {r2, r8, r9, sl}^
    1a34:	08020000 	stmdaeq	r2, {}	; <UNPREDICTABLE>
    1a38:	003d0907 	eorseq	r0, sp, r7, lsl #18
    1a3c:	42fa0400 	rscsmi	r0, sl, #0, 8
    1a40:	0c030000 	stceq	0, cr0, [r3], {-0}
    1a44:	00000034 	andeq	r0, r0, r4, lsr r0
    1a48:	00827b04 	addeq	r7, r2, r4, lsl #22
    1a4c:	7b2c0400 	blvc	b02a54 <_Min_Stack_Size+0xb02654>
    1a50:	04000000 	streq	r0, [r0], #-0
    1a54:	0000620f 	andeq	r6, r0, pc, lsl #4
    1a58:	007b7204 	rsbseq	r7, fp, r4, lsl #4
    1a5c:	a2050000 	andge	r0, r5, #0
    1a60:	05000022 	streq	r0, [r0, #-34]	; 0xffffffde
    1a64:	002d0165 	eoreq	r0, sp, r5, ror #2
    1a68:	04060000 	streq	r0, [r6], #-0
    1a6c:	00e7a604 	rsceq	sl, r7, r4, lsl #12
    1a70:	36070000 	strcc	r0, [r7], -r0
    1a74:	04000014 	streq	r0, [r0], #-20	; 0xffffffec
    1a78:	0000bca8 	andeq	fp, r0, r8, lsr #25
    1a7c:	622d0700 	eorvs	r0, sp, #0, 14
    1a80:	a9040000 	stmdbge	r4, {}	; <UNPREDICTABLE>
    1a84:	000000e7 	andeq	r0, r0, r7, ror #1
    1a88:	005b0800 	subseq	r0, fp, r0, lsl #16
    1a8c:	00f70000 	rscseq	r0, r7, r0
    1a90:	2d090000 	stccs	0, cr0, [r9, #-0]
    1a94:	03000000 	movweq	r0, #0
    1a98:	04080a00 	streq	r0, [r8], #-2560	; 0xfffff600
    1a9c:	00011ca3 	andeq	r1, r1, r3, lsr #25
    1aa0:	5c510b00 	mrrcpl	11, 0, r0, r1, cr0
    1aa4:	a5040000 	strge	r0, [r4, #-0]
    1aa8:	00000034 	andeq	r0, r0, r4, lsr r0
    1aac:	0b002302 	bleq	a6bc <_Min_Stack_Size+0xa2bc>
    1ab0:	00000205 	andeq	r0, r0, r5, lsl #4
    1ab4:	00c8aa04 	sbceq	sl, r8, r4, lsl #20
    1ab8:	23020000 	movwcs	r0, #8192	; 0x2000
    1abc:	10040004 	andne	r0, r4, r4
    1ac0:	04000051 	streq	r0, [r0], #-81	; 0xffffffaf
    1ac4:	0000f7ab 	andeq	pc, r0, fp, lsr #15
    1ac8:	6ac60400 	bvs	ff182ad0 <_estack+0xdf1802d0>
    1acc:	af040000 	svcge	0x00040000
    1ad0:	0000009b 	muleq	r0, fp, r0
    1ad4:	040d040c 	streq	r0, [sp], #-1036	; 0xfffffbf4
    1ad8:	0000013a 	andeq	r0, r0, sl, lsr r1
    1adc:	e8080102 	stmda	r8, {r1, r8}
    1ae0:	0e000007 	cdpeq	0, 0, cr0, cr0, cr7, {0}
    1ae4:	0000013a 	andeq	r0, r0, sl, lsr r1
    1ae8:	007f4804 	rsbseq	r4, pc, r4, lsl #16
    1aec:	8d160600 	ldchi	6, cr0, [r6, #-0]
    1af0:	0f000000 	svceq	0x00000000
    1af4:	000047e5 	andeq	r4, r0, r5, ror #15
    1af8:	b02f0618 	eorlt	r0, pc, r8, lsl r6	; <UNPREDICTABLE>
    1afc:	0b000001 	bleq	1b08 <_Min_Stack_Size+0x1708>
    1b00:	00005958 	andeq	r5, r0, r8, asr r9
    1b04:	01b03106 	lslseq	r3, r6, #2
    1b08:	23020000 	movwcs	r0, #8192	; 0x2000
    1b0c:	6b5f1000 	blvs	17c5b14 <_Min_Stack_Size+0x17c5714>
    1b10:	34320600 	ldrtcc	r0, [r2], #-1536	; 0xfffffa00
    1b14:	02000000 	andeq	r0, r0, #0
    1b18:	e00b0423 	and	r0, fp, r3, lsr #8
    1b1c:	06000077 			; <UNDEFINED> instruction: 0x06000077
    1b20:	00003432 	andeq	r3, r0, r2, lsr r4
    1b24:	08230200 	stmdaeq	r3!, {r9}
    1b28:	00511b0b 	subseq	r1, r1, fp, lsl #22
    1b2c:	34320600 	ldrtcc	r0, [r2], #-1536	; 0xfffffa00
    1b30:	02000000 	andeq	r0, r0, #0
    1b34:	380b0c23 	stmdacc	fp, {r0, r1, r5, sl, fp}
    1b38:	06000034 			; <UNDEFINED> instruction: 0x06000034
    1b3c:	00003432 	andeq	r3, r0, r2, lsr r4
    1b40:	10230200 	eorne	r0, r3, r0, lsl #4
    1b44:	00785f10 	rsbseq	r5, r8, r0, lsl pc
    1b48:	01b63306 			; <UNDEFINED> instruction: 0x01b63306
    1b4c:	23020000 	movwcs	r0, #8192	; 0x2000
    1b50:	040d0014 	streq	r0, [sp], #-20	; 0xffffffec
    1b54:	00000151 	andeq	r0, r0, r1, asr r1
    1b58:	00014608 	andeq	r4, r1, r8, lsl #12
    1b5c:	0001c600 	andeq	ip, r1, r0, lsl #12
    1b60:	002d0900 	eoreq	r0, sp, r0, lsl #18
    1b64:	00000000 	andeq	r0, r0, r0
    1b68:	0009ba0f 	andeq	fp, r9, pc, lsl #20
    1b6c:	37062400 	strcc	r2, [r6, -r0, lsl #8]
    1b70:	00000251 	andeq	r0, r0, r1, asr r2
    1b74:	0009d60b 	andeq	sp, r9, fp, lsl #12
    1b78:	34390600 	ldrtcc	r0, [r9], #-1536	; 0xfffffa00
    1b7c:	02000000 	andeq	r0, r0, #0
    1b80:	540b0023 	strpl	r0, [fp], #-35	; 0xffffffdd
    1b84:	0600008b 	streq	r0, [r0], -fp, lsl #1
    1b88:	0000343a 	andeq	r3, r0, sl, lsr r4
    1b8c:	04230200 	strteq	r0, [r3], #-512	; 0xfffffe00
    1b90:	0083cd0b 	addeq	ip, r3, fp, lsl #26
    1b94:	343b0600 	ldrtcc	r0, [fp], #-1536	; 0xfffffa00
    1b98:	02000000 	andeq	r0, r0, #0
    1b9c:	570b0823 	strpl	r0, [fp, -r3, lsr #16]
    1ba0:	06000057 			; <UNDEFINED> instruction: 0x06000057
    1ba4:	0000343c 	andeq	r3, r0, ip, lsr r4
    1ba8:	0c230200 	sfmeq	f0, 4, [r3], #-0
    1bac:	001a870b 	andseq	r8, sl, fp, lsl #14
    1bb0:	343d0600 	ldrtcc	r0, [sp], #-1536	; 0xfffffa00
    1bb4:	02000000 	andeq	r0, r0, #0
    1bb8:	580b1023 	stmdapl	fp, {r0, r1, r5, ip}
    1bbc:	06000078 			; <UNDEFINED> instruction: 0x06000078
    1bc0:	0000343e 	andeq	r3, r0, lr, lsr r4
    1bc4:	14230200 	strtne	r0, [r3], #-512	; 0xfffffe00
    1bc8:	005e210b 	subseq	r2, lr, fp, lsl #2
    1bcc:	343f0600 	ldrtcc	r0, [pc], #-1536	; 1bd4 <_Min_Stack_Size+0x17d4>
    1bd0:	02000000 	andeq	r0, r0, #0
    1bd4:	4a0b1823 	bmi	2c7c68 <_Min_Stack_Size+0x2c7868>
    1bd8:	0600005f 			; <UNDEFINED> instruction: 0x0600005f
    1bdc:	00003440 	andeq	r3, r0, r0, asr #8
    1be0:	1c230200 	sfmne	f0, 4, [r3], #-0
    1be4:	0089510b 	addeq	r5, r9, fp, lsl #2
    1be8:	34410600 	strbcc	r0, [r1], #-1536	; 0xfffffa00
    1bec:	02000000 	andeq	r0, r0, #0
    1bf0:	11002023 	tstne	r0, r3, lsr #32
    1bf4:	00001353 	andeq	r1, r0, r3, asr r3
    1bf8:	4a060108 	bmi	182020 <_Min_Stack_Size+0x181c20>
    1bfc:	0000029a 	muleq	r0, sl, r2
    1c00:	000c210b 	andeq	r2, ip, fp, lsl #2
    1c04:	9a4b0600 	bls	12c340c <_Min_Stack_Size+0x12c300c>
    1c08:	02000002 	andeq	r0, r0, #2
    1c0c:	c50b0023 	strgt	r0, [fp, #-35]	; 0xffffffdd
    1c10:	06000065 	streq	r0, [r0], -r5, rrx
    1c14:	00029a4c 	andeq	r9, r2, ip, asr #20
    1c18:	80230300 	eorhi	r0, r3, r0, lsl #6
    1c1c:	19530b01 	ldmdbne	r3, {r0, r8, r9, fp}^
    1c20:	4e060000 	cdpmi	0, 0, cr0, cr6, cr0, {0}
    1c24:	00000146 	andeq	r0, r0, r6, asr #2
    1c28:	02802303 	addeq	r2, r0, #201326592	; 0xc000000
    1c2c:	007de30b 	rsbseq	lr, sp, fp, lsl #6
    1c30:	46510600 	ldrbmi	r0, [r1], -r0, lsl #12
    1c34:	03000001 	movweq	r0, #1
    1c38:	00028423 	andeq	r8, r2, r3, lsr #8
    1c3c:	00013208 	andeq	r3, r1, r8, lsl #4
    1c40:	0002aa00 	andeq	sl, r2, r0, lsl #20
    1c44:	002d0900 	eoreq	r0, sp, r0, lsl #18
    1c48:	001f0000 	andseq	r0, pc, r0
    1c4c:	0046c00f 	subeq	ip, r6, pc
    1c50:	55068c00 	strpl	r8, [r6, #-3072]	; 0xfffff400
    1c54:	000002f0 	strdeq	r0, [r0], -r0	; <UNPREDICTABLE>
    1c58:	0059580b 	subseq	r5, r9, fp, lsl #16
    1c5c:	f0560600 			; <UNDEFINED> instruction: 0xf0560600
    1c60:	02000002 	andeq	r0, r0, #2
    1c64:	520b0023 	andpl	r0, fp, #35	; 0x23
    1c68:	0600007c 			; <UNDEFINED> instruction: 0x0600007c
    1c6c:	00003457 	andeq	r3, r0, r7, asr r4
    1c70:	04230200 	strteq	r0, [r3], #-512	; 0xfffffe00
    1c74:	0027b90b 	eoreq	fp, r7, fp, lsl #18
    1c78:	f6580600 			; <UNDEFINED> instruction: 0xf6580600
    1c7c:	02000002 	andeq	r0, r0, #2
    1c80:	ff0b0823 			; <UNDEFINED> instruction: 0xff0b0823
    1c84:	0600002c 	streq	r0, [r0], -ip, lsr #32
    1c88:	00030e59 	andeq	r0, r3, r9, asr lr
    1c8c:	88230300 	stmdahi	r3!, {r8, r9}
    1c90:	040d0001 	streq	r0, [sp], #-1
    1c94:	000002aa 	andeq	r0, r0, sl, lsr #5
    1c98:	00030608 	andeq	r0, r3, r8, lsl #12
    1c9c:	00030600 	andeq	r0, r3, r0, lsl #12
    1ca0:	002d0900 	eoreq	r0, sp, r0, lsl #18
    1ca4:	001f0000 	andseq	r0, pc, r0
    1ca8:	030c040d 	movweq	r0, #50189	; 0xc40d
    1cac:	01120000 	tsteq	r2, r0
    1cb0:	0251040d 	subseq	r0, r1, #218103808	; 0xd000000
    1cb4:	700f0000 	andvc	r0, pc, r0
    1cb8:	08000003 	stmdaeq	r0, {r0, r1}
    1cbc:	033d7506 	teqeq	sp, #25165824	; 0x1800000
    1cc0:	3a0b0000 	bcc	2c1cc8 <_Min_Stack_Size+0x2c18c8>
    1cc4:	06000068 	streq	r0, [r0], -r8, rrx
    1cc8:	00033d76 	andeq	r3, r3, r6, ror sp
    1ccc:	00230200 	eoreq	r0, r3, r0, lsl #4
    1cd0:	0080130b 	addeq	r1, r0, fp, lsl #6
    1cd4:	34770600 	ldrbtcc	r0, [r7], #-1536	; 0xfffffa00
    1cd8:	02000000 	andeq	r0, r0, #0
    1cdc:	0d000423 	cfstrseq	mvf0, [r0, #-140]	; 0xffffff74
    1ce0:	00005b04 	andeq	r5, r0, r4, lsl #22
    1ce4:	34030f00 	strcc	r0, [r3], #-3840	; 0xfffff100
    1ce8:	06200000 	strteq	r0, [r0], -r0
    1cec:	0003bd99 	muleq	r3, r9, sp
    1cf0:	705f1000 	subsvc	r1, pc, r0
    1cf4:	3d9a0600 	ldccc	6, cr0, [sl]
    1cf8:	02000003 	andeq	r0, r0, #3
    1cfc:	5f100023 	svcpl	0x00100023
    1d00:	9b060072 	blls	181ed0 <_Min_Stack_Size+0x181ad0>
    1d04:	00000034 	andeq	r0, r0, r4, lsr r0
    1d08:	10042302 	andne	r2, r4, r2, lsl #6
    1d0c:	0600775f 			; <UNDEFINED> instruction: 0x0600775f
    1d10:	0000349c 	muleq	r0, ip, r4
    1d14:	08230200 	stmdaeq	r3!, {r9}
    1d18:	0059760b 	subseq	r7, r9, fp, lsl #12
    1d1c:	629d0600 	addsvs	r0, sp, #0, 12
    1d20:	02000000 	andeq	r0, r0, #0
    1d24:	020b0c23 	andeq	r0, fp, #8960	; 0x2300
    1d28:	06000013 			; <UNDEFINED> instruction: 0x06000013
    1d2c:	0000629e 	muleq	r0, lr, r2
    1d30:	0e230200 	cdpeq	2, 2, cr0, cr3, cr0, {0}
    1d34:	66625f10 	uqadd16vs	r5, r2, r0
    1d38:	149f0600 	ldrne	r0, [pc], #1536	; 1d40 <_Min_Stack_Size+0x1940>
    1d3c:	02000003 	andeq	r0, r0, #3
    1d40:	e00b1023 	and	r1, fp, r3, lsr #32
    1d44:	0600007b 			; <UNDEFINED> instruction: 0x0600007b
    1d48:	000034a0 	andeq	r3, r0, r0, lsr #9
    1d4c:	18230200 	stmdane	r3!, {r9}
    1d50:	006ce80b 	rsbeq	lr, ip, fp, lsl #16
    1d54:	1aa20600 	bne	fe88355c <_estack+0xde880d5c>
    1d58:	02000005 	andeq	r0, r0, #5
    1d5c:	0e001c23 	cdpeq	12, 0, cr1, cr0, cr3, {1}
    1d60:	00000343 	andeq	r0, r0, r3, asr #6
    1d64:	001c1913 	andseq	r1, ip, r3, lsl r9
    1d68:	74066000 	strvc	r6, [r6], #-0
    1d6c:	00051a01 	andeq	r1, r5, r1, lsl #20
    1d70:	43ef1400 	mvnmi	r1, #0, 8
    1d74:	78060000 	stmdavc	r6, {}	; <UNPREDICTABLE>
    1d78:	00003401 	andeq	r3, r0, r1, lsl #8
    1d7c:	00230200 	eoreq	r0, r3, r0, lsl #4
    1d80:	001ec314 	andseq	ip, lr, r4, lsl r3
    1d84:	017d0600 	cmneq	sp, r0, lsl #12
    1d88:	0000077c 	andeq	r0, r0, ip, ror r7
    1d8c:	14042302 	strne	r2, [r4], #-770	; 0xfffffcfe
    1d90:	000052f7 	strdeq	r5, [r0], -r7
    1d94:	7c017d06 	stcvc	13, cr7, [r1], {6}
    1d98:	02000007 	andeq	r0, r0, #7
    1d9c:	84140823 	ldrhi	r0, [r4], #-2083	; 0xfffff7dd
    1da0:	06000043 	streq	r0, [r0], -r3, asr #32
    1da4:	077c017d 			; <UNDEFINED> instruction: 0x077c017d
    1da8:	23020000 	movwcs	r0, #8192	; 0x2000
    1dac:	2596140c 	ldrcs	r1, [r6, #1036]	; 0x40c
    1db0:	7f060000 	svcvc	0x00060000
    1db4:	00003401 	andeq	r3, r0, r1, lsl #8
    1db8:	10230200 	eorne	r0, r3, r0, lsl #4
    1dbc:	00537914 	subseq	r7, r3, r4, lsl r9
    1dc0:	01810600 	orreq	r0, r1, r0, lsl #12
    1dc4:	00000134 	andeq	r0, r0, r4, lsr r1
    1dc8:	14142302 	ldrne	r2, [r4], #-770	; 0xfffffcfe
    1dcc:	000040f3 	strdeq	r4, [r0], -r3
    1dd0:	34018306 	strcc	r8, [r1], #-774	; 0xfffffcfa
    1dd4:	02000000 	andeq	r0, r0, #0
    1dd8:	82141823 	andshi	r1, r4, #2293760	; 0x230000
    1ddc:	06000022 	streq	r0, [r0], -r2, lsr #32
    1de0:	00340185 	eorseq	r0, r4, r5, lsl #3
    1de4:	23020000 	movwcs	r0, #8192	; 0x2000
    1de8:	7f40141c 	svcvc	0x0040141c
    1dec:	86060000 	strhi	r0, [r6], -r0
    1df0:	0008f501 	andeq	pc, r8, r1, lsl #10
    1df4:	20230200 	eorcs	r0, r3, r0, lsl #4
    1df8:	706d5f15 	rsbvc	r5, sp, r5, lsl pc
    1dfc:	01880600 	orreq	r0, r8, r0, lsl #12
    1e00:	000008fb 	strdeq	r0, [r0], -fp
    1e04:	14242302 	strtne	r2, [r4], #-770	; 0xfffffcfe
    1e08:	0000499c 	muleq	r0, ip, r9
    1e0c:	0d018a06 	vstreq	s16, [r1, #-24]	; 0xffffffe8
    1e10:	02000009 	andeq	r0, r0, #9
    1e14:	87142823 	ldrhi	r2, [r4, -r3, lsr #16]
    1e18:	0600004f 	streq	r0, [r0], -pc, asr #32
    1e1c:	0034018c 	eorseq	r0, r4, ip, lsl #3
    1e20:	23020000 	movwcs	r0, #8192	; 0x2000
    1e24:	0631142c 	ldrteq	r1, [r1], -ip, lsr #8
    1e28:	8f060000 	svchi	0x00060000
    1e2c:	00003401 	andeq	r3, r0, r1, lsl #8
    1e30:	30230200 	eorcc	r0, r3, r0, lsl #4
    1e34:	0036c614 	eorseq	ip, r6, r4, lsl r6
    1e38:	01900600 	orrseq	r0, r0, r0, lsl #12
    1e3c:	00000134 	andeq	r0, r0, r4, lsr r1
    1e40:	14342302 	ldrtne	r2, [r4], #-770	; 0xfffffcfe
    1e44:	00006c17 	andeq	r6, r0, r7, lsl ip
    1e48:	13019206 	movwne	r9, #4614	; 0x1206
    1e4c:	02000009 	andeq	r0, r0, #9
    1e50:	fe143823 	vcmla.f16	d3, d4, d3[1], #90
    1e54:	06000017 			; <UNDEFINED> instruction: 0x06000017
    1e58:	09190193 	ldmdbeq	r9, {r0, r1, r4, r7, r8}
    1e5c:	23020000 	movwcs	r0, #8192	; 0x2000
    1e60:	060d143c 			; <UNDEFINED> instruction: 0x060d143c
    1e64:	94060000 	strls	r0, [r6], #-0
    1e68:	00013401 	andeq	r3, r1, r1, lsl #8
    1e6c:	40230200 	eormi	r0, r3, r0, lsl #4
    1e70:	0034fa14 	eorseq	pc, r4, r4, lsl sl	; <UNPREDICTABLE>
    1e74:	01970600 	orrseq	r0, r7, r0, lsl #12
    1e78:	0000092b 	andeq	r0, r0, fp, lsr #18
    1e7c:	14442302 	strbne	r2, [r4], #-770	; 0xfffffcfe
    1e80:	0000885c 	andeq	r8, r0, ip, asr r8
    1e84:	3b019f06 	blcc	69aa4 <_Min_Stack_Size+0x696a4>
    1e88:	02000007 	andeq	r0, r0, #7
    1e8c:	cf144823 	svcgt	0x00144823
    1e90:	06000002 	streq	r0, [r0], -r2
    1e94:	077c01a0 	ldrbeq	r0, [ip, -r0, lsr #3]!
    1e98:	23020000 	movwcs	r0, #8192	; 0x2000
    1e9c:	7f161454 	svcvc	0x00161454
    1ea0:	a1060000 	mrsge	r0, (UNDEF: 6)
    1ea4:	00093701 	andeq	r3, r9, r1, lsl #14
    1ea8:	58230200 	stmdapl	r3!, {r9}
    1eac:	00460414 	subeq	r0, r6, r4, lsl r4
    1eb0:	01a20600 			; <UNDEFINED> instruction: 0x01a20600
    1eb4:	00000134 	andeq	r0, r0, r4, lsr r1
    1eb8:	005c2302 	subseq	r2, ip, r2, lsl #6
    1ebc:	03c2040d 	biceq	r0, r2, #218103808	; 0xd000000
    1ec0:	1a0e0000 	bne	381ec8 <_Min_Stack_Size+0x381ac8>
    1ec4:	0f000005 	svceq	0x00000005
    1ec8:	000083e3 	andeq	r8, r0, r3, ror #7
    1ecc:	7fb50668 	svcvc	0x00b50668
    1ed0:	10000006 	andne	r0, r0, r6
    1ed4:	0600705f 			; <UNDEFINED> instruction: 0x0600705f
    1ed8:	00033db6 			; <UNDEFINED> instruction: 0x00033db6
    1edc:	00230200 	eoreq	r0, r3, r0, lsl #4
    1ee0:	00725f10 	rsbseq	r5, r2, r0, lsl pc
    1ee4:	0034b706 	eorseq	fp, r4, r6, lsl #14
    1ee8:	23020000 	movwcs	r0, #8192	; 0x2000
    1eec:	775f1004 	ldrbvc	r1, [pc, -r4]
    1ef0:	34b80600 	ldrtcc	r0, [r8], #1536	; 0x600
    1ef4:	02000000 	andeq	r0, r0, #0
    1ef8:	760b0823 	strvc	r0, [fp], -r3, lsr #16
    1efc:	06000059 			; <UNDEFINED> instruction: 0x06000059
    1f00:	000062b9 			; <UNDEFINED> instruction: 0x000062b9
    1f04:	0c230200 	sfmeq	f0, 4, [r3], #-0
    1f08:	0013020b 	andseq	r0, r3, fp, lsl #4
    1f0c:	62ba0600 	adcsvs	r0, sl, #0, 12
    1f10:	02000000 	andeq	r0, r0, #0
    1f14:	5f100e23 	svcpl	0x00100e23
    1f18:	06006662 	streq	r6, [r0], -r2, ror #12
    1f1c:	000314bb 			; <UNDEFINED> instruction: 0x000314bb
    1f20:	10230200 	eorne	r0, r3, r0, lsl #4
    1f24:	007be00b 	rsbseq	lr, fp, fp
    1f28:	34bc0600 	ldrtcc	r0, [ip], #1536	; 0x600
    1f2c:	02000000 	andeq	r0, r0, #0
    1f30:	e80b1823 	stmda	fp, {r0, r1, r5, fp, ip}
    1f34:	0600006c 	streq	r0, [r0], -ip, rrx
    1f38:	00051abf 			; <UNDEFINED> instruction: 0x00051abf
    1f3c:	1c230200 	sfmne	f0, 4, [r3], #-0
    1f40:	00338d0b 	eorseq	r8, r3, fp, lsl #26
    1f44:	32c30600 	sbccc	r0, r3, #0, 12
    1f48:	02000001 	andeq	r0, r0, #1
    1f4c:	770b2023 	strvc	r2, [fp, -r3, lsr #32]
    1f50:	06000003 	streq	r0, [r0], -r3
    1f54:	00069ec5 	andeq	r9, r6, r5, asr #29
    1f58:	24230200 	strtcs	r0, [r3], #-512	; 0xfffffe00
    1f5c:	0005940b 	andeq	r9, r5, fp, lsl #8
    1f60:	c9c70600 	stmibgt	r7, {r9, sl}^
    1f64:	02000006 	andeq	r0, r0, #6
    1f68:	050b2823 	streq	r2, [fp, #-2083]	; 0xfffff7dd
    1f6c:	06000061 	streq	r0, [r0], -r1, rrx
    1f70:	0006eeca 	andeq	lr, r6, sl, asr #29
    1f74:	2c230200 	sfmcs	f0, 4, [r3], #-0
    1f78:	005ef30b 	subseq	pc, lr, fp, lsl #6
    1f7c:	09cb0600 	stmibeq	fp, {r9, sl}^
    1f80:	02000007 	andeq	r0, r0, #7
    1f84:	5f103023 	svcpl	0x00103023
    1f88:	06006275 			; <UNDEFINED> instruction: 0x06006275
    1f8c:	000314ce 	andeq	r1, r3, lr, asr #9
    1f90:	34230200 	strtcc	r0, [r3], #-512	; 0xfffffe00
    1f94:	70755f10 	rsbsvc	r5, r5, r0, lsl pc
    1f98:	3dcf0600 	stclcc	6, cr0, [pc]	; 1fa0 <_Min_Stack_Size+0x1ba0>
    1f9c:	02000003 	andeq	r0, r0, #3
    1fa0:	5f103c23 	svcpl	0x00103c23
    1fa4:	06007275 			; <UNDEFINED> instruction: 0x06007275
    1fa8:	000034d0 	ldrdeq	r3, [r0], -r0
    1fac:	40230200 	eormi	r0, r3, r0, lsl #4
    1fb0:	0058370b 	subseq	r3, r8, fp, lsl #14
    1fb4:	0fd30600 	svceq	0x00d30600
    1fb8:	02000007 	andeq	r0, r0, #7
    1fbc:	d00b4423 	andle	r4, fp, r3, lsr #8
    1fc0:	06000009 	streq	r0, [r0], -r9
    1fc4:	00071fd4 	ldrdeq	r1, [r7], -r4
    1fc8:	47230200 	strmi	r0, [r3, -r0, lsl #4]!
    1fcc:	626c5f10 	rsbvs	r5, ip, #16, 30	; 0x40
    1fd0:	14d70600 	ldrbne	r0, [r7], #1536	; 0x600
    1fd4:	02000003 	andeq	r0, r0, #3
    1fd8:	e00b4823 	and	r4, fp, r3, lsr #16
    1fdc:	06000067 	streq	r0, [r0], -r7, rrx
    1fe0:	000034da 	ldrdeq	r3, [r0], -sl
    1fe4:	50230200 	eorpl	r0, r3, r0, lsl #4
    1fe8:	0036630b 	eorseq	r6, r6, fp, lsl #6
    1fec:	a6db0600 	ldrbge	r0, [fp], r0, lsl #12
    1ff0:	02000000 	andeq	r0, r0, #0
    1ff4:	290b5423 	stmdbcs	fp, {r0, r1, r5, sl, ip, lr}
    1ff8:	0600000c 	streq	r0, [r0], -ip
    1ffc:	000127e2 	andeq	r2, r1, r2, ror #15
    2000:	58230200 	stmdapl	r3!, {r9}
    2004:	0059040b 	subseq	r0, r9, fp, lsl #8
    2008:	1ce40600 	stclne	6, cr0, [r4]
    200c:	02000001 	andeq	r0, r0, #1
    2010:	350b5c23 	strcc	r5, [fp, #-3107]	; 0xfffff3dd
    2014:	06000053 			; <UNDEFINED> instruction: 0x06000053
    2018:	000034e5 	andeq	r3, r0, r5, ror #9
    201c:	64230200 	strtvs	r0, [r3], #-512	; 0xfffffe00
    2020:	34011600 	strcc	r1, [r1], #-1536	; 0xfffffa00
    2024:	9e000000 	cdpls	0, 0, cr0, cr0, cr0, {0}
    2028:	17000006 	strne	r0, [r0, -r6]
    202c:	0000051a 	andeq	r0, r0, sl, lsl r5
    2030:	00013217 	andeq	r3, r1, r7, lsl r2
    2034:	01341700 	teqeq	r4, r0, lsl #14
    2038:	34170000 	ldrcc	r0, [r7], #-0
    203c:	00000000 	andeq	r0, r0, r0
    2040:	067f040d 	ldrbteq	r0, [pc], -sp, lsl #8
    2044:	01160000 	tsteq	r6, r0
    2048:	00000034 	andeq	r0, r0, r4, lsr r0
    204c:	000006c3 	andeq	r0, r0, r3, asr #13
    2050:	00051a17 	andeq	r1, r5, r7, lsl sl
    2054:	01321700 	teqeq	r2, r0, lsl #14
    2058:	c3170000 	tstgt	r7, #0
    205c:	17000006 	strne	r0, [r0, -r6]
    2060:	00000034 	andeq	r0, r0, r4, lsr r0
    2064:	41040d00 	tstmi	r4, r0, lsl #26
    2068:	0d000001 	stceq	0, cr0, [r0, #-4]
    206c:	0006a404 	andeq	sl, r6, r4, lsl #8
    2070:	b1011600 	tstlt	r1, r0, lsl #12
    2074:	ee000000 	cdp	0, 0, cr0, cr0, cr0, {0}
    2078:	17000006 	strne	r0, [r0, -r6]
    207c:	0000051a 	andeq	r0, r0, sl, lsl r5
    2080:	00013217 	andeq	r3, r1, r7, lsl r2
    2084:	00b11700 	adcseq	r1, r1, r0, lsl #14
    2088:	34170000 	ldrcc	r0, [r7], #-0
    208c:	00000000 	andeq	r0, r0, r0
    2090:	06cf040d 	strbeq	r0, [pc], sp, lsl #8
    2094:	01160000 	tsteq	r6, r0
    2098:	00000034 	andeq	r0, r0, r4, lsr r0
    209c:	00000709 	andeq	r0, r0, r9, lsl #14
    20a0:	00051a17 	andeq	r1, r5, r7, lsl sl
    20a4:	01321700 	teqeq	r2, r0, lsl #14
    20a8:	0d000000 	stceq	0, cr0, [r0, #-0]
    20ac:	0006f404 	andeq	pc, r6, r4, lsl #8
    20b0:	005b0800 	subseq	r0, fp, r0, lsl #16
    20b4:	071f0000 	ldreq	r0, [pc, -r0]
    20b8:	2d090000 	stccs	0, cr0, [r9, #-0]
    20bc:	02000000 	andeq	r0, r0, #0
    20c0:	005b0800 	subseq	r0, fp, r0, lsl #16
    20c4:	072f0000 	streq	r0, [pc, -r0]!
    20c8:	2d090000 	stccs	0, cr0, [r9, #-0]
    20cc:	00000000 	andeq	r0, r0, r0
    20d0:	6aef0500 	bvs	ffbc34d8 <_estack+0xdfbc0cd8>
    20d4:	1f060000 	svcne	0x00060000
    20d8:	00052501 	andeq	r2, r5, r1, lsl #10
    20dc:	510a1300 	mrspl	r1, (UNDEF: 58)
    20e0:	060c0000 	streq	r0, [ip], -r0
    20e4:	07760123 	ldrbeq	r0, [r6, -r3, lsr #2]!
    20e8:	58140000 	ldmdapl	r4, {}	; <UNPREDICTABLE>
    20ec:	06000059 			; <UNDEFINED> instruction: 0x06000059
    20f0:	07760125 	ldrbeq	r0, [r6, -r5, lsr #2]!
    20f4:	23020000 	movwcs	r0, #8192	; 0x2000
    20f8:	2bf51400 	blcs	ffd47100 <_estack+0xdfd44900>
    20fc:	26060000 	strcs	r0, [r6], -r0
    2100:	00003401 	andeq	r3, r0, r1, lsl #8
    2104:	04230200 	strteq	r0, [r3], #-512	; 0xfffffe00
    2108:	00379c14 	eorseq	r9, r7, r4, lsl ip
    210c:	01270600 			; <UNDEFINED> instruction: 0x01270600
    2110:	0000077c 	andeq	r0, r0, ip, ror r7
    2114:	00082302 	andeq	r2, r8, r2, lsl #6
    2118:	073b040d 	ldreq	r0, [fp, -sp, lsl #8]!
    211c:	040d0000 	streq	r0, [sp], #-0
    2120:	0000072f 	andeq	r0, r0, pc, lsr #14
    2124:	00662013 	rsbeq	r2, r6, r3, lsl r0
    2128:	3f061800 	svccc	0x00061800
    212c:	0007cc01 	andeq	ip, r7, r1, lsl #24
    2130:	60821400 	addvs	r1, r2, r0, lsl #8
    2134:	40060000 	andmi	r0, r6, r0
    2138:	0007cc01 	andeq	ip, r7, r1, lsl #24
    213c:	00230200 	eoreq	r0, r3, r0, lsl #4
    2140:	000dce14 	andeq	ip, sp, r4, lsl lr
    2144:	01410600 	cmpeq	r1, r0, lsl #12
    2148:	000007cc 	andeq	r0, r0, ip, asr #15
    214c:	14062302 	strne	r2, [r6], #-770	; 0xfffffcfe
    2150:	00008377 	andeq	r8, r0, r7, ror r3
    2154:	74014206 	strvc	r4, [r1], #-518	; 0xfffffdfa
    2158:	02000000 	andeq	r0, r0, #0
    215c:	53140c23 	tstpl	r4, #8960	; 0x2300
    2160:	06000059 			; <UNDEFINED> instruction: 0x06000059
    2164:	00940145 	addseq	r0, r4, r5, asr #2
    2168:	23020000 	movwcs	r0, #8192	; 0x2000
    216c:	74080010 	strvc	r0, [r8], #-16
    2170:	dc000000 	stcle	0, cr0, [r0], {-0}
    2174:	09000007 	stmdbeq	r0, {r0, r1, r2}
    2178:	0000002d 	andeq	r0, r0, sp, lsr #32
    217c:	e9130002 	ldmdb	r3, {r1}
    2180:	1000007e 	andne	r0, r0, lr, ror r0
    2184:	26015806 	strcs	r5, [r1], -r6, lsl #16
    2188:	14000008 	strne	r0, [r0], #-8
    218c:	00008045 	andeq	r8, r0, r5, asr #32
    2190:	b0015b06 	andlt	r5, r1, r6, lsl #22
    2194:	02000001 	andeq	r0, r0, #1
    2198:	52140023 	andspl	r0, r4, #35	; 0x23
    219c:	06000016 			; <UNDEFINED> instruction: 0x06000016
    21a0:	0034015c 	eorseq	r0, r4, ip, asr r1
    21a4:	23020000 	movwcs	r0, #8192	; 0x2000
    21a8:	33a81404 			; <UNDEFINED> instruction: 0x33a81404
    21ac:	5d060000 	stcpl	0, cr0, [r6, #-0]
    21b0:	0001b001 	andeq	fp, r1, r1
    21b4:	08230200 	stmdaeq	r3!, {r9}
    21b8:	0050b514 	subseq	fp, r0, r4, lsl r5
    21bc:	015e0600 	cmpeq	lr, r0, lsl #12
    21c0:	00000826 	andeq	r0, r0, r6, lsr #16
    21c4:	000c2302 	andeq	r2, ip, r2, lsl #6
    21c8:	01b0040d 	lslseq	r0, sp, #8
    21cc:	14130000 	ldrne	r0, [r3], #-0
    21d0:	5000001c 	andpl	r0, r0, ip, lsl r0
    21d4:	df016206 	svcle	0x00016206
    21d8:	14000008 	strne	r0, [r0], #-8
    21dc:	00006910 	andeq	r6, r0, r0, lsl r9
    21e0:	34016506 	strcc	r6, [r1], #-1286	; 0xfffffafa
    21e4:	02000001 	andeq	r0, r0, #1
    21e8:	da140023 	ble	50227c <_Min_Stack_Size+0x501e7c>
    21ec:	06000072 			; <UNDEFINED> instruction: 0x06000072
    21f0:	011c0166 	tsteq	ip, r6, ror #2
    21f4:	23020000 	movwcs	r0, #8192	; 0x2000
    21f8:	58dc1404 	ldmpl	ip, {r2, sl, ip}^
    21fc:	67060000 	strvs	r0, [r6, -r0]
    2200:	00011c01 	andeq	r1, r1, r1, lsl #24
    2204:	0c230200 	sfmeq	f0, 4, [r3], #-0
    2208:	0062f614 	rsbeq	pc, r2, r4, lsl r6	; <UNPREDICTABLE>
    220c:	01680600 	cmneq	r8, r0, lsl #12
    2210:	0000011c 	andeq	r0, r0, ip, lsl r1
    2214:	14142302 	ldrne	r2, [r4], #-770	; 0xfffffcfe
    2218:	00000a81 	andeq	r0, r0, r1, lsl #21
    221c:	df016906 	svcle	0x00016906
    2220:	02000008 	andeq	r0, r0, #8
    2224:	c1141c23 	tstgt	r4, r3, lsr #24
    2228:	0600000d 	streq	r0, [r0], -sp
    222c:	0034016a 	eorseq	r0, r4, sl, ror #2
    2230:	23020000 	movwcs	r0, #8192	; 0x2000
    2234:	15e41424 	strbne	r1, [r4, #1060]!	; 0x424
    2238:	6b060000 	blvs	182240 <_Min_Stack_Size+0x181e40>
    223c:	00011c01 	andeq	r1, r1, r1, lsl #24
    2240:	28230200 	stmdacs	r3!, {r9}
    2244:	0069cb14 	rsbeq	ip, r9, r4, lsl fp
    2248:	016c0600 	cmneq	ip, r0, lsl #12
    224c:	0000011c 	andeq	r0, r0, ip, lsl r1
    2250:	14302302 	ldrtne	r2, [r0], #-770	; 0xfffffcfe
    2254:	00008509 	andeq	r8, r0, r9, lsl #10
    2258:	1c016d06 	stcne	13, cr6, [r1], {6}
    225c:	02000001 	andeq	r0, r0, #1
    2260:	71143823 	tstvc	r4, r3, lsr #16
    2264:	06000056 			; <UNDEFINED> instruction: 0x06000056
    2268:	011c016e 	tsteq	ip, lr, ror #2
    226c:	23020000 	movwcs	r0, #8192	; 0x2000
    2270:	09bf1440 	ldmibeq	pc!, {r6, sl, ip}	; <UNPREDICTABLE>
    2274:	6f060000 	svcvs	0x00060000
    2278:	00011c01 	andeq	r1, r1, r1, lsl #24
    227c:	48230200 	stmdami	r3!, {r9}
    2280:	013a0800 	teqeq	sl, r0, lsl #16
    2284:	08ef0000 	stmiaeq	pc!, {}^	; <UNPREDICTABLE>
    2288:	2d090000 	stccs	0, cr0, [r9, #-0]
    228c:	07000000 	streq	r0, [r0, -r0]
    2290:	01e11800 	mvneq	r1, r0, lsl #16
    2294:	0d010000 	stceq	0, cr0, [r1, #-0]
    2298:	0008ef04 	andeq	lr, r8, r4, lsl #30
    229c:	dc040d00 	stcle	13, cr0, [r4], {-0}
    22a0:	19000007 	stmdbne	r0, {r0, r1, r2}
    22a4:	00090d01 	andeq	r0, r9, r1, lsl #26
    22a8:	051a1700 	ldreq	r1, [sl, #-1792]	; 0xfffff900
    22ac:	0d000000 	stceq	0, cr0, [r0, #-0]
    22b0:	00090104 	andeq	r0, r9, r4, lsl #2
    22b4:	82040d00 	andhi	r0, r4, #0, 26
    22b8:	0d000007 	stceq	0, cr0, [r0, #-28]	; 0xffffffe4
    22bc:	0001c604 	andeq	ip, r1, r4, lsl #12
    22c0:	2b011900 	blcs	486c8 <_Min_Stack_Size+0x482c8>
    22c4:	17000009 	strne	r0, [r0, -r9]
    22c8:	00000034 	andeq	r0, r0, r4, lsr r0
    22cc:	31040d00 	tstcc	r4, r0, lsl #26
    22d0:	0d000009 	stceq	0, cr0, [r0, #-36]	; 0xffffffdc
    22d4:	00091f04 	andeq	r1, r9, r4, lsl #30
    22d8:	2c040d00 	stccs	13, cr0, [r4], {-0}
    22dc:	1a000008 	bne	2304 <_Min_Stack_Size+0x1f04>
    22e0:	00001eba 			; <UNDEFINED> instruction: 0x00001eba
    22e4:	bd01ca06 	vstrlt	s24, [r1, #-24]	; 0xffffffe8
    22e8:	01000003 	tsteq	r0, r3
    22ec:	52ee1a01 	rscpl	r1, lr, #4096	; 0x1000
    22f0:	cb060000 	blgt	1822f8 <_Min_Stack_Size+0x181ef8>
    22f4:	0003bd01 	andeq	fp, r3, r1, lsl #26
    22f8:	1a010100 	bne	42700 <_Min_Stack_Size+0x42300>
    22fc:	0000437b 	andeq	r4, r0, fp, ror r3
    2300:	bd01cc06 	stclt	12, cr12, [r1, #-24]	; 0xffffffe8
    2304:	01000003 	tsteq	r0, r3
    2308:	2b501a01 	blcs	1408b14 <_Min_Stack_Size+0x1408714>
    230c:	2e060000 	cdpcs	0, 0, cr0, cr6, cr0, {0}
    2310:	00051a03 	andeq	r1, r5, r3, lsl #20
    2314:	1a010100 	bne	4271c <_Min_Stack_Size+0x4231c>
    2318:	0000782f 	andeq	r7, r0, pc, lsr #16
    231c:	20032f06 	andcs	r2, r3, r6, lsl #30
    2320:	01000005 	tsteq	r0, r5
    2324:	46b91a01 	ldrtmi	r1, [r9], r1, lsl #20
    2328:	41060000 	mrsmi	r0, (UNDEF: 6)
    232c:	0002f003 	andeq	pc, r2, r3
    2330:	1b010100 	blne	42738 <_Min_Stack_Size+0x42338>
    2334:	000076ff 	strdeq	r7, [r0], -pc	; <UNPREDICTABLE>
    2338:	01346307 	teqeq	r4, r7, lsl #6
    233c:	01010000 	mrseq	r0, (UNDEF: 1)
    2340:	00126b04 	andseq	r6, r2, r4, lsl #22
    2344:	50180800 	andspl	r0, r8, r0, lsl #16
    2348:	04000000 	streq	r0, [r0], #-0
    234c:	00002a1f 	andeq	r2, r0, pc, lsl sl
    2350:	00692408 	rsbeq	r2, r9, r8, lsl #8
    2354:	9a040000 	bls	10235c <_Min_Stack_Size+0x101f5c>
    2358:	08000040 	stmdaeq	r0, {r6}
    235c:	00008230 	andeq	r8, r0, r0, lsr r2
    2360:	09b41c00 	ldmibeq	r4!, {sl, fp, ip}
    2364:	1c0a0000 	stcne	0, cr0, [sl], {-0}
    2368:	0a2f5009 	beq	bd6394 <_Min_Stack_Size+0xbd5f94>
    236c:	43100000 	tstmi	r0, #0
    2370:	09004c52 	stmdbeq	r0, {r1, r4, r6, sl, fp, lr}
    2374:	0009bf52 	andeq	fp, r9, r2, asr pc
    2378:	00230200 	eoreq	r0, r3, r0, lsl #4
    237c:	48524310 	ldmdami	r2, {r4, r8, r9, lr}^
    2380:	bf530900 	svclt	0x00530900
    2384:	02000009 	andeq	r0, r0, #9
    2388:	49100423 	ldmdbmi	r0, {r0, r1, r5, sl}
    238c:	09005244 	stmdbeq	r0, {r2, r6, r9, ip, lr}
    2390:	0009bf54 	andeq	fp, r9, r4, asr pc
    2394:	08230200 	stmdaeq	r3!, {r9}
    2398:	52444f10 	subpl	r4, r4, #16, 30	; 0x40
    239c:	bf550900 	svclt	0x00550900
    23a0:	02000009 	andeq	r0, r0, #9
    23a4:	5a0b0c23 	bpl	2c5438 <_Min_Stack_Size+0x2c5038>
    23a8:	0900007a 	stmdbeq	r0, {r1, r3, r4, r5, r6}
    23ac:	0009bf56 	andeq	fp, r9, r6, asr pc
    23b0:	10230200 	eorne	r0, r3, r0, lsl #4
    23b4:	52524210 	subspl	r4, r2, #16, 4
    23b8:	bf570900 	svclt	0x00570900
    23bc:	02000009 	andeq	r0, r0, #9
    23c0:	100b1423 	andne	r1, fp, r3, lsr #8
    23c4:	09000046 	stmdbeq	r0, {r1, r2, r6}
    23c8:	0009bf58 	andeq	fp, r9, r8, asr pc
    23cc:	18230200 	stmdane	r3!, {r9}
    23d0:	7b9a0400 	blvc	fe6833d8 <_estack+0xde680bd8>
    23d4:	59090000 	stmdbpl	r9, {}	; <UNPREDICTABLE>
    23d8:	000009c4 	andeq	r0, r0, r4, asr #19
    23dc:	6f09180a 	svcvs	0x0009180a
    23e0:	00000a96 	muleq	r0, r6, sl
    23e4:	524d4910 	subpl	r4, sp, #16, 18	; 0x40000
    23e8:	bf710900 	svclt	0x00710900
    23ec:	02000009 	andeq	r0, r0, #9
    23f0:	45100023 	ldrmi	r0, [r0, #-35]	; 0xffffffdd
    23f4:	0900524d 	stmdbeq	r0, {r0, r2, r3, r6, r9, ip, lr}
    23f8:	0009bf72 	andeq	fp, r9, r2, ror pc
    23fc:	04230200 	strteq	r0, [r3], #-512	; 0xfffffe00
    2400:	008f880b 	addeq	r8, pc, fp, lsl #16
    2404:	bf730900 	svclt	0x00730900
    2408:	02000009 	andeq	r0, r0, #9
    240c:	770b0823 	strvc	r0, [fp, -r3, lsr #16]
    2410:	0900008f 	stmdbeq	r0, {r0, r1, r2, r3, r7}
    2414:	0009bf74 	andeq	fp, r9, r4, ror pc
    2418:	0c230200 	sfmeq	f0, 4, [r3], #-0
    241c:	0090400b 	addseq	r4, r0, fp
    2420:	bf750900 	svclt	0x00750900
    2424:	02000009 	andeq	r0, r0, #9
    2428:	50101023 	andspl	r1, r0, r3, lsr #32
    242c:	76090052 			; <UNDEFINED> instruction: 0x76090052
    2430:	000009bf 			; <UNDEFINED> instruction: 0x000009bf
    2434:	00142302 	andseq	r2, r4, r2, lsl #6
    2438:	00907004 	addseq	r7, r0, r4
    243c:	3a770900 	bcc	1dc4844 <_Min_Stack_Size+0x1dc4444>
    2440:	0a00000a 	beq	2470 <_Min_Stack_Size+0x2070>
    2444:	f07c0920 			; <UNDEFINED> instruction: 0xf07c0920
    2448:	0b00000a 	bleq	2478 <_Min_Stack_Size+0x2078>
    244c:	000090e7 	andeq	r9, r0, r7, ror #1
    2450:	09bf7e09 	ldmibeq	pc!, {r0, r3, r9, sl, fp, ip, sp, lr}	; <UNPREDICTABLE>
    2454:	23020000 	movwcs	r0, #8192	; 0x2000
    2458:	907d0b00 	rsbsls	r0, sp, r0, lsl #22
    245c:	7f090000 	svcvc	0x00090000
    2460:	000009bf 			; <UNDEFINED> instruction: 0x000009bf
    2464:	0b042302 	bleq	10b074 <_Min_Stack_Size+0x10ac74>
    2468:	00008f27 	andeq	r8, r0, r7, lsr #30
    246c:	0b008009 	bleq	22498 <_Min_Stack_Size+0x22098>
    2470:	23020000 	movwcs	r0, #8192	; 0x2000
    2474:	8fef0b08 	svchi	0x00ef0b08
    2478:	81090000 	mrshi	r0, (UNDEF: 9)
    247c:	000009b4 			; <UNDEFINED> instruction: 0x000009b4
    2480:	0b182302 	bleq	60b090 <_Min_Stack_Size+0x60ac90>
    2484:	00009046 	andeq	r9, r0, r6, asr #32
    2488:	09bf8209 	ldmibeq	pc!, {r0, r3, r9, pc}	; <UNPREDICTABLE>
    248c:	23020000 	movwcs	r0, #8192	; 0x2000
    2490:	bf08001c 	svclt	0x0008001c
    2494:	00000009 	andeq	r0, r0, r9
    2498:	0900000b 	stmdbeq	r0, {r0, r1, r3}
    249c:	0000002d 	andeq	r0, r0, sp, lsr #32
    24a0:	f01c0003 			; <UNDEFINED> instruction: 0xf01c0003
    24a4:	0400000a 	streq	r0, [r0], #-10
    24a8:	000090a6 	andeq	r9, r0, r6, lsr #1
    24ac:	0aa18309 	beq	fe8630d8 <_estack+0xde8608d8>
    24b0:	040a0000 	streq	r0, [sl], #-0
    24b4:	0b43150a 	bleq	10c78e4 <_Min_Stack_Size+0x10c74e4>
    24b8:	ff0b0000 			; <UNDEFINED> instruction: 0xff0b0000
    24bc:	0a00008e 	beq	26fc <_Min_Stack_Size+0x22fc>
    24c0:	0009a917 	andeq	sl, r9, r7, lsl r9
    24c4:	00230200 	eoreq	r0, r3, r0, lsl #4
    24c8:	008e3f0b 	addeq	r3, lr, fp, lsl #30
    24cc:	9e190a00 	vnmlsls.f32	s0, s18, s0
    24d0:	02000009 	andeq	r0, r0, #9
    24d4:	110b0223 	tstne	fp, r3, lsr #4
    24d8:	0a00008e 	beq	2718 <_Min_Stack_Size+0x2318>
    24dc:	00099e1b 	andeq	r9, r9, fp, lsl lr
    24e0:	03230200 			; <UNDEFINED> instruction: 0x03230200
    24e4:	8e490400 	cdphi	4, 4, cr0, cr9, cr0, {0}
    24e8:	1d0a0000 	stcne	0, cr0, [sl, #-0]
    24ec:	00000b10 	andeq	r0, r0, r0, lsl fp
    24f0:	170b0c0a 	strne	r0, [fp, -sl, lsl #24]
    24f4:	00000b8f 	andeq	r0, r0, pc, lsl #23
    24f8:	004e210b 	subeq	r2, lr, fp, lsl #2
    24fc:	a9190b00 	ldmdbge	r9, {r8, r9, fp}
    2500:	02000009 	andeq	r0, r0, #9
    2504:	ae0b0023 	cdpge	0, 0, cr0, cr11, cr3, {1}
    2508:	0b000066 	bleq	26a8 <_Min_Stack_Size+0x22a8>
    250c:	000b8f1a 	andeq	r8, fp, sl, lsl pc
    2510:	04230200 	strteq	r0, [r3], #-512	; 0xfffffe00
    2514:	0067fc0b 	rsbeq	pc, r7, fp, lsl #24
    2518:	a91b0b00 	ldmdbge	fp, {r8, r9, fp}
    251c:	02000009 	andeq	r0, r0, #9
    2520:	b80b0823 	stmdalt	fp, {r0, r1, r5, fp}
    2524:	0b000088 	bleq	274c <_Min_Stack_Size+0x234c>
    2528:	00099e1c 	andeq	r9, r9, ip, lsl lr
    252c:	0a230200 	beq	8c2d34 <_Min_Stack_Size+0x8c2934>
    2530:	2f040d00 	svccs	0x00040d00
    2534:	0400000a 	streq	r0, [r0], #-10
    2538:	00008b8e 	andeq	r8, r0, lr, lsl #23
    253c:	0b4e1d0b 	bleq	1389970 <_Min_Stack_Size+0x1389570>
    2540:	140a0000 	strne	r0, [sl], #-0
    2544:	0be11f0b 	bleq	ff84a178 <_estack+0xdf847978>
    2548:	070b0000 	streq	r0, [fp, -r0]
    254c:	0b000050 	bleq	2694 <_Min_Stack_Size+0x2294>
    2550:	000b9521 	andeq	r9, fp, r1, lsr #10
    2554:	00230200 	eoreq	r0, r3, r0, lsl #4
    2558:	0031180b 	eorseq	r1, r1, fp, lsl #16
    255c:	9e240b00 	vmulls.f64	d0, d4, d0
    2560:	02000009 	andeq	r0, r0, #9
    2564:	f80b0c23 			; <UNDEFINED> instruction: 0xf80b0c23
    2568:	0b000066 	bleq	2708 <_Min_Stack_Size+0x2308>
    256c:	00099e27 	andeq	r9, r9, r7, lsr #28
    2570:	0d230200 	sfmeq	f0, 4, [r3, #-0]
    2574:	00904d0b 	addseq	r4, r0, fp, lsl #26
    2578:	062a0b00 	strteq	r0, [sl], -r0, lsl #22
    257c:	02000003 	andeq	r0, r0, #3
    2580:	04001023 	streq	r1, [r0], #-35	; 0xffffffdd
    2584:	00002b72 	andeq	r2, r0, r2, ror fp
    2588:	0ba02b0b 	bleq	fe80d1bc <_estack+0xde80a9bc>
    258c:	06080000 	streq	r0, [r8], -r0
    2590:	fc000003 	stc2	0, cr0, [r0], {3}
    2594:	0900000b 	stmdbeq	r0, {r0, r1, r3}
    2598:	0000002d 	andeq	r0, r0, sp, lsr #32
    259c:	4c1d000e 	ldcmi	0, cr0, [sp], {14}
    25a0:	01000090 	swpeq	r0, r0, [r0]	; <UNPREDICTABLE>
    25a4:	000bec0d 	andeq	lr, fp, sp, lsl #24
    25a8:	03050100 	movweq	r0, #20736	; 0x5100
    25ac:	20000034 	andcs	r0, r0, r4, lsr r0
    25b0:	90ec011e 	rscls	r0, ip, lr, lsl r1
    25b4:	03010000 	movweq	r0, #4096	; 0x1000
    25b8:	095c0101 	ldmdbeq	ip, {r0, r8}^
    25bc:	0a200800 	beq	8045c4 <_Min_Stack_Size+0x8041c4>
    25c0:	03ac0800 			; <UNDEFINED> instruction: 0x03ac0800
    25c4:	1f010000 	svcne	0x00010000
    25c8:	00909301 	addseq	r9, r0, r1, lsl #6
    25cc:	01fa0100 	mvnseq	r0, r0, lsl #2
    25d0:	080008b4 	stmdaeq	r0, {r2, r4, r5, r7, fp}
    25d4:	0800095c 	stmdaeq	r0, {r2, r3, r4, r6, r8, fp}
    25d8:	000003d8 	ldrdeq	r0, [r0], -r8
    25dc:	f9011f01 			; <UNDEFINED> instruction: 0xf9011f01
    25e0:	0100008f 	smlabbeq	r0, pc, r0, r0	; <UNPREDICTABLE>
    25e4:	089001f4 	ldmeq	r0, {r2, r4, r5, r6, r7, r8}
    25e8:	08b40800 	ldmeq	r4!, {fp}
    25ec:	04040800 	streq	r0, [r4], #-2048	; 0xfffff800
    25f0:	1f010000 	svcne	0x00010000
    25f4:	0090b301 	addseq	fp, r0, r1, lsl #6
    25f8:	01ee0100 	mvneq	r0, r0, lsl #2
    25fc:	0800086c 	stmdaeq	r0, {r2, r3, r5, r6, fp}
    2600:	08000890 	stmdaeq	r0, {r4, r7, fp}
    2604:	00000430 	andeq	r0, r0, r0, lsr r4
    2608:	82011f01 	andhi	r1, r1, #1, 30
    260c:	01000090 	swpeq	r0, r0, [r0]	; <UNPREDICTABLE>
    2610:	084801e8 	stmdaeq	r8, {r3, r5, r6, r7, r8}^
    2614:	086c0800 	stmdaeq	ip!, {fp}^
    2618:	045c0800 	ldrbeq	r0, [ip], #-2048	; 0xfffff800
    261c:	1f010000 	svcne	0x00010000
    2620:	00910e01 	addseq	r0, r1, r1, lsl #28
    2624:	01e20100 	mvneq	r0, r0, lsl #2
    2628:	08000824 	stmdaeq	r0, {r2, r5, fp}
    262c:	08000848 	stmdaeq	r0, {r3, r6, fp}
    2630:	00000488 	andeq	r0, r0, r8, lsl #9
    2634:	d6011f01 	strle	r1, [r1], -r1, lsl #30
    2638:	01000090 	swpeq	r0, r0, [r0]	; <UNPREDICTABLE>
    263c:	080001da 	stmdaeq	r0, {r1, r3, r4, r6, r7, r8}
    2640:	08240800 	stmdaeq	r4!, {fp}
    2644:	04b40800 	ldrteq	r0, [r4], #2048	; 0x800
    2648:	20010000 	andcs	r0, r1, r0
    264c:	008f2e01 	addeq	r2, pc, r1, lsl #28
    2650:	01d00100 	bicseq	r0, r0, r0, lsl #2
	...
    265c:	000004e0 	andeq	r0, r0, r0, ror #9
    2660:	000cd201 	andeq	sp, ip, r1, lsl #4
    2664:	900a2100 	andls	r2, sl, r0, lsl #2
    2668:	d0010000 	andle	r0, r1, r0
    266c:	00000cd2 	ldrdeq	r0, [r0], -r2
    2670:	00749102 	rsbseq	r9, r4, r2, lsl #2
    2674:	0be1040d 	bleq	ff8436b0 <_estack+0xdf840eb0>
    2678:	01220000 			; <UNDEFINED> instruction: 0x01220000
    267c:	00009016 	andeq	r9, r0, r6, lsl r0
    2680:	0001b101 	andeq	fp, r1, r1, lsl #2
    2684:	00000000 	andeq	r0, r0, r0
    2688:	30000000 	andcc	r0, r0, r0
    268c:	01000005 	tsteq	r0, r5
    2690:	902c0120 	eorls	r0, ip, r0, lsr #2
    2694:	a5010000 	strge	r0, [r1, #-0]
    2698:	0007e801 	andeq	lr, r7, r1, lsl #16
    269c:	0007fe08 	andeq	pc, r7, r8, lsl #28
    26a0:	00057408 	andeq	r7, r5, r8, lsl #8
    26a4:	0d170100 	ldfeqs	f0, [r7, #-0]
    26a8:	0a210000 	beq	8426b0 <_Min_Stack_Size+0x8422b0>
    26ac:	01000090 	swpeq	r0, r0, [r0]	; <UNPREDICTABLE>
    26b0:	000cd2a5 	andeq	sp, ip, r5, lsr #5
    26b4:	74910200 	ldrvc	r0, [r1], #512	; 0x200
    26b8:	7c012000 	stcvc	0, cr2, [r1], {-0}
    26bc:	0100008f 	smlabbeq	r0, pc, r0, r0	; <UNPREDICTABLE>
    26c0:	06100166 	ldreq	r0, [r0], -r6, ror #2
    26c4:	07e80800 	strbeq	r0, [r8, r0, lsl #16]!
    26c8:	05c40800 	strbeq	r0, [r4, #2048]	; 0x800
    26cc:	6a010000 	bvs	426d4 <_Min_Stack_Size+0x422d4>
    26d0:	2100000d 	tstcs	r0, sp
    26d4:	0000900a 	andeq	r9, r0, sl
    26d8:	0cd26601 	ldcleq	6, cr6, [r2], {1}
    26dc:	91020000 	mrsls	r0, (UNDEF: 2)
    26e0:	8fe8236c 	svchi	0x00e8236c
    26e4:	69010000 	stmdbvs	r1, {}	; <UNPREDICTABLE>
    26e8:	00000b43 	andeq	r0, r0, r3, asr #22
    26ec:	23709102 	cmncs	r0, #-2147483648	; 0x80000000
    26f0:	000090c4 	andeq	r9, r0, r4, asr #1
    26f4:	099e6f01 	ldmibeq	lr, {r0, r8, r9, sl, fp, sp, lr}
    26f8:	91020000 	mrsls	r0, (UNDEF: 2)
    26fc:	905c2377 	subsls	r2, ip, r7, ror r3
    2700:	70010000 	andvc	r0, r1, r0
    2704:	0000099e 	muleq	r0, lr, r9
    2708:	00769102 	rsbseq	r9, r6, r2, lsl #2
    270c:	91010124 	tstls	r1, r4, lsr #2
    2710:	41010000 	mrsmi	r0, (UNDEF: 1)
    2714:	00054401 	andeq	r4, r5, r1, lsl #8
    2718:	00061008 	andeq	r1, r6, r8
    271c:	00061408 	andeq	r1, r6, r8, lsl #8
    2720:	0d930100 	ldfeqs	f0, [r3]
    2724:	49250000 	stmdbmi	r5!, {}	; <UNPREDICTABLE>
    2728:	01005152 	tsteq	r0, r2, asr r1
    272c:	0009a941 	andeq	sl, r9, r1, asr #18
    2730:	76910200 	ldrvc	r0, [r1], r0, lsl #4
    2734:	1f012600 	svcne	0x00012600
    2738:	01000091 	swpeq	r0, r1, [r0]	; <UNPREDICTABLE>
    273c:	0478011c 	ldrbteq	r0, [r8], #-284	; 0xfffffee4
    2740:	05440800 	strbeq	r0, [r4, #-2048]	; 0xfffff800
    2744:	06700800 	ldrbteq	r0, [r0], -r0, lsl #16
    2748:	25010000 	strcs	r0, [r1, #-0]
    274c:	00515249 	subseq	r5, r1, r9, asr #4
    2750:	09a91c01 	stmibeq	r9!, {r0, sl, fp, ip}
    2754:	91020000 	mrsls	r0, (UNDEF: 2)
    2758:	Address 0x0000000000002758 is out of bounds.


Disassembly of section .debug_abbrev:

00000000 <.debug_abbrev>:
   0:	25011101 	strcs	r1, [r1, #-257]	; 0xfffffeff
   4:	030b130e 	movweq	r1, #45838	; 0xb30e
   8:	550e1b0e 	strpl	r1, [lr, #-2830]	; 0xfffff4f2
   c:	52011106 	andpl	r1, r1, #-2147483647	; 0x80000001
  10:	99061001 	stmdbls	r6, {r0, ip}
  14:	00000642 	andeq	r0, r0, r2, asr #12
  18:	0b002402 	bleq	9028 <_Min_Stack_Size+0x8c28>
  1c:	030b3e0b 	movweq	r3, #48651	; 0xbe0b
  20:	0300000e 	movweq	r0, #14
  24:	0b0b0024 	bleq	2c00bc <_Min_Stack_Size+0x2bfcbc>
  28:	08030b3e 	stmdaeq	r3, {r1, r2, r3, r4, r5, r8, r9, fp}
  2c:	16040000 	strne	r0, [r4], -r0
  30:	3a0e0300 	bcc	380c38 <_Min_Stack_Size+0x380838>
  34:	490b3b0b 	stmdbmi	fp, {r0, r1, r3, r8, r9, fp, ip, sp}
  38:	05000013 	streq	r0, [r0, #-19]	; 0xffffffed
  3c:	0e030016 	mcreq	0, 0, r0, cr3, cr6, {0}
  40:	053b0b3a 	ldreq	r0, [fp, #-2874]!	; 0xfffff4c6
  44:	00001349 	andeq	r1, r0, r9, asr #6
  48:	0b011706 	bleq	45c68 <_Min_Stack_Size+0x45868>
  4c:	3b0b3a0b 	blcc	2ce880 <_Min_Stack_Size+0x2ce480>
  50:	0013010b 	andseq	r0, r3, fp, lsl #2
  54:	000d0700 	andeq	r0, sp, r0, lsl #14
  58:	0b3a0e03 	bleq	e8386c <_Min_Stack_Size+0xe8346c>
  5c:	13490b3b 	movtne	r0, #39739	; 0x9b3b
  60:	01080000 	mrseq	r0, (UNDEF: 8)
  64:	01134901 	tsteq	r3, r1, lsl #18
  68:	09000013 	stmdbeq	r0, {r0, r1, r4}
  6c:	13490021 	movtne	r0, #36897	; 0x9021
  70:	00000b2f 	andeq	r0, r0, pc, lsr #22
  74:	0b01130a 	bleq	44ca4 <_Min_Stack_Size+0x448a4>
  78:	3b0b3a0b 	blcc	2ce8ac <_Min_Stack_Size+0x2ce4ac>
  7c:	0013010b 	andseq	r0, r3, fp, lsl #2
  80:	000d0b00 	andeq	r0, sp, r0, lsl #22
  84:	0b3a0e03 	bleq	e83898 <_Min_Stack_Size+0xe83498>
  88:	13490b3b 	movtne	r0, #39739	; 0x9b3b
  8c:	00000a38 	andeq	r0, r0, r8, lsr sl
  90:	0b000f0c 	bleq	3cc8 <_Min_Stack_Size+0x38c8>
  94:	0d00000b 	stceq	0, cr0, [r0, #-44]	; 0xffffffd4
  98:	0b0b000f 	bleq	2c00dc <_Min_Stack_Size+0x2bfcdc>
  9c:	00001349 	andeq	r1, r0, r9, asr #6
  a0:	4900260e 	stmdbmi	r0, {r1, r2, r3, r9, sl, sp}
  a4:	0f000013 	svceq	0x00000013
  a8:	0e030113 	mcreq	1, 0, r0, cr3, cr3, {0}
  ac:	0b3a0b0b 	bleq	e82ce0 <_Min_Stack_Size+0xe828e0>
  b0:	13010b3b 	movwne	r0, #6971	; 0x1b3b
  b4:	0d100000 	ldceq	0, cr0, [r0, #-0]
  b8:	3a080300 	bcc	200cc0 <_Min_Stack_Size+0x2008c0>
  bc:	490b3b0b 	stmdbmi	fp, {r0, r1, r3, r8, r9, fp, ip, sp}
  c0:	000a3813 	andeq	r3, sl, r3, lsl r8
  c4:	01131100 	tsteq	r3, r0, lsl #2
  c8:	050b0e03 	streq	r0, [fp, #-3587]	; 0xfffff1fd
  cc:	0b3b0b3a 	bleq	ec2dbc <_Min_Stack_Size+0xec29bc>
  d0:	00001301 	andeq	r1, r0, r1, lsl #6
  d4:	27001512 	smladcs	r0, r2, r5, r1
  d8:	1300000c 	movwne	r0, #12
  dc:	0e030113 	mcreq	1, 0, r0, cr3, cr3, {0}
  e0:	0b3a0b0b 	bleq	e82d14 <_Min_Stack_Size+0xe82914>
  e4:	1301053b 	movwne	r0, #5435	; 0x153b
  e8:	0d140000 	ldceq	0, cr0, [r4, #-0]
  ec:	3a0e0300 	bcc	380cf4 <_Min_Stack_Size+0x3808f4>
  f0:	49053b0b 	stmdbmi	r5, {r0, r1, r3, r8, r9, fp, ip, sp}
  f4:	000a3813 	andeq	r3, sl, r3, lsl r8
  f8:	000d1500 	andeq	r1, sp, r0, lsl #10
  fc:	0b3a0803 	bleq	e82110 <_Min_Stack_Size+0xe81d10>
 100:	1349053b 	movtne	r0, #38203	; 0x953b
 104:	00000a38 	andeq	r0, r0, r8, lsr sl
 108:	27011516 	smladcs	r1, r6, r5, r1
 10c:	0113490c 	tsteq	r3, ip, lsl #18
 110:	17000013 	smladne	r0, r3, r0, r0
 114:	13490005 	movtne	r0, #36869	; 0x9005
 118:	13180000 	tstne	r8, #0
 11c:	3c0e0300 	stccc	3, cr0, [lr], {-0}
 120:	1900000c 	stmdbne	r0, {r2, r3}
 124:	0c270115 	stfeqs	f0, [r7], #-84	; 0xffffffac
 128:	00001301 	andeq	r1, r0, r1, lsl #6
 12c:	0300341a 	movweq	r3, #1050	; 0x41a
 130:	3b0b3a0e 	blcc	2ce970 <_Min_Stack_Size+0x2ce570>
 134:	3f134905 	svccc	0x00134905
 138:	000c3c0c 	andeq	r3, ip, ip, lsl #24
 13c:	00341b00 	eorseq	r1, r4, r0, lsl #22
 140:	0b3a0e03 	bleq	e83954 <_Min_Stack_Size+0xe83554>
 144:	13490b3b 	movtne	r0, #39739	; 0x9b3b
 148:	0c3c0c3f 	ldceq	12, cr0, [ip], #-252	; 0xffffff04
 14c:	351c0000 	ldrcc	r0, [ip, #-0]
 150:	00134900 	andseq	r4, r3, r0, lsl #18
 154:	00341d00 	eorseq	r1, r4, r0, lsl #26
 158:	0b3a0e03 	bleq	e8396c <_Min_Stack_Size+0xe8356c>
 15c:	13490b3b 	movtne	r0, #39739	; 0x9b3b
 160:	0a020c3f 	beq	83264 <_Min_Stack_Size+0x82e64>
 164:	2e1e0000 	cdpcs	0, 1, cr0, cr14, cr0, {0}
 168:	030c3f01 	movweq	r3, #52993	; 0xcf01
 16c:	3b0b3a0e 	blcc	2ce9ac <_Min_Stack_Size+0x2ce5ac>
 170:	490c270b 	stmdbmi	ip, {r0, r1, r3, r8, r9, sl, sp}
 174:	12011113 	andne	r1, r1, #-1073741820	; 0xc0000004
 178:	96064001 	strls	r4, [r6], -r1
 17c:	13010c42 	movwne	r0, #7234	; 0x1c42
 180:	341f0000 	ldrcc	r0, [pc], #-0	; 188 <_Min_Heap_Size-0x78>
 184:	3a0e0300 	bcc	380d8c <_Min_Stack_Size+0x38098c>
 188:	490b3b0b 	stmdbmi	fp, {r0, r1, r3, r8, r9, fp, ip, sp}
 18c:	000a0213 	andeq	r0, sl, r3, lsl r2
 190:	002e2000 	eoreq	r2, lr, r0
 194:	0e030c3f 	mcreq	12, 0, r0, cr3, cr15, {1}
 198:	0b3b0b3a 	bleq	ec2e88 <_Min_Stack_Size+0xec2a88>
 19c:	01110c27 	tsteq	r1, r7, lsr #24
 1a0:	06400112 			; <UNDEFINED> instruction: 0x06400112
 1a4:	000c4297 	muleq	ip, r7, r2
 1a8:	11010000 	mrsne	r0, (UNDEF: 1)
 1ac:	55061000 	strpl	r1, [r6, #-0]
 1b0:	1b0e0306 	blne	380dd0 <_Min_Stack_Size+0x3809d0>
 1b4:	130e250e 	movwne	r2, #58638	; 0xe50e
 1b8:	00000005 	andeq	r0, r0, r5
 1bc:	25011101 	strcs	r1, [r1, #-257]	; 0xfffffeff
 1c0:	030b130e 	movweq	r1, #45838	; 0xb30e
 1c4:	550e1b0e 	strpl	r1, [lr, #-2830]	; 0xfffff4f2
 1c8:	52011106 	andpl	r1, r1, #-2147483647	; 0x80000001
 1cc:	99061001 	stmdbls	r6, {r0, ip}
 1d0:	00000642 	andeq	r0, r0, r2, asr #12
 1d4:	0b002402 	bleq	91e4 <_Min_Stack_Size+0x8de4>
 1d8:	030b3e0b 	movweq	r3, #48651	; 0xbe0b
 1dc:	0300000e 	movweq	r0, #14
 1e0:	0b0b0024 	bleq	2c0278 <_Min_Stack_Size+0x2bfe78>
 1e4:	08030b3e 	stmdaeq	r3, {r1, r2, r3, r4, r5, r8, r9, fp}
 1e8:	16040000 	strne	r0, [r4], -r0
 1ec:	3a0e0300 	bcc	380df4 <_Min_Stack_Size+0x3809f4>
 1f0:	490b3b0b 	stmdbmi	fp, {r0, r1, r3, r8, r9, fp, ip, sp}
 1f4:	05000013 	streq	r0, [r0, #-19]	; 0xffffffed
 1f8:	0e030016 	mcreq	0, 0, r0, cr3, cr6, {0}
 1fc:	053b0b3a 	ldreq	r0, [fp, #-2874]!	; 0xfffff4c6
 200:	00001349 	andeq	r1, r0, r9, asr #6
 204:	0b011706 	bleq	45e24 <_Min_Stack_Size+0x45a24>
 208:	3b0b3a0b 	blcc	2cea3c <_Min_Stack_Size+0x2ce63c>
 20c:	0013010b 	andseq	r0, r3, fp, lsl #2
 210:	000d0700 	andeq	r0, sp, r0, lsl #14
 214:	0b3a0e03 	bleq	e83a28 <_Min_Stack_Size+0xe83628>
 218:	13490b3b 	movtne	r0, #39739	; 0x9b3b
 21c:	01080000 	mrseq	r0, (UNDEF: 8)
 220:	01134901 	tsteq	r3, r1, lsl #18
 224:	09000013 	stmdbeq	r0, {r0, r1, r4}
 228:	13490021 	movtne	r0, #36897	; 0x9021
 22c:	00000b2f 	andeq	r0, r0, pc, lsr #22
 230:	0b01130a 	bleq	44e60 <_Min_Stack_Size+0x44a60>
 234:	3b0b3a0b 	blcc	2cea68 <_Min_Stack_Size+0x2ce668>
 238:	0013010b 	andseq	r0, r3, fp, lsl #2
 23c:	000d0b00 	andeq	r0, sp, r0, lsl #22
 240:	0b3a0e03 	bleq	e83a54 <_Min_Stack_Size+0xe83654>
 244:	13490b3b 	movtne	r0, #39739	; 0x9b3b
 248:	00000a38 	andeq	r0, r0, r8, lsr sl
 24c:	0b000f0c 	bleq	3e84 <_Min_Stack_Size+0x3a84>
 250:	0d00000b 	stceq	0, cr0, [r0, #-44]	; 0xffffffd4
 254:	0b0b000f 	bleq	2c0298 <_Min_Stack_Size+0x2bfe98>
 258:	00001349 	andeq	r1, r0, r9, asr #6
 25c:	4900260e 	stmdbmi	r0, {r1, r2, r3, r9, sl, sp}
 260:	0f000013 	svceq	0x00000013
 264:	0e030113 	mcreq	1, 0, r0, cr3, cr3, {0}
 268:	0b3a0b0b 	bleq	e82e9c <_Min_Stack_Size+0xe82a9c>
 26c:	13010b3b 	movwne	r0, #6971	; 0x1b3b
 270:	0d100000 	ldceq	0, cr0, [r0, #-0]
 274:	3a080300 	bcc	200e7c <_Min_Stack_Size+0x200a7c>
 278:	490b3b0b 	stmdbmi	fp, {r0, r1, r3, r8, r9, fp, ip, sp}
 27c:	000a3813 	andeq	r3, sl, r3, lsl r8
 280:	01131100 	tsteq	r3, r0, lsl #2
 284:	050b0e03 	streq	r0, [fp, #-3587]	; 0xfffff1fd
 288:	0b3b0b3a 	bleq	ec2f78 <_Min_Stack_Size+0xec2b78>
 28c:	00001301 	andeq	r1, r0, r1, lsl #6
 290:	27001512 	smladcs	r0, r2, r5, r1
 294:	1300000c 	movwne	r0, #12
 298:	0e030113 	mcreq	1, 0, r0, cr3, cr3, {0}
 29c:	0b3a0b0b 	bleq	e82ed0 <_Min_Stack_Size+0xe82ad0>
 2a0:	1301053b 	movwne	r0, #5435	; 0x153b
 2a4:	0d140000 	ldceq	0, cr0, [r4, #-0]
 2a8:	3a0e0300 	bcc	380eb0 <_Min_Stack_Size+0x380ab0>
 2ac:	49053b0b 	stmdbmi	r5, {r0, r1, r3, r8, r9, fp, ip, sp}
 2b0:	000a3813 	andeq	r3, sl, r3, lsl r8
 2b4:	000d1500 	andeq	r1, sp, r0, lsl #10
 2b8:	0b3a0803 	bleq	e822cc <_Min_Stack_Size+0xe81ecc>
 2bc:	1349053b 	movtne	r0, #38203	; 0x953b
 2c0:	00000a38 	andeq	r0, r0, r8, lsr sl
 2c4:	27011516 	smladcs	r1, r6, r5, r1
 2c8:	0113490c 	tsteq	r3, ip, lsl #18
 2cc:	17000013 	smladne	r0, r3, r0, r0
 2d0:	13490005 	movtne	r0, #36869	; 0x9005
 2d4:	13180000 	tstne	r8, #0
 2d8:	3c0e0300 	stccc	3, cr0, [lr], {-0}
 2dc:	1900000c 	stmdbne	r0, {r2, r3}
 2e0:	0c270115 	stfeqs	f0, [r7], #-84	; 0xffffffac
 2e4:	00001301 	andeq	r1, r0, r1, lsl #6
 2e8:	0300341a 	movweq	r3, #1050	; 0x41a
 2ec:	3b0b3a0e 	blcc	2ceb2c <_Min_Stack_Size+0x2ce72c>
 2f0:	3f134905 	svccc	0x00134905
 2f4:	000c3c0c 	andeq	r3, ip, ip, lsl #24
 2f8:	00341b00 	eorseq	r1, r4, r0, lsl #22
 2fc:	0b3a0e03 	bleq	e83b10 <_Min_Stack_Size+0xe83710>
 300:	13490b3b 	movtne	r0, #39739	; 0x9b3b
 304:	0c3c0c3f 	ldceq	12, cr0, [ip], #-252	; 0xffffff04
 308:	351c0000 	ldrcc	r0, [ip, #-0]
 30c:	00134900 	andseq	r4, r3, r0, lsl #18
 310:	012e1d00 			; <UNDEFINED> instruction: 0x012e1d00
 314:	0e030c3f 	mcreq	12, 0, r0, cr3, cr15, {1}
 318:	053b0b3a 	ldreq	r0, [fp, #-2874]!	; 0xfffff4c6
 31c:	13490c27 	movtne	r0, #39975	; 0x9c27
 320:	01120111 	tsteq	r2, r1, lsl r1
 324:	42970640 	addsmi	r0, r7, #64, 12	; 0x4000000
 328:	0013010c 	andseq	r0, r3, ip, lsl #2
 32c:	00051e00 	andeq	r1, r5, r0, lsl #28
 330:	0b3a0e03 	bleq	e83b44 <_Min_Stack_Size+0xe83744>
 334:	1349053b 	movtne	r0, #38203	; 0x953b
 338:	00000a02 	andeq	r0, r0, r2, lsl #20
 33c:	0300341f 	movweq	r3, #1055	; 0x41f
 340:	3b0b3a08 	blcc	2ceb68 <_Min_Stack_Size+0x2ce768>
 344:	02134905 	andseq	r4, r3, #81920	; 0x14000
 348:	2000000a 	andcs	r0, r0, sl
 34c:	0c3f012e 	ldfeqs	f0, [pc], #-184	; 29c <_Min_Heap_Size+0x9c>
 350:	0b3a0e03 	bleq	e83b64 <_Min_Stack_Size+0xe83764>
 354:	0c27053b 	cfstr32eq	mvfx0, [r7], #-236	; 0xffffff14
 358:	01120111 	tsteq	r2, r1, lsl r1
 35c:	42970640 	addsmi	r0, r7, #64, 12	; 0x4000000
 360:	0013010c 	andseq	r0, r3, ip, lsl #2
 364:	012e2100 			; <UNDEFINED> instruction: 0x012e2100
 368:	0e030c3f 	mcreq	12, 0, r0, cr3, cr15, {1}
 36c:	0b3b0b3a 	bleq	ec305c <_Min_Stack_Size+0xec2c5c>
 370:	01110c27 	tsteq	r1, r7, lsr #24
 374:	06400112 			; <UNDEFINED> instruction: 0x06400112
 378:	010c4297 			; <UNDEFINED> instruction: 0x010c4297
 37c:	22000013 	andcs	r0, r0, #19
 380:	0e030005 	cdpeq	0, 0, cr0, cr3, cr5, {0}
 384:	0b3b0b3a 	bleq	ec3074 <_Min_Stack_Size+0xec2c74>
 388:	0a021349 	beq	850b4 <_Min_Stack_Size+0x84cb4>
 38c:	2e230000 	cdpcs	0, 2, cr0, cr3, cr0, {0}
 390:	030c3f01 	movweq	r3, #52993	; 0xcf01
 394:	3b0b3a0e 	blcc	2cebd4 <_Min_Stack_Size+0x2ce7d4>
 398:	490c270b 	stmdbmi	ip, {r0, r1, r3, r8, r9, sl, sp}
 39c:	12011113 	andne	r1, r1, #-1073741820	; 0xc0000004
 3a0:	97064001 	strls	r4, [r6, -r1]
 3a4:	13010c42 	movwne	r0, #7234	; 0x1c42
 3a8:	34240000 	strtcc	r0, [r4], #-0
 3ac:	3a0e0300 	bcc	380fb4 <_Min_Stack_Size+0x380bb4>
 3b0:	490b3b0b 	stmdbmi	fp, {r0, r1, r3, r8, r9, fp, ip, sp}
 3b4:	000a0213 	andeq	r0, sl, r3, lsl r2
 3b8:	012e2500 			; <UNDEFINED> instruction: 0x012e2500
 3bc:	0e030c3f 	mcreq	12, 0, r0, cr3, cr15, {1}
 3c0:	0b3b0b3a 	bleq	ec30b0 <_Min_Stack_Size+0xec2cb0>
 3c4:	01110c27 	tsteq	r1, r7, lsr #24
 3c8:	06400112 			; <UNDEFINED> instruction: 0x06400112
 3cc:	010c4296 			; <UNDEFINED> instruction: 0x010c4296
 3d0:	26000013 			; <UNDEFINED> instruction: 0x26000013
 3d4:	0c3f012e 	ldfeqs	f0, [pc], #-184	; 324 <_Min_Heap_Size+0x124>
 3d8:	0b3a0e03 	bleq	e83bec <_Min_Stack_Size+0xe837ec>
 3dc:	0c270b3b 			; <UNDEFINED> instruction: 0x0c270b3b
 3e0:	01111349 	tsteq	r1, r9, asr #6
 3e4:	06400112 			; <UNDEFINED> instruction: 0x06400112
 3e8:	000c4297 	muleq	ip, r7, r2
 3ec:	11010000 	mrsne	r0, (UNDEF: 1)
 3f0:	130e2501 	movwne	r2, #58625	; 0xe501
 3f4:	1b0e030b 	blne	381028 <_Min_Stack_Size+0x380c28>
 3f8:	1106550e 	tstne	r6, lr, lsl #10
 3fc:	10015201 	andne	r5, r1, r1, lsl #4
 400:	06429906 	strbeq	r9, [r2], -r6, lsl #18
 404:	24020000 	strcs	r0, [r2], #-0
 408:	3e0b0b00 	vmlacc.f64	d0, d11, d0
 40c:	000e030b 	andeq	r0, lr, fp, lsl #6
 410:	00240300 	eoreq	r0, r4, r0, lsl #6
 414:	0b3e0b0b 	bleq	f83048 <_Min_Stack_Size+0xf82c48>
 418:	00000803 	andeq	r0, r0, r3, lsl #16
 41c:	03001604 	movweq	r1, #1540	; 0x604
 420:	3b0b3a0e 	blcc	2cec60 <_Min_Stack_Size+0x2ce860>
 424:	0013490b 	andseq	r4, r3, fp, lsl #18
 428:	00160500 	andseq	r0, r6, r0, lsl #10
 42c:	0b3a0e03 	bleq	e83c40 <_Min_Stack_Size+0xe83840>
 430:	1349053b 	movtne	r0, #38203	; 0x953b
 434:	17060000 	strne	r0, [r6, -r0]
 438:	3a0b0b01 	bcc	2c3044 <_Min_Stack_Size+0x2c2c44>
 43c:	010b3b0b 	tsteq	fp, fp, lsl #22
 440:	07000013 	smladeq	r0, r3, r0, r0
 444:	0e03000d 	cdpeq	0, 0, cr0, cr3, cr13, {0}
 448:	0b3b0b3a 	bleq	ec3138 <_Min_Stack_Size+0xec2d38>
 44c:	00001349 	andeq	r1, r0, r9, asr #6
 450:	49010108 	stmdbmi	r1, {r3, r8}
 454:	00130113 	andseq	r0, r3, r3, lsl r1
 458:	00210900 	eoreq	r0, r1, r0, lsl #18
 45c:	0b2f1349 	bleq	bc5188 <_Min_Stack_Size+0xbc4d88>
 460:	130a0000 	movwne	r0, #40960	; 0xa000
 464:	3a0b0b01 	bcc	2c3070 <_Min_Stack_Size+0x2c2c70>
 468:	010b3b0b 	tsteq	fp, fp, lsl #22
 46c:	0b000013 	bleq	4c0 <_Min_Stack_Size+0xc0>
 470:	0e03000d 	cdpeq	0, 0, cr0, cr3, cr13, {0}
 474:	0b3b0b3a 	bleq	ec3164 <_Min_Stack_Size+0xec2d64>
 478:	0a381349 	beq	e051a4 <_Min_Stack_Size+0xe04da4>
 47c:	0f0c0000 	svceq	0x000c0000
 480:	000b0b00 	andeq	r0, fp, r0, lsl #22
 484:	000f0d00 	andeq	r0, pc, r0, lsl #26
 488:	13490b0b 	movtne	r0, #39691	; 0x9b0b
 48c:	260e0000 	strcs	r0, [lr], -r0
 490:	00134900 	andseq	r4, r3, r0, lsl #18
 494:	01130f00 	tsteq	r3, r0, lsl #30
 498:	0b0b0e03 	bleq	2c3cac <_Min_Stack_Size+0x2c38ac>
 49c:	0b3b0b3a 	bleq	ec318c <_Min_Stack_Size+0xec2d8c>
 4a0:	00001301 	andeq	r1, r0, r1, lsl #6
 4a4:	03000d10 	movweq	r0, #3344	; 0xd10
 4a8:	3b0b3a08 	blcc	2cecd0 <_Min_Stack_Size+0x2ce8d0>
 4ac:	3813490b 	ldmdacc	r3, {r0, r1, r3, r8, fp, lr}
 4b0:	1100000a 	tstne	r0, sl
 4b4:	0e030113 	mcreq	1, 0, r0, cr3, cr3, {0}
 4b8:	0b3a050b 	bleq	e818ec <_Min_Stack_Size+0xe814ec>
 4bc:	13010b3b 	movwne	r0, #6971	; 0x1b3b
 4c0:	15120000 	ldrne	r0, [r2, #-0]
 4c4:	000c2700 	andeq	r2, ip, r0, lsl #14
 4c8:	01131300 	tsteq	r3, r0, lsl #6
 4cc:	0b0b0e03 	bleq	2c3ce0 <_Min_Stack_Size+0x2c38e0>
 4d0:	053b0b3a 	ldreq	r0, [fp, #-2874]!	; 0xfffff4c6
 4d4:	00001301 	andeq	r1, r0, r1, lsl #6
 4d8:	03000d14 	movweq	r0, #3348	; 0xd14
 4dc:	3b0b3a0e 	blcc	2ced1c <_Min_Stack_Size+0x2ce91c>
 4e0:	38134905 	ldmdacc	r3, {r0, r2, r8, fp, lr}
 4e4:	1500000a 	strne	r0, [r0, #-10]
 4e8:	0803000d 	stmdaeq	r3, {r0, r2, r3}
 4ec:	053b0b3a 	ldreq	r0, [fp, #-2874]!	; 0xfffff4c6
 4f0:	0a381349 	beq	e0521c <_Min_Stack_Size+0xe04e1c>
 4f4:	15160000 	ldrne	r0, [r6, #-0]
 4f8:	490c2701 	stmdbmi	ip, {r0, r8, r9, sl, sp}
 4fc:	00130113 	andseq	r0, r3, r3, lsl r1
 500:	00051700 	andeq	r1, r5, r0, lsl #14
 504:	00001349 	andeq	r1, r0, r9, asr #6
 508:	03001318 	movweq	r1, #792	; 0x318
 50c:	000c3c0e 	andeq	r3, ip, lr, lsl #24
 510:	01151900 	tsteq	r5, r0, lsl #18
 514:	13010c27 	movwne	r0, #7207	; 0x1c27
 518:	341a0000 	ldrcc	r0, [sl], #-0
 51c:	3a0e0300 	bcc	381124 <_Min_Stack_Size+0x380d24>
 520:	49053b0b 	stmdbmi	r5, {r0, r1, r3, r8, r9, fp, ip, sp}
 524:	3c0c3f13 	stccc	15, cr3, [ip], {19}
 528:	1b00000c 	blne	560 <_Min_Stack_Size+0x160>
 52c:	0e030034 	mcreq	0, 0, r0, cr3, cr4, {1}
 530:	0b3b0b3a 	bleq	ec3220 <_Min_Stack_Size+0xec2e20>
 534:	0c3f1349 	ldceq	3, cr1, [pc], #-292	; 418 <_Min_Stack_Size+0x18>
 538:	00000c3c 	andeq	r0, r0, ip, lsr ip
 53c:	4900351c 	stmdbmi	r0, {r2, r3, r4, r8, sl, ip, sp}
 540:	1d000013 	stcne	0, cr0, [r0, #-76]	; 0xffffffb4
 544:	0e030034 	mcreq	0, 0, r0, cr3, cr4, {1}
 548:	0b3b0b3a 	bleq	ec3238 <_Min_Stack_Size+0xec2e38>
 54c:	0c3f1349 	ldceq	3, cr1, [pc], #-292	; 430 <_Min_Stack_Size+0x30>
 550:	00000a02 	andeq	r0, r0, r2, lsl #20
 554:	3f002e1e 	svccc	0x00002e1e
 558:	3a0e030c 	bcc	381190 <_Min_Stack_Size+0x380d90>
 55c:	27053b0b 	strcs	r3, [r5, -fp, lsl #22]
 560:	1201110c 	andne	r1, r1, #12, 2
 564:	96064001 	strls	r4, [r6], -r1
 568:	00000c42 	andeq	r0, r0, r2, asr #24
 56c:	3f002e1f 	svccc	0x00002e1f
 570:	3a0e030c 	bcc	3811a8 <_Min_Stack_Size+0x380da8>
 574:	270b3b0b 	strcs	r3, [fp, -fp, lsl #22]
 578:	1201110c 	andne	r1, r1, #12, 2
 57c:	96064001 	strls	r4, [r6], -r1
 580:	00000c42 	andeq	r0, r0, r2, asr #24
 584:	3f012e20 	svccc	0x00012e20
 588:	3a0e030c 	bcc	3811c0 <_Min_Stack_Size+0x380dc0>
 58c:	270b3b0b 	strcs	r3, [fp, -fp, lsl #22]
 590:	1201110c 	andne	r1, r1, #12, 2
 594:	96064001 	strls	r4, [r6], -r1
 598:	13010c42 	movwne	r0, #7234	; 0x1c42
 59c:	05210000 	streq	r0, [r1, #-0]!
 5a0:	3a0e0300 	bcc	3811a8 <_Min_Stack_Size+0x380da8>
 5a4:	490b3b0b 	stmdbmi	fp, {r0, r1, r3, r8, r9, fp, ip, sp}
 5a8:	000a0213 	andeq	r0, sl, r3, lsl r2
 5ac:	002e2200 	eoreq	r2, lr, r0, lsl #4
 5b0:	0e030c3f 	mcreq	12, 0, r0, cr3, cr15, {1}
 5b4:	0b3b0b3a 	bleq	ec32a4 <_Min_Stack_Size+0xec2ea4>
 5b8:	01110c27 	tsteq	r1, r7, lsr #24
 5bc:	06400112 			; <UNDEFINED> instruction: 0x06400112
 5c0:	000c4297 	muleq	ip, r7, r2
 5c4:	00342300 	eorseq	r2, r4, r0, lsl #6
 5c8:	0b3a0e03 	bleq	e83ddc <_Min_Stack_Size+0xe839dc>
 5cc:	13490b3b 	movtne	r0, #39739	; 0x9b3b
 5d0:	00000a02 	andeq	r0, r0, r2, lsl #20
 5d4:	3f012e24 	svccc	0x00012e24
 5d8:	3a0e030c 	bcc	381210 <_Min_Stack_Size+0x380e10>
 5dc:	270b3b0b 	strcs	r3, [fp, -fp, lsl #22]
 5e0:	1201110c 	andne	r1, r1, #12, 2
 5e4:	97064001 	strls	r4, [r6, -r1]
 5e8:	13010c42 	movwne	r0, #7234	; 0x1c42
 5ec:	05250000 	streq	r0, [r5, #-0]!
 5f0:	3a080300 	bcc	2011f8 <_Min_Stack_Size+0x200df8>
 5f4:	490b3b0b 	stmdbmi	fp, {r0, r1, r3, r8, r9, fp, ip, sp}
 5f8:	000a0213 	andeq	r0, sl, r3, lsl r2
 5fc:	012e2600 			; <UNDEFINED> instruction: 0x012e2600
 600:	0e030c3f 	mcreq	12, 0, r0, cr3, cr15, {1}
 604:	0b3b0b3a 	bleq	ec32f4 <_Min_Stack_Size+0xec2ef4>
 608:	01110c27 	tsteq	r1, r7, lsr #24
 60c:	06400112 			; <UNDEFINED> instruction: 0x06400112
 610:	000c4297 	muleq	ip, r7, r2
	...

Disassembly of section .debug_loc:

00000000 <.debug_loc>:
   0:	08000194 	stmdaeq	r0, {r2, r4, r7, r8}
   4:	08000196 	stmdaeq	r0, {r1, r2, r4, r7, r8}
   8:	007d0002 	rsbseq	r0, sp, r2
   c:	08000196 	stmdaeq	r0, {r1, r2, r4, r7, r8}
  10:	08000198 	stmdaeq	r0, {r3, r4, r7, r8}
  14:	087d0002 	ldmdaeq	sp!, {r1}^
  18:	08000198 	stmdaeq	r0, {r3, r4, r7, r8}
  1c:	0800019a 	stmdaeq	r0, {r1, r3, r4, r7, r8}
  20:	207d0002 	rsbscs	r0, sp, r2
  24:	0800019a 	stmdaeq	r0, {r1, r3, r4, r7, r8}
  28:	08000260 	stmdaeq	r0, {r5, r6, r9}
  2c:	20770002 	rsbscs	r0, r7, r2
	...
  38:	08000170 	stmdaeq	r0, {r4, r5, r6, r8}
  3c:	08000172 	stmdaeq	r0, {r1, r4, r5, r6, r8}
  40:	007d0002 	rsbseq	r0, sp, r2
  44:	08000172 	stmdaeq	r0, {r1, r4, r5, r6, r8}
  48:	08000174 	stmdaeq	r0, {r2, r4, r5, r6, r8}
  4c:	047d0002 	ldrbteq	r0, [sp], #-2
  50:	08000174 	stmdaeq	r0, {r2, r4, r5, r6, r8}
  54:	08000186 	stmdaeq	r0, {r1, r2, r7, r8}
  58:	04770002 	ldrbteq	r0, [r7], #-2
  5c:	08000186 	stmdaeq	r0, {r1, r2, r7, r8}
  60:	08000188 	stmdaeq	r0, {r3, r7, r8}
  64:	047d0002 	ldrbteq	r0, [sp], #-2
  68:	08000188 	stmdaeq	r0, {r3, r7, r8}
  6c:	08000194 	stmdaeq	r0, {r2, r4, r7, r8}
  70:	007d0002 	rsbseq	r0, sp, r2
	...
  84:	007d0002 	rsbseq	r0, sp, r2
	...
  90:	047d0002 	ldrbteq	r0, [sp], #-2
	...
  9c:	187d0002 	ldmdane	sp!, {r1}^
	...
  a8:	18770002 	ldmdane	r7!, {r1}^
	...
  b4:	04770002 	ldrbteq	r0, [r7], #-2
	...
  c0:	047d0002 	ldrbteq	r0, [sp], #-2
	...
  cc:	007d0002 	rsbseq	r0, sp, r2
	...
  e0:	007d0002 	rsbseq	r0, sp, r2
	...
  ec:	047d0002 	ldrbteq	r0, [sp], #-2
	...
  f8:	107d0002 	rsbsne	r0, sp, r2
	...
 104:	10770002 	rsbsne	r0, r7, r2
	...
 110:	04770002 	ldrbteq	r0, [r7], #-2
	...
 11c:	047d0002 	ldrbteq	r0, [sp], #-2
	...
 128:	007d0002 	rsbseq	r0, sp, r2
	...
 13c:	007d0002 	rsbseq	r0, sp, r2
	...
 148:	047d0002 	ldrbteq	r0, [sp], #-2
	...
 154:	107d0002 	rsbsne	r0, sp, r2
	...
 160:	10770002 	rsbsne	r0, r7, r2
	...
 16c:	04770002 	ldrbteq	r0, [r7], #-2
	...
 178:	047d0002 	ldrbteq	r0, [sp], #-2
	...
 184:	007d0002 	rsbseq	r0, sp, r2
	...
 198:	007d0002 	rsbseq	r0, sp, r2
	...
 1a4:	047d0002 	ldrbteq	r0, [sp], #-2
	...
 1b0:	107d0002 	rsbsne	r0, sp, r2
	...
 1bc:	10770002 	rsbsne	r0, r7, r2
	...
 1c8:	04770002 	ldrbteq	r0, [r7], #-2
	...
 1d4:	047d0002 	ldrbteq	r0, [sp], #-2
	...
 1e0:	007d0002 	rsbseq	r0, sp, r2
	...
 1f4:	007d0002 	rsbseq	r0, sp, r2
	...
 200:	047d0002 	ldrbteq	r0, [sp], #-2
	...
 20c:	187d0002 	ldmdane	sp!, {r1}^
	...
 218:	18770002 	ldmdane	r7!, {r1}^
	...
 224:	04770002 	ldrbteq	r0, [r7], #-2
	...
 230:	047d0002 	ldrbteq	r0, [sp], #-2
	...
 23c:	007d0002 	rsbseq	r0, sp, r2
	...
 250:	007d0002 	rsbseq	r0, sp, r2
	...
 25c:	047d0002 	ldrbteq	r0, [sp], #-2
	...
 268:	187d0002 	ldmdane	sp!, {r1}^
	...
 274:	18770002 	ldmdane	r7!, {r1}^
	...
 280:	04770002 	ldrbteq	r0, [r7], #-2
	...
 28c:	047d0002 	ldrbteq	r0, [sp], #-2
	...
 298:	007d0002 	rsbseq	r0, sp, r2
	...
 2ac:	007d0002 	rsbseq	r0, sp, r2
	...
 2b8:	047d0002 	ldrbteq	r0, [sp], #-2
	...
 2c4:	107d0002 	rsbsne	r0, sp, r2
	...
 2d0:	10770002 	rsbsne	r0, r7, r2
	...
 2dc:	04770002 	ldrbteq	r0, [r7], #-2
	...
 2e8:	047d0002 	ldrbteq	r0, [sp], #-2
	...
 2f4:	007d0002 	rsbseq	r0, sp, r2
	...
 300:	08000378 	stmdaeq	r0, {r3, r4, r5, r6, r8, r9}
 304:	0800037a 	stmdaeq	r0, {r1, r3, r4, r5, r6, r8, r9}
 308:	007d0002 	rsbseq	r0, sp, r2
 30c:	0800037a 	stmdaeq	r0, {r1, r3, r4, r5, r6, r8, r9}
 310:	0800037c 	stmdaeq	r0, {r2, r3, r4, r5, r6, r8, r9}
 314:	0c7d0002 	ldcleq	0, cr0, [sp], #-8
 318:	0800037c 	stmdaeq	r0, {r2, r3, r4, r5, r6, r8, r9}
 31c:	0800037e 	stmdaeq	r0, {r1, r2, r3, r4, r5, r6, r8, r9}
 320:	207d0002 	rsbscs	r0, sp, r2
 324:	0800037e 	stmdaeq	r0, {r1, r2, r3, r4, r5, r6, r8, r9}
 328:	08000472 	stmdaeq	r0, {r1, r4, r5, r6, sl}
 32c:	20770002 	rsbscs	r0, r7, r2
 330:	08000472 	stmdaeq	r0, {r1, r4, r5, r6, sl}
 334:	08000474 	stmdaeq	r0, {r2, r4, r5, r6, sl}
 338:	0c770002 	ldcleq	0, cr0, [r7], #-8
 33c:	08000474 	stmdaeq	r0, {r2, r4, r5, r6, sl}
 340:	08000476 	stmdaeq	r0, {r1, r2, r4, r5, r6, sl}
 344:	0c7d0002 	ldcleq	0, cr0, [sp], #-8
	...
 350:	080002b2 	stmdaeq	r0, {r1, r4, r5, r7, r9}
 354:	080002b4 	stmdaeq	r0, {r2, r4, r5, r7, r9}
 358:	007d0002 	rsbseq	r0, sp, r2
 35c:	080002b4 	stmdaeq	r0, {r2, r4, r5, r7, r9}
 360:	080002b6 	stmdaeq	r0, {r1, r2, r4, r5, r7, r9}
 364:	047d0002 	ldrbteq	r0, [sp], #-2
 368:	080002b6 	stmdaeq	r0, {r1, r2, r4, r5, r7, r9}
 36c:	080002b8 	stmdaeq	r0, {r3, r4, r5, r7, r9}
 370:	107d0002 	rsbsne	r0, sp, r2
 374:	080002b8 	stmdaeq	r0, {r3, r4, r5, r7, r9}
 378:	08000372 	stmdaeq	r0, {r1, r4, r5, r6, r8, r9}
 37c:	10770002 	rsbsne	r0, r7, r2
 380:	08000372 	stmdaeq	r0, {r1, r4, r5, r6, r8, r9}
 384:	08000374 	stmdaeq	r0, {r2, r4, r5, r6, r8, r9}
 388:	04770002 	ldrbteq	r0, [r7], #-2
 38c:	08000374 	stmdaeq	r0, {r2, r4, r5, r6, r8, r9}
 390:	08000376 	stmdaeq	r0, {r1, r2, r4, r5, r6, r8, r9}
 394:	047d0002 	ldrbteq	r0, [sp], #-2
 398:	08000376 	stmdaeq	r0, {r1, r2, r4, r5, r6, r8, r9}
 39c:	08000378 	stmdaeq	r0, {r3, r4, r5, r6, r8, r9}
 3a0:	007d0002 	rsbseq	r0, sp, r2
	...
 3ac:	0800095c 	stmdaeq	r0, {r2, r3, r4, r6, r8, fp}
 3b0:	0800095e 	stmdaeq	r0, {r1, r2, r3, r4, r6, r8, fp}
 3b4:	007d0002 	rsbseq	r0, sp, r2
 3b8:	0800095e 	stmdaeq	r0, {r1, r2, r3, r4, r6, r8, fp}
 3bc:	08000960 	stmdaeq	r0, {r5, r6, r8, fp}
 3c0:	087d0002 	ldmdaeq	sp!, {r1}^
 3c4:	08000960 	stmdaeq	r0, {r5, r6, r8, fp}
 3c8:	08000a20 	stmdaeq	r0, {r5, r9, fp}
 3cc:	08770002 	ldmdaeq	r7!, {r1}^
	...
 3d8:	080008b4 	stmdaeq	r0, {r2, r4, r5, r7, fp}
 3dc:	080008b6 	stmdaeq	r0, {r1, r2, r4, r5, r7, fp}
 3e0:	007d0002 	rsbseq	r0, sp, r2
 3e4:	080008b6 	stmdaeq	r0, {r1, r2, r4, r5, r7, fp}
 3e8:	080008b8 	stmdaeq	r0, {r3, r4, r5, r7, fp}
 3ec:	087d0002 	ldmdaeq	sp!, {r1}^
 3f0:	080008b8 	stmdaeq	r0, {r3, r4, r5, r7, fp}
 3f4:	0800095c 	stmdaeq	r0, {r2, r3, r4, r6, r8, fp}
 3f8:	08770002 	ldmdaeq	r7!, {r1}^
	...
 404:	08000890 	stmdaeq	r0, {r4, r7, fp}
 408:	08000892 	stmdaeq	r0, {r1, r4, r7, fp}
 40c:	007d0002 	rsbseq	r0, sp, r2
 410:	08000892 	stmdaeq	r0, {r1, r4, r7, fp}
 414:	08000894 	stmdaeq	r0, {r2, r4, r7, fp}
 418:	087d0002 	ldmdaeq	sp!, {r1}^
 41c:	08000894 	stmdaeq	r0, {r2, r4, r7, fp}
 420:	080008b4 	stmdaeq	r0, {r2, r4, r5, r7, fp}
 424:	08770002 	ldmdaeq	r7!, {r1}^
	...
 430:	0800086c 	stmdaeq	r0, {r2, r3, r5, r6, fp}
 434:	0800086e 	stmdaeq	r0, {r1, r2, r3, r5, r6, fp}
 438:	007d0002 	rsbseq	r0, sp, r2
 43c:	0800086e 	stmdaeq	r0, {r1, r2, r3, r5, r6, fp}
 440:	08000870 	stmdaeq	r0, {r4, r5, r6, fp}
 444:	087d0002 	ldmdaeq	sp!, {r1}^
 448:	08000870 	stmdaeq	r0, {r4, r5, r6, fp}
 44c:	08000890 	stmdaeq	r0, {r4, r7, fp}
 450:	08770002 	ldmdaeq	r7!, {r1}^
	...
 45c:	08000848 	stmdaeq	r0, {r3, r6, fp}
 460:	0800084a 	stmdaeq	r0, {r1, r3, r6, fp}
 464:	007d0002 	rsbseq	r0, sp, r2
 468:	0800084a 	stmdaeq	r0, {r1, r3, r6, fp}
 46c:	0800084c 	stmdaeq	r0, {r2, r3, r6, fp}
 470:	087d0002 	ldmdaeq	sp!, {r1}^
 474:	0800084c 	stmdaeq	r0, {r2, r3, r6, fp}
 478:	0800086c 	stmdaeq	r0, {r2, r3, r5, r6, fp}
 47c:	08770002 	ldmdaeq	r7!, {r1}^
	...
 488:	08000824 	stmdaeq	r0, {r2, r5, fp}
 48c:	08000826 	stmdaeq	r0, {r1, r2, r5, fp}
 490:	007d0002 	rsbseq	r0, sp, r2
 494:	08000826 	stmdaeq	r0, {r1, r2, r5, fp}
 498:	08000828 	stmdaeq	r0, {r3, r5, fp}
 49c:	087d0002 	ldmdaeq	sp!, {r1}^
 4a0:	08000828 	stmdaeq	r0, {r3, r5, fp}
 4a4:	08000848 	stmdaeq	r0, {r3, r6, fp}
 4a8:	08770002 	ldmdaeq	r7!, {r1}^
	...
 4b4:	08000800 	stmdaeq	r0, {fp}
 4b8:	08000802 	stmdaeq	r0, {r1, fp}
 4bc:	007d0002 	rsbseq	r0, sp, r2
 4c0:	08000802 	stmdaeq	r0, {r1, fp}
 4c4:	08000804 	stmdaeq	r0, {r2, fp}
 4c8:	087d0002 	ldmdaeq	sp!, {r1}^
 4cc:	08000804 	stmdaeq	r0, {r2, fp}
 4d0:	08000824 	stmdaeq	r0, {r2, r5, fp}
 4d4:	08770002 	ldmdaeq	r7!, {r1}^
	...
 4e8:	007d0002 	rsbseq	r0, sp, r2
	...
 4f4:	087d0002 	ldmdaeq	sp!, {r1}^
	...
 500:	107d0002 	rsbsne	r0, sp, r2
	...
 50c:	10770002 	rsbsne	r0, r7, r2
	...
 518:	08770002 	ldmdaeq	r7!, {r1}^
	...
 524:	087d0002 	ldmdaeq	sp!, {r1}^
	...
 538:	007d0002 	rsbseq	r0, sp, r2
	...
 544:	047d0002 	ldrbteq	r0, [sp], #-2
	...
 550:	04770002 	ldrbteq	r0, [r7], #-2
	...
 55c:	047d0002 	ldrbteq	r0, [sp], #-2
	...
 568:	007d0002 	rsbseq	r0, sp, r2
	...
 574:	080007e8 	stmdaeq	r0, {r3, r5, r6, r7, r8, r9, sl}
 578:	080007ea 	stmdaeq	r0, {r1, r3, r5, r6, r7, r8, r9, sl}
 57c:	007d0002 	rsbseq	r0, sp, r2
 580:	080007ea 	stmdaeq	r0, {r1, r3, r5, r6, r7, r8, r9, sl}
 584:	080007ec 	stmdaeq	r0, {r2, r3, r5, r6, r7, r8, r9, sl}
 588:	087d0002 	ldmdaeq	sp!, {r1}^
 58c:	080007ec 	stmdaeq	r0, {r2, r3, r5, r6, r7, r8, r9, sl}
 590:	080007ee 	stmdaeq	r0, {r1, r2, r3, r5, r6, r7, r8, r9, sl}
 594:	107d0002 	rsbsne	r0, sp, r2
 598:	080007ee 	stmdaeq	r0, {r1, r2, r3, r5, r6, r7, r8, r9, sl}
 59c:	080007fa 	stmdaeq	r0, {r1, r3, r4, r5, r6, r7, r8, r9, sl}
 5a0:	10770002 	rsbsne	r0, r7, r2
 5a4:	080007fa 	stmdaeq	r0, {r1, r3, r4, r5, r6, r7, r8, r9, sl}
 5a8:	080007fc 	stmdaeq	r0, {r2, r3, r4, r5, r6, r7, r8, r9, sl}
 5ac:	08770002 	ldmdaeq	r7!, {r1}^
 5b0:	080007fc 	stmdaeq	r0, {r2, r3, r4, r5, r6, r7, r8, r9, sl}
 5b4:	080007fe 	stmdaeq	r0, {r1, r2, r3, r4, r5, r6, r7, r8, r9, sl}
 5b8:	087d0002 	ldmdaeq	sp!, {r1}^
	...
 5c4:	08000610 	stmdaeq	r0, {r4, r9, sl}
 5c8:	08000612 	stmdaeq	r0, {r1, r4, r9, sl}
 5cc:	007d0002 	rsbseq	r0, sp, r2
 5d0:	08000612 	stmdaeq	r0, {r1, r4, r9, sl}
 5d4:	08000614 	stmdaeq	r0, {r2, r4, r9, sl}
 5d8:	087d0002 	ldmdaeq	sp!, {r1}^
 5dc:	08000614 	stmdaeq	r0, {r2, r4, r9, sl}
 5e0:	08000616 	stmdaeq	r0, {r1, r2, r4, r9, sl}
 5e4:	187d0002 	ldmdane	sp!, {r1}^
 5e8:	08000616 	stmdaeq	r0, {r1, r2, r4, r9, sl}
 5ec:	080007c8 	stmdaeq	r0, {r3, r6, r7, r8, r9, sl}
 5f0:	18770002 	ldmdane	r7!, {r1}^
 5f4:	080007c8 	stmdaeq	r0, {r3, r6, r7, r8, r9, sl}
 5f8:	080007ca 	stmdaeq	r0, {r1, r3, r6, r7, r8, r9, sl}
 5fc:	08770002 	ldmdaeq	r7!, {r1}^
 600:	080007ca 	stmdaeq	r0, {r1, r3, r6, r7, r8, r9, sl}
 604:	080007e8 	stmdaeq	r0, {r3, r5, r6, r7, r8, r9, sl}
 608:	087d0002 	ldmdaeq	sp!, {r1}^
	...
 614:	08000544 	stmdaeq	r0, {r2, r6, r8, sl}
 618:	08000546 	stmdaeq	r0, {r1, r2, r6, r8, sl}
 61c:	007d0002 	rsbseq	r0, sp, r2
 620:	08000546 	stmdaeq	r0, {r1, r2, r6, r8, sl}
 624:	08000548 	stmdaeq	r0, {r3, r6, r8, sl}
 628:	047d0002 	ldrbteq	r0, [sp], #-2
 62c:	08000548 	stmdaeq	r0, {r3, r6, r8, sl}
 630:	0800054a 	stmdaeq	r0, {r1, r3, r6, r8, sl}
 634:	107d0002 	rsbsne	r0, sp, r2
 638:	0800054a 	stmdaeq	r0, {r1, r3, r6, r8, sl}
 63c:	08000602 	stmdaeq	r0, {r1, r9, sl}
 640:	10770002 	rsbsne	r0, r7, r2
 644:	08000602 	stmdaeq	r0, {r1, r9, sl}
 648:	08000604 	stmdaeq	r0, {r2, r9, sl}
 64c:	04770002 	ldrbteq	r0, [r7], #-2
 650:	08000604 	stmdaeq	r0, {r2, r9, sl}
 654:	08000606 	stmdaeq	r0, {r1, r2, r9, sl}
 658:	047d0002 	ldrbteq	r0, [sp], #-2
 65c:	08000606 	stmdaeq	r0, {r1, r2, r9, sl}
 660:	08000610 	stmdaeq	r0, {r4, r9, sl}
 664:	007d0002 	rsbseq	r0, sp, r2
	...
 670:	08000478 	stmdaeq	r0, {r3, r4, r5, r6, sl}
 674:	0800047a 	stmdaeq	r0, {r1, r3, r4, r5, r6, sl}
 678:	007d0002 	rsbseq	r0, sp, r2
 67c:	0800047a 	stmdaeq	r0, {r1, r3, r4, r5, r6, sl}
 680:	0800047c 	stmdaeq	r0, {r2, r3, r4, r5, r6, sl}
 684:	047d0002 	ldrbteq	r0, [sp], #-2
 688:	0800047c 	stmdaeq	r0, {r2, r3, r4, r5, r6, sl}
 68c:	0800047e 	stmdaeq	r0, {r1, r2, r3, r4, r5, r6, sl}
 690:	107d0002 	rsbsne	r0, sp, r2
 694:	0800047e 	stmdaeq	r0, {r1, r2, r3, r4, r5, r6, sl}
 698:	08000536 	stmdaeq	r0, {r1, r2, r4, r5, r8, sl}
 69c:	10770002 	rsbsne	r0, r7, r2
 6a0:	08000536 	stmdaeq	r0, {r1, r2, r4, r5, r8, sl}
 6a4:	08000538 	stmdaeq	r0, {r3, r4, r5, r8, sl}
 6a8:	04770002 	ldrbteq	r0, [r7], #-2
 6ac:	08000538 	stmdaeq	r0, {r3, r4, r5, r8, sl}
 6b0:	0800053a 	stmdaeq	r0, {r1, r3, r4, r5, r8, sl}
 6b4:	047d0002 	ldrbteq	r0, [sp], #-2
 6b8:	0800053a 	stmdaeq	r0, {r1, r3, r4, r5, r8, sl}
 6bc:	08000544 	stmdaeq	r0, {r2, r6, r8, sl}
 6c0:	007d0002 	rsbseq	r0, sp, r2
	...

Disassembly of section .debug_aranges:

00000000 <.debug_aranges>:
   0:	00000024 	andeq	r0, r0, r4, lsr #32
   4:	00000002 	andeq	r0, r0, r2
   8:	00040000 	andeq	r0, r4, r0
   c:	00000000 	andeq	r0, r0, r0
  10:	08000170 	stmdaeq	r0, {r4, r5, r6, r8}
  14:	00000024 	andeq	r0, r0, r4, lsr #32
  18:	08000194 	stmdaeq	r0, {r2, r4, r7, r8}
  1c:	000000cc 	andeq	r0, r0, ip, asr #1
	...
  28:	00000024 	andeq	r0, r0, r4, lsr #32
  2c:	0c270002 	stceq	0, cr0, [r7], #-8
  30:	00040000 	andeq	r0, r4, r0
  34:	00000000 	andeq	r0, r0, r0
  38:	08000260 	stmdaeq	r0, {r5, r6, r9}
  3c:	00000050 	andeq	r0, r0, r0, asr r0
  40:	080002b0 	stmdaeq	r0, {r4, r5, r7, r9}
  44:	00000002 	andeq	r0, r0, r2
	...
  50:	0000005c 	andeq	r0, r0, ip, asr r0
  54:	0c490002 	mcrreq	0, 0, r0, r9, cr2
  58:	00040000 	andeq	r0, r4, r0
  5c:	00000000 	andeq	r0, r0, r0
  60:	080002b2 	stmdaeq	r0, {r1, r4, r5, r7, r9}
  64:	000000c6 	andeq	r0, r0, r6, asr #1
  68:	08000378 	stmdaeq	r0, {r3, r4, r5, r6, r8, r9}
  6c:	000000fe 	strdeq	r0, [r0], -lr
  70:	00000000 	andeq	r0, r0, r0
  74:	000000d4 	ldrdeq	r0, [r0], -r4
  78:	00000000 	andeq	r0, r0, r0
  7c:	0000002e 	andeq	r0, r0, lr, lsr #32
  80:	00000000 	andeq	r0, r0, r0
  84:	0000001a 	andeq	r0, r0, sl, lsl r0
  88:	00000000 	andeq	r0, r0, r0
  8c:	0000002e 	andeq	r0, r0, lr, lsr #32
  90:	00000000 	andeq	r0, r0, r0
  94:	0000001c 	andeq	r0, r0, ip, lsl r0
  98:	00000000 	andeq	r0, r0, r0
  9c:	00000022 	andeq	r0, r0, r2, lsr #32
  a0:	00000000 	andeq	r0, r0, r0
  a4:	0000004e 	andeq	r0, r0, lr, asr #32
	...
  b0:	0000007c 	andeq	r0, r0, ip, ror r0
  b4:	19a20002 	stmibne	r2!, {r1}
  b8:	00040000 	andeq	r0, r4, r0
  bc:	00000000 	andeq	r0, r0, r0
  c0:	08000478 	stmdaeq	r0, {r3, r4, r5, r6, sl}
  c4:	000000cc 	andeq	r0, r0, ip, asr #1
  c8:	08000544 	stmdaeq	r0, {r2, r6, r8, sl}
  cc:	000000cc 	andeq	r0, r0, ip, asr #1
  d0:	08000610 	stmdaeq	r0, {r4, r9, sl}
  d4:	000001d8 	ldrdeq	r0, [r0], -r8
  d8:	080007e8 	stmdaeq	r0, {r3, r5, r6, r7, r8, r9, sl}
  dc:	00000016 	andeq	r0, r0, r6, lsl r0
  e0:	00000000 	andeq	r0, r0, r0
  e4:	00000094 	muleq	r0, r4, r0
  e8:	00000000 	andeq	r0, r0, r0
  ec:	00000016 	andeq	r0, r0, r6, lsl r0
  f0:	08000800 	stmdaeq	r0, {fp}
  f4:	00000024 	andeq	r0, r0, r4, lsr #32
  f8:	08000824 	stmdaeq	r0, {r2, r5, fp}
  fc:	00000024 	andeq	r0, r0, r4, lsr #32
 100:	08000848 	stmdaeq	r0, {r3, r6, fp}
 104:	00000024 	andeq	r0, r0, r4, lsr #32
 108:	0800086c 	stmdaeq	r0, {r2, r3, r5, r6, fp}
 10c:	00000024 	andeq	r0, r0, r4, lsr #32
 110:	08000890 	stmdaeq	r0, {r4, r7, fp}
 114:	00000024 	andeq	r0, r0, r4, lsr #32
 118:	080008b4 	stmdaeq	r0, {r2, r4, r5, r7, fp}
 11c:	000000a8 	andeq	r0, r0, r8, lsr #1
 120:	0800095c 	stmdaeq	r0, {r2, r3, r4, r6, r8, fp}
 124:	000000c4 	andeq	r0, r0, r4, asr #1
	...

Disassembly of section .debug_ranges:

00000000 <.debug_ranges>:
   0:	08000170 	stmdaeq	r0, {r4, r5, r6, r8}
   4:	08000194 	stmdaeq	r0, {r2, r4, r7, r8}
   8:	08000194 	stmdaeq	r0, {r2, r4, r7, r8}
   c:	08000260 	stmdaeq	r0, {r5, r6, r9}
	...
  18:	ffffffff 			; <UNDEFINED> instruction: 0xffffffff
  1c:	00000000 	andeq	r0, r0, r0
  20:	08000260 	stmdaeq	r0, {r5, r6, r9}
  24:	080002b0 	stmdaeq	r0, {r4, r5, r7, r9}
  28:	080002b0 	stmdaeq	r0, {r4, r5, r7, r9}
  2c:	080002b2 	stmdaeq	r0, {r1, r4, r5, r7, r9}
	...
  38:	080002b2 	stmdaeq	r0, {r1, r4, r5, r7, r9}
  3c:	08000378 	stmdaeq	r0, {r3, r4, r5, r6, r8, r9}
  40:	08000378 	stmdaeq	r0, {r3, r4, r5, r6, r8, r9}
  44:	08000476 	stmdaeq	r0, {r1, r2, r4, r5, r6, sl}
  48:	00000001 	andeq	r0, r0, r1
  4c:	00000001 	andeq	r0, r0, r1
  50:	00000001 	andeq	r0, r0, r1
  54:	00000001 	andeq	r0, r0, r1
  58:	00000001 	andeq	r0, r0, r1
  5c:	00000001 	andeq	r0, r0, r1
  60:	00000001 	andeq	r0, r0, r1
  64:	00000001 	andeq	r0, r0, r1
  68:	00000001 	andeq	r0, r0, r1
  6c:	00000001 	andeq	r0, r0, r1
  70:	00000001 	andeq	r0, r0, r1
  74:	00000001 	andeq	r0, r0, r1
  78:	00000001 	andeq	r0, r0, r1
  7c:	00000001 	andeq	r0, r0, r1
	...
  88:	08000478 	stmdaeq	r0, {r3, r4, r5, r6, sl}
  8c:	08000544 	stmdaeq	r0, {r2, r6, r8, sl}
  90:	08000544 	stmdaeq	r0, {r2, r6, r8, sl}
  94:	08000610 	stmdaeq	r0, {r4, r9, sl}
  98:	08000610 	stmdaeq	r0, {r4, r9, sl}
  9c:	080007e8 	stmdaeq	r0, {r3, r5, r6, r7, r8, r9, sl}
  a0:	080007e8 	stmdaeq	r0, {r3, r5, r6, r7, r8, r9, sl}
  a4:	080007fe 	stmdaeq	r0, {r1, r2, r3, r4, r5, r6, r7, r8, r9, sl}
  a8:	00000001 	andeq	r0, r0, r1
  ac:	00000001 	andeq	r0, r0, r1
  b0:	00000001 	andeq	r0, r0, r1
  b4:	00000001 	andeq	r0, r0, r1
  b8:	08000800 	stmdaeq	r0, {fp}
  bc:	08000824 	stmdaeq	r0, {r2, r5, fp}
  c0:	08000824 	stmdaeq	r0, {r2, r5, fp}
  c4:	08000848 	stmdaeq	r0, {r3, r6, fp}
  c8:	08000848 	stmdaeq	r0, {r3, r6, fp}
  cc:	0800086c 	stmdaeq	r0, {r2, r3, r5, r6, fp}
  d0:	0800086c 	stmdaeq	r0, {r2, r3, r5, r6, fp}
  d4:	08000890 	stmdaeq	r0, {r4, r7, fp}
  d8:	08000890 	stmdaeq	r0, {r4, r7, fp}
  dc:	080008b4 	stmdaeq	r0, {r2, r4, r5, r7, fp}
  e0:	080008b4 	stmdaeq	r0, {r2, r4, r5, r7, fp}
  e4:	0800095c 	stmdaeq	r0, {r2, r3, r4, r6, r8, fp}
  e8:	0800095c 	stmdaeq	r0, {r2, r3, r4, r6, r8, fp}
  ec:	08000a20 	stmdaeq	r0, {r5, r9, fp}
	...

Disassembly of section .debug_macro:

00000000 <.debug_macro>:
   0:	00020004 	andeq	r0, r2, r4
   4:	07000000 	streq	r0, [r0, -r0]
   8:	00000000 	andeq	r0, r0, r0
   c:	03010003 	movweq	r0, #4099	; 0x1003
  10:	09050b18 	stmdbeq	r5, {r3, r4, r8, r9, fp}
  14:	00004b8e 	andeq	r4, r0, lr, lsl #23
  18:	05090e03 	streq	r0, [r9, #-3587]	; 0xfffff1fd
  1c:	00011a09 	andeq	r1, r1, r9, lsl #20
  20:	070e0300 	streq	r0, [lr, -r0, lsl #6]
  24:	7a170805 	bvc	5c2040 <_Min_Stack_Size+0x5c1c40>
  28:	0a030000 	beq	c0030 <_Min_Stack_Size+0xbfc30>
  2c:	0000070c 	andeq	r0, r0, ip, lsl #14
  30:	03040000 	movweq	r0, #16384	; 0x4000
  34:	08050d0b 	stmdaeq	r5, {r0, r1, r3, r8, sl, fp}
  38:	00005209 	andeq	r5, r0, r9, lsl #4
  3c:	050e0a03 	streq	r0, [lr, #-2563]	; 0xfffff5fd
  40:	00128508 	andseq	r8, r2, r8, lsl #10
  44:	0f0e0300 	svceq	0x000e0300
  48:	00000007 	andeq	r0, r0, r7
  4c:	00070400 	andeq	r0, r7, r0, lsl #8
  50:	04000000 	streq	r0, [r0], #-0
  54:	05100b03 	ldreq	r0, [r0, #-2819]	; 0xfffff4fd
  58:	00792602 	rsbseq	r2, r9, r2, lsl #12
  5c:	0c040300 	stceq	3, cr0, [r4], {-0}
  60:	11050304 	tstne	r5, r4, lsl #6
  64:	00000007 	andeq	r0, r0, r7
  68:	00070400 	andeq	r0, r7, r0, lsl #8
  6c:	04000000 	streq	r0, [r0], #-0
  70:	00000007 	andeq	r0, r0, r7
  74:	00070400 	andeq	r0, r7, r0, lsl #8
  78:	03000000 	movweq	r0, #0
  7c:	00070510 	andeq	r0, r7, r0, lsl r5
  80:	04000000 	streq	r0, [r0], #-0
  84:	05061203 	streq	r1, [r6, #-515]	; 0xfffffdfd
  88:	00552d0b 	subseq	r2, r5, fp, lsl #26
  8c:	0d0d0300 	stceq	3, cr0, [sp, #-0]
  90:	050e0304 	streq	r0, [lr, #-772]	; 0xfffffcfc
  94:	00000007 	andeq	r0, r0, r7
  98:	0f030400 	svceq	0x00030400
  9c:	a4140504 	ldrge	r0, [r4], #-1284	; 0xfffffafc
  a0:	0300007d 	movweq	r0, #125	; 0x7d
  a4:	06051218 			; <UNDEFINED> instruction: 0x06051218
  a8:	00006ff4 	strdeq	r6, [r0], -r4
  ac:	07020703 	streq	r0, [r2, -r3, lsl #14]
  b0:	00000000 	andeq	r0, r0, r0
  b4:	19030404 	stmdbne	r3, {r2, sl}
  b8:	00000703 	andeq	r0, r0, r3, lsl #14
  bc:	07040000 	streq	r0, [r4, -r0]
  c0:	00000000 	andeq	r0, r0, r0
  c4:	05019f03 	streq	r9, [r1, #-3843]	; 0xfffff0fd
  c8:	00000007 	andeq	r0, r0, r7
  cc:	00070400 	andeq	r0, r7, r0, lsl #8
  d0:	04000000 	streq	r0, [r0], #-0
  d4:	00000007 	andeq	r0, r0, r7
  d8:	13030400 	movwne	r0, #13312	; 0x3400
  dc:	26290513 			; <UNDEFINED> instruction: 0x26290513
  e0:	03000022 	movweq	r0, #34	; 0x22
  e4:	0704052d 	streq	r0, [r4, -sp, lsr #10]
  e8:	00000000 	andeq	r0, r0, r0
  ec:	14140304 	ldrne	r0, [r4], #-772	; 0xfffffcfc
  f0:	25e50205 	strbcs	r0, [r5, #517]!	; 0x205
  f4:	03040000 	movweq	r0, #16384	; 0x4000
  f8:	00071516 	andeq	r1, r7, r6, lsl r5
  fc:	04000000 	streq	r0, [r0], #-0
 100:	00000007 	andeq	r0, r0, r7
 104:	0f030400 	svceq	0x00030400
 108:	17090316 	smladne	r9, r6, r3, r0
 10c:	07b30a05 	ldreq	r0, [r3, r5, lsl #20]!
 110:	0d030000 	stceq	0, cr0, [r3, #-0]
 114:	00000718 	andeq	r0, r0, r8, lsl r7
 118:	03040000 	movweq	r0, #16384	; 0x4000
 11c:	0007080e 	andeq	r0, r7, lr, lsl #16
 120:	04000000 	streq	r0, [r0], #-0
 124:	00000007 	andeq	r0, r0, r7
 128:	0d050400 	cfstrseq	mvf0, [r5, #-0]
 12c:	000007aa 	andeq	r0, r0, sl, lsr #15
 130:	00000704 	andeq	r0, r0, r4, lsl #14
 134:	07040000 	streq	r0, [r4, -r0]
 138:	00000000 	andeq	r0, r0, r0
 13c:	0a190304 	beq	640d54 <_Min_Stack_Size+0x640954>
 140:	1a460905 	bne	118255c <_Min_Stack_Size+0x118215c>
 144:	0f030000 	svceq	0x00030000
 148:	5207040b 	andpl	r0, r7, #184549376	; 0xb000000
 14c:	04000001 	streq	r0, [r0], #-1
 150:	00040004 	andeq	r0, r4, r4
 154:	2a320500 	bcs	c8155c <_Min_Stack_Size+0xc8115c>
 158:	05000032 	streq	r0, [r0, #-50]	; 0xffffffce
 15c:	00528f33 	subseq	r8, r2, r3, lsr pc
 160:	82340500 	eorshi	r0, r4, #0, 10
 164:	0500006b 	streq	r0, [r0, #-107]	; 0xffffff95
 168:	004dbd35 	subeq	fp, sp, r5, lsr sp
 16c:	19360500 	ldmdbne	r6!, {r8, sl}
 170:	0500005e 	streq	r0, [r0, #-94]	; 0xffffffa2
 174:	0032d937 	eorseq	sp, r2, r7, lsr r9
 178:	84380500 	ldrthi	r0, [r8], #-1280	; 0xfffffb00
 17c:	05000053 	streq	r0, [r0, #-83]	; 0xffffffad
 180:	007a5239 	rsbseq	r5, sl, r9, lsr r2
 184:	0f3a0500 	svceq	0x003a0500
 188:	05000088 	streq	r0, [r0, #-136]	; 0xffffff78
 18c:	00194b3b 	andseq	r4, r9, fp, lsr fp
 190:	fb3c0500 	blx	f0159a <_Min_Stack_Size+0xf0119a>
 194:	0500000c 	streq	r0, [r0, #-12]
 198:	0057a73d 	subseq	sl, r7, sp, lsr r7
 19c:	023e0500 	eorseq	r0, lr, #0, 10
 1a0:	0500000e 	streq	r0, [r0, #-14]
 1a4:	0086be3f 	addeq	fp, r6, pc, lsr lr
 1a8:	c2400500 	subgt	r0, r0, #0, 10
 1ac:	0500000f 	streq	r0, [r0, #-15]
 1b0:	005a5941 	subseq	r5, sl, r1, asr #18
 1b4:	e3460500 	movt	r0, #25856	; 0x6500
 1b8:	0500004e 	streq	r0, [r0, #-78]	; 0xffffffb2
 1bc:	00154547 	andseq	r4, r5, r7, asr #10
 1c0:	4c480500 	cfstr64mi	mvdx0, [r8], {-0}
 1c4:	05000026 	streq	r0, [r0, #-38]	; 0xffffffda
 1c8:	00673249 	rsbeq	r3, r7, r9, asr #4
 1cc:	974c0500 	strbls	r0, [ip, -r0, lsl #10]
 1d0:	0500007e 	streq	r0, [r0, #-126]	; 0xffffff82
 1d4:	0077094d 	rsbseq	r0, r7, sp, asr #18
 1d8:	a04e0500 	subge	r0, lr, r0, lsl #10
 1dc:	05000047 	streq	r0, [r0, #-71]	; 0xffffffb9
 1e0:	001e1f4f 	andseq	r1, lr, pc, asr #30
 1e4:	ac530500 	cfldr64ge	mvdx0, [r3], {-0}
 1e8:	0500008c 	streq	r0, [r0, #-140]	; 0xffffff74
 1ec:	001eca54 	andseq	ip, lr, r4, asr sl
 1f0:	4c550500 	cfldr64mi	mvdx0, [r5], {-0}
 1f4:	05000064 	streq	r0, [r0, #-100]	; 0xffffff9c
 1f8:	00149a56 	andseq	r9, r4, r6, asr sl
 1fc:	8f5a0500 	svchi	0x005a0500
 200:	05000028 	streq	r0, [r0, #-40]	; 0xffffffd8
 204:	00180d5b 	andseq	r0, r8, fp, asr sp
 208:	965c0500 	ldrbls	r0, [ip], -r0, lsl #10
 20c:	05000024 	streq	r0, [r0, #-36]	; 0xffffffdc
 210:	0048065d 	subeq	r0, r8, sp, asr r6
 214:	a4610500 	strbtge	r0, [r1], #-1280	; 0xfffffb00
 218:	05000089 	streq	r0, [r0, #-137]	; 0xffffff77
 21c:	0081dc62 	addeq	sp, r1, r2, ror #24
 220:	25630500 	strbcs	r0, [r3, #-1280]!	; 0xfffffb00
 224:	05000052 	streq	r0, [r0, #-82]	; 0xffffffae
 228:	004c4464 	subeq	r4, ip, r4, ror #8
 22c:	7a680500 	bvc	1a01634 <_Min_Stack_Size+0x1a01234>
 230:	05000061 	streq	r0, [r0, #-97]	; 0xffffff9f
 234:	005b6d69 	subseq	r6, fp, r9, ror #26
 238:	2a6a0500 	bcs	1a81640 <_Min_Stack_Size+0x1a81240>
 23c:	05000081 	streq	r0, [r0, #-129]	; 0xffffff7f
 240:	007be96b 	rsbseq	lr, fp, fp, ror #18
 244:	966f0500 	strbtls	r0, [pc], -r0, lsl #10
 248:	0500002d 	streq	r0, [r0, #-45]	; 0xffffffd3
 24c:	0005b170 	andeq	fp, r5, r0, ror r1
 250:	8c710500 	cfldr64hi	mvdx0, [r1], #-0
 254:	05000053 	streq	r0, [r0, #-83]	; 0xffffffad
 258:	00886472 	addeq	r6, r8, r2, ror r4
 25c:	61760500 	cmnvs	r6, r0, lsl #10
 260:	05000076 	streq	r0, [r0, #-118]	; 0xffffff8a
 264:	0033be77 	eorseq	fp, r3, r7, ror lr
 268:	57780500 	ldrbpl	r0, [r8, -r0, lsl #10]!
 26c:	05000049 	streq	r0, [r0, #-73]	; 0xffffffb7
 270:	0024db79 	eoreq	sp, r4, r9, ror fp
 274:	807d0500 	rsbshi	r0, sp, r0, lsl #10
 278:	05000056 	streq	r0, [r0, #-86]	; 0xffffffaa
 27c:	00651e7e 	rsbeq	r1, r5, lr, ror lr
 280:	e27f0500 	rsbs	r0, pc, #0, 10
 284:	0500002e 	streq	r0, [r0, #-46]	; 0xffffffd2
 288:	5cb00180 	ldfpls	f0, [r0], #512	; 0x200
 28c:	84050000 	strhi	r0, [r5], #-0
 290:	007fce01 	rsbseq	ip, pc, r1, lsl #28
 294:	01850500 	orreq	r0, r5, r0, lsl #10
 298:	00000b67 	andeq	r0, r0, r7, ror #22
 29c:	d4018605 	strle	r8, [r1], #-1541	; 0xfffff9fb
 2a0:	05000002 	streq	r0, [r0, #-2]
 2a4:	86de0187 	ldrbhi	r0, [lr], r7, lsl #3
 2a8:	8b050000 	blhi	1402b0 <_Min_Stack_Size+0x13feb0>
 2ac:	00823101 	addeq	r3, r2, r1, lsl #2
 2b0:	018c0500 	orreq	r0, ip, r0, lsl #10
 2b4:	00000d05 	andeq	r0, r0, r5, lsl #26
 2b8:	8d018d05 	stchi	13, cr8, [r1, #-20]	; 0xffffffec
 2bc:	05000004 	streq	r0, [r0, #-4]
 2c0:	49a6018e 	stmibmi	r6!, {r1, r2, r3, r7, r8}
 2c4:	92050000 	andls	r0, r5, #0
 2c8:	00312501 	eorseq	r2, r1, r1, lsl #10
 2cc:	01930500 	orrseq	r0, r3, r0, lsl #10
 2d0:	0000692b 	andeq	r6, r0, fp, lsr #18
 2d4:	98019405 	stmdals	r1, {r0, r2, sl, ip, pc}
 2d8:	0500000e 	streq	r0, [r0, #-14]
 2dc:	259b0195 	ldrcs	r0, [fp, #405]	; 0x195
 2e0:	99050000 	stmdbls	r5, {}	; <UNPREDICTABLE>
 2e4:	00116c01 	andseq	r6, r1, r1, lsl #24
 2e8:	019a0500 	orrseq	r0, sl, r0, lsl #10
 2ec:	000054e3 	andeq	r5, r0, r3, ror #9
 2f0:	ab019b05 	blge	66f0c <_Min_Stack_Size+0x66b0c>
 2f4:	05000060 	streq	r0, [r0, #-96]	; 0xffffffa0
 2f8:	6eb5019c 	mrcvs	1, 5, r0, cr5, cr12, {4}
 2fc:	a0050000 	andge	r0, r5, r0
 300:	00872301 	addeq	r2, r7, r1, lsl #6
 304:	01a10500 			; <UNDEFINED> instruction: 0x01a10500
 308:	00003f1a 	andeq	r3, r0, sl, lsl pc
 30c:	c901a205 	stmdbgt	r1, {r0, r2, r9, sp, pc}
 310:	05000030 	streq	r0, [r0, #-48]	; 0xffffffd0
 314:	8d0301a3 	stfhis	f0, [r3, #-652]	; 0xfffffd74
 318:	a7050000 	strge	r0, [r5, -r0]
 31c:	0057be01 	subseq	fp, r7, r1, lsl #28
 320:	01a80500 			; <UNDEFINED> instruction: 0x01a80500
 324:	0000171b 	andeq	r1, r0, fp, lsl r7
 328:	6b01a905 	blvs	6a744 <_Min_Stack_Size+0x6a344>
 32c:	05000036 	streq	r0, [r0, #-54]	; 0xffffffca
 330:	2f3c01aa 	svccs	0x003c01aa
 334:	ae050000 	cdpge	0, 0, cr0, cr5, cr0, {0}
 338:	00375201 	eorseq	r5, r7, r1, lsl #4
 33c:	01af0500 			; <UNDEFINED> instruction: 0x01af0500
 340:	00000d77 	andeq	r0, r0, r7, ror sp
 344:	b601b005 	strlt	fp, [r1], -r5
 348:	05000011 	streq	r0, [r0, #-17]	; 0xffffffef
 34c:	008501b1 			; <UNDEFINED> instruction: 0x008501b1
 350:	b6050000 	strlt	r0, [r5], -r0
 354:	00291e01 	eoreq	r1, r9, r1, lsl #28
 358:	01b70500 			; <UNDEFINED> instruction: 0x01b70500
 35c:	00001ea3 	andeq	r1, r0, r3, lsr #29
 360:	cf01b805 	svcgt	0x0001b805
 364:	0500006a 	streq	r0, [r0, #-106]	; 0xffffff96
 368:	15d201bc 	ldrbne	r0, [r2, #444]	; 0x1bc
 36c:	bd050000 	stclt	0, cr0, [r5, #-0]
 370:	0036ce01 	eorseq	ip, r6, r1, lsl #28
 374:	00040000 	andeq	r0, r4, r0
 378:	00062802 	andeq	r2, r6, r2, lsl #16
 37c:	00000700 	andeq	r0, r0, r0, lsl #14
 380:	00030000 	andeq	r0, r3, r0
 384:	0a080301 	beq	200f90 <_Min_Stack_Size+0x200b90>
 388:	4b8e0905 	blmi	fe3827a4 <_estack+0xde37ffa4>
 38c:	0e030000 	cdpeq	0, 0, cr0, cr3, cr0, {0}
 390:	1a090509 	bne	2417bc <_Min_Stack_Size+0x2413bc>
 394:	03000001 	movweq	r0, #1
 398:	0805070e 	stmdaeq	r5, {r1, r2, r3, r8, r9, sl}
 39c:	00007a17 	andeq	r7, r0, r7, lsl sl
 3a0:	070b0a03 	streq	r0, [fp, -r3, lsl #20]
 3a4:	00000000 	andeq	r0, r0, r0
 3a8:	0c0b0304 	stceq	3, cr0, [fp], {4}
 3ac:	52090805 	andpl	r0, r9, #327680	; 0x50000
 3b0:	0a030000 	beq	c03b8 <_Min_Stack_Size+0xbffb8>
 3b4:	8508050d 	strhi	r0, [r8, #-1293]	; 0xfffffaf3
 3b8:	03000012 	movweq	r0, #18
 3bc:	00070e0e 	andeq	r0, r7, lr, lsl #28
 3c0:	04000000 	streq	r0, [r0], #-0
 3c4:	00000007 	andeq	r0, r0, r7
 3c8:	0b030400 	bleq	c13d0 <_Min_Stack_Size+0xc0fd0>
 3cc:	2602050f 	strcs	r0, [r2], -pc, lsl #10
 3d0:	03000079 	movweq	r0, #121	; 0x79
 3d4:	03040b04 	movweq	r0, #19204	; 0x4b04
 3d8:	00071005 	andeq	r1, r7, r5
 3dc:	04000000 	streq	r0, [r0], #-0
 3e0:	00000007 	andeq	r0, r0, r7
 3e4:	00070400 	andeq	r0, r7, r0, lsl #8
 3e8:	04000000 	streq	r0, [r0], #-0
 3ec:	00000007 	andeq	r0, r0, r7
 3f0:	05100300 	ldreq	r0, [r0, #-768]	; 0xfffffd00
 3f4:	00000007 	andeq	r0, r0, r7
 3f8:	12030400 	andne	r0, r3, #0, 8
 3fc:	2d0b0506 	cfstr32cs	mvfx0, [fp, #-24]	; 0xffffffe8
 400:	03000055 	movweq	r0, #85	; 0x55
 404:	03040c0d 	movweq	r0, #19469	; 0x4c0d
 408:	0007050e 	andeq	r0, r7, lr, lsl #10
 40c:	04000000 	streq	r0, [r0], #-0
 410:	05040f03 	streq	r0, [r4, #-3843]	; 0xfffff0fd
 414:	007da414 	rsbseq	sl, sp, r4, lsl r4
 418:	11180300 	tstne	r8, r0, lsl #6
 41c:	6ff40605 	svcvs	0x00f40605
 420:	07030000 	streq	r0, [r3, -r0]
 424:	00000702 	andeq	r0, r0, r2, lsl #14
 428:	04040000 	streq	r0, [r4], #-0
 42c:	07031903 	streq	r1, [r3, -r3, lsl #18]
 430:	00000000 	andeq	r0, r0, r0
 434:	00000704 	andeq	r0, r0, r4, lsl #14
 438:	9f030000 	svcls	0x00030000
 43c:	00070501 	andeq	r0, r7, r1, lsl #10
 440:	04000000 	streq	r0, [r0], #-0
 444:	00000007 	andeq	r0, r0, r7
 448:	00070400 	andeq	r0, r7, r0, lsl #8
 44c:	04000000 	streq	r0, [r0], #-0
 450:	05121303 	ldreq	r1, [r2, #-771]	; 0xfffffcfd
 454:	00222629 	eoreq	r2, r2, r9, lsr #12
 458:	052d0300 	streq	r0, [sp, #-768]!	; 0xfffffd00
 45c:	00000704 	andeq	r0, r0, r4, lsl #14
 460:	03040000 	movweq	r0, #16384	; 0x4000
 464:	02051314 	andeq	r1, r5, #20, 6	; 0x50000000
 468:	000025e5 	andeq	r2, r0, r5, ror #11
 46c:	14160304 	ldrne	r0, [r6], #-772	; 0xfffffcfc
 470:	00000007 	andeq	r0, r0, r7
 474:	00070400 	andeq	r0, r7, r0, lsl #8
 478:	04000000 	streq	r0, [r0], #-0
 47c:	03150f03 	tsteq	r5, #3, 30
 480:	0a051609 	beq	145cac <_Min_Stack_Size+0x1458ac>
 484:	000007b3 			; <UNDEFINED> instruction: 0x000007b3
 488:	07170d03 	ldreq	r0, [r7, -r3, lsl #26]
 48c:	00000000 	andeq	r0, r0, r0
 490:	080e0304 	stmdaeq	lr, {r2, r8, r9}
 494:	00000007 	andeq	r0, r0, r7
 498:	00070400 	andeq	r0, r7, r0, lsl #8
 49c:	04000000 	streq	r0, [r0], #-0
 4a0:	07aa0d05 	streq	r0, [sl, r5, lsl #26]!
 4a4:	07040000 	streq	r0, [r4, -r0]
 4a8:	00000000 	andeq	r0, r0, r0
 4ac:	00000704 	andeq	r0, r0, r4, lsl #14
 4b0:	04040000 	streq	r0, [r4], #-0
 4b4:	02000400 	andeq	r0, r0, #0, 8
 4b8:	00000cc7 	andeq	r0, r0, r7, asr #25
 4bc:	00000007 	andeq	r0, r0, r7
 4c0:	01000300 	mrseq	r0, LR_irq
 4c4:	050b0803 	streq	r0, [fp, #-2051]	; 0xfffff7fd
 4c8:	001a4609 	andseq	r4, sl, r9, lsl #12
 4cc:	090e0300 	stmdbeq	lr, {r8, r9}
 4d0:	011a0905 	tsteq	sl, r5, lsl #18
 4d4:	0e030000 	cdpeq	0, 0, cr0, cr3, cr0, {0}
 4d8:	17080507 	strne	r0, [r8, -r7, lsl #10]
 4dc:	0300007a 	movweq	r0, #122	; 0x7a
 4e0:	00070c0a 	andeq	r0, r7, sl, lsl #24
 4e4:	04000000 	streq	r0, [r0], #-0
 4e8:	050d0b03 	streq	r0, [sp, #-2819]	; 0xfffff4fd
 4ec:	00520908 	subseq	r0, r2, r8, lsl #18
 4f0:	0e0a0300 	cdpeq	3, 0, cr0, cr10, cr0, {0}
 4f4:	12850805 	addne	r0, r5, #327680	; 0x50000
 4f8:	0e030000 	cdpeq	0, 0, cr0, cr3, cr0, {0}
 4fc:	0000070f 	andeq	r0, r0, pc, lsl #14
 500:	07040000 	streq	r0, [r4, -r0]
 504:	00000000 	andeq	r0, r0, r0
 508:	100b0304 	andne	r0, fp, r4, lsl #6
 50c:	79260205 	stmdbvc	r6!, {r0, r2, r9}
 510:	04030000 	streq	r0, [r3], #-0
 514:	0503040c 	streq	r0, [r3, #-1036]	; 0xfffffbf4
 518:	00000711 	andeq	r0, r0, r1, lsl r7
 51c:	07040000 	streq	r0, [r4, -r0]
 520:	00000000 	andeq	r0, r0, r0
 524:	00000704 	andeq	r0, r0, r4, lsl #14
 528:	07040000 	streq	r0, [r4, -r0]
 52c:	00000000 	andeq	r0, r0, r0
 530:	07051003 	streq	r1, [r5, -r3]
 534:	00000000 	andeq	r0, r0, r0
 538:	06120304 	ldreq	r0, [r2], -r4, lsl #6
 53c:	552d0b05 	strpl	r0, [sp, #-2821]!	; 0xfffff4fb
 540:	0d030000 	stceq	0, cr0, [r3, #-0]
 544:	0e03040d 	cdpeq	4, 0, cr0, cr3, cr13, {0}
 548:	00000705 	andeq	r0, r0, r5, lsl #14
 54c:	03040000 	movweq	r0, #16384	; 0x4000
 550:	1405040f 	strne	r0, [r5], #-1039	; 0xfffffbf1
 554:	00007da4 	andeq	r7, r0, r4, lsr #27
 558:	05121803 	ldreq	r1, [r2, #-2051]	; 0xfffff7fd
 55c:	006ff406 	rsbeq	pc, pc, r6, lsl #8
 560:	02070300 	andeq	r0, r7, #0, 6
 564:	00000007 	andeq	r0, r0, r7
 568:	03040400 	movweq	r0, #17408	; 0x4400
 56c:	00070319 	andeq	r0, r7, r9, lsl r3
 570:	04000000 	streq	r0, [r0], #-0
 574:	00000007 	andeq	r0, r0, r7
 578:	019f0300 	orrseq	r0, pc, r0, lsl #6
 57c:	00000705 	andeq	r0, r0, r5, lsl #14
 580:	07040000 	streq	r0, [r4, -r0]
 584:	00000000 	andeq	r0, r0, r0
 588:	00000704 	andeq	r0, r0, r4, lsl #14
 58c:	03040000 	movweq	r0, #16384	; 0x4000
 590:	29051313 	stmdbcs	r5, {r0, r1, r4, r8, r9, ip}
 594:	00002226 	andeq	r2, r0, r6, lsr #4
 598:	04052d03 	streq	r2, [r5], #-3331	; 0xfffff2fd
 59c:	00000007 	andeq	r0, r0, r7
 5a0:	14030400 	strne	r0, [r3], #-1024	; 0xfffffc00
 5a4:	e5020514 	str	r0, [r2, #-1300]	; 0xfffffaec
 5a8:	04000025 	streq	r0, [r0], #-37	; 0xffffffdb
 5ac:	07151603 	ldreq	r1, [r5, -r3, lsl #12]
 5b0:	00000000 	andeq	r0, r0, r0
 5b4:	00000704 	andeq	r0, r0, r4, lsl #14
 5b8:	03040000 	movweq	r0, #16384	; 0x4000
 5bc:	0903160f 	stmdbeq	r3, {r0, r1, r2, r3, r9, sl, ip}
 5c0:	b30a0517 	movwlt	r0, #42263	; 0xa517
 5c4:	03000007 	movweq	r0, #7
 5c8:	0007180d 	andeq	r1, r7, sp, lsl #16
 5cc:	04000000 	streq	r0, [r0], #-0
 5d0:	07080e03 	streq	r0, [r8, -r3, lsl #28]
 5d4:	00000000 	andeq	r0, r0, r0
 5d8:	00000704 	andeq	r0, r0, r4, lsl #14
 5dc:	05040000 	streq	r0, [r4, #-0]
 5e0:	0007aa0d 	andeq	sl, r7, sp, lsl #20
 5e4:	00070400 	andeq	r0, r7, r0, lsl #8
 5e8:	04000000 	streq	r0, [r0], #-0
 5ec:	070a0f03 	streq	r0, [sl, -r3, lsl #30]
 5f0:	00000603 	andeq	r0, r0, r3, lsl #12
 5f4:	01520704 	cmpeq	r2, r4, lsl #14
 5f8:	05040000 	streq	r0, [r4, #-0]
 5fc:	008f8d14 	addeq	r8, pc, r4, lsl sp	; <UNPREDICTABLE>
 600:	04000400 	streq	r0, [r0], #-1024	; 0xfffffc00
 604:	09050000 	stmdbeq	r5, {}	; <UNPREDICTABLE>
 608:	00004b8e 	andeq	r4, r0, lr, lsl #23
 60c:	15f22405 	ldrbne	r2, [r2, #1029]!	; 0x405
 610:	25050000 	strcs	r0, [r5, #-0]
 614:	00000ee2 	andeq	r0, r0, r2, ror #29
 618:	4c892605 	stcmi	6, cr2, [r9], {5}
 61c:	27050000 	strcs	r0, [r5, -r0]
 620:	000025f5 	strdeq	r2, [r0], -r5
 624:	0ab42805 	beq	fed0a640 <_estack+0xded07e40>
 628:	29050000 	stmdbcs	r5, {}	; <UNPREDICTABLE>
 62c:	000065a7 	andeq	r6, r0, r7, lsr #11
 630:	66b82a05 	ldrtvs	r2, [r8], r5, lsl #20
 634:	2b050000 	blcs	14063c <_Min_Stack_Size+0x14023c>
 638:	00006f90 	muleq	r0, r0, pc	; <UNPREDICTABLE>
 63c:	107a2c05 	rsbsne	r2, sl, r5, lsl #24
 640:	2d050000 	stccs	0, cr0, [r5, #-0]
 644:	000043a9 	andeq	r4, r0, r9, lsr #7
 648:	4d742e05 	ldclmi	14, cr2, [r4, #-20]!	; 0xffffffec
 64c:	2f050000 	svccs	0x00050000
 650:	00008817 	andeq	r8, r0, r7, lsl r8
 654:	1e843005 	cdpne	0, 8, cr3, cr4, cr5, {0}
 658:	31050000 	mrscc	r0, (UNDEF: 5)
 65c:	00004b1c 	andeq	r4, r0, ip, lsl fp
 660:	5a633205 	bpl	18cce7c <_Min_Stack_Size+0x18cca7c>
 664:	33050000 	movwcc	r0, #20480	; 0x5000
 668:	0000797b 	andeq	r7, r0, fp, ror r9
 66c:	0adf3405 	beq	ff7cd688 <_estack+0xdf7cae88>
 670:	36050000 	strcc	r0, [r5], -r0
 674:	0000725b 	andeq	r7, r0, fp, asr r2
 678:	20094505 	andcs	r4, r9, r5, lsl #10
 67c:	46050000 	strmi	r0, [r5], -r0
 680:	0000197c 	andeq	r1, r0, ip, ror r9
 684:	31b14705 			; <UNDEFINED> instruction: 0x31b14705
 688:	48050000 	stmdami	r5, {}	; <UNPREDICTABLE>
 68c:	00000fdb 	ldrdeq	r0, [r0], -fp
 690:	71334905 	teqvc	r3, r5, lsl #18
 694:	4a050000 	bmi	14069c <_Min_Stack_Size+0x14029c>
 698:	0000864e 	andeq	r8, r0, lr, asr #12
 69c:	7d684b05 	fstmdbxvc	r8!, {d20-d21}	;@ Deprecated
 6a0:	4c050000 	stcmi	0, cr0, [r5], {-0}
 6a4:	00006140 	andeq	r6, r0, r0, asr #2
 6a8:	80814d05 	addhi	r4, r1, r5, lsl #26
 6ac:	57050000 	strpl	r0, [r5, -r0]
 6b0:	00006021 	andeq	r6, r0, r1, lsr #32
 6b4:	8b015805 	blhi	566d0 <_Min_Stack_Size+0x562d0>
 6b8:	59050000 	stmdbpl	r5, {}	; <UNPREDICTABLE>
 6bc:	00003e4b 	andeq	r3, r0, fp, asr #28
 6c0:	23605d05 	cmncs	r0, #320	; 0x140
 6c4:	5e050000 	cdppl	0, 0, cr0, cr5, cr0, {0}
 6c8:	000084f8 	strdeq	r8, [r0], -r8	; <UNPREDICTABLE>
 6cc:	1b726205 	blne	1c98ee8 <_Min_Stack_Size+0x1c98ae8>
 6d0:	63050000 	movwvs	r0, #20480	; 0x5000
 6d4:	00000f00 	andeq	r0, r0, r0, lsl #30
	...

Disassembly of section .debug_line:

00000000 <.debug_line>:
       0:	000005a0 	andeq	r0, r0, r0, lsr #11
       4:	05610002 	strbeq	r0, [r1, #-2]!
       8:	01020000 	mrseq	r0, (UNDEF: 2)
       c:	000d0efb 	strdeq	r0, [sp], -fp
      10:	01010101 	tsteq	r1, r1, lsl #2
      14:	01000000 	mrseq	r0, (UNDEF: 0)
      18:	2e010000 	cdpcs	0, 0, cr0, cr1, cr0, {0}
      1c:	72532f2e 	subsvc	r2, r3, #46, 30	; 0xb8
      20:	3a630063 	bcc	18c01b4 <_Min_Stack_Size+0x18bfdb4>
      24:	5c74735c 	ldclpl	3, cr7, [r4], #-368	; 0xfffffe90
      28:	336d7473 	cmncc	sp, #1929379840	; 0x73000000
      2c:	62756332 	rsbsvs	r6, r5, #-939524096	; 0xc8000000
      30:	65646965 	strbvs	r6, [r4, #-2405]!	; 0xfffff69b
      34:	342e315f 	strtcc	r3, [lr], #-351	; 0xfffffea1
      38:	735c302e 	cmpvc	ip, #46	; 0x2e
      3c:	32336d74 	eorscc	r6, r3, #116, 26	; 0x1d00
      40:	65627563 	strbvs	r7, [r2, #-1379]!	; 0xfffffa9d
      44:	5c656469 	cfstrdpl	mvd6, [r5], #-420	; 0xfffffe5c
      48:	67756c70 			; <UNDEFINED> instruction: 0x67756c70
      4c:	5c736e69 	ldclpl	14, cr6, [r3], #-420	; 0xfffffe5c
      50:	2e6d6f63 	cdpcs	15, 6, cr6, cr13, cr3, {3}
      54:	732e7473 			; <UNDEFINED> instruction: 0x732e7473
      58:	32336d74 	eorscc	r6, r3, #116, 26	; 0x1d00
      5c:	65627563 	strbvs	r7, [r2, #-1379]!	; 0xfffffa9d
      60:	6564692e 	strbvs	r6, [r4, #-2350]!	; 0xfffff6d2
      64:	75636d2e 	strbvc	r6, [r3, #-3374]!	; 0xfffff2d2
      68:	7478652e 	ldrbtvc	r6, [r8], #-1326	; 0xfffffad2
      6c:	616e7265 	cmnvs	lr, r5, ror #4
      70:	6f6f746c 	svcvs	0x006f746c
      74:	672e736c 	strvs	r7, [lr, -ip, ror #6]!
      78:	742d756e 	strtvc	r7, [sp], #-1390	; 0xfffffa92
      7c:	736c6f6f 	cmnvc	ip, #444	; 0x1bc
      80:	726f662d 	rsbvc	r6, pc, #47185920	; 0x2d00000
      84:	6d74732d 	ldclvs	3, cr7, [r4, #-180]!	; 0xffffff4c
      88:	372e3233 			; <UNDEFINED> instruction: 0x372e3233
      8c:	3130322d 	teqcc	r0, sp, lsr #4
      90:	32712d38 	rsbscc	r2, r1, #56, 26	; 0xe00
      94:	6470752d 	ldrbtvs	r7, [r0], #-1325	; 0xfffffad3
      98:	2e657461 	cdpcs	4, 6, cr7, cr5, cr1, {3}
      9c:	336e6977 	cmncc	lr, #1949696	; 0x1dc000
      a0:	2e315f32 	mrccs	15, 1, r5, cr1, cr2, {1}
      a4:	2e302e34 	mrccs	14, 1, r2, cr0, cr4, {1}
      a8:	30323032 	eorscc	r3, r2, r2, lsr r0
      ac:	38303730 	ldmdacc	r0!, {r4, r5, r8, r9, sl, ip, sp}
      b0:	38303231 	ldmdacc	r0!, {r0, r4, r5, r9, ip, sp}
      b4:	6f6f745c 	svcvs	0x006f745c
      b8:	615c736c 	cmpvs	ip, ip, ror #6
      bc:	6e2d6d72 	mcrvs	13, 1, r6, cr13, cr2, {3}
      c0:	2d656e6f 	stclcs	14, cr6, [r5, #-444]!	; 0xfffffe44
      c4:	69626165 	stmdbvs	r2!, {r0, r2, r5, r6, r8, sp, lr}^
      c8:	636e695c 	cmnvs	lr, #92, 18	; 0x170000
      cc:	6564756c 	strbvs	r7, [r4, #-1388]!	; 0xfffffa94
      d0:	63616d5c 	cmnvs	r1, #92, 26	; 0x1700
      d4:	656e6968 	strbvs	r6, [lr, #-2408]!	; 0xfffff698
      d8:	5c3a6300 	ldcpl	3, cr6, [sl], #-0
      dc:	735c7473 	cmpvc	ip, #1929379840	; 0x73000000
      e0:	32336d74 	eorscc	r6, r3, #116, 26	; 0x1d00
      e4:	65627563 	strbvs	r7, [r2, #-1379]!	; 0xfffffa9d
      e8:	5f656469 	svcpl	0x00656469
      ec:	2e342e31 	mrccs	14, 1, r2, cr4, cr1, {1}
      f0:	74735c30 	ldrbtvc	r5, [r3], #-3120	; 0xfffff3d0
      f4:	6332336d 	teqvs	r2, #-1275068415	; 0xb4000001
      f8:	69656275 	stmdbvs	r5!, {r0, r2, r4, r5, r6, r9, sp, lr}^
      fc:	705c6564 	subsvc	r6, ip, r4, ror #10
     100:	6967756c 	stmdbvs	r7!, {r2, r3, r5, r6, r8, sl, ip, sp, lr}^
     104:	635c736e 	cmpvs	ip, #-1207959551	; 0xb8000001
     108:	732e6d6f 			; <UNDEFINED> instruction: 0x732e6d6f
     10c:	74732e74 	ldrbtvc	r2, [r3], #-3700	; 0xfffff18c
     110:	6332336d 	teqvs	r2, #-1275068415	; 0xb4000001
     114:	2e656275 	mcrcs	2, 3, r6, cr5, cr5, {3}
     118:	2e656469 	cdpcs	4, 6, cr6, cr5, cr9, {3}
     11c:	2e75636d 	cdpcs	3, 7, cr6, cr5, cr13, {3}
     120:	65747865 	ldrbvs	r7, [r4, #-2149]!	; 0xfffff79b
     124:	6c616e72 	stclvs	14, cr6, [r1], #-456	; 0xfffffe38
     128:	6c6f6f74 	stclvs	15, cr6, [pc], #-464	; ffffff60 <_estack+0xdfffd760>
     12c:	6e672e73 	mcrvs	14, 3, r2, cr7, cr3, {3}
     130:	6f742d75 	svcvs	0x00742d75
     134:	2d736c6f 	ldclcs	12, cr6, [r3, #-444]!	; 0xfffffe44
     138:	2d726f66 	ldclcs	15, cr6, [r2, #-408]!	; 0xfffffe68
     13c:	336d7473 	cmncc	sp, #1929379840	; 0x73000000
     140:	2d372e32 	ldccs	14, cr2, [r7, #-200]!	; 0xffffff38
     144:	38313032 	ldmdacc	r1!, {r1, r4, r5, ip, sp}
     148:	2d32712d 	ldfcss	f7, [r2, #-180]!	; 0xffffff4c
     14c:	61647075 	smcvs	18181	; 0x4705
     150:	772e6574 			; <UNDEFINED> instruction: 0x772e6574
     154:	32336e69 	eorscc	r6, r3, #1680	; 0x690
     158:	342e315f 	strtcc	r3, [lr], #-351	; 0xfffffea1
     15c:	322e302e 	eorcc	r3, lr, #46	; 0x2e
     160:	30303230 	eorscc	r3, r0, r0, lsr r2
     164:	31383037 	teqcc	r8, r7, lsr r0
     168:	5c383032 	ldcpl	0, cr3, [r8], #-200	; 0xffffff38
     16c:	6c6f6f74 	stclvs	15, cr6, [pc], #-464	; ffffffa4 <_estack+0xdfffd7a4>
     170:	72615c73 	rsbvc	r5, r1, #29440	; 0x7300
     174:	6f6e2d6d 	svcvs	0x006e2d6d
     178:	652d656e 	strvs	r6, [sp, #-1390]!	; 0xfffffa92
     17c:	5c696261 	sfmpl	f6, 2, [r9], #-388	; 0xfffffe7c
     180:	6c636e69 	stclvs	14, cr6, [r3], #-420	; 0xfffffe5c
     184:	5c656475 	cfstrdpl	mvd6, [r5], #-468	; 0xfffffe2c
     188:	00737973 	rsbseq	r7, r3, r3, ror r9
     18c:	735c3a63 	cmpvc	ip, #405504	; 0x63000
     190:	74735c74 	ldrbtvc	r5, [r3], #-3188	; 0xfffff38c
     194:	6332336d 	teqvs	r2, #-1275068415	; 0xb4000001
     198:	69656275 	stmdbvs	r5!, {r0, r2, r4, r5, r6, r9, sp, lr}^
     19c:	315f6564 	cmpcc	pc, r4, ror #10
     1a0:	302e342e 	eorcc	r3, lr, lr, lsr #8
     1a4:	6d74735c 	ldclvs	3, cr7, [r4, #-368]!	; 0xfffffe90
     1a8:	75633233 	strbvc	r3, [r3, #-563]!	; 0xfffffdcd
     1ac:	64696562 	strbtvs	r6, [r9], #-1378	; 0xfffffa9e
     1b0:	6c705c65 	ldclvs	12, cr5, [r0], #-404	; 0xfffffe6c
     1b4:	6e696775 	mcrvs	7, 3, r6, cr9, cr5, {3}
     1b8:	6f635c73 	svcvs	0x00635c73
     1bc:	74732e6d 	ldrbtvc	r2, [r3], #-3693	; 0xfffff193
     1c0:	6d74732e 	ldclvs	3, cr7, [r4, #-184]!	; 0xffffff48
     1c4:	75633233 	strbvc	r3, [r3, #-563]!	; 0xfffffdcd
     1c8:	692e6562 	stmdbvs	lr!, {r1, r5, r6, r8, sl, sp, lr}
     1cc:	6d2e6564 	cfstr32vs	mvfx6, [lr, #-400]!	; 0xfffffe70
     1d0:	652e7563 	strvs	r7, [lr, #-1379]!	; 0xfffffa9d
     1d4:	72657478 	rsbvc	r7, r5, #120, 8	; 0x78000000
     1d8:	746c616e 	strbtvc	r6, [ip], #-366	; 0xfffffe92
     1dc:	736c6f6f 	cmnvc	ip, #444	; 0x1bc
     1e0:	756e672e 	strbvc	r6, [lr, #-1838]!	; 0xfffff8d2
     1e4:	6f6f742d 	svcvs	0x006f742d
     1e8:	662d736c 	strtvs	r7, [sp], -ip, ror #6
     1ec:	732d726f 			; <UNDEFINED> instruction: 0x732d726f
     1f0:	32336d74 	eorscc	r6, r3, #116, 26	; 0x1d00
     1f4:	322d372e 	eorcc	r3, sp, #12058624	; 0xb80000
     1f8:	2d383130 	ldfcss	f3, [r8, #-192]!	; 0xffffff40
     1fc:	752d3271 	strvc	r3, [sp, #-625]!	; 0xfffffd8f
     200:	74616470 	strbtvc	r6, [r1], #-1136	; 0xfffffb90
     204:	69772e65 	ldmdbvs	r7!, {r0, r2, r5, r6, r9, sl, fp, sp}^
     208:	5f32336e 	svcpl	0x0032336e
     20c:	2e342e31 	mrccs	14, 1, r2, cr4, cr1, {1}
     210:	30322e30 	eorscc	r2, r2, r0, lsr lr
     214:	37303032 			; <UNDEFINED> instruction: 0x37303032
     218:	32313830 	eorscc	r3, r1, #48, 16	; 0x300000
     21c:	745c3830 	ldrbvc	r3, [ip], #-2096	; 0xfffff7d0
     220:	736c6f6f 	cmnvc	ip, #444	; 0x1bc
     224:	62696c5c 	rsbvs	r6, r9, #92, 24	; 0x5c00
     228:	6363675c 	cmnvs	r3, #92, 14	; 0x1700000
     22c:	6d72615c 	ldfvse	f6, [r2, #-368]!	; 0xfffffe90
     230:	6e6f6e2d 	cdpvs	14, 6, cr6, cr15, cr13, {1}
     234:	61652d65 	cmnvs	r5, r5, ror #26
     238:	375c6962 	ldrbcc	r6, [ip, -r2, ror #18]
     23c:	312e332e 			; <UNDEFINED> instruction: 0x312e332e
     240:	636e695c 	cmnvs	lr, #92, 18	; 0x170000
     244:	6564756c 	strbvs	r7, [r4, #-1388]!	; 0xfffffa94
     248:	5c3a6300 	ldcpl	3, cr6, [sl], #-0
     24c:	735c7473 	cmpvc	ip, #1929379840	; 0x73000000
     250:	32336d74 	eorscc	r6, r3, #116, 26	; 0x1d00
     254:	65627563 	strbvs	r7, [r2, #-1379]!	; 0xfffffa9d
     258:	5f656469 	svcpl	0x00656469
     25c:	2e342e31 	mrccs	14, 1, r2, cr4, cr1, {1}
     260:	74735c30 	ldrbtvc	r5, [r3], #-3120	; 0xfffff3d0
     264:	6332336d 	teqvs	r2, #-1275068415	; 0xb4000001
     268:	69656275 	stmdbvs	r5!, {r0, r2, r4, r5, r6, r9, sp, lr}^
     26c:	705c6564 	subsvc	r6, ip, r4, ror #10
     270:	6967756c 	stmdbvs	r7!, {r2, r3, r5, r6, r8, sl, ip, sp, lr}^
     274:	635c736e 	cmpvs	ip, #-1207959551	; 0xb8000001
     278:	732e6d6f 			; <UNDEFINED> instruction: 0x732e6d6f
     27c:	74732e74 	ldrbtvc	r2, [r3], #-3700	; 0xfffff18c
     280:	6332336d 	teqvs	r2, #-1275068415	; 0xb4000001
     284:	2e656275 	mcrcs	2, 3, r6, cr5, cr5, {3}
     288:	2e656469 	cdpcs	4, 6, cr6, cr5, cr9, {3}
     28c:	2e75636d 	cdpcs	3, 7, cr6, cr5, cr13, {3}
     290:	65747865 	ldrbvs	r7, [r4, #-2149]!	; 0xfffff79b
     294:	6c616e72 	stclvs	14, cr6, [r1], #-456	; 0xfffffe38
     298:	6c6f6f74 	stclvs	15, cr6, [pc], #-464	; d0 <_Min_Heap_Size-0x130>
     29c:	6e672e73 	mcrvs	14, 3, r2, cr7, cr3, {3}
     2a0:	6f742d75 	svcvs	0x00742d75
     2a4:	2d736c6f 	ldclcs	12, cr6, [r3, #-444]!	; 0xfffffe44
     2a8:	2d726f66 	ldclcs	15, cr6, [r2, #-408]!	; 0xfffffe68
     2ac:	336d7473 	cmncc	sp, #1929379840	; 0x73000000
     2b0:	2d372e32 	ldccs	14, cr2, [r7, #-200]!	; 0xffffff38
     2b4:	38313032 	ldmdacc	r1!, {r1, r4, r5, ip, sp}
     2b8:	2d32712d 	ldfcss	f7, [r2, #-180]!	; 0xffffff4c
     2bc:	61647075 	smcvs	18181	; 0x4705
     2c0:	772e6574 			; <UNDEFINED> instruction: 0x772e6574
     2c4:	32336e69 	eorscc	r6, r3, #1680	; 0x690
     2c8:	342e315f 	strtcc	r3, [lr], #-351	; 0xfffffea1
     2cc:	322e302e 	eorcc	r3, lr, #46	; 0x2e
     2d0:	30303230 	eorscc	r3, r0, r0, lsr r2
     2d4:	31383037 	teqcc	r8, r7, lsr r0
     2d8:	5c383032 	ldcpl	0, cr3, [r8], #-200	; 0xffffff38
     2dc:	6c6f6f74 	stclvs	15, cr6, [pc], #-464	; 114 <_Min_Heap_Size-0xec>
     2e0:	72615c73 	rsbvc	r5, r1, #29440	; 0x7300
     2e4:	6f6e2d6d 	svcvs	0x006e2d6d
     2e8:	652d656e 	strvs	r6, [sp, #-1390]!	; 0xfffffa92
     2ec:	5c696261 	sfmpl	f6, 2, [r9], #-388	; 0xfffffe7c
     2f0:	6c636e69 	stclvs	14, cr6, [r3], #-420	; 0xfffffe5c
     2f4:	00656475 	rsbeq	r6, r5, r5, ror r4
     2f8:	4d2f3a44 	vstmdbmi	pc!, {s6-s73}
     2fc:	65747361 	ldrbvs	r7, [r4, #-865]!	; 0xfffffc9f
     300:	676e6972 			; <UNDEFINED> instruction: 0x676e6972
     304:	626d4520 	rsbvs	r4, sp, #32, 10	; 0x8000000
     308:	65646465 	strbvs	r6, [r4, #-1125]!	; 0xfffffb9b
     30c:	79532064 	ldmdbvc	r3, {r2, r5, r6, sp}^
     310:	6d657473 	cfstrdvs	mvd7, [r5, #-460]!	; 0xfffffe34
     314:	6e552f73 	mrcvs	15, 2, r2, cr5, cr3, {3}
     318:	31207469 			; <UNDEFINED> instruction: 0x31207469
     31c:	52412034 	subpl	r2, r1, #52	; 0x34
     320:	6e752f4d 	cdpvs	15, 7, cr2, cr5, cr13, {2}
     324:	34317469 	ldrtcc	r7, [r1], #-1129	; 0xfffffb97
     328:	73656c5f 	cmnvc	r5, #24320	; 0x5f00
     32c:	326e6f73 	rsbcc	r6, lr, #460	; 0x1cc
     330:	62616c5f 	rsbvs	r6, r1, #24320	; 0x5f00
     334:	72442f31 	subvc	r2, r4, #49, 30	; 0xc4
     338:	72657669 	rsbvc	r7, r5, #110100480	; 0x6900000
     33c:	74532f73 	ldrbvc	r2, [r3], #-3955	; 0xfffff08d
     340:	5f32336d 	svcpl	0x0032336d
     344:	33303146 	teqcc	r0, #-2147483631	; 0x80000011
     348:	445f3643 	ldrbmi	r3, [pc], #-1603	; 350 <_Min_Heap_Size+0x150>
     34c:	65766972 	ldrbvs	r6, [r6, #-2418]!	; 0xfffff68e
     350:	692f7372 	stmdbvs	pc!, {r1, r4, r5, r6, r8, r9, ip, sp, lr}	; <UNPREDICTABLE>
     354:	6300636e 	movwvs	r6, #878	; 0x36e
     358:	74735c3a 	ldrbtvc	r5, [r3], #-3130	; 0xfffff3c6
     35c:	6d74735c 	ldclvs	3, cr7, [r4, #-368]!	; 0xfffffe90
     360:	75633233 	strbvc	r3, [r3, #-563]!	; 0xfffffdcd
     364:	64696562 	strbtvs	r6, [r9], #-1378	; 0xfffffa9e
     368:	2e315f65 	cdpcs	15, 3, cr5, cr1, cr5, {3}
     36c:	5c302e34 	ldcpl	14, cr2, [r0], #-208	; 0xffffff30
     370:	336d7473 	cmncc	sp, #1929379840	; 0x73000000
     374:	62756332 	rsbsvs	r6, r5, #-939524096	; 0xc8000000
     378:	65646965 	strbvs	r6, [r4, #-2405]!	; 0xfffff69b
     37c:	756c705c 	strbvc	r7, [ip, #-92]!	; 0xffffffa4
     380:	736e6967 	cmnvc	lr, #1687552	; 0x19c000
     384:	6d6f635c 	stclvs	3, cr6, [pc, #-368]!	; 21c <_Min_Heap_Size+0x1c>
     388:	2e74732e 	cdpcs	3, 7, cr7, cr4, cr14, {1}
     38c:	336d7473 	cmncc	sp, #1929379840	; 0x73000000
     390:	62756332 	rsbsvs	r6, r5, #-939524096	; 0xc8000000
     394:	64692e65 	strbtvs	r2, [r9], #-3685	; 0xfffff19b
     398:	636d2e65 	cmnvs	sp, #1616	; 0x650
     39c:	78652e75 	stmdavc	r5!, {r0, r2, r4, r5, r6, r9, sl, fp, sp}^
     3a0:	6e726574 	mrcvs	5, 3, r6, cr2, cr4, {3}
     3a4:	6f746c61 	svcvs	0x00746c61
     3a8:	2e736c6f 	cdpcs	12, 7, cr6, cr3, cr15, {3}
     3ac:	2d756e67 	ldclcs	14, cr6, [r5, #-412]!	; 0xfffffe64
     3b0:	6c6f6f74 	stclvs	15, cr6, [pc], #-464	; 1e8 <_Min_Heap_Size-0x18>
     3b4:	6f662d73 	svcvs	0x00662d73
     3b8:	74732d72 	ldrbtvc	r2, [r3], #-3442	; 0xfffff28e
     3bc:	2e32336d 	cdpcs	3, 3, cr3, cr2, cr13, {3}
     3c0:	30322d37 	eorscc	r2, r2, r7, lsr sp
     3c4:	712d3831 			; <UNDEFINED> instruction: 0x712d3831
     3c8:	70752d32 	rsbsvc	r2, r5, r2, lsr sp
     3cc:	65746164 	ldrbvs	r6, [r4, #-356]!	; 0xfffffe9c
     3d0:	6e69772e 	cdpvs	7, 6, cr7, cr9, cr14, {1}
     3d4:	315f3233 	cmpcc	pc, r3, lsr r2	; <UNPREDICTABLE>
     3d8:	302e342e 	eorcc	r3, lr, lr, lsr #8
     3dc:	3230322e 	eorscc	r3, r0, #-536870910	; 0xe0000002
     3e0:	30373030 	eorscc	r3, r7, r0, lsr r0
     3e4:	30323138 	eorscc	r3, r2, r8, lsr r1
     3e8:	6f745c38 	svcvs	0x00745c38
     3ec:	5c736c6f 	ldclpl	12, cr6, [r3], #-444	; 0xfffffe44
     3f0:	2d6d7261 	sfmcs	f7, 2, [sp, #-388]!	; 0xfffffe7c
     3f4:	656e6f6e 	strbvs	r6, [lr, #-3950]!	; 0xfffff092
     3f8:	6261652d 	rsbvs	r6, r1, #188743680	; 0xb400000
     3fc:	6e695c69 	cdpvs	12, 6, cr5, cr9, cr9, {3}
     400:	64756c63 	ldrbtvs	r6, [r5], #-3171	; 0xfffff39d
     404:	656e5c65 	strbvs	r5, [lr, #-3173]!	; 0xfffff39b
     408:	62696c77 	rsbvs	r6, r9, #30464	; 0x7700
     40c:	6e616e2d 	cdpvs	14, 6, cr6, cr1, cr13, {1}
     410:	6d00006f 	stcvs	0, cr0, [r0, #-444]	; 0xfffffe44
     414:	2e6e6961 	vnmulcs.f16	s13, s28, s3	; <UNPREDICTABLE>
     418:	00010063 	andeq	r0, r1, r3, rrx
     41c:	65645f00 	strbvs	r5, [r4, #-3840]!	; 0xfffff100
     420:	6c756166 	ldfvse	f6, [r5], #-408	; 0xfffffe68
     424:	79745f74 	ldmdbvc	r4!, {r2, r4, r5, r6, r8, r9, sl, fp, ip, lr}^
     428:	2e736570 	mrccs	5, 3, r6, cr3, cr0, {3}
     42c:	00020068 	andeq	r0, r2, r8, rrx
     430:	636f6c00 	cmnvs	pc, #0, 24
     434:	00682e6b 	rsbeq	r2, r8, fp, ror #28
     438:	5f000003 	svcpl	0x00000003
     43c:	65707974 	ldrbvs	r7, [r0, #-2420]!	; 0xfffff68c
     440:	00682e73 	rsbeq	r2, r8, r3, ror lr
     444:	73000003 	movwvc	r0, #3
     448:	65646474 	strbvs	r6, [r4, #-1140]!	; 0xfffffb8c
     44c:	00682e66 	rsbeq	r2, r8, r6, ror #28
     450:	72000004 	andvc	r0, r0, #4
     454:	746e6565 	strbtvc	r6, [lr], #-1381	; 0xfffffa9b
     458:	0300682e 	movweq	r6, #2094	; 0x82e
     45c:	74730000 	ldrbtvc	r0, [r3], #-0
     460:	62696c64 	rsbvs	r6, r9, #100, 24	; 0x6400
     464:	0500682e 	streq	r6, [r0, #-2094]	; 0xfffff7d2
     468:	735f0000 	cmpvc	pc, #0
     46c:	6e696474 	mcrvs	4, 3, r6, cr9, cr4, {3}
     470:	00682e74 	rsbeq	r2, r8, r4, ror lr
     474:	73000003 	movwvc	r0, #3
     478:	32336d74 	eorscc	r6, r3, #116, 26	; 0x1d00
     47c:	33303166 	teqcc	r0, #-2147483623	; 0x80000019
     480:	682e3878 	stmdavs	lr!, {r3, r4, r5, r6, fp, ip, sp}
     484:	00000600 	andeq	r0, r0, r0, lsl #12
     488:	336d7453 	cmncc	sp, #1392508928	; 0x53000000
     48c:	31465f32 	cmpcc	r6, r2, lsr pc
     490:	36433330 			; <UNDEFINED> instruction: 0x36433330
     494:	5458455f 	ldrbpl	r4, [r8], #-1375	; 0xfffffaa1
     498:	72645f49 	rsbvc	r5, r4, #292	; 0x124
     49c:	72657669 	rsbvc	r7, r5, #110100480	; 0x6900000
     4a0:	0600682e 	streq	r6, [r0], -lr, lsr #16
     4a4:	74530000 	ldrbvc	r0, [r3], #-0
     4a8:	5f32336d 	svcpl	0x0032336d
     4ac:	33303146 	teqcc	r0, #-2147483631	; 0x80000011
     4b0:	675f3643 	ldrbvs	r3, [pc, -r3, asr #12]
     4b4:	5f6f6970 	svcpl	0x006f6970
     4b8:	76697264 	strbtvc	r7, [r9], -r4, ror #4
     4bc:	682e7265 	stmdavs	lr!, {r0, r2, r5, r6, r9, ip, sp, lr}
     4c0:	00000600 	andeq	r0, r0, r0, lsl #12
     4c4:	65656569 	strbvs	r6, [r5, #-1385]!	; 0xfffffa97
     4c8:	682e7066 	stmdavs	lr!, {r1, r2, r5, r6, ip, sp, lr}
     4cc:	00000200 	andeq	r0, r0, r0, lsl #4
     4d0:	736e615f 	cmnvc	lr, #-1073741801	; 0xc0000017
     4d4:	00682e69 	rsbeq	r2, r8, r9, ror #28
     4d8:	6e000005 	cdpvs	0, 0, cr0, cr0, cr5, {0}
     4dc:	696c7765 	stmdbvs	ip!, {r0, r2, r5, r6, r8, r9, sl, ip, sp, lr}^
     4e0:	00682e62 	rsbeq	r2, r8, r2, ror #28
     4e4:	5f000007 	svcpl	0x00000007
     4e8:	6c77656e 	cfldr64vs	mvdx6, [r7], #-440	; 0xfffffe48
     4ec:	765f6269 	ldrbvc	r6, [pc], -r9, ror #4
     4f0:	69737265 	ldmdbvs	r3!, {r0, r2, r5, r6, r9, ip, sp, lr}^
     4f4:	682e6e6f 	stmdavs	lr!, {r0, r1, r2, r3, r5, r6, r9, sl, fp, sp, lr}
     4f8:	00000500 	andeq	r0, r0, r0, lsl #10
     4fc:	666e6f63 	strbtvs	r6, [lr], -r3, ror #30
     500:	682e6769 	stmdavs	lr!, {r0, r3, r5, r6, r8, r9, sl, sp, lr}
     504:	00000300 	andeq	r0, r0, r0, lsl #6
     508:	74616566 	strbtvc	r6, [r1], #-1382	; 0xfffffa9a
     50c:	73657275 	cmnvc	r5, #1342177287	; 0x50000007
     510:	0300682e 	movweq	r6, #2094	; 0x82e
     514:	745f0000 	ldrbvc	r0, [pc], #-0	; 51c <_Min_Stack_Size+0x11c>
     518:	73657079 	cmnvc	r5, #121	; 0x79
     51c:	0200682e 	andeq	r6, r0, #3014656	; 0x2e0000
     520:	64630000 	strbtvs	r0, [r3], #-0
     524:	2e736665 	cdpcs	6, 7, cr6, cr3, cr5, {3}
     528:	00030068 	andeq	r0, r3, r8, rrx
     52c:	64747300 	ldrbtvs	r7, [r4], #-768	; 0xfffffd00
     530:	2e62696c 	vnmulcs.f16	s13, s4, s25	; <UNPREDICTABLE>
     534:	00020068 	andeq	r0, r2, r8, rrx
     538:	6c6c6100 	stfvse	f6, [ip], #-0
     53c:	2e61636f 	cdpcs	3, 6, cr6, cr1, cr15, {3}
     540:	00050068 	andeq	r0, r5, r8, rrx
     544:	64747300 	ldrbtvs	r7, [r4], #-768	; 0xfffffd00
     548:	2e746e69 	cdpcs	14, 7, cr6, cr4, cr9, {3}
     54c:	00040068 	andeq	r0, r4, r8, rrx
     550:	64747300 	ldrbtvs	r7, [r4], #-768	; 0xfffffd00
     554:	2e746e69 	cdpcs	14, 7, cr6, cr4, cr9, {3}
     558:	00050068 	andeq	r0, r5, r8, rrx
     55c:	6e695f00 	cdpvs	15, 6, cr5, cr9, cr0, {0}
     560:	70757374 	rsbsvc	r7, r5, r4, ror r3
     564:	0300682e 	movweq	r6, #2094	; 0x82e
     568:	00000000 	andeq	r0, r0, r0
     56c:	01700205 	cmneq	r0, r5, lsl #4
     570:	22030800 	andcs	r0, r3, #0, 16
     574:	4c3e2f01 	ldcmi	15, cr2, [lr], #-4
     578:	01000902 	tsteq	r0, r2, lsl #18
     57c:	02050001 	andeq	r0, r5, #1
     580:	08000194 	stmdaeq	r0, {r2, r4, r7, r8}
     584:	3e012e03 	cdpcc	14, 0, cr2, cr1, cr3, {0}
     588:	59696767 	stmdbpl	r9!, {r0, r1, r2, r5, r6, r8, r9, sl, sp, lr}^
     58c:	4c302f2f 	ldcmi	15, cr2, [r0], #-188	; 0xffffff44
     590:	4f32213f 	svcmi	0x0032213f
     594:	037b7c42 	cmneq	fp, #16896	; 0x4200
     598:	214d740d 	cmpcs	sp, sp, lsl #8
     59c:	023a4c34 	eorseq	r4, sl, #52, 24	; 0x3400
     5a0:	01010012 	tsteq	r1, r2, lsl r0
     5a4:	00000080 	andeq	r0, r0, r0, lsl #1
     5a8:	00390002 	eorseq	r0, r9, r2
     5ac:	01020000 	mrseq	r0, (UNDEF: 2)
     5b0:	000d0efb 	strdeq	r0, [sp], -fp
     5b4:	01010101 	tsteq	r1, r1, lsl #2
     5b8:	01000000 	mrseq	r0, (UNDEF: 0)
     5bc:	2e010000 	cdpcs	0, 0, cr0, cr1, cr0, {0}
     5c0:	74532f2e 	ldrbvc	r2, [r3], #-3886	; 0xfffff0d2
     5c4:	75747261 	ldrbvc	r7, [r4, #-609]!	; 0xfffffd9f
     5c8:	73000070 	movwvc	r0, #112	; 0x70
     5cc:	74726174 	ldrbtvc	r6, [r2], #-372	; 0xfffffe8c
     5d0:	735f7075 	cmpvc	pc, #117	; 0x75
     5d4:	32336d74 	eorscc	r6, r3, #116, 26	; 0x1d00
     5d8:	33303166 	teqcc	r0, #-2147483623	; 0x80000019
     5dc:	78743663 	ldmdavc	r4!, {r0, r1, r5, r6, r9, sl, ip, sp}^
     5e0:	0100732e 	tsteq	r0, lr, lsr #6
     5e4:	00000000 	andeq	r0, r0, r0
     5e8:	02600205 	rsbeq	r0, r0, #1342177280	; 0x50000000
     5ec:	3a030800 	bcc	c25f4 <_Min_Stack_Size+0xc21f4>
     5f0:	31222101 			; <UNDEFINED> instruction: 0x31222101
     5f4:	21212121 			; <UNDEFINED> instruction: 0x21212121
     5f8:	23212123 			; <UNDEFINED> instruction: 0x23212123
     5fc:	21232121 			; <UNDEFINED> instruction: 0x21232121
     600:	21232121 			; <UNDEFINED> instruction: 0x21232121
     604:	30232123 	eorcc	r2, r3, r3, lsr #2
     608:	20560331 	subscs	r0, r6, r1, lsr r3
     60c:	032f2f34 			; <UNDEFINED> instruction: 0x032f2f34
     610:	022f2e0f 	eoreq	r2, pc, #15, 28	; 0xf0
     614:	01010002 	tsteq	r1, r2
     618:	b0020500 	andlt	r0, r2, r0, lsl #10
     61c:	03080002 	movweq	r0, #32770	; 0x8002
     620:	020100f3 	andeq	r0, r1, #243	; 0xf3
     624:	01010001 	tsteq	r1, r1
     628:	0000069b 	muleq	r0, fp, r6
     62c:	056d0002 	strbeq	r0, [sp, #-2]!
     630:	01020000 	mrseq	r0, (UNDEF: 2)
     634:	000d0efb 	strdeq	r0, [sp], -fp
     638:	01010101 	tsteq	r1, r1, lsl #2
     63c:	01000000 	mrseq	r0, (UNDEF: 0)
     640:	2e010000 	cdpcs	0, 0, cr0, cr1, cr0, {0}
     644:	74532f2e 	ldrbvc	r2, [r3], #-3886	; 0xfffff0d2
     648:	5f32336d 	svcpl	0x0032336d
     64c:	33303146 	teqcc	r0, #-2147483631	; 0x80000011
     650:	445f3643 	ldrbmi	r3, [pc], #-1603	; 658 <_Min_Stack_Size+0x258>
     654:	65766972 	ldrbvs	r6, [r6, #-2418]!	; 0xfffff68e
     658:	472f7372 			; <UNDEFINED> instruction: 0x472f7372
     65c:	004f4950 	subeq	r4, pc, r0, asr r9	; <UNPREDICTABLE>
     660:	735c3a63 	cmpvc	ip, #405504	; 0x63000
     664:	74735c74 	ldrbtvc	r5, [r3], #-3188	; 0xfffff38c
     668:	6332336d 	teqvs	r2, #-1275068415	; 0xb4000001
     66c:	69656275 	stmdbvs	r5!, {r0, r2, r4, r5, r6, r9, sp, lr}^
     670:	315f6564 	cmpcc	pc, r4, ror #10
     674:	302e342e 	eorcc	r3, lr, lr, lsr #8
     678:	6d74735c 	ldclvs	3, cr7, [r4, #-368]!	; 0xfffffe90
     67c:	75633233 	strbvc	r3, [r3, #-563]!	; 0xfffffdcd
     680:	64696562 	strbtvs	r6, [r9], #-1378	; 0xfffffa9e
     684:	6c705c65 	ldclvs	12, cr5, [r0], #-404	; 0xfffffe6c
     688:	6e696775 	mcrvs	7, 3, r6, cr9, cr5, {3}
     68c:	6f635c73 	svcvs	0x00635c73
     690:	74732e6d 	ldrbtvc	r2, [r3], #-3693	; 0xfffff193
     694:	6d74732e 	ldclvs	3, cr7, [r4, #-184]!	; 0xffffff48
     698:	75633233 	strbvc	r3, [r3, #-563]!	; 0xfffffdcd
     69c:	692e6562 	stmdbvs	lr!, {r1, r5, r6, r8, sl, sp, lr}
     6a0:	6d2e6564 	cfstr32vs	mvfx6, [lr, #-400]!	; 0xfffffe70
     6a4:	652e7563 	strvs	r7, [lr, #-1379]!	; 0xfffffa9d
     6a8:	72657478 	rsbvc	r7, r5, #120, 8	; 0x78000000
     6ac:	746c616e 	strbtvc	r6, [ip], #-366	; 0xfffffe92
     6b0:	736c6f6f 	cmnvc	ip, #444	; 0x1bc
     6b4:	756e672e 	strbvc	r6, [lr, #-1838]!	; 0xfffff8d2
     6b8:	6f6f742d 	svcvs	0x006f742d
     6bc:	662d736c 	strtvs	r7, [sp], -ip, ror #6
     6c0:	732d726f 			; <UNDEFINED> instruction: 0x732d726f
     6c4:	32336d74 	eorscc	r6, r3, #116, 26	; 0x1d00
     6c8:	322d372e 	eorcc	r3, sp, #12058624	; 0xb80000
     6cc:	2d383130 	ldfcss	f3, [r8, #-192]!	; 0xffffff40
     6d0:	752d3271 	strvc	r3, [sp, #-625]!	; 0xfffffd8f
     6d4:	74616470 	strbtvc	r6, [r1], #-1136	; 0xfffffb90
     6d8:	69772e65 	ldmdbvs	r7!, {r0, r2, r5, r6, r9, sl, fp, sp}^
     6dc:	5f32336e 	svcpl	0x0032336e
     6e0:	2e342e31 	mrccs	14, 1, r2, cr4, cr1, {1}
     6e4:	30322e30 	eorscc	r2, r2, r0, lsr lr
     6e8:	37303032 			; <UNDEFINED> instruction: 0x37303032
     6ec:	32313830 	eorscc	r3, r1, #48, 16	; 0x300000
     6f0:	745c3830 	ldrbvc	r3, [ip], #-2096	; 0xfffff7d0
     6f4:	736c6f6f 	cmnvc	ip, #444	; 0x1bc
     6f8:	6d72615c 	ldfvse	f6, [r2, #-368]!	; 0xfffffe90
     6fc:	6e6f6e2d 	cdpvs	14, 6, cr6, cr15, cr13, {1}
     700:	61652d65 	cmnvs	r5, r5, ror #26
     704:	695c6962 	ldmdbvs	ip, {r1, r5, r6, r8, fp, sp, lr}^
     708:	756c636e 	strbvc	r6, [ip, #-878]!	; 0xfffffc92
     70c:	6d5c6564 	cfldr64vs	mvdx6, [ip, #-400]	; 0xfffffe70
     710:	69686361 	stmdbvs	r8!, {r0, r5, r6, r8, r9, sp, lr}^
     714:	6300656e 	movwvs	r6, #1390	; 0x56e
     718:	74735c3a 	ldrbtvc	r5, [r3], #-3130	; 0xfffff3c6
     71c:	6d74735c 	ldclvs	3, cr7, [r4, #-368]!	; 0xfffffe90
     720:	75633233 	strbvc	r3, [r3, #-563]!	; 0xfffffdcd
     724:	64696562 	strbtvs	r6, [r9], #-1378	; 0xfffffa9e
     728:	2e315f65 	cdpcs	15, 3, cr5, cr1, cr5, {3}
     72c:	5c302e34 	ldcpl	14, cr2, [r0], #-208	; 0xffffff30
     730:	336d7473 	cmncc	sp, #1929379840	; 0x73000000
     734:	62756332 	rsbsvs	r6, r5, #-939524096	; 0xc8000000
     738:	65646965 	strbvs	r6, [r4, #-2405]!	; 0xfffff69b
     73c:	756c705c 	strbvc	r7, [ip, #-92]!	; 0xffffffa4
     740:	736e6967 	cmnvc	lr, #1687552	; 0x19c000
     744:	6d6f635c 	stclvs	3, cr6, [pc, #-368]!	; 5dc <_Min_Stack_Size+0x1dc>
     748:	2e74732e 	cdpcs	3, 7, cr7, cr4, cr14, {1}
     74c:	336d7473 	cmncc	sp, #1929379840	; 0x73000000
     750:	62756332 	rsbsvs	r6, r5, #-939524096	; 0xc8000000
     754:	64692e65 	strbtvs	r2, [r9], #-3685	; 0xfffff19b
     758:	636d2e65 	cmnvs	sp, #1616	; 0x650
     75c:	78652e75 	stmdavc	r5!, {r0, r2, r4, r5, r6, r9, sl, fp, sp}^
     760:	6e726574 	mrcvs	5, 3, r6, cr2, cr4, {3}
     764:	6f746c61 	svcvs	0x00746c61
     768:	2e736c6f 	cdpcs	12, 7, cr6, cr3, cr15, {3}
     76c:	2d756e67 	ldclcs	14, cr6, [r5, #-412]!	; 0xfffffe64
     770:	6c6f6f74 	stclvs	15, cr6, [pc], #-464	; 5a8 <_Min_Stack_Size+0x1a8>
     774:	6f662d73 	svcvs	0x00662d73
     778:	74732d72 	ldrbtvc	r2, [r3], #-3442	; 0xfffff28e
     77c:	2e32336d 	cdpcs	3, 3, cr3, cr2, cr13, {3}
     780:	30322d37 	eorscc	r2, r2, r7, lsr sp
     784:	712d3831 			; <UNDEFINED> instruction: 0x712d3831
     788:	70752d32 	rsbsvc	r2, r5, r2, lsr sp
     78c:	65746164 	ldrbvs	r6, [r4, #-356]!	; 0xfffffe9c
     790:	6e69772e 	cdpvs	7, 6, cr7, cr9, cr14, {1}
     794:	315f3233 	cmpcc	pc, r3, lsr r2	; <UNPREDICTABLE>
     798:	302e342e 	eorcc	r3, lr, lr, lsr #8
     79c:	3230322e 	eorscc	r3, r0, #-536870910	; 0xe0000002
     7a0:	30373030 	eorscc	r3, r7, r0, lsr r0
     7a4:	30323138 	eorscc	r3, r2, r8, lsr r1
     7a8:	6f745c38 	svcvs	0x00745c38
     7ac:	5c736c6f 	ldclpl	12, cr6, [r3], #-444	; 0xfffffe44
     7b0:	2d6d7261 	sfmcs	f7, 2, [sp, #-388]!	; 0xfffffe7c
     7b4:	656e6f6e 	strbvs	r6, [lr, #-3950]!	; 0xfffff092
     7b8:	6261652d 	rsbvs	r6, r1, #188743680	; 0xb400000
     7bc:	6e695c69 	cdpvs	12, 6, cr5, cr9, cr9, {3}
     7c0:	64756c63 	ldrbtvs	r6, [r5], #-3171	; 0xfffff39d
     7c4:	79735c65 	ldmdbvc	r3!, {r0, r2, r5, r6, sl, fp, ip, lr}^
     7c8:	3a630073 	bcc	18c099c <_Min_Stack_Size+0x18c059c>
     7cc:	5c74735c 	ldclpl	3, cr7, [r4], #-368	; 0xfffffe90
     7d0:	336d7473 	cmncc	sp, #1929379840	; 0x73000000
     7d4:	62756332 	rsbsvs	r6, r5, #-939524096	; 0xc8000000
     7d8:	65646965 	strbvs	r6, [r4, #-2405]!	; 0xfffff69b
     7dc:	342e315f 	strtcc	r3, [lr], #-351	; 0xfffffea1
     7e0:	735c302e 	cmpvc	ip, #46	; 0x2e
     7e4:	32336d74 	eorscc	r6, r3, #116, 26	; 0x1d00
     7e8:	65627563 	strbvs	r7, [r2, #-1379]!	; 0xfffffa9d
     7ec:	5c656469 	cfstrdpl	mvd6, [r5], #-420	; 0xfffffe5c
     7f0:	67756c70 			; <UNDEFINED> instruction: 0x67756c70
     7f4:	5c736e69 	ldclpl	14, cr6, [r3], #-420	; 0xfffffe5c
     7f8:	2e6d6f63 	cdpcs	15, 6, cr6, cr13, cr3, {3}
     7fc:	732e7473 			; <UNDEFINED> instruction: 0x732e7473
     800:	32336d74 	eorscc	r6, r3, #116, 26	; 0x1d00
     804:	65627563 	strbvs	r7, [r2, #-1379]!	; 0xfffffa9d
     808:	6564692e 	strbvs	r6, [r4, #-2350]!	; 0xfffff6d2
     80c:	75636d2e 	strbvc	r6, [r3, #-3374]!	; 0xfffff2d2
     810:	7478652e 	ldrbtvc	r6, [r8], #-1326	; 0xfffffad2
     814:	616e7265 	cmnvs	lr, r5, ror #4
     818:	6f6f746c 	svcvs	0x006f746c
     81c:	672e736c 	strvs	r7, [lr, -ip, ror #6]!
     820:	742d756e 	strtvc	r7, [sp], #-1390	; 0xfffffa92
     824:	736c6f6f 	cmnvc	ip, #444	; 0x1bc
     828:	726f662d 	rsbvc	r6, pc, #47185920	; 0x2d00000
     82c:	6d74732d 	ldclvs	3, cr7, [r4, #-180]!	; 0xffffff4c
     830:	372e3233 			; <UNDEFINED> instruction: 0x372e3233
     834:	3130322d 	teqcc	r0, sp, lsr #4
     838:	32712d38 	rsbscc	r2, r1, #56, 26	; 0xe00
     83c:	6470752d 	ldrbtvs	r7, [r0], #-1325	; 0xfffffad3
     840:	2e657461 	cdpcs	4, 6, cr7, cr5, cr1, {3}
     844:	336e6977 	cmncc	lr, #1949696	; 0x1dc000
     848:	2e315f32 	mrccs	15, 1, r5, cr1, cr2, {1}
     84c:	2e302e34 	mrccs	14, 1, r2, cr0, cr4, {1}
     850:	30323032 	eorscc	r3, r2, r2, lsr r0
     854:	38303730 	ldmdacc	r0!, {r4, r5, r8, r9, sl, ip, sp}
     858:	38303231 	ldmdacc	r0!, {r0, r4, r5, r9, ip, sp}
     85c:	6f6f745c 	svcvs	0x006f745c
     860:	6c5c736c 	mrrcvs	3, 6, r7, ip, cr12
     864:	675c6269 	ldrbvs	r6, [ip, -r9, ror #4]
     868:	615c6363 	cmpvs	ip, r3, ror #6
     86c:	6e2d6d72 	mcrvs	13, 1, r6, cr13, cr2, {3}
     870:	2d656e6f 	stclcs	14, cr6, [r5, #-444]!	; 0xfffffe44
     874:	69626165 	stmdbvs	r2!, {r0, r2, r5, r6, r8, sp, lr}^
     878:	332e375c 			; <UNDEFINED> instruction: 0x332e375c
     87c:	695c312e 	ldmdbvs	ip, {r1, r2, r3, r5, r8, ip, sp}^
     880:	756c636e 	strbvc	r6, [ip, #-878]!	; 0xfffffc92
     884:	63006564 	movwvs	r6, #1380	; 0x564
     888:	74735c3a 	ldrbtvc	r5, [r3], #-3130	; 0xfffff3c6
     88c:	6d74735c 	ldclvs	3, cr7, [r4, #-368]!	; 0xfffffe90
     890:	75633233 	strbvc	r3, [r3, #-563]!	; 0xfffffdcd
     894:	64696562 	strbtvs	r6, [r9], #-1378	; 0xfffffa9e
     898:	2e315f65 	cdpcs	15, 3, cr5, cr1, cr5, {3}
     89c:	5c302e34 	ldcpl	14, cr2, [r0], #-208	; 0xffffff30
     8a0:	336d7473 	cmncc	sp, #1929379840	; 0x73000000
     8a4:	62756332 	rsbsvs	r6, r5, #-939524096	; 0xc8000000
     8a8:	65646965 	strbvs	r6, [r4, #-2405]!	; 0xfffff69b
     8ac:	756c705c 	strbvc	r7, [ip, #-92]!	; 0xffffffa4
     8b0:	736e6967 	cmnvc	lr, #1687552	; 0x19c000
     8b4:	6d6f635c 	stclvs	3, cr6, [pc, #-368]!	; 74c <_Min_Stack_Size+0x34c>
     8b8:	2e74732e 	cdpcs	3, 7, cr7, cr4, cr14, {1}
     8bc:	336d7473 	cmncc	sp, #1929379840	; 0x73000000
     8c0:	62756332 	rsbsvs	r6, r5, #-939524096	; 0xc8000000
     8c4:	64692e65 	strbtvs	r2, [r9], #-3685	; 0xfffff19b
     8c8:	636d2e65 	cmnvs	sp, #1616	; 0x650
     8cc:	78652e75 	stmdavc	r5!, {r0, r2, r4, r5, r6, r9, sl, fp, sp}^
     8d0:	6e726574 	mrcvs	5, 3, r6, cr2, cr4, {3}
     8d4:	6f746c61 	svcvs	0x00746c61
     8d8:	2e736c6f 	cdpcs	12, 7, cr6, cr3, cr15, {3}
     8dc:	2d756e67 	ldclcs	14, cr6, [r5, #-412]!	; 0xfffffe64
     8e0:	6c6f6f74 	stclvs	15, cr6, [pc], #-464	; 718 <_Min_Stack_Size+0x318>
     8e4:	6f662d73 	svcvs	0x00662d73
     8e8:	74732d72 	ldrbtvc	r2, [r3], #-3442	; 0xfffff28e
     8ec:	2e32336d 	cdpcs	3, 3, cr3, cr2, cr13, {3}
     8f0:	30322d37 	eorscc	r2, r2, r7, lsr sp
     8f4:	712d3831 			; <UNDEFINED> instruction: 0x712d3831
     8f8:	70752d32 	rsbsvc	r2, r5, r2, lsr sp
     8fc:	65746164 	ldrbvs	r6, [r4, #-356]!	; 0xfffffe9c
     900:	6e69772e 	cdpvs	7, 6, cr7, cr9, cr14, {1}
     904:	315f3233 	cmpcc	pc, r3, lsr r2	; <UNPREDICTABLE>
     908:	302e342e 	eorcc	r3, lr, lr, lsr #8
     90c:	3230322e 	eorscc	r3, r0, #-536870910	; 0xe0000002
     910:	30373030 	eorscc	r3, r7, r0, lsr r0
     914:	30323138 	eorscc	r3, r2, r8, lsr r1
     918:	6f745c38 	svcvs	0x00745c38
     91c:	5c736c6f 	ldclpl	12, cr6, [r3], #-444	; 0xfffffe44
     920:	2d6d7261 	sfmcs	f7, 2, [sp, #-388]!	; 0xfffffe7c
     924:	656e6f6e 	strbvs	r6, [lr, #-3950]!	; 0xfffff092
     928:	6261652d 	rsbvs	r6, r1, #188743680	; 0xb400000
     92c:	6e695c69 	cdpvs	12, 6, cr5, cr9, cr9, {3}
     930:	64756c63 	ldrbtvs	r6, [r5], #-3171	; 0xfffff39d
     934:	3a440065 	bcc	1100ad0 <_Min_Stack_Size+0x11006d0>
     938:	73614d2f 	cmnvc	r1, #3008	; 0xbc0
     93c:	69726574 	ldmdbvs	r2!, {r2, r4, r5, r6, r8, sl, sp, lr}^
     940:	4520676e 	strmi	r6, [r0, #-1902]!	; 0xfffff892
     944:	6465626d 	strbtvs	r6, [r5], #-621	; 0xfffffd93
     948:	20646564 	rsbcs	r6, r4, r4, ror #10
     94c:	74737953 	ldrbtvc	r7, [r3], #-2387	; 0xfffff6ad
     950:	2f736d65 	svccs	0x00736d65
     954:	74696e55 	strbtvc	r6, [r9], #-3669	; 0xfffff1ab
     958:	20343120 	eorscs	r3, r4, r0, lsr #2
     95c:	2f4d5241 	svccs	0x004d5241
     960:	74696e75 	strbtvc	r6, [r9], #-3701	; 0xfffff18b
     964:	6c5f3431 	cfldrdvs	mvd3, [pc], {49}	; 0x31
     968:	6f737365 	svcvs	0x00737365
     96c:	6c5f326e 	lfmvs	f3, 2, [pc], {110}	; 0x6e
     970:	2f316261 	svccs	0x00316261
     974:	76697244 	strbtvc	r7, [r9], -r4, asr #4
     978:	2f737265 	svccs	0x00737265
     97c:	336d7453 	cmncc	sp, #1392508928	; 0x53000000
     980:	31465f32 	cmpcc	r6, r2, lsr pc
     984:	36433330 			; <UNDEFINED> instruction: 0x36433330
     988:	6972445f 	ldmdbvs	r2!, {r0, r1, r2, r3, r4, r6, sl, lr}^
     98c:	73726576 	cmnvc	r2, #494927872	; 0x1d800000
     990:	636e692f 	cmnvs	lr, #770048	; 0xbc000
     994:	5c3a6300 	ldcpl	3, cr6, [sl], #-0
     998:	735c7473 	cmpvc	ip, #1929379840	; 0x73000000
     99c:	32336d74 	eorscc	r6, r3, #116, 26	; 0x1d00
     9a0:	65627563 	strbvs	r7, [r2, #-1379]!	; 0xfffffa9d
     9a4:	5f656469 	svcpl	0x00656469
     9a8:	2e342e31 	mrccs	14, 1, r2, cr4, cr1, {1}
     9ac:	74735c30 	ldrbtvc	r5, [r3], #-3120	; 0xfffff3d0
     9b0:	6332336d 	teqvs	r2, #-1275068415	; 0xb4000001
     9b4:	69656275 	stmdbvs	r5!, {r0, r2, r4, r5, r6, r9, sp, lr}^
     9b8:	705c6564 	subsvc	r6, ip, r4, ror #10
     9bc:	6967756c 	stmdbvs	r7!, {r2, r3, r5, r6, r8, sl, ip, sp, lr}^
     9c0:	635c736e 	cmpvs	ip, #-1207959551	; 0xb8000001
     9c4:	732e6d6f 			; <UNDEFINED> instruction: 0x732e6d6f
     9c8:	74732e74 	ldrbtvc	r2, [r3], #-3700	; 0xfffff18c
     9cc:	6332336d 	teqvs	r2, #-1275068415	; 0xb4000001
     9d0:	2e656275 	mcrcs	2, 3, r6, cr5, cr5, {3}
     9d4:	2e656469 	cdpcs	4, 6, cr6, cr5, cr9, {3}
     9d8:	2e75636d 	cdpcs	3, 7, cr6, cr5, cr13, {3}
     9dc:	65747865 	ldrbvs	r7, [r4, #-2149]!	; 0xfffff79b
     9e0:	6c616e72 	stclvs	14, cr6, [r1], #-456	; 0xfffffe38
     9e4:	6c6f6f74 	stclvs	15, cr6, [pc], #-464	; 81c <_Min_Stack_Size+0x41c>
     9e8:	6e672e73 	mcrvs	14, 3, r2, cr7, cr3, {3}
     9ec:	6f742d75 	svcvs	0x00742d75
     9f0:	2d736c6f 	ldclcs	12, cr6, [r3, #-444]!	; 0xfffffe44
     9f4:	2d726f66 	ldclcs	15, cr6, [r2, #-408]!	; 0xfffffe68
     9f8:	336d7473 	cmncc	sp, #1929379840	; 0x73000000
     9fc:	2d372e32 	ldccs	14, cr2, [r7, #-200]!	; 0xffffff38
     a00:	38313032 	ldmdacc	r1!, {r1, r4, r5, ip, sp}
     a04:	2d32712d 	ldfcss	f7, [r2, #-180]!	; 0xffffff4c
     a08:	61647075 	smcvs	18181	; 0x4705
     a0c:	772e6574 			; <UNDEFINED> instruction: 0x772e6574
     a10:	32336e69 	eorscc	r6, r3, #1680	; 0x690
     a14:	342e315f 	strtcc	r3, [lr], #-351	; 0xfffffea1
     a18:	322e302e 	eorcc	r3, lr, #46	; 0x2e
     a1c:	30303230 	eorscc	r3, r0, r0, lsr r2
     a20:	31383037 	teqcc	r8, r7, lsr r0
     a24:	5c383032 	ldcpl	0, cr3, [r8], #-200	; 0xffffff38
     a28:	6c6f6f74 	stclvs	15, cr6, [pc], #-464	; 860 <_Min_Stack_Size+0x460>
     a2c:	72615c73 	rsbvc	r5, r1, #29440	; 0x7300
     a30:	6f6e2d6d 	svcvs	0x006e2d6d
     a34:	652d656e 	strvs	r6, [sp, #-1390]!	; 0xfffffa92
     a38:	5c696261 	sfmpl	f6, 2, [r9], #-388	; 0xfffffe7c
     a3c:	6c636e69 	stclvs	14, cr6, [r3], #-420	; 0xfffffe5c
     a40:	5c656475 	cfstrdpl	mvd6, [r5], #-468	; 0xfffffe2c
     a44:	6c77656e 	cfldr64vs	mvdx6, [r7], #-440	; 0xfffffe48
     a48:	6e2d6269 	cdpvs	2, 2, cr6, cr13, cr9, {3}
     a4c:	006f6e61 	rsbeq	r6, pc, r1, ror #28
     a50:	6d745300 	ldclvs	3, cr5, [r4, #-0]
     a54:	465f3233 			; <UNDEFINED> instruction: 0x465f3233
     a58:	43333031 	teqmi	r3, #49	; 0x31
     a5c:	70675f36 	rsbvc	r5, r7, r6, lsr pc
     a60:	645f6f69 	ldrbvs	r6, [pc], #-3945	; a68 <_Min_Stack_Size+0x668>
     a64:	65766972 	ldrbvs	r6, [r6, #-2418]!	; 0xfffff68e
     a68:	00632e72 	rsbeq	r2, r3, r2, ror lr
     a6c:	5f000001 	svcpl	0x00000001
     a70:	61666564 	cmnvs	r6, r4, ror #10
     a74:	5f746c75 	svcpl	0x00746c75
     a78:	65707974 	ldrbvs	r7, [r0, #-2420]!	; 0xfffff68c
     a7c:	00682e73 	rsbeq	r2, r8, r3, ror lr
     a80:	6c000002 	stcvs	0, cr0, [r0], {2}
     a84:	2e6b636f 	cdpcs	3, 6, cr6, cr11, cr15, {3}
     a88:	00030068 	andeq	r0, r3, r8, rrx
     a8c:	79745f00 	ldmdbvc	r4!, {r8, r9, sl, fp, ip, lr}^
     a90:	2e736570 	mrccs	5, 3, r6, cr3, cr0, {3}
     a94:	00030068 	andeq	r0, r3, r8, rrx
     a98:	64747300 	ldrbtvs	r7, [r4], #-768	; 0xfffffd00
     a9c:	2e666564 	cdpcs	5, 6, cr6, cr6, cr4, {3}
     aa0:	00040068 	andeq	r0, r4, r8, rrx
     aa4:	65657200 	strbvs	r7, [r5, #-512]!	; 0xfffffe00
     aa8:	682e746e 	stmdavs	lr!, {r1, r2, r3, r5, r6, sl, ip, sp, lr}
     aac:	00000300 	andeq	r0, r0, r0, lsl #6
     ab0:	6c647473 	cfstrdvs	mvd7, [r4], #-460	; 0xfffffe34
     ab4:	682e6269 	stmdavs	lr!, {r0, r3, r5, r6, r9, sp, lr}
     ab8:	00000500 	andeq	r0, r0, r0, lsl #10
     abc:	6474735f 	ldrbtvs	r7, [r4], #-863	; 0xfffffca1
     ac0:	2e746e69 	cdpcs	14, 7, cr6, cr4, cr9, {3}
     ac4:	00030068 	andeq	r0, r3, r8, rrx
     ac8:	6d747300 	ldclvs	3, cr7, [r4, #-0]
     acc:	31663233 	cmncc	r6, r3, lsr r2
     ad0:	38783330 	ldmdacc	r8!, {r4, r5, r8, r9, ip, sp}^
     ad4:	0600682e 	streq	r6, [r0], -lr, lsr #16
     ad8:	74530000 	ldrbvc	r0, [r3], #-0
     adc:	5f32336d 	svcpl	0x0032336d
     ae0:	33303146 	teqcc	r0, #-2147483631	; 0x80000011
     ae4:	675f3643 	ldrbvs	r3, [pc, -r3, asr #12]
     ae8:	5f6f6970 	svcpl	0x006f6970
     aec:	76697264 	strbtvc	r7, [r9], -r4, ror #4
     af0:	682e7265 	stmdavs	lr!, {r0, r2, r5, r6, r9, ip, sp, lr}
     af4:	00000600 	andeq	r0, r0, r0, lsl #12
     af8:	65656569 	strbvs	r6, [r5, #-1385]!	; 0xfffffa97
     afc:	682e7066 	stmdavs	lr!, {r1, r2, r5, r6, ip, sp, lr}
     b00:	00000200 	andeq	r0, r0, r0, lsl #4
     b04:	736e615f 	cmnvc	lr, #-1073741801	; 0xc0000017
     b08:	00682e69 	rsbeq	r2, r8, r9, ror #28
     b0c:	6e000005 	cdpvs	0, 0, cr0, cr0, cr5, {0}
     b10:	696c7765 	stmdbvs	ip!, {r0, r2, r5, r6, r8, r9, sl, ip, sp, lr}^
     b14:	00682e62 	rsbeq	r2, r8, r2, ror #28
     b18:	5f000007 	svcpl	0x00000007
     b1c:	6c77656e 	cfldr64vs	mvdx6, [r7], #-440	; 0xfffffe48
     b20:	765f6269 	ldrbvc	r6, [pc], -r9, ror #4
     b24:	69737265 	ldmdbvs	r3!, {r0, r2, r5, r6, r9, ip, sp, lr}^
     b28:	682e6e6f 	stmdavs	lr!, {r0, r1, r2, r3, r5, r6, r9, sl, fp, sp, lr}
     b2c:	00000500 	andeq	r0, r0, r0, lsl #10
     b30:	666e6f63 	strbtvs	r6, [lr], -r3, ror #30
     b34:	682e6769 	stmdavs	lr!, {r0, r3, r5, r6, r8, r9, sl, sp, lr}
     b38:	00000300 	andeq	r0, r0, r0, lsl #6
     b3c:	74616566 	strbtvc	r6, [r1], #-1382	; 0xfffffa9a
     b40:	73657275 	cmnvc	r5, #1342177287	; 0x50000007
     b44:	0300682e 	movweq	r6, #2094	; 0x82e
     b48:	745f0000 	ldrbvc	r0, [pc], #-0	; b50 <_Min_Stack_Size+0x750>
     b4c:	73657079 	cmnvc	r5, #121	; 0x79
     b50:	0200682e 	andeq	r6, r0, #3014656	; 0x2e0000
     b54:	64630000 	strbtvs	r0, [r3], #-0
     b58:	2e736665 	cdpcs	6, 7, cr6, cr3, cr5, {3}
     b5c:	00030068 	andeq	r0, r3, r8, rrx
     b60:	64747300 	ldrbtvs	r7, [r4], #-768	; 0xfffffd00
     b64:	2e62696c 	vnmulcs.f16	s13, s4, s25	; <UNPREDICTABLE>
     b68:	00020068 	andeq	r0, r2, r8, rrx
     b6c:	6c6c6100 	stfvse	f6, [ip], #-0
     b70:	2e61636f 	cdpcs	3, 6, cr6, cr1, cr15, {3}
     b74:	00050068 	andeq	r0, r5, r8, rrx
     b78:	64747300 	ldrbtvs	r7, [r4], #-768	; 0xfffffd00
     b7c:	2e746e69 	cdpcs	14, 7, cr6, cr4, cr9, {3}
     b80:	00040068 	andeq	r0, r4, r8, rrx
     b84:	64747300 	ldrbtvs	r7, [r4], #-768	; 0xfffffd00
     b88:	2e746e69 	cdpcs	14, 7, cr6, cr4, cr9, {3}
     b8c:	00050068 	andeq	r0, r5, r8, rrx
     b90:	6e695f00 	cdpvs	15, 6, cr5, cr9, cr0, {0}
     b94:	70757374 	rsbsvc	r7, r5, r4, ror r3
     b98:	0300682e 	movweq	r6, #2094	; 0x82e
     b9c:	00000000 	andeq	r0, r0, r0
     ba0:	02b20205 	adcseq	r0, r2, #1342177280	; 0x50000000
     ba4:	0d030800 	stceq	8, cr0, [r3, #-0]
     ba8:	38025901 	stmdacc	r2, {r0, r8, fp, ip, lr}
     bac:	31313115 	teqcc	r1, r5, lsl r1
     bb0:	31313131 	teqcc	r1, r1, lsr r1
     bb4:	31313132 	teqcc	r1, r2, lsr r1
     bb8:	31313131 	teqcc	r1, r1, lsr r1
     bbc:	05022131 	streq	r2, [r2, #-305]	; 0xfffffecf
     bc0:	00010100 	andeq	r0, r1, r0, lsl #2
     bc4:	03780205 	cmneq	r8, #1342177280	; 0x50000000
     bc8:	d1030800 	tstle	r3, r0, lsl #16
     bcc:	2f5b0100 	svccs	0x005b0100
     bd0:	0402002f 	streq	r0, [r2], #-47	; 0xffffffd1
     bd4:	004a0601 	subeq	r0, sl, r1, lsl #12
     bd8:	2e020402 	cdpcs	4, 0, cr0, cr2, cr2, {0}
     bdc:	04040200 	streq	r0, [r4], #-512	; 0xfffffe00
     be0:	0402002e 	streq	r0, [r2], #-46	; 0xffffffd2
     be4:	00230604 	eoreq	r0, r3, r4, lsl #12
     be8:	e7040402 	str	r0, [r4, -r2, lsl #8]
     bec:	01040200 	mrseq	r0, R12_usr
     bf0:	02004a06 	andeq	r4, r0, #24576	; 0x6000
     bf4:	004a0204 	subeq	r0, sl, r4, lsl #4
     bf8:	4a030402 	bmi	c1c08 <_Min_Stack_Size+0xc1808>
     bfc:	00ea4d06 	rsceq	r4, sl, r6, lsl #26
     c00:	06010402 	streq	r0, [r1], -r2, lsl #8
     c04:	844d064a 	strbhi	r0, [sp], #-1610	; 0xfffff9b6
     c08:	4d2f404d 	stcmi	0, cr4, [pc, #-308]!	; adc <_Min_Stack_Size+0x6dc>
     c0c:	02d78788 	sbcseq	r8, r7, #136, 14	; 0x2200000
     c10:	01010004 	tsteq	r1, r4
     c14:	00020500 	andeq	r0, r2, r0, lsl #10
     c18:	03000000 	movweq	r0, #0
     c1c:	0301018b 	movweq	r0, #4491	; 0x118b
     c20:	674c4a0c 	strbvs	r4, [ip, -ip, lsl #20]
     c24:	03661603 	cmneq	r6, #3145728	; 0x300000
     c28:	674c206c 	strbvs	r2, [ip, -ip, rrx]
     c2c:	03661103 	cmneq	r6, #-1073741824	; 0xc0000000
     c30:	674c2071 	smlsldxvs	r2, ip, r1, r0
     c34:	03660c03 	cmneq	r6, #768	; 0x300
     c38:	674c2076 	smlsldxvs	r2, ip, r6, r0
     c3c:	674c1b6d 	strbvs	r1, [ip, -sp, ror #22]
     c40:	00120268 	andseq	r0, r2, r8, ror #4
     c44:	05000101 	streq	r0, [r0, #-257]	; 0xfffffeff
     c48:	00000002 	andeq	r0, r0, r2
     c4c:	01bb0300 			; <UNDEFINED> instruction: 0x01bb0300
     c50:	40686801 	rsbmi	r6, r8, r1, lsl #16
     c54:	05022130 	streq	r2, [r2, #-304]	; 0xfffffed0
     c58:	00010100 	andeq	r0, r1, r0, lsl #2
     c5c:	00000205 	andeq	r0, r0, r5, lsl #4
     c60:	d1030000 	mrsle	r0, (UNDEF: 3)
     c64:	3d4c0101 	stfcce	f0, [ip, #-4]
     c68:	00050221 	andeq	r0, r5, r1, lsr #4
     c6c:	05000101 	streq	r0, [r0, #-257]	; 0xfffffeff
     c70:	00000002 	andeq	r0, r0, r2
     c74:	01e10300 	mvneq	r0, r0, lsl #6
     c78:	0a038301 	beq	e1884 <_Min_Stack_Size+0xe1484>
     c7c:	3c0b033c 	stccc	3, cr0, [fp], {60}	; 0x3c
     c80:	05023e1e 	streq	r3, [r2, #-3614]	; 0xfffff1e2
     c84:	00010100 	andeq	r0, r1, r0, lsl #2
     c88:	00000205 	andeq	r0, r0, r5, lsl #4
     c8c:	81030000 	mrshi	r0, (UNDEF: 3)
     c90:	3d670102 	stfcce	f0, [r7, #-8]!
     c94:	01000502 	tsteq	r0, r2, lsl #10
     c98:	02050001 	andeq	r0, r5, #1
     c9c:	00000000 	andeq	r0, r0, r0
     ca0:	01028e03 	tsteq	r2, r3, lsl #28
     ca4:	05026767 	streq	r6, [r2, #-1895]	; 0xfffff899
     ca8:	00010100 	andeq	r0, r1, r0, lsl #2
     cac:	00000205 	andeq	r0, r0, r5, lsl #4
     cb0:	9b030000 	blls	c0cb8 <_Min_Stack_Size+0xc08b8>
     cb4:	14030102 	strne	r0, [r3], #-258	; 0xfffffefe
     cb8:	3d513e66 	ldclcc	14, cr3, [r1, #-408]	; 0xfffffe68
     cbc:	683d3d3d 	ldmdavs	sp!, {r0, r2, r3, r4, r5, r8, sl, fp, ip, sp}
     cc0:	05022232 	streq	r2, [r2, #-562]	; 0xfffffdce
     cc4:	4e010100 	adfmis	f0, f1, f0
     cc8:	02000007 	andeq	r0, r0, #7
     ccc:	00058600 	andeq	r8, r5, r0, lsl #12
     cd0:	fb010200 	blx	414da <_Min_Stack_Size+0x410da>
     cd4:	01000d0e 	tsteq	r0, lr, lsl #26
     cd8:	00010101 	andeq	r0, r1, r1, lsl #2
     cdc:	00010000 	andeq	r0, r1, r0
     ce0:	2e2e0100 	sufcse	f0, f6, f0
     ce4:	6d74532f 	ldclvs	3, cr5, [r4, #-188]!	; 0xffffff44
     ce8:	465f3233 			; <UNDEFINED> instruction: 0x465f3233
     cec:	43333031 	teqmi	r3, #49	; 0x31
     cf0:	72445f36 	subvc	r5, r4, #54, 30	; 0xd8
     cf4:	72657669 	rsbvc	r7, r5, #110100480	; 0x6900000
     cf8:	3a630073 	bcc	18c0ecc <_Min_Stack_Size+0x18c0acc>
     cfc:	5c74735c 	ldclpl	3, cr7, [r4], #-368	; 0xfffffe90
     d00:	336d7473 	cmncc	sp, #1929379840	; 0x73000000
     d04:	62756332 	rsbsvs	r6, r5, #-939524096	; 0xc8000000
     d08:	65646965 	strbvs	r6, [r4, #-2405]!	; 0xfffff69b
     d0c:	342e315f 	strtcc	r3, [lr], #-351	; 0xfffffea1
     d10:	735c302e 	cmpvc	ip, #46	; 0x2e
     d14:	32336d74 	eorscc	r6, r3, #116, 26	; 0x1d00
     d18:	65627563 	strbvs	r7, [r2, #-1379]!	; 0xfffffa9d
     d1c:	5c656469 	cfstrdpl	mvd6, [r5], #-420	; 0xfffffe5c
     d20:	67756c70 			; <UNDEFINED> instruction: 0x67756c70
     d24:	5c736e69 	ldclpl	14, cr6, [r3], #-420	; 0xfffffe5c
     d28:	2e6d6f63 	cdpcs	15, 6, cr6, cr13, cr3, {3}
     d2c:	732e7473 			; <UNDEFINED> instruction: 0x732e7473
     d30:	32336d74 	eorscc	r6, r3, #116, 26	; 0x1d00
     d34:	65627563 	strbvs	r7, [r2, #-1379]!	; 0xfffffa9d
     d38:	6564692e 	strbvs	r6, [r4, #-2350]!	; 0xfffff6d2
     d3c:	75636d2e 	strbvc	r6, [r3, #-3374]!	; 0xfffff2d2
     d40:	7478652e 	ldrbtvc	r6, [r8], #-1326	; 0xfffffad2
     d44:	616e7265 	cmnvs	lr, r5, ror #4
     d48:	6f6f746c 	svcvs	0x006f746c
     d4c:	672e736c 	strvs	r7, [lr, -ip, ror #6]!
     d50:	742d756e 	strtvc	r7, [sp], #-1390	; 0xfffffa92
     d54:	736c6f6f 	cmnvc	ip, #444	; 0x1bc
     d58:	726f662d 	rsbvc	r6, pc, #47185920	; 0x2d00000
     d5c:	6d74732d 	ldclvs	3, cr7, [r4, #-180]!	; 0xffffff4c
     d60:	372e3233 			; <UNDEFINED> instruction: 0x372e3233
     d64:	3130322d 	teqcc	r0, sp, lsr #4
     d68:	32712d38 	rsbscc	r2, r1, #56, 26	; 0xe00
     d6c:	6470752d 	ldrbtvs	r7, [r0], #-1325	; 0xfffffad3
     d70:	2e657461 	cdpcs	4, 6, cr7, cr5, cr1, {3}
     d74:	336e6977 	cmncc	lr, #1949696	; 0x1dc000
     d78:	2e315f32 	mrccs	15, 1, r5, cr1, cr2, {1}
     d7c:	2e302e34 	mrccs	14, 1, r2, cr0, cr4, {1}
     d80:	30323032 	eorscc	r3, r2, r2, lsr r0
     d84:	38303730 	ldmdacc	r0!, {r4, r5, r8, r9, sl, ip, sp}
     d88:	38303231 	ldmdacc	r0!, {r0, r4, r5, r9, ip, sp}
     d8c:	6f6f745c 	svcvs	0x006f745c
     d90:	615c736c 	cmpvs	ip, ip, ror #6
     d94:	6e2d6d72 	mcrvs	13, 1, r6, cr13, cr2, {3}
     d98:	2d656e6f 	stclcs	14, cr6, [r5, #-444]!	; 0xfffffe44
     d9c:	69626165 	stmdbvs	r2!, {r0, r2, r5, r6, r8, sp, lr}^
     da0:	636e695c 	cmnvs	lr, #92, 18	; 0x170000
     da4:	6564756c 	strbvs	r7, [r4, #-1388]!	; 0xfffffa94
     da8:	63616d5c 	cmnvs	r1, #92, 26	; 0x1700
     dac:	656e6968 	strbvs	r6, [lr, #-2408]!	; 0xfffff698
     db0:	5c3a6300 	ldcpl	3, cr6, [sl], #-0
     db4:	735c7473 	cmpvc	ip, #1929379840	; 0x73000000
     db8:	32336d74 	eorscc	r6, r3, #116, 26	; 0x1d00
     dbc:	65627563 	strbvs	r7, [r2, #-1379]!	; 0xfffffa9d
     dc0:	5f656469 	svcpl	0x00656469
     dc4:	2e342e31 	mrccs	14, 1, r2, cr4, cr1, {1}
     dc8:	74735c30 	ldrbtvc	r5, [r3], #-3120	; 0xfffff3d0
     dcc:	6332336d 	teqvs	r2, #-1275068415	; 0xb4000001
     dd0:	69656275 	stmdbvs	r5!, {r0, r2, r4, r5, r6, r9, sp, lr}^
     dd4:	705c6564 	subsvc	r6, ip, r4, ror #10
     dd8:	6967756c 	stmdbvs	r7!, {r2, r3, r5, r6, r8, sl, ip, sp, lr}^
     ddc:	635c736e 	cmpvs	ip, #-1207959551	; 0xb8000001
     de0:	732e6d6f 			; <UNDEFINED> instruction: 0x732e6d6f
     de4:	74732e74 	ldrbtvc	r2, [r3], #-3700	; 0xfffff18c
     de8:	6332336d 	teqvs	r2, #-1275068415	; 0xb4000001
     dec:	2e656275 	mcrcs	2, 3, r6, cr5, cr5, {3}
     df0:	2e656469 	cdpcs	4, 6, cr6, cr5, cr9, {3}
     df4:	2e75636d 	cdpcs	3, 7, cr6, cr5, cr13, {3}
     df8:	65747865 	ldrbvs	r7, [r4, #-2149]!	; 0xfffff79b
     dfc:	6c616e72 	stclvs	14, cr6, [r1], #-456	; 0xfffffe38
     e00:	6c6f6f74 	stclvs	15, cr6, [pc], #-464	; c38 <_Min_Stack_Size+0x838>
     e04:	6e672e73 	mcrvs	14, 3, r2, cr7, cr3, {3}
     e08:	6f742d75 	svcvs	0x00742d75
     e0c:	2d736c6f 	ldclcs	12, cr6, [r3, #-444]!	; 0xfffffe44
     e10:	2d726f66 	ldclcs	15, cr6, [r2, #-408]!	; 0xfffffe68
     e14:	336d7473 	cmncc	sp, #1929379840	; 0x73000000
     e18:	2d372e32 	ldccs	14, cr2, [r7, #-200]!	; 0xffffff38
     e1c:	38313032 	ldmdacc	r1!, {r1, r4, r5, ip, sp}
     e20:	2d32712d 	ldfcss	f7, [r2, #-180]!	; 0xffffff4c
     e24:	61647075 	smcvs	18181	; 0x4705
     e28:	772e6574 			; <UNDEFINED> instruction: 0x772e6574
     e2c:	32336e69 	eorscc	r6, r3, #1680	; 0x690
     e30:	342e315f 	strtcc	r3, [lr], #-351	; 0xfffffea1
     e34:	322e302e 	eorcc	r3, lr, #46	; 0x2e
     e38:	30303230 	eorscc	r3, r0, r0, lsr r2
     e3c:	31383037 	teqcc	r8, r7, lsr r0
     e40:	5c383032 	ldcpl	0, cr3, [r8], #-200	; 0xffffff38
     e44:	6c6f6f74 	stclvs	15, cr6, [pc], #-464	; c7c <_Min_Stack_Size+0x87c>
     e48:	72615c73 	rsbvc	r5, r1, #29440	; 0x7300
     e4c:	6f6e2d6d 	svcvs	0x006e2d6d
     e50:	652d656e 	strvs	r6, [sp, #-1390]!	; 0xfffffa92
     e54:	5c696261 	sfmpl	f6, 2, [r9], #-388	; 0xfffffe7c
     e58:	6c636e69 	stclvs	14, cr6, [r3], #-420	; 0xfffffe5c
     e5c:	5c656475 	cfstrdpl	mvd6, [r5], #-468	; 0xfffffe2c
     e60:	00737973 	rsbseq	r7, r3, r3, ror r9
     e64:	735c3a63 	cmpvc	ip, #405504	; 0x63000
     e68:	74735c74 	ldrbtvc	r5, [r3], #-3188	; 0xfffff38c
     e6c:	6332336d 	teqvs	r2, #-1275068415	; 0xb4000001
     e70:	69656275 	stmdbvs	r5!, {r0, r2, r4, r5, r6, r9, sp, lr}^
     e74:	315f6564 	cmpcc	pc, r4, ror #10
     e78:	302e342e 	eorcc	r3, lr, lr, lsr #8
     e7c:	6d74735c 	ldclvs	3, cr7, [r4, #-368]!	; 0xfffffe90
     e80:	75633233 	strbvc	r3, [r3, #-563]!	; 0xfffffdcd
     e84:	64696562 	strbtvs	r6, [r9], #-1378	; 0xfffffa9e
     e88:	6c705c65 	ldclvs	12, cr5, [r0], #-404	; 0xfffffe6c
     e8c:	6e696775 	mcrvs	7, 3, r6, cr9, cr5, {3}
     e90:	6f635c73 	svcvs	0x00635c73
     e94:	74732e6d 	ldrbtvc	r2, [r3], #-3693	; 0xfffff193
     e98:	6d74732e 	ldclvs	3, cr7, [r4, #-184]!	; 0xffffff48
     e9c:	75633233 	strbvc	r3, [r3, #-563]!	; 0xfffffdcd
     ea0:	692e6562 	stmdbvs	lr!, {r1, r5, r6, r8, sl, sp, lr}
     ea4:	6d2e6564 	cfstr32vs	mvfx6, [lr, #-400]!	; 0xfffffe70
     ea8:	652e7563 	strvs	r7, [lr, #-1379]!	; 0xfffffa9d
     eac:	72657478 	rsbvc	r7, r5, #120, 8	; 0x78000000
     eb0:	746c616e 	strbtvc	r6, [ip], #-366	; 0xfffffe92
     eb4:	736c6f6f 	cmnvc	ip, #444	; 0x1bc
     eb8:	756e672e 	strbvc	r6, [lr, #-1838]!	; 0xfffff8d2
     ebc:	6f6f742d 	svcvs	0x006f742d
     ec0:	662d736c 	strtvs	r7, [sp], -ip, ror #6
     ec4:	732d726f 			; <UNDEFINED> instruction: 0x732d726f
     ec8:	32336d74 	eorscc	r6, r3, #116, 26	; 0x1d00
     ecc:	322d372e 	eorcc	r3, sp, #12058624	; 0xb80000
     ed0:	2d383130 	ldfcss	f3, [r8, #-192]!	; 0xffffff40
     ed4:	752d3271 	strvc	r3, [sp, #-625]!	; 0xfffffd8f
     ed8:	74616470 	strbtvc	r6, [r1], #-1136	; 0xfffffb90
     edc:	69772e65 	ldmdbvs	r7!, {r0, r2, r5, r6, r9, sl, fp, sp}^
     ee0:	5f32336e 	svcpl	0x0032336e
     ee4:	2e342e31 	mrccs	14, 1, r2, cr4, cr1, {1}
     ee8:	30322e30 	eorscc	r2, r2, r0, lsr lr
     eec:	37303032 			; <UNDEFINED> instruction: 0x37303032
     ef0:	32313830 	eorscc	r3, r1, #48, 16	; 0x300000
     ef4:	745c3830 	ldrbvc	r3, [ip], #-2096	; 0xfffff7d0
     ef8:	736c6f6f 	cmnvc	ip, #444	; 0x1bc
     efc:	62696c5c 	rsbvs	r6, r9, #92, 24	; 0x5c00
     f00:	6363675c 	cmnvs	r3, #92, 14	; 0x1700000
     f04:	6d72615c 	ldfvse	f6, [r2, #-368]!	; 0xfffffe90
     f08:	6e6f6e2d 	cdpvs	14, 6, cr6, cr15, cr13, {1}
     f0c:	61652d65 	cmnvs	r5, r5, ror #26
     f10:	375c6962 	ldrbcc	r6, [ip, -r2, ror #18]
     f14:	312e332e 			; <UNDEFINED> instruction: 0x312e332e
     f18:	636e695c 	cmnvs	lr, #92, 18	; 0x170000
     f1c:	6564756c 	strbvs	r7, [r4, #-1388]!	; 0xfffffa94
     f20:	5c3a6300 	ldcpl	3, cr6, [sl], #-0
     f24:	735c7473 	cmpvc	ip, #1929379840	; 0x73000000
     f28:	32336d74 	eorscc	r6, r3, #116, 26	; 0x1d00
     f2c:	65627563 	strbvs	r7, [r2, #-1379]!	; 0xfffffa9d
     f30:	5f656469 	svcpl	0x00656469
     f34:	2e342e31 	mrccs	14, 1, r2, cr4, cr1, {1}
     f38:	74735c30 	ldrbtvc	r5, [r3], #-3120	; 0xfffff3d0
     f3c:	6332336d 	teqvs	r2, #-1275068415	; 0xb4000001
     f40:	69656275 	stmdbvs	r5!, {r0, r2, r4, r5, r6, r9, sp, lr}^
     f44:	705c6564 	subsvc	r6, ip, r4, ror #10
     f48:	6967756c 	stmdbvs	r7!, {r2, r3, r5, r6, r8, sl, ip, sp, lr}^
     f4c:	635c736e 	cmpvs	ip, #-1207959551	; 0xb8000001
     f50:	732e6d6f 			; <UNDEFINED> instruction: 0x732e6d6f
     f54:	74732e74 	ldrbtvc	r2, [r3], #-3700	; 0xfffff18c
     f58:	6332336d 	teqvs	r2, #-1275068415	; 0xb4000001
     f5c:	2e656275 	mcrcs	2, 3, r6, cr5, cr5, {3}
     f60:	2e656469 	cdpcs	4, 6, cr6, cr5, cr9, {3}
     f64:	2e75636d 	cdpcs	3, 7, cr6, cr5, cr13, {3}
     f68:	65747865 	ldrbvs	r7, [r4, #-2149]!	; 0xfffff79b
     f6c:	6c616e72 	stclvs	14, cr6, [r1], #-456	; 0xfffffe38
     f70:	6c6f6f74 	stclvs	15, cr6, [pc], #-464	; da8 <_Min_Stack_Size+0x9a8>
     f74:	6e672e73 	mcrvs	14, 3, r2, cr7, cr3, {3}
     f78:	6f742d75 	svcvs	0x00742d75
     f7c:	2d736c6f 	ldclcs	12, cr6, [r3, #-444]!	; 0xfffffe44
     f80:	2d726f66 	ldclcs	15, cr6, [r2, #-408]!	; 0xfffffe68
     f84:	336d7473 	cmncc	sp, #1929379840	; 0x73000000
     f88:	2d372e32 	ldccs	14, cr2, [r7, #-200]!	; 0xffffff38
     f8c:	38313032 	ldmdacc	r1!, {r1, r4, r5, ip, sp}
     f90:	2d32712d 	ldfcss	f7, [r2, #-180]!	; 0xffffff4c
     f94:	61647075 	smcvs	18181	; 0x4705
     f98:	772e6574 			; <UNDEFINED> instruction: 0x772e6574
     f9c:	32336e69 	eorscc	r6, r3, #1680	; 0x690
     fa0:	342e315f 	strtcc	r3, [lr], #-351	; 0xfffffea1
     fa4:	322e302e 	eorcc	r3, lr, #46	; 0x2e
     fa8:	30303230 	eorscc	r3, r0, r0, lsr r2
     fac:	31383037 	teqcc	r8, r7, lsr r0
     fb0:	5c383032 	ldcpl	0, cr3, [r8], #-200	; 0xffffff38
     fb4:	6c6f6f74 	stclvs	15, cr6, [pc], #-464	; dec <_Min_Stack_Size+0x9ec>
     fb8:	72615c73 	rsbvc	r5, r1, #29440	; 0x7300
     fbc:	6f6e2d6d 	svcvs	0x006e2d6d
     fc0:	652d656e 	strvs	r6, [sp, #-1390]!	; 0xfffffa92
     fc4:	5c696261 	sfmpl	f6, 2, [r9], #-388	; 0xfffffe7c
     fc8:	6c636e69 	stclvs	14, cr6, [r3], #-420	; 0xfffffe5c
     fcc:	00656475 	rsbeq	r6, r5, r5, ror r4
     fd0:	4d2f3a44 	vstmdbmi	pc!, {s6-s73}
     fd4:	65747361 	ldrbvs	r7, [r4, #-865]!	; 0xfffffc9f
     fd8:	676e6972 			; <UNDEFINED> instruction: 0x676e6972
     fdc:	626d4520 	rsbvs	r4, sp, #32, 10	; 0x8000000
     fe0:	65646465 	strbvs	r6, [r4, #-1125]!	; 0xfffffb9b
     fe4:	79532064 	ldmdbvc	r3, {r2, r5, r6, sp}^
     fe8:	6d657473 	cfstrdvs	mvd7, [r5, #-460]!	; 0xfffffe34
     fec:	6e552f73 	mrcvs	15, 2, r2, cr5, cr3, {3}
     ff0:	31207469 			; <UNDEFINED> instruction: 0x31207469
     ff4:	52412034 	subpl	r2, r1, #52	; 0x34
     ff8:	6e752f4d 	cdpvs	15, 7, cr2, cr5, cr13, {2}
     ffc:	34317469 	ldrtcc	r7, [r1], #-1129	; 0xfffffb97
    1000:	73656c5f 	cmnvc	r5, #24320	; 0x5f00
    1004:	326e6f73 	rsbcc	r6, lr, #460	; 0x1cc
    1008:	62616c5f 	rsbvs	r6, r1, #24320	; 0x5f00
    100c:	72442f31 	subvc	r2, r4, #49, 30	; 0xc4
    1010:	72657669 	rsbvc	r7, r5, #110100480	; 0x6900000
    1014:	74532f73 	ldrbvc	r2, [r3], #-3955	; 0xfffff08d
    1018:	5f32336d 	svcpl	0x0032336d
    101c:	33303146 	teqcc	r0, #-2147483631	; 0x80000011
    1020:	445f3643 	ldrbmi	r3, [pc], #-1603	; 1028 <_Min_Stack_Size+0xc28>
    1024:	65766972 	ldrbvs	r6, [r6, #-2418]!	; 0xfffff68e
    1028:	692f7372 	stmdbvs	pc!, {r1, r4, r5, r6, r8, r9, ip, sp, lr}	; <UNPREDICTABLE>
    102c:	6300636e 	movwvs	r6, #878	; 0x36e
    1030:	74735c3a 	ldrbtvc	r5, [r3], #-3130	; 0xfffff3c6
    1034:	6d74735c 	ldclvs	3, cr7, [r4, #-368]!	; 0xfffffe90
    1038:	75633233 	strbvc	r3, [r3, #-563]!	; 0xfffffdcd
    103c:	64696562 	strbtvs	r6, [r9], #-1378	; 0xfffffa9e
    1040:	2e315f65 	cdpcs	15, 3, cr5, cr1, cr5, {3}
    1044:	5c302e34 	ldcpl	14, cr2, [r0], #-208	; 0xffffff30
    1048:	336d7473 	cmncc	sp, #1929379840	; 0x73000000
    104c:	62756332 	rsbsvs	r6, r5, #-939524096	; 0xc8000000
    1050:	65646965 	strbvs	r6, [r4, #-2405]!	; 0xfffff69b
    1054:	756c705c 	strbvc	r7, [ip, #-92]!	; 0xffffffa4
    1058:	736e6967 	cmnvc	lr, #1687552	; 0x19c000
    105c:	6d6f635c 	stclvs	3, cr6, [pc, #-368]!	; ef4 <_Min_Stack_Size+0xaf4>
    1060:	2e74732e 	cdpcs	3, 7, cr7, cr4, cr14, {1}
    1064:	336d7473 	cmncc	sp, #1929379840	; 0x73000000
    1068:	62756332 	rsbsvs	r6, r5, #-939524096	; 0xc8000000
    106c:	64692e65 	strbtvs	r2, [r9], #-3685	; 0xfffff19b
    1070:	636d2e65 	cmnvs	sp, #1616	; 0x650
    1074:	78652e75 	stmdavc	r5!, {r0, r2, r4, r5, r6, r9, sl, fp, sp}^
    1078:	6e726574 	mrcvs	5, 3, r6, cr2, cr4, {3}
    107c:	6f746c61 	svcvs	0x00746c61
    1080:	2e736c6f 	cdpcs	12, 7, cr6, cr3, cr15, {3}
    1084:	2d756e67 	ldclcs	14, cr6, [r5, #-412]!	; 0xfffffe64
    1088:	6c6f6f74 	stclvs	15, cr6, [pc], #-464	; ec0 <_Min_Stack_Size+0xac0>
    108c:	6f662d73 	svcvs	0x00662d73
    1090:	74732d72 	ldrbtvc	r2, [r3], #-3442	; 0xfffff28e
    1094:	2e32336d 	cdpcs	3, 3, cr3, cr2, cr13, {3}
    1098:	30322d37 	eorscc	r2, r2, r7, lsr sp
    109c:	712d3831 			; <UNDEFINED> instruction: 0x712d3831
    10a0:	70752d32 	rsbsvc	r2, r5, r2, lsr sp
    10a4:	65746164 	ldrbvs	r6, [r4, #-356]!	; 0xfffffe9c
    10a8:	6e69772e 	cdpvs	7, 6, cr7, cr9, cr14, {1}
    10ac:	315f3233 	cmpcc	pc, r3, lsr r2	; <UNPREDICTABLE>
    10b0:	302e342e 	eorcc	r3, lr, lr, lsr #8
    10b4:	3230322e 	eorscc	r3, r0, #-536870910	; 0xe0000002
    10b8:	30373030 	eorscc	r3, r7, r0, lsr r0
    10bc:	30323138 	eorscc	r3, r2, r8, lsr r1
    10c0:	6f745c38 	svcvs	0x00745c38
    10c4:	5c736c6f 	ldclpl	12, cr6, [r3], #-444	; 0xfffffe44
    10c8:	2d6d7261 	sfmcs	f7, 2, [sp, #-388]!	; 0xfffffe7c
    10cc:	656e6f6e 	strbvs	r6, [lr, #-3950]!	; 0xfffff092
    10d0:	6261652d 	rsbvs	r6, r1, #188743680	; 0xb400000
    10d4:	6e695c69 	cdpvs	12, 6, cr5, cr9, cr9, {3}
    10d8:	64756c63 	ldrbtvs	r6, [r5], #-3171	; 0xfffff39d
    10dc:	656e5c65 	strbvs	r5, [lr, #-3173]!	; 0xfffff39b
    10e0:	62696c77 	rsbvs	r6, r9, #30464	; 0x7700
    10e4:	6e616e2d 	cdpvs	14, 6, cr6, cr1, cr13, {1}
    10e8:	5300006f 	movwpl	r0, #111	; 0x6f
    10ec:	32336d74 	eorscc	r6, r3, #116, 26	; 0x1d00
    10f0:	3031465f 	eorscc	r4, r1, pc, asr r6
    10f4:	5f364333 	svcpl	0x00364333
    10f8:	49545845 	ldmdbmi	r4, {r0, r2, r6, fp, ip, lr}^
    10fc:	6972645f 	ldmdbvs	r2!, {r0, r1, r2, r3, r4, r6, sl, sp, lr}^
    1100:	2e726576 	mrccs	5, 3, r6, cr2, cr6, {3}
    1104:	00010063 	andeq	r0, r1, r3, rrx
    1108:	65645f00 	strbvs	r5, [r4, #-3840]!	; 0xfffff100
    110c:	6c756166 	ldfvse	f6, [r5], #-408	; 0xfffffe68
    1110:	79745f74 	ldmdbvc	r4!, {r2, r4, r5, r6, r8, r9, sl, fp, ip, lr}^
    1114:	2e736570 	mrccs	5, 3, r6, cr3, cr0, {3}
    1118:	00020068 	andeq	r0, r2, r8, rrx
    111c:	636f6c00 	cmnvs	pc, #0, 24
    1120:	00682e6b 	rsbeq	r2, r8, fp, ror #28
    1124:	5f000003 	svcpl	0x00000003
    1128:	65707974 	ldrbvs	r7, [r0, #-2420]!	; 0xfffff68c
    112c:	00682e73 	rsbeq	r2, r8, r3, ror lr
    1130:	73000003 	movwvc	r0, #3
    1134:	65646474 	strbvs	r6, [r4, #-1140]!	; 0xfffffb8c
    1138:	00682e66 	rsbeq	r2, r8, r6, ror #28
    113c:	72000004 	andvc	r0, r0, #4
    1140:	746e6565 	strbtvc	r6, [lr], #-1381	; 0xfffffa9b
    1144:	0300682e 	movweq	r6, #2094	; 0x82e
    1148:	74730000 	ldrbtvc	r0, [r3], #-0
    114c:	62696c64 	rsbvs	r6, r9, #100, 24	; 0x6400
    1150:	0500682e 	streq	r6, [r0, #-2094]	; 0xfffff7d2
    1154:	735f0000 	cmpvc	pc, #0
    1158:	6e696474 	mcrvs	4, 3, r6, cr9, cr4, {3}
    115c:	00682e74 	rsbeq	r2, r8, r4, ror lr
    1160:	73000003 	movwvc	r0, #3
    1164:	32336d74 	eorscc	r6, r3, #116, 26	; 0x1d00
    1168:	33303166 	teqcc	r0, #-2147483623	; 0x80000019
    116c:	682e3878 	stmdavs	lr!, {r3, r4, r5, r6, fp, ip, sp}
    1170:	00000600 	andeq	r0, r0, r0, lsl #12
    1174:	336d7453 	cmncc	sp, #1392508928	; 0x53000000
    1178:	31465f32 	cmpcc	r6, r2, lsr pc
    117c:	36433330 			; <UNDEFINED> instruction: 0x36433330
    1180:	6970675f 	ldmdbvs	r0!, {r0, r1, r2, r3, r4, r6, r8, r9, sl, sp, lr}^
    1184:	72645f6f 	rsbvc	r5, r4, #444	; 0x1bc
    1188:	72657669 	rsbvc	r7, r5, #110100480	; 0x6900000
    118c:	0600682e 	streq	r6, [r0], -lr, lsr #16
    1190:	74530000 	ldrbvc	r0, [r3], #-0
    1194:	5f32336d 	svcpl	0x0032336d
    1198:	33303146 	teqcc	r0, #-2147483631	; 0x80000011
    119c:	455f3643 	ldrbmi	r3, [pc, #-1603]	; b61 <_Min_Stack_Size+0x761>
    11a0:	5f495458 	svcpl	0x00495458
    11a4:	76697264 	strbtvc	r7, [r9], -r4, ror #4
    11a8:	682e7265 	stmdavs	lr!, {r0, r2, r5, r6, r9, ip, sp, lr}
    11ac:	00000600 	andeq	r0, r0, r0, lsl #12
    11b0:	65656569 	strbvs	r6, [r5, #-1385]!	; 0xfffffa97
    11b4:	682e7066 	stmdavs	lr!, {r1, r2, r5, r6, ip, sp, lr}
    11b8:	00000200 	andeq	r0, r0, r0, lsl #4
    11bc:	736e615f 	cmnvc	lr, #-1073741801	; 0xc0000017
    11c0:	00682e69 	rsbeq	r2, r8, r9, ror #28
    11c4:	6e000005 	cdpvs	0, 0, cr0, cr0, cr5, {0}
    11c8:	696c7765 	stmdbvs	ip!, {r0, r2, r5, r6, r8, r9, sl, ip, sp, lr}^
    11cc:	00682e62 	rsbeq	r2, r8, r2, ror #28
    11d0:	5f000007 	svcpl	0x00000007
    11d4:	6c77656e 	cfldr64vs	mvdx6, [r7], #-440	; 0xfffffe48
    11d8:	765f6269 	ldrbvc	r6, [pc], -r9, ror #4
    11dc:	69737265 	ldmdbvs	r3!, {r0, r2, r5, r6, r9, ip, sp, lr}^
    11e0:	682e6e6f 	stmdavs	lr!, {r0, r1, r2, r3, r5, r6, r9, sl, fp, sp, lr}
    11e4:	00000500 	andeq	r0, r0, r0, lsl #10
    11e8:	666e6f63 	strbtvs	r6, [lr], -r3, ror #30
    11ec:	682e6769 	stmdavs	lr!, {r0, r3, r5, r6, r8, r9, sl, sp, lr}
    11f0:	00000300 	andeq	r0, r0, r0, lsl #6
    11f4:	74616566 	strbtvc	r6, [r1], #-1382	; 0xfffffa9a
    11f8:	73657275 	cmnvc	r5, #1342177287	; 0x50000007
    11fc:	0300682e 	movweq	r6, #2094	; 0x82e
    1200:	745f0000 	ldrbvc	r0, [pc], #-0	; 1208 <_Min_Stack_Size+0xe08>
    1204:	73657079 	cmnvc	r5, #121	; 0x79
    1208:	0200682e 	andeq	r6, r0, #3014656	; 0x2e0000
    120c:	64630000 	strbtvs	r0, [r3], #-0
    1210:	2e736665 	cdpcs	6, 7, cr6, cr3, cr5, {3}
    1214:	00030068 	andeq	r0, r3, r8, rrx
    1218:	64747300 	ldrbtvs	r7, [r4], #-768	; 0xfffffd00
    121c:	2e62696c 	vnmulcs.f16	s13, s4, s25	; <UNPREDICTABLE>
    1220:	00020068 	andeq	r0, r2, r8, rrx
    1224:	6c6c6100 	stfvse	f6, [ip], #-0
    1228:	2e61636f 	cdpcs	3, 6, cr6, cr1, cr15, {3}
    122c:	00050068 	andeq	r0, r5, r8, rrx
    1230:	64747300 	ldrbtvs	r7, [r4], #-768	; 0xfffffd00
    1234:	2e746e69 	cdpcs	14, 7, cr6, cr4, cr9, {3}
    1238:	00040068 	andeq	r0, r4, r8, rrx
    123c:	64747300 	ldrbtvs	r7, [r4], #-768	; 0xfffffd00
    1240:	2e746e69 	cdpcs	14, 7, cr6, cr4, cr9, {3}
    1244:	00050068 	andeq	r0, r5, r8, rrx
    1248:	6e695f00 	cdpvs	15, 6, cr5, cr9, cr0, {0}
    124c:	70757374 	rsbsvc	r7, r5, r4, ror r3
    1250:	0300682e 	movweq	r6, #2094	; 0x82e
    1254:	00000000 	andeq	r0, r0, r0
    1258:	04780205 	ldrbteq	r0, [r8], #-517	; 0xfffffdfb
    125c:	1c030800 	stcne	8, cr0, [r3], {-0}
    1260:	27025901 	strcs	r5, [r2, -r1, lsl #18]
    1264:	67226715 			; <UNDEFINED> instruction: 0x67226715
    1268:	67226722 	strvs	r6, [r2, -r2, lsr #14]!
    126c:	67266722 	strvs	r6, [r6, -r2, lsr #14]!
    1270:	02226727 	eoreq	r6, r2, #10223616	; 0x9c0000
    1274:	01010009 	tsteq	r1, r9
    1278:	44020500 	strmi	r0, [r2], #-1280	; 0xfffffb00
    127c:	03080005 	movweq	r0, #32773	; 0x8005
    1280:	590100c1 	stmdbpl	r1, {r0, r6, r7}
    1284:	67152702 	ldrvs	r2, [r5, -r2, lsl #14]
    1288:	67226722 	strvs	r6, [r2, -r2, lsr #14]!
    128c:	67226722 	strvs	r6, [r2, -r2, lsr #14]!
    1290:	67276726 	strvs	r6, [r7, -r6, lsr #14]!
    1294:	00090222 	andeq	r0, r9, r2, lsr #4
    1298:	05000101 	streq	r0, [r0, #-257]	; 0xfffffeff
    129c:	00061002 	andeq	r1, r6, r2
    12a0:	00e60308 	rsceq	r0, r6, r8, lsl #6
    12a4:	2f3d4d01 	svccs	0x003d4d01
    12a8:	08855985 	stmeq	r5, {r0, r2, r7, r8, fp, ip, lr}
    12ac:	04020013 	streq	r0, [r2], #-19	; 0xffffffed
    12b0:	009e0601 	addseq	r0, lr, r1, lsl #12
    12b4:	58030402 	stmdapl	r3, {r1, sl}
    12b8:	05040200 	streq	r0, [r4, #-512]	; 0xfffffe00
    12bc:	04020058 	streq	r0, [r2], #-88	; 0xffffffa8
    12c0:	02005807 	andeq	r5, r0, #458752	; 0x70000
    12c4:	002e0804 	eoreq	r0, lr, r4, lsl #16
    12c8:	2e060402 	cdpcs	4, 0, cr0, cr6, cr2, {0}
    12cc:	04040200 	streq	r0, [r4], #-512	; 0xfffffe00
    12d0:	0402002e 	streq	r0, [r2], #-46	; 0xffffffd2
    12d4:	02002e02 	andeq	r2, r0, #2, 28
    12d8:	00201004 	eoreq	r1, r0, r4
    12dc:	06100402 	ldreq	r0, [r0], -r2, lsl #8
    12e0:	04020093 	streq	r0, [r2], #-147	; 0xffffff6d
    12e4:	0200bb10 	andeq	fp, r0, #16, 22	; 0x4000
    12e8:	4cbc1004 	ldcmi	0, cr1, [ip], #16
    12ec:	4cbc4cbc 	ldcmi	12, cr4, [ip], #752	; 0x2f0
    12f0:	4c85b0ad 	stcmi	0, cr11, [r5], {173}	; 0xad
    12f4:	bb1d5fad 	bllt	7591b0 <_Min_Stack_Size+0x758db0>
    12f8:	0012025a 	andseq	r0, r2, sl, asr r2
    12fc:	05000101 	streq	r0, [r0, #-257]	; 0xfffffeff
    1300:	0007e802 	andeq	lr, r7, r2, lsl #16
    1304:	01a50308 			; <UNDEFINED> instruction: 0x01a50308
    1308:	023d4b01 	eorseq	r4, sp, #1024	; 0x400
    130c:	01010004 	tsteq	r1, r4
    1310:	00020500 	andeq	r0, r2, r0, lsl #10
    1314:	03000000 	movweq	r0, #0
    1318:	2f0101b1 	svccs	0x000101b1
    131c:	3d3d3d3d 	ldccc	13, cr3, [sp, #-244]!	; 0xffffff0c
    1320:	67674d3f 			; <UNDEFINED> instruction: 0x67674d3f
    1324:	67676767 	strbvs	r6, [r7, -r7, ror #14]!
    1328:	000b0268 	andeq	r0, fp, r8, ror #4
    132c:	05000101 	streq	r0, [r0, #-257]	; 0xfffffeff
    1330:	00000002 	andeq	r0, r0, r2
    1334:	01d00300 	bicseq	r0, r0, r0, lsl #6
    1338:	023d4b01 	eorseq	r4, sp, #1024	; 0x400
    133c:	01010004 	tsteq	r1, r4
    1340:	00020500 	andeq	r0, r2, r0, lsl #10
    1344:	03080008 	movweq	r0, #32776	; 0x8008
    1348:	300101da 	ldrdcc	r0, [r1], -sl
    134c:	07023d68 	streq	r3, [r2, -r8, ror #26]
    1350:	00010100 	andeq	r0, r1, r0, lsl #2
    1354:	08240205 	stmdaeq	r4!, {r0, r2, r9}
    1358:	e2030800 	and	r0, r3, #0, 16
    135c:	672f0101 	strvs	r0, [pc, -r1, lsl #2]!
    1360:	0007023d 	andeq	r0, r7, sp, lsr r2
    1364:	05000101 	streq	r0, [r0, #-257]	; 0xfffffeff
    1368:	00084802 	andeq	r4, r8, r2, lsl #16
    136c:	01e80308 	mvneq	r0, r8, lsl #6
    1370:	3d672f01 	stclcc	15, cr2, [r7, #-4]!
    1374:	01000702 	tsteq	r0, r2, lsl #14
    1378:	02050001 	andeq	r0, r5, #1
    137c:	0800086c 	stmdaeq	r0, {r2, r3, r5, r6, fp}
    1380:	0101ee03 	tsteq	r1, r3, lsl #28
    1384:	023d672f 	eorseq	r6, sp, #12320768	; 0xbc0000
    1388:	01010007 	tsteq	r1, r7
    138c:	90020500 	andls	r0, r2, r0, lsl #10
    1390:	03080008 	movweq	r0, #32776	; 0x8008
    1394:	2f0101f4 	svccs	0x000101f4
    1398:	07023d67 	streq	r3, [r2, -r7, ror #26]
    139c:	00010100 	andeq	r0, r1, r0, lsl #2
    13a0:	08b40205 	ldmeq	r4!, {r0, r2, r9}
    13a4:	fa030800 	blx	c33ac <_Min_Stack_Size+0xc2fac>
    13a8:	002f0101 	eoreq	r0, pc, r1, lsl #2
    13ac:	06010402 	streq	r0, [r1], -r2, lsl #8
    13b0:	00910666 	addseq	r0, r1, r6, ror #12
    13b4:	06010402 	streq	r0, [r1], -r2, lsl #8
    13b8:	00910666 	addseq	r0, r1, r6, ror #12
    13bc:	06010402 	streq	r0, [r1], -r2, lsl #8
    13c0:	00910666 	addseq	r0, r1, r6, ror #12
    13c4:	06010402 	streq	r0, [r1], -r2, lsl #8
    13c8:	00910666 	addseq	r0, r1, r6, ror #12
    13cc:	06010402 	streq	r0, [r1], -r2, lsl #8
    13d0:	02910666 	addseq	r0, r1, #106954752	; 0x6600000
    13d4:	01010007 	tsteq	r1, r7
    13d8:	5c020500 	cfstr32pl	mvfx0, [r2], {-0}
    13dc:	03080009 	movweq	r0, #32777	; 0x8009
    13e0:	2f010283 	svccs	0x00010283
    13e4:	01040200 	mrseq	r0, R12_usr
    13e8:	91066606 	tstls	r6, r6, lsl #12
    13ec:	01040200 	mrseq	r0, R12_usr
    13f0:	91066606 	tstls	r6, r6, lsl #12
    13f4:	01040200 	mrseq	r0, R12_usr
    13f8:	91066606 	tstls	r6, r6, lsl #12
    13fc:	01040200 	mrseq	r0, R12_usr
    1400:	91066606 	tstls	r6, r6, lsl #12
    1404:	01040200 	mrseq	r0, R12_usr
    1408:	91066606 	tstls	r6, r6, lsl #12
    140c:	01040200 	mrseq	r0, R12_usr
    1410:	91066606 	tstls	r6, r6, lsl #12
    1414:	01000602 	tsteq	r0, r2, lsl #12
    1418:	Address 0x0000000000001418 is out of bounds.


Disassembly of section .debug_str:

00000000 <.debug_str>:
       0:	38544e49 	ldmdacc	r4, {r0, r3, r6, r9, sl, fp, lr}^
       4:	58414d5f 	stmdapl	r1, {r0, r1, r2, r3, r4, r6, r8, sl, fp, lr}^
       8:	5f5f2820 	svcpl	0x005f2820
       c:	38544e49 	ldmdacc	r4, {r0, r3, r6, r9, sl, fp, lr}^
      10:	58414d5f 	stmdapl	r1, {r0, r1, r2, r3, r4, r6, r8, sl, fp, lr}^
      14:	00295f5f 	eoreq	r5, r9, pc, asr pc
      18:	4e475f5f 	mcrmi	15, 2, r5, cr7, cr15, {2}
      1c:	494c4355 	stmdbmi	ip, {r0, r2, r4, r6, r8, r9, lr}^
      20:	5f5f454b 	svcpl	0x005f454b
      24:	4345535f 	movtmi	r5, #21343	; 0x535f
      28:	4e4f4954 			; <UNDEFINED> instruction: 0x4e4f4954
      2c:	57003120 	strpl	r3, [r0, -r0, lsr #2]
      30:	5f544e49 	svcpl	0x00544e49
      34:	204e494d 	subcs	r4, lr, sp, asr #18
      38:	575f5f28 	ldrbpl	r5, [pc, -r8, lsr #30]
      3c:	5f544e49 	svcpl	0x00544e49
      40:	5f4e494d 	svcpl	0x004e494d
      44:	5f00295f 	svcpl	0x0000295f
      48:	4345445f 	movtmi	r4, #21599	; 0x545f
      4c:	4c414d49 	mcrrmi	13, 4, r4, r1, cr9
      50:	4749445f 	smlsldmi	r4, r9, pc, r4	; <UNPREDICTABLE>
      54:	31205f5f 			; <UNDEFINED> instruction: 0x31205f5f
      58:	5f5f0037 	svcpl	0x005f0037
      5c:	5f414855 	svcpl	0x00414855
      60:	54494246 	strbpl	r4, [r9], #-582	; 0xfffffdba
      64:	38205f5f 	stmdacc	r0!, {r0, r1, r2, r3, r4, r6, r8, r9, sl, fp, ip, lr}
      68:	535f5f00 	cmppl	pc, #0, 30
      6c:	5f444956 	svcpl	0x00444956
      70:	49534956 	ldmdbmi	r3, {r1, r2, r4, r6, r8, fp, lr}^
      74:	20454c42 	subcs	r4, r5, r2, asr #24
      78:	5f5f0031 	svcpl	0x005f0031
      7c:	32746e69 	rsbscc	r6, r4, #1680	; 0x690
      80:	322b2030 	eorcc	r2, fp, #48	; 0x30
      84:	54584500 	ldrbpl	r4, [r8], #-1280	; 0xfffffb00
      88:	50353149 	eorspl	r3, r5, r9, asr #2
      8c:	20353144 	eorscs	r3, r5, r4, asr #2
      90:	54584528 	ldrbpl	r4, [r8], #-1320	; 0xfffffad8
      94:	50475f49 	subpl	r5, r7, r9, asr #30
      98:	4d5f4f49 	ldclmi	15, cr4, [pc, #-292]	; ffffff7c <_estack+0xdfffd77c>
      9c:	69707061 	ldmdbvs	r0!, {r0, r5, r6, ip, sp, lr}^
      a0:	745f676e 	ldrbvc	r6, [pc], #-1902	; a8 <_Min_Heap_Size-0x158>
      a4:	58457b29 	stmdapl	r5, {r0, r3, r5, r8, r9, fp, ip, sp, lr}^
      a8:	35314954 	ldrcc	r4, [r1, #-2388]!	; 0xfffff6ac
      ac:	5047202c 	subpl	r2, r7, ip, lsr #32
      b0:	2c444f49 	mcrrcs	15, 4, r4, r4, cr9
      b4:	49504720 	ldmdbmi	r0, {r5, r8, r9, sl, lr}^
      b8:	49505f4f 	ldmdbmi	r0, {r0, r1, r2, r3, r6, r8, r9, sl, fp, ip, lr}^
      bc:	35315f4e 	ldrcc	r5, [r1, #-3918]!	; 0xfffff0b2
      c0:	5845202c 	stmdapl	r5, {r2, r3, r5, sp}^
      c4:	35314954 	ldrcc	r4, [r1, #-2388]!	; 0xfffff6ac
      c8:	5152495f 	cmppl	r2, pc, asr r9
      cc:	5f007d20 	svcpl	0x00007d20
      d0:	4345445f 	movtmi	r4, #21599	; 0x545f
      d4:	5f383231 	svcpl	0x00383231
      d8:	49535045 	ldmdbmi	r3, {r0, r2, r6, ip, lr}^
      dc:	5f4e4f4c 	svcpl	0x004e4f4c
      e0:	4531205f 	ldrmi	r2, [r1, #-95]!	; 0xffffffa1
      e4:	4433332d 	ldrtmi	r3, [r3], #-813	; 0xfffffcd3
      e8:	5f5f004c 	svcpl	0x005f004c
      ec:	36544c46 	ldrbcc	r4, [r4], -r6, asr #24
      f0:	45445f34 	strbmi	r5, [r4, #-3892]	; 0xfffff0cc
      f4:	4d524f4e 	ldclmi	15, cr4, [r2, #-312]	; 0xfffffec8
      f8:	4e494d5f 	mcrmi	13, 2, r4, cr9, cr15, {2}
      fc:	34205f5f 	strtcc	r5, [r0], #-3935	; 0xfffff0a1
     100:	3034392e 	eorscc	r3, r4, lr, lsr #18
     104:	34363536 	ldrtcc	r3, [r6], #-1334	; 0xfffffaca
     108:	31343835 	teqcc	r4, r5, lsr r8
     10c:	35363432 	ldrcc	r3, [r6, #-1074]!	; 0xfffffbce
     110:	332d6534 			; <UNDEFINED> instruction: 0x332d6534
     114:	36463432 			; <UNDEFINED> instruction: 0x36463432
     118:	4e490034 	mcrmi	0, 2, r0, cr9, cr4, {1}
     11c:	54535f43 	ldrbpl	r5, [r3], #-3907	; 0xfffff0bd
     120:	4632334d 	ldrtmi	r3, [r2], -sp, asr #6
     124:	58333031 	ldmdapl	r3!, {r0, r4, r5, ip, sp}
     128:	5f485f38 	svcpl	0x00485f38
     12c:	5f5f0020 	svcpl	0x005f0020
     130:	65726e75 	ldrbvs	r6, [r2, #-3701]!	; 0xfffff18b
     134:	61686361 	cmnvs	r8, r1, ror #6
     138:	28656c62 	stmdacs	r5!, {r1, r5, r6, sl, fp, sp, lr}^
     13c:	5f5f2029 	svcpl	0x005f2029
     140:	6c697562 	cfstr64vs	mvdx7, [r9], #-392	; 0xfffffe78
     144:	5f6e6974 	svcpl	0x006e6974
     148:	65726e75 	ldrbvs	r6, [r2, #-3701]!	; 0xfffff18b
     14c:	61686361 	cmnvs	r8, r1, ror #6
     150:	28656c62 	stmdacs	r5!, {r1, r5, r6, sl, fp, sp, lr}^
     154:	5f5f0029 	svcpl	0x005f0029
     158:	5f434347 	svcpl	0x00434347
     15c:	4d4f5441 	cfstrdmi	mvd5, [pc, #-260]	; 60 <_Min_Heap_Size-0x1a0>
     160:	575f4349 	ldrbpl	r4, [pc, -r9, asr #6]
     164:	52414843 	subpl	r4, r1, #4390912	; 0x430000
     168:	4c5f545f 	cfldrdmi	mvd5, [pc], {95}	; 0x5f
     16c:	5f4b434f 	svcpl	0x004b434f
     170:	45455246 	strbmi	r5, [r5, #-582]	; 0xfffffdba
     174:	5f003220 	svcpl	0x00003220
     178:	4148435f 	cmpmi	r8, pc, asr r3
     17c:	4e555f52 	mrcmi	15, 2, r5, cr5, cr2, {2}
     180:	4e474953 			; <UNDEFINED> instruction: 0x4e474953
     184:	5f5f4445 	svcpl	0x005f4445
     188:	5f003120 	svcpl	0x00003120
     18c:	4e49555f 	mcrmi	5, 2, r5, cr9, cr15, {2}
     190:	52545054 	subspl	r5, r4, #84	; 0x54
     194:	58414d5f 	stmdapl	r1, {r0, r1, r2, r3, r4, r6, r8, sl, fp, lr}^
     198:	30205f5f 	eorcc	r5, r0, pc, asr pc
     19c:	66666678 			; <UNDEFINED> instruction: 0x66666678
     1a0:	66666666 	strbtvs	r6, [r6], -r6, ror #12
     1a4:	5f005566 	svcpl	0x00005566
     1a8:	5246535f 	subpl	r5, r6, #2080374785	; 0x7c000001
     1ac:	5f544341 	svcpl	0x00544341
     1b0:	54494246 	strbpl	r4, [r9], #-582	; 0xfffffdba
     1b4:	37205f5f 			; <UNDEFINED> instruction: 0x37205f5f
     1b8:	775f5f00 	ldrbvc	r5, [pc, -r0, lsl #30]
     1bc:	5f6b6165 	svcpl	0x006b6165
     1c0:	626d7973 	rsbvs	r7, sp, #1884160	; 0x1cc000
     1c4:	5f206c6f 	svcpl	0x00206c6f
     1c8:	7474615f 	ldrbtvc	r6, [r4], #-351	; 0xfffffea1
     1cc:	75626972 	strbvc	r6, [r2, #-2418]!	; 0xfffff68e
     1d0:	5f5f6574 	svcpl	0x005f6574
     1d4:	5f5f2828 	svcpl	0x005f2828
     1d8:	6b616577 	blvs	18597bc <_Min_Stack_Size+0x18593bc>
     1dc:	29295f5f 	stmdbcs	r9!, {r0, r1, r2, r3, r4, r6, r8, r9, sl, fp, ip, lr}
     1e0:	6c5f5f00 	mrrcvs	15, 0, r5, pc, cr0	; <UNPREDICTABLE>
     1e4:	6c61636f 	stclvs	3, cr6, [r1], #-444	; 0xfffffe44
     1e8:	00745f65 	rsbseq	r5, r4, r5, ror #30
     1ec:	4c465f5f 	mcrrmi	15, 5, r5, r6, cr15
     1f0:	5f343654 	svcpl	0x00343654
     1f4:	5f534148 	svcpl	0x00534148
     1f8:	49464e49 	stmdbmi	r6, {r0, r3, r6, r9, sl, fp, lr}^
     1fc:	5954494e 	ldmdbpl	r4, {r1, r2, r3, r6, r8, fp, lr}^
     200:	31205f5f 			; <UNDEFINED> instruction: 0x31205f5f
     204:	765f5f00 	ldrbvc	r5, [pc], -r0, lsl #30
     208:	65756c61 	ldrbvs	r6, [r5, #-3169]!	; 0xfffff39f
     20c:	725f5f00 	subsvc	r5, pc, #0, 30
     210:	69757165 	ldmdbvs	r5!, {r0, r2, r5, r6, r8, ip, sp, lr}^
     214:	5f736572 	svcpl	0x00736572
     218:	6c637865 	stclvs	8, cr7, [r3], #-404	; 0xfffffe6c
     21c:	76697375 			; <UNDEFINED> instruction: 0x76697375
     220:	2e2e2865 	cdpcs	8, 2, cr2, cr14, cr5, {3}
     224:	5f20292e 	svcpl	0x0020292e
     228:	636f6c5f 	cmnvs	pc, #24320	; 0x5f00
     22c:	6e615f6b 	cdpvs	15, 6, cr5, cr1, cr11, {3}
     230:	61746f6e 	cmnvs	r4, lr, ror #30
     234:	65286574 	strvs	r6, [r8, #-1396]!	; 0xfffffa8c
     238:	756c6378 	strbvc	r6, [ip, #-888]!	; 0xfffffc88
     23c:	65766973 	ldrbvs	r6, [r6, #-2419]!	; 0xfffff68d
     240:	636f6c5f 	cmnvs	pc, #24320	; 0x5f00
     244:	725f736b 	subsvc	r7, pc, #-1409286143	; 0xac000001
     248:	69757165 	ldmdbvs	r5!, {r0, r2, r5, r6, r8, ip, sp, lr}^
     24c:	28646572 	stmdacs	r4!, {r1, r4, r5, r6, r8, sl, sp, lr}^
     250:	41565f5f 	cmpmi	r6, pc, asr pc
     254:	4752415f 			; <UNDEFINED> instruction: 0x4752415f
     258:	295f5f53 	ldmdbcs	pc, {r0, r1, r4, r6, r8, r9, sl, fp, ip, lr}^	; <UNPREDICTABLE>
     25c:	525f0029 	subspl	r0, pc, #41	; 0x29
     260:	544e4545 	strbpl	r4, [lr], #-1349	; 0xfffffabb
     264:	4e41525f 	mcrmi	2, 2, r5, cr1, cr15, {2}
     268:	5f383444 	svcpl	0x00383444
     26c:	28444441 	stmdacs	r4, {r0, r6, sl, lr}^
     270:	29727470 	ldmdbcs	r2!, {r4, r5, r6, sl, ip, sp, lr}^
     274:	70282820 	eorvc	r2, r8, r0, lsr #16
     278:	2d297274 	sfmcs	f7, 4, [r9, #-464]!	; 0xfffffe30
     27c:	34725f3e 	ldrbtcc	r5, [r2], #-3902	; 0xfffff0c2
     280:	5f3e2d38 	svcpl	0x003e2d38
     284:	29646461 	stmdbcs	r4!, {r0, r5, r6, sl, sp, lr}^
     288:	544e4900 	strbpl	r4, [lr], #-2304	; 0xfffff700
     28c:	4d5f3631 	ldclmi	6, cr3, [pc, #-196]	; 1d0 <_Min_Heap_Size-0x30>
     290:	28204e49 	stmdacs	r0!, {r0, r3, r6, r9, sl, fp, lr}
     294:	495f5f2d 	ldmdbmi	pc, {r0, r2, r3, r5, r8, r9, sl, fp, ip, lr}^	; <UNPREDICTABLE>
     298:	3631544e 	ldrtcc	r5, [r1], -lr, asr #8
     29c:	58414d5f 	stmdapl	r1, {r0, r1, r2, r3, r4, r6, r8, sl, fp, lr}^
     2a0:	2d205f5f 	stccs	15, cr5, [r0, #-380]!	; 0xfffffe84
     2a4:	00293120 	eoreq	r3, r9, r0, lsr #2
     2a8:	4c4c5f5f 	mcrrmi	15, 5, r5, ip, cr15
     2ac:	55434341 	strbpl	r4, [r3, #-833]	; 0xfffffcbf
     2b0:	494d5f4d 	stmdbmi	sp, {r0, r2, r3, r6, r8, r9, sl, fp, ip, lr}^
     2b4:	205f5f4e 	subscs	r5, pc, lr, asr #30
     2b8:	58302d28 	ldmdapl	r0!, {r3, r5, r8, sl, fp, sp}
     2bc:	31335031 	teqcc	r3, r1, lsr r0
     2c0:	2d4b4c4c 	stclcs	12, cr4, [fp, #-304]	; 0xfffffed0
     2c4:	50315830 	eorspl	r5, r1, r0, lsr r8
     2c8:	4c4c3133 	stfmie	f3, [ip], {51}	; 0x33
     2cc:	5f00294b 	svcpl	0x0000294b
     2d0:	0066735f 	rsbeq	r7, r6, pc, asr r3
     2d4:	49545845 	ldmdbmi	r4, {r0, r2, r6, fp, ip, lr}^
     2d8:	39435039 	stmdbcc	r3, {r0, r3, r4, r5, ip, lr}^
     2dc:	58452820 	stmdapl	r5, {r5, fp, sp}^
     2e0:	475f4954 			; <UNDEFINED> instruction: 0x475f4954
     2e4:	5f4f4950 	svcpl	0x004f4950
     2e8:	7070614d 	rsbsvc	r6, r0, sp, asr #2
     2ec:	5f676e69 	svcpl	0x00676e69
     2f0:	457b2974 	ldrbmi	r2, [fp, #-2420]!	; 0xfffff68c
     2f4:	39495458 	stmdbcc	r9, {r3, r4, r6, sl, ip, lr}^
     2f8:	5047202c 	subpl	r2, r7, ip, lsr #32
     2fc:	2c434f49 	mcrrcs	15, 4, r4, r3, cr9
     300:	49504720 	ldmdbmi	r0, {r5, r8, r9, sl, lr}^
     304:	49505f4f 	ldmdbmi	r0, {r0, r1, r2, r3, r6, r8, r9, sl, fp, ip, lr}^
     308:	2c395f4e 	ldccs	15, cr5, [r9], #-312	; 0xfffffec8
     30c:	54584520 	ldrbpl	r4, [r8], #-1312	; 0xfffffae0
     310:	495f3949 	ldmdbmi	pc, {r0, r3, r6, r8, fp, ip, sp}^	; <UNPREDICTABLE>
     314:	7d205152 	stfvcs	f5, [r0, #-328]!	; 0xfffffeb8
     318:	505f5f00 	subspl	r5, pc, r0, lsl #30
     31c:	49445254 	stmdbmi	r4, {r2, r4, r6, r9, ip, lr}^
     320:	4d5f4646 	ldclmi	6, cr4, [pc, #-280]	; 210 <_Min_Heap_Size+0x10>
     324:	5f5f5841 	svcpl	0x005f5841
     328:	37783020 	ldrbcc	r3, [r8, -r0, lsr #32]!
     32c:	66666666 	strbtvs	r6, [r6], -r6, ror #12
     330:	00666666 	rsbeq	r6, r6, r6, ror #12
     334:	4e4f4c5f 	mcrmi	12, 2, r4, cr15, cr15, {2}
     338:	4f445f47 	svcmi	0x00445f47
     33c:	454c4255 	strbmi	r4, [ip, #-597]	; 0xfffffdab
     340:	6e6f6c20 	cdpvs	12, 6, cr6, cr15, cr0, {1}
     344:	6f642067 	svcvs	0x00642067
     348:	656c6275 	strbvs	r6, [ip, #-629]!	; 0xfffffd8b
     34c:	54584500 	ldrbpl	r4, [r8], #-1280	; 0xfffffb00
     350:	495f3949 	ldmdbmi	pc, {r0, r3, r6, r8, fp, ip, sp}^	; <UNPREDICTABLE>
     354:	32205152 	eorcc	r5, r0, #-2147483628	; 0x80000014
     358:	5f5f0033 	svcpl	0x005f0033
     35c:	4d544e49 	ldclmi	14, cr4, [r4, #-292]	; 0xfffffedc
     360:	435f5841 	cmpmi	pc, #4259840	; 0x410000
     364:	20296328 	eorcs	r6, r9, r8, lsr #6
     368:	23232063 			; <UNDEFINED> instruction: 0x23232063
     36c:	004c4c20 	subeq	r4, ip, r0, lsr #24
     370:	62735f5f 	rsbsvs	r5, r3, #380	; 0x17c
     374:	5f006675 	svcpl	0x00006675
     378:	64616572 	strbtvs	r6, [r1], #-1394	; 0xfffffa8e
     37c:	495f5f00 	ldmdbmi	pc, {r8, r9, sl, fp, ip, lr}^	; <UNPREDICTABLE>
     380:	414d544e 	cmpmi	sp, lr, asr #8
     384:	414d5f58 	cmpmi	sp, r8, asr pc
     388:	205f5f58 	subscs	r5, pc, r8, asr pc	; <UNPREDICTABLE>
     38c:	66377830 			; <UNDEFINED> instruction: 0x66377830
     390:	66666666 	strbtvs	r6, [r6], -r6, ror #12
     394:	66666666 	strbtvs	r6, [r6], -r6, ror #12
     398:	66666666 	strbtvs	r6, [r6], -r6, ror #12
     39c:	4c4c6666 	mcrrmi	6, 6, r6, ip, cr6
     3a0:	45525f00 	ldrbmi	r5, [r2, #-3840]	; 0xfffff100
     3a4:	5f544e45 	svcpl	0x00544e45
     3a8:	54494e49 	strbpl	r4, [r9], #-3657	; 0xfffff1b7
     3ac:	28504d5f 	ldmdacs	r0, {r0, r1, r2, r3, r4, r6, r8, sl, fp, lr}^
     3b0:	29726176 	ldmdbcs	r2!, {r1, r2, r4, r5, r6, r8, sp, lr}^
     3b4:	206f6420 	rsbcs	r6, pc, r0, lsr #8
     3b8:	7473207b 	ldrbtvc	r2, [r3], #-123	; 0xffffff85
     3bc:	74637572 	strbtvc	r7, [r3], #-1394	; 0xfffffa8e
     3c0:	65725f20 	ldrbvs	r5, [r2, #-3872]!	; 0xfffff0e0
     3c4:	20746e65 	rsbscs	r6, r4, r5, ror #28
     3c8:	20725f2a 	rsbscs	r5, r2, sl, lsr #30
     3cc:	7628203d 			; <UNDEFINED> instruction: 0x7628203d
     3d0:	3b297261 	blcc	a5cd5c <_Min_Stack_Size+0xa5c95c>
     3d4:	2d725f20 	ldclcs	15, cr5, [r2, #-128]!	; 0xffffff80
     3d8:	706d5f3e 	rsbvc	r5, sp, lr, lsr pc
     3dc:	725f3e2d 	subsvc	r3, pc, #720	; 0x2d0
     3e0:	6c757365 	ldclvs	3, cr7, [r5], #-404	; 0xfffffe6c
     3e4:	206b5f74 	rsbcs	r5, fp, r4, ror pc
     3e8:	3b30203d 	blcc	c084e4 <_Min_Stack_Size+0xc080e4>
     3ec:	2d725f20 	ldclcs	15, cr5, [r2, #-128]!	; 0xffffff80
     3f0:	706d5f3e 	rsbvc	r5, sp, lr, lsr pc
     3f4:	725f3e2d 	subsvc	r3, pc, #720	; 0x2d0
     3f8:	6c757365 	ldclvs	3, cr7, [r5], #-404	; 0xfffffe6c
     3fc:	203d2074 	eorscs	r2, sp, r4, ror r0
     400:	3e2d725f 	mcrcc	2, 1, r7, cr13, cr15, {2}
     404:	2d706d5f 	ldclcs	13, cr6, [r0, #-380]!	; 0xfffffe84
     408:	35705f3e 	ldrbcc	r5, [r0, #-3902]!	; 0xfffff0c2
     40c:	203d2073 	eorscs	r2, sp, r3, ror r0
     410:	4c554e5f 	mrrcmi	14, 5, r4, r5, cr15
     414:	5f203b4c 	svcpl	0x00203b4c
     418:	5f3e2d72 	svcpl	0x003e2d72
     41c:	3e2d706d 	cdpcc	0, 2, cr7, cr13, cr13, {3}
     420:	6572665f 	ldrbvs	r6, [r2, #-1631]!	; 0xfffff9a1
     424:	73696c65 	cmnvc	r9, #25856	; 0x6500
     428:	203d2074 	eorscs	r2, sp, r4, ror r0
     42c:	4c554e5f 	mrrcmi	14, 5, r4, r5, cr15
     430:	7d203b4c 	vstmdbvc	r0!, {d3-<overflow reg d40>}
     434:	69687720 	stmdbvs	r8!, {r5, r8, r9, sl, ip, sp, lr}^
     438:	2820656c 	stmdacs	r0!, {r2, r3, r5, r6, r8, sl, sp, lr}
     43c:	5f002930 	svcpl	0x00002930
     440:	4345445f 	movtmi	r4, #21599	; 0x545f
     444:	535f3233 	cmppl	pc, #805306371	; 0x30000003
     448:	4f4e4255 	svcmi	0x004e4255
     44c:	4c414d52 	mcrrmi	13, 5, r4, r1, cr2
     450:	4e494d5f 	mcrmi	13, 2, r4, cr9, cr15, {2}
     454:	30205f5f 	eorcc	r5, r0, pc, asr pc
     458:	3030302e 	eorscc	r3, r0, lr, lsr #32
     45c:	45313030 	ldrmi	r3, [r1, #-48]!	; 0xffffffd0
     460:	4435392d 	ldrtmi	r3, [r5], #-2349	; 0xfffff6d3
     464:	5f5f0046 	svcpl	0x005f0046
     468:	495f5154 	ldmdbmi	pc, {r2, r4, r6, r8, ip, lr}^	; <UNPREDICTABLE>
     46c:	5f544942 	svcpl	0x00544942
     470:	0030205f 	eorseq	r2, r0, pc, asr r0
     474:	4c465f5f 	mcrrmi	15, 5, r5, r6, cr15
     478:	5f343654 	svcpl	0x00343654
     47c:	49434544 	stmdbmi	r3, {r2, r6, r8, sl, lr}^
     480:	5f4c414d 	svcpl	0x004c414d
     484:	5f474944 	svcpl	0x00474944
     488:	3731205f 			; <UNDEFINED> instruction: 0x3731205f
     48c:	54584500 	ldrbpl	r4, [r8], #-1280	; 0xfffffb00
     490:	50303149 	eorspl	r3, r0, r9, asr #2
     494:	20303143 	eorscs	r3, r0, r3, asr #2
     498:	54584528 	ldrbpl	r4, [r8], #-1320	; 0xfffffad8
     49c:	50475f49 	subpl	r5, r7, r9, asr #30
     4a0:	4d5f4f49 	ldclmi	15, cr4, [pc, #-292]	; 384 <_Min_Heap_Size+0x184>
     4a4:	69707061 	ldmdbvs	r0!, {r0, r5, r6, ip, sp, lr}^
     4a8:	745f676e 	ldrbvc	r6, [pc], #-1902	; 4b0 <_Min_Stack_Size+0xb0>
     4ac:	58457b29 	stmdapl	r5, {r0, r3, r5, r8, r9, fp, ip, sp, lr}^
     4b0:	30314954 	eorscc	r4, r1, r4, asr r9
     4b4:	5047202c 	subpl	r2, r7, ip, lsr #32
     4b8:	2c434f49 	mcrrcs	15, 4, r4, r3, cr9
     4bc:	49504720 	ldmdbmi	r0, {r5, r8, r9, sl, lr}^
     4c0:	49505f4f 	ldmdbmi	r0, {r0, r1, r2, r3, r6, r8, r9, sl, fp, ip, lr}^
     4c4:	30315f4e 	eorscc	r5, r1, lr, asr #30
     4c8:	5845202c 	stmdapl	r5, {r2, r3, r5, sp}^
     4cc:	30314954 	eorscc	r4, r1, r4, asr r9
     4d0:	5152495f 	cmppl	r2, pc, asr r9
     4d4:	5f007d20 	svcpl	0x00007d20
     4d8:	4e454552 	mcrmi	5, 2, r4, cr5, cr2, {2}
     4dc:	49535f54 	ldmdbmi	r3, {r2, r4, r6, r8, r9, sl, fp, ip, lr}^
     4e0:	4c414e47 	mcrrmi	14, 4, r4, r1, cr7
     4e4:	5a49535f 	bpl	1255268 <_Min_Stack_Size+0x1254e68>
     4e8:	34322045 	ldrtcc	r2, [r2], #-69	; 0xffffffbb
     4ec:	6d4b5f00 	stclvs	15, cr5, [fp, #-0]
     4f0:	28207861 	stmdacs	r0!, {r0, r5, r6, fp, ip, sp, lr}
     4f4:	657a6973 	ldrbvs	r6, [sl, #-2419]!	; 0xfffff68d
     4f8:	2820666f 	stmdacs	r0!, {r0, r1, r2, r3, r5, r6, r9, sl, sp, lr}
     4fc:	657a6973 	ldrbvs	r6, [sl, #-2419]!	; 0xfffff68d
     500:	2029745f 	eorcs	r7, r9, pc, asr r4
     504:	33203c3c 			; <UNDEFINED> instruction: 0x33203c3c
     508:	5f5f0029 	svcpl	0x005f0029
     50c:	4d4f5441 	cfstrdmi	mvd5, [pc, #-260]	; 410 <_Min_Stack_Size+0x10>
     510:	435f4349 	cmpmi	pc, #603979777	; 0x24000001
     514:	55534e4f 	ldrbpl	r4, [r3, #-3663]	; 0xfffff1b1
     518:	3120454d 			; <UNDEFINED> instruction: 0x3120454d
     51c:	555f5f00 	ldrbpl	r5, [pc, #-3840]	; fffff624 <_estack+0xdfffce24>
     520:	4343414c 	movtmi	r4, #12620	; 0x314c
     524:	465f4d55 			; <UNDEFINED> instruction: 0x465f4d55
     528:	5f544942 	svcpl	0x00544942
     52c:	3233205f 	eorscc	r2, r3, #95	; 0x5f
     530:	575f5f00 	ldrbpl	r5, [pc, -r0, lsl #30]
     534:	52414843 	subpl	r4, r1, #4390912	; 0x430000
     538:	58414d5f 	stmdapl	r1, {r0, r1, r2, r3, r4, r6, r8, sl, fp, lr}^
     53c:	30205f5f 	eorcc	r5, r0, pc, asr pc
     540:	66666678 			; <UNDEFINED> instruction: 0x66666678
     544:	66666666 	strbtvs	r6, [r6], -r6, ror #12
     548:	52005566 	andpl	r5, r0, #427819008	; 0x19800000
     54c:	475f4343 	ldrbmi	r4, [pc, -r3, asr #6]
     550:	424f4950 	submi	r4, pc, #80, 18	; 0x140000
     554:	4b4c435f 	blmi	13112d8 <_Min_Stack_Size+0x1310ed8>
     558:	284e455f 	stmdacs	lr, {r0, r1, r2, r3, r4, r6, r8, sl, lr}^
     55c:	52282029 	eorpl	r2, r8, #41	; 0x29
     560:	3e2d4343 	cdpcc	3, 2, cr4, cr13, cr3, {2}
     564:	32425041 	subcc	r5, r2, #65	; 0x41
     568:	20524e45 	subscs	r4, r2, r5, asr #28
     56c:	28203d7c 	stmdacs	r0!, {r2, r3, r4, r5, r6, r8, sl, fp, ip, sp}
     570:	333c3c31 	teqcc	ip, #12544	; 0x3100
     574:	5f002929 	svcpl	0x00002929
     578:	4e4f435f 	mcrmi	3, 2, r4, cr15, cr15, {2}
     57c:	28544143 	ldmdacs	r4, {r0, r1, r6, r8, lr}^
     580:	29792c78 	ldmdbcs	r9!, {r3, r4, r5, r6, sl, fp, sp}^
     584:	435f5f20 	cmpmi	pc, #32, 30	; 0x80
     588:	41434e4f 	cmpmi	r3, pc, asr #28
     58c:	78283154 	stmdavc	r8!, {r2, r4, r6, r8, ip, sp}
     590:	0029792c 	eoreq	r7, r9, ip, lsr #18
     594:	6972775f 	ldmdbvs	r2!, {r0, r1, r2, r3, r4, r6, r8, r9, sl, ip, sp, lr}^
     598:	5f006574 	svcpl	0x00006574
     59c:	554e475f 	strbpl	r4, [lr, #-1887]	; 0xfffff8a1
     5a0:	4b494c43 	blmi	12536b4 <_Min_Stack_Size+0x12532b4>
     5a4:	5f5f5f45 	svcpl	0x005f5f45
     5a8:	45505954 	ldrbmi	r5, [r0, #-2388]	; 0xfffff6ac
     5ac:	3120464f 			; <UNDEFINED> instruction: 0x3120464f
     5b0:	54584500 	ldrbpl	r4, [r8], #-1280	; 0xfffffb00
     5b4:	42503649 	subsmi	r3, r0, #76546048	; 0x4900000
     5b8:	45282036 	strmi	r2, [r8, #-54]!	; 0xffffffca
     5bc:	5f495458 	svcpl	0x00495458
     5c0:	4f495047 	svcmi	0x00495047
     5c4:	70614d5f 	rsbvc	r4, r1, pc, asr sp
     5c8:	676e6970 			; <UNDEFINED> instruction: 0x676e6970
     5cc:	7b29745f 	blvc	a5d750 <_Min_Stack_Size+0xa5d350>
     5d0:	49545845 	ldmdbmi	r4, {r0, r2, r6, fp, ip, lr}^
     5d4:	47202c36 			; <UNDEFINED> instruction: 0x47202c36
     5d8:	424f4950 	submi	r4, pc, #80, 18	; 0x140000
     5dc:	5047202c 	subpl	r2, r7, ip, lsr #32
     5e0:	505f4f49 	subspl	r4, pc, r9, asr #30
     5e4:	365f4e49 	ldrbcc	r4, [pc], -r9, asr #28
     5e8:	5845202c 	stmdapl	r5, {r2, r3, r5, sp}^
     5ec:	5f364954 	svcpl	0x00364954
     5f0:	20515249 	subscs	r5, r1, r9, asr #4
     5f4:	5f5f007d 	svcpl	0x005f007d
     5f8:	455a4953 	ldrbmi	r4, [sl, #-2387]	; 0xfffff6ad
     5fc:	4c5f464f 	mrrcmi	6, 4, r4, pc, cr15	; <UNPREDICTABLE>
     600:	5f474e4f 	svcpl	0x00474e4f
     604:	474e4f4c 	strbmi	r4, [lr, -ip, asr #30]
     608:	38205f5f 	stmdacc	r0!, {r0, r1, r2, r3, r4, r6, r8, r9, sl, fp, ip, lr}
     60c:	73615f00 	cmnvc	r1, #0, 30
     610:	6d697463 	cfstrdvs	mvd7, [r9, #-396]!	; 0xfffffe74
     614:	75625f65 	strbvc	r5, [r2, #-3941]!	; 0xfffff09b
     618:	5f5f0066 	svcpl	0x005f0066
     61c:	5f4c4244 	svcpl	0x004c4244
     620:	5f58414d 	svcpl	0x0058414d
     624:	455f3031 	ldrbmi	r3, [pc, #-49]	; 5fb <_Min_Stack_Size+0x1fb>
     628:	5f5f5058 	svcpl	0x005f5058
     62c:	38303320 	ldmdacc	r0!, {r5, r8, r9, ip, sp}
     630:	76635f00 	strbtvc	r5, [r3], -r0, lsl #30
     634:	6e656c74 	mcrvs	12, 3, r6, cr5, cr4, {3}
     638:	525f5f00 	subspl	r5, pc, #0, 30
     63c:	44495343 	strbmi	r5, [r9], #-835	; 0xfffffcbd
     640:	554f535f 	strbpl	r5, [pc, #-863]	; 2e9 <_Min_Heap_Size+0xe9>
     644:	28454352 	stmdacs	r5, {r1, r4, r6, r8, r9, lr}^
     648:	73202973 			; <UNDEFINED> instruction: 0x73202973
     64c:	63757274 	cmnvs	r5, #116, 4	; 0x40000007
     650:	5f5f2074 	svcpl	0x005f2074
     654:	6b636168 	blvs	18d8bfc <_Min_Stack_Size+0x18d87fc>
     658:	465f5f00 	ldrbmi	r5, [pc], -r0, lsl #30
     65c:	54434152 	strbpl	r4, [r3], #-338	; 0xfffffeae
     660:	4e494d5f 	mcrmi	13, 2, r4, cr9, cr15, {2}
     664:	28205f5f 	stmdacs	r0!, {r0, r1, r2, r3, r4, r6, r8, r9, sl, fp, ip, lr}
     668:	352e302d 	strcc	r3, [lr, #-45]!	; 0xffffffd3
     66c:	2e302d52 	mrccs	13, 1, r2, cr0, cr2, {2}
     670:	00295235 	eoreq	r5, r9, r5, lsr r2
     674:	28505f5f 	ldmdacs	r0, {r0, r1, r2, r3, r4, r6, r8, r9, sl, fp, ip, lr}^
     678:	746f7270 	strbtvc	r7, [pc], #-624	; 680 <_Min_Stack_Size+0x280>
     67c:	2029736f 	eorcs	r7, r9, pc, ror #6
     680:	746f7270 	strbtvc	r7, [pc], #-624	; 688 <_Min_Stack_Size+0x288>
     684:	5f00736f 	svcpl	0x0000736f
     688:	4c4c555f 	cfstr64mi	mvdx5, [ip], {95}	; 0x5f
     68c:	55434341 	strbpl	r4, [r3, #-833]	; 0xfffffcbf
     690:	414d5f4d 	cmpmi	sp, sp, asr #30
     694:	205f5f58 	subscs	r5, pc, r8, asr pc	; <UNPREDICTABLE>
     698:	46465830 			; <UNDEFINED> instruction: 0x46465830
     69c:	46464646 	strbmi	r4, [r6], -r6, asr #12
     6a0:	46464646 	strbmi	r4, [r6], -r6, asr #12
     6a4:	46464646 	strbmi	r4, [r6], -r6, asr #12
     6a8:	2d504646 	ldclcs	6, cr4, [r0, #-280]	; 0xfffffee8
     6ac:	4c553233 	lfmmi	f3, 2, [r5], {51}	; 0x33
     6b0:	49004b4c 	stmdbmi	r0, {r2, r3, r6, r8, r9, fp, lr}
     6b4:	3436544e 	ldrtcc	r5, [r6], #-1102	; 0xfffffbb2
     6b8:	7828435f 	stmdavc	r8!, {r0, r1, r2, r3, r4, r6, r8, r9, lr}
     6bc:	5f5f2029 	svcpl	0x005f2029
     6c0:	36544e49 	ldrbcc	r4, [r4], -r9, asr #28
     6c4:	28435f34 	stmdacs	r3, {r2, r4, r5, r8, r9, sl, fp, ip, lr}^
     6c8:	5f002978 	svcpl	0x00002978
     6cc:	4153555f 	cmpmi	r3, pc, asr r5
     6d0:	4d554343 	ldclmi	3, cr4, [r5, #-268]	; 0xfffffef4
     6d4:	58414d5f 	stmdapl	r1, {r0, r1, r2, r3, r4, r6, r8, sl, fp, lr}^
     6d8:	30205f5f 	eorcc	r5, r0, pc, asr pc
     6dc:	46464658 			; <UNDEFINED> instruction: 0x46464658
     6e0:	382d5046 	stmdacc	sp!, {r1, r2, r6, ip, lr}
     6e4:	004b4855 	subeq	r4, fp, r5, asr r8
     6e8:	45445f5f 	strbmi	r5, [r4, #-3935]	; 0xfffff0a1
     6ec:	5f323343 	svcpl	0x00323343
     6f0:	5f4e494d 	svcpl	0x004e494d
     6f4:	4531205f 	ldrmi	r2, [r1, #-95]!	; 0xffffffa1
     6f8:	4435392d 	ldrtmi	r3, [r5], #-2349	; 0xfffff6d3
     6fc:	5f5f0046 	svcpl	0x005f0046
     700:	4d544e49 	ldclmi	14, cr4, [r4, #-292]	; 0xfffffedc
     704:	575f5841 	ldrbpl	r5, [pc, -r1, asr #16]
     708:	48544449 	ldmdami	r4, {r0, r3, r6, sl, lr}^
     70c:	36205f5f 	qsaxcc	r5, r0, pc	; <UNPREDICTABLE>
     710:	525f0034 	subspl	r0, pc, #52	; 0x34
     714:	544e4545 	strbpl	r4, [lr], #-1349	; 0xfffffabb
     718:	53424d5f 	movtpl	r4, #11615	; 0x2d5f
     71c:	574f5452 	smlsldpl	r5, pc, r2, r4	; <UNPREDICTABLE>
     720:	535f5343 	cmppl	pc, #201326593	; 0xc000001
     724:	45544154 	ldrbmi	r4, [r4, #-340]	; 0xfffffeac
     728:	72747028 	rsbsvc	r7, r4, #40	; 0x28
     72c:	28282029 	stmdacs	r8!, {r0, r3, r5, sp}
     730:	29727470 	ldmdbcs	r2!, {r4, r5, r6, sl, ip, sp, lr}^
     734:	6d5f3e2d 	ldclvs	14, cr3, [pc, #-180]	; 688 <_Min_Stack_Size+0x288>
     738:	2d637369 	stclcs	3, cr7, [r3, #-420]!	; 0xfffffe5c
     73c:	626d5f3e 	rsbvs	r5, sp, #62, 30	; 0xf8
     740:	6f747273 	svcvs	0x00747273
     744:	5f736377 	svcpl	0x00736377
     748:	74617473 	strbtvc	r7, [r1], #-1139	; 0xfffffb8d
     74c:	49002965 	stmdbmi	r0, {r0, r2, r5, r6, r8, fp, sp}
     750:	5450544e 	ldrbpl	r5, [r0], #-1102	; 0xfffffbb2
     754:	414d5f52 	cmpmi	sp, r2, asr pc
     758:	5f282058 	svcpl	0x00282058
     75c:	544e495f 	strbpl	r4, [lr], #-2399	; 0xfffff6a1
     760:	5f525450 	svcpl	0x00525450
     764:	5f58414d 	svcpl	0x0058414d
     768:	5f00295f 	svcpl	0x0000295f
     76c:	5f51535f 	svcpl	0x0051535f
     770:	54494249 	strbpl	r4, [r9], #-585	; 0xfffffdb7
     774:	30205f5f 	eorcc	r5, r0, pc, asr pc
     778:	535f5f00 	cmppl	pc, #0, 30
     77c:	5f455a49 	svcpl	0x00455a49
     780:	45505954 	ldrbmi	r5, [r0, #-2388]	; 0xfffff6ac
     784:	75205f5f 	strvc	r5, [r0, #-3935]!	; 0xfffff0a1
     788:	6769736e 	strbvs	r7, [r9, -lr, ror #6]!
     78c:	2064656e 	rsbcs	r6, r4, lr, ror #10
     790:	00746e69 	rsbseq	r6, r4, r9, ror #28
     794:	45445f5f 	strbmi	r5, [r4, #-3935]	; 0xfffff0a1
     798:	5f343643 	svcpl	0x00343643
     79c:	5f58414d 	svcpl	0x0058414d
     7a0:	5f505845 	svcpl	0x00505845
     7a4:	3833205f 	ldmdacc	r3!, {r0, r1, r2, r3, r4, r6, sp}
     7a8:	475f0035 	smmlarmi	pc, r5, r0, r0	; <UNPREDICTABLE>
     7ac:	575f4343 	ldrbpl	r4, [pc, -r3, asr #6]
     7b0:	5f504152 	svcpl	0x00504152
     7b4:	49445453 	stmdbmi	r4, {r0, r1, r4, r6, sl, ip, lr}^
     7b8:	485f544e 	ldmdami	pc, {r1, r2, r3, r6, sl, ip, lr}^	; <UNPREDICTABLE>
     7bc:	5f5f0020 	svcpl	0x005f0020
     7c0:	5f544c46 	svcpl	0x00544c46
     7c4:	5f534148 	svcpl	0x00534148
     7c8:	4f4e4544 	svcmi	0x004e4544
     7cc:	5f5f4d52 	svcpl	0x005f4d52
     7d0:	5f003120 	svcpl	0x00003120
     7d4:	544e495f 	strbpl	r4, [lr], #-2399	; 0xfffff6a1
     7d8:	59545f38 	ldmdbpl	r4, {r3, r4, r5, r8, r9, sl, fp, ip, lr}^
     7dc:	5f5f4550 	svcpl	0x005f4550
     7e0:	67697320 	strbvs	r7, [r9, -r0, lsr #6]!
     7e4:	2064656e 	rsbcs	r6, r4, lr, ror #10
     7e8:	72616863 	rsbvc	r6, r1, #6488064	; 0x630000
     7ec:	415f5f00 	cmpmi	pc, r0, lsl #30
     7f0:	415f4d52 	cmpmi	pc, r2, asr sp	; <UNPREDICTABLE>
     7f4:	5f484352 	svcpl	0x00484352
     7f8:	464f5250 			; <UNDEFINED> instruction: 0x464f5250
     7fc:	20454c49 	subcs	r4, r5, r9, asr #24
     800:	5f003737 	svcpl	0x00003737
     804:	4153555f 	cmpmi	r3, pc, asr r5
     808:	4d554343 	ldclmi	3, cr4, [r5, #-268]	; 0xfffffef4
     80c:	4e494d5f 	mcrmi	13, 2, r4, cr9, cr15, {2}
     810:	30205f5f 	eorcc	r5, r0, pc, asr pc
     814:	4855302e 	ldmdami	r5, {r1, r2, r3, r5, ip, sp}^
     818:	5f5f004b 	svcpl	0x005f004b
     81c:	33544c46 	cmpcc	r4, #17920	; 0x4600
     820:	45445f32 	strbmi	r5, [r4, #-3890]	; 0xfffff0ce
     824:	414d4943 	cmpmi	sp, r3, asr #18
     828:	49445f4c 	stmdbmi	r4, {r2, r3, r6, r8, r9, sl, fp, ip, lr}^
     82c:	205f5f47 	subscs	r5, pc, r7, asr #30
     830:	5f5f0039 	svcpl	0x005f0039
     834:	4c42444c 	cfstrdmi	mvd4, [r2], {76}	; 0x4c
     838:	4e494d5f 	mcrmi	13, 2, r4, cr9, cr15, {2}
     83c:	5058455f 	subspl	r4, r8, pc, asr r5
     840:	28205f5f 	stmdacs	r0!, {r0, r1, r2, r3, r4, r6, r8, r9, sl, fp, ip, lr}
     844:	3230312d 	eorscc	r3, r0, #1073741835	; 0x4000000b
     848:	5f002931 	svcpl	0x00002931
     84c:	4e454552 	mcrmi	5, 2, r4, cr5, cr2, {2}
     850:	4e495f54 	mcrmi	15, 2, r5, cr9, cr4, {2}
     854:	525f5449 	subspl	r5, pc, #1224736768	; 0x49000000
     858:	34444e41 	strbcc	r4, [r4], #-3649	; 0xfffff1bf
     85c:	61762838 	cmnvs	r6, r8, lsr r8
     860:	64202972 	strtvs	r2, [r0], #-2418	; 0xfffff68e
     864:	207b206f 	rsbscs	r2, fp, pc, rrx
     868:	75727473 	ldrbvc	r7, [r2, #-1139]!	; 0xfffffb8d
     86c:	5f207463 	svcpl	0x00207463
     870:	6e656572 	mcrvs	5, 3, r6, cr5, cr2, {3}
     874:	5f2a2074 	svcpl	0x002a2074
     878:	203d2072 	eorscs	r2, sp, r2, ror r0
     87c:	72617628 	rsbvc	r7, r1, #40, 12	; 0x2800000
     880:	5f203b29 	svcpl	0x00203b29
     884:	5f3e2d72 	svcpl	0x003e2d72
     888:	2d383472 	cfldrscs	mvf3, [r8, #-456]!	; 0xfffffe38
     88c:	65735f3e 	ldrbvs	r5, [r3, #-3902]!	; 0xfffff0c2
     890:	305b6465 	subscc	r6, fp, r5, ror #8
     894:	203d205d 	eorscs	r2, sp, sp, asr r0
     898:	4e41525f 	mcrmi	2, 2, r5, cr1, cr15, {2}
     89c:	5f383444 	svcpl	0x00383444
     8a0:	44454553 	strbmi	r4, [r5], #-1363	; 0xfffffaad
     8a4:	203b305f 	eorscs	r3, fp, pc, asr r0
     8a8:	3e2d725f 	mcrcc	2, 1, r7, cr13, cr15, {2}
     8ac:	3834725f 	ldmdacc	r4!, {r0, r1, r2, r3, r4, r6, r9, ip, sp, lr}
     8b0:	735f3e2d 	cmpvc	pc, #720	; 0x2d0
     8b4:	5b646565 	blpl	1919e50 <_Min_Stack_Size+0x1919a50>
     8b8:	3d205d31 	stccc	13, cr5, [r0, #-196]!	; 0xffffff3c
     8bc:	41525f20 	cmpmi	r2, r0, lsr #30
     8c0:	3834444e 	ldmdacc	r4!, {r1, r2, r3, r6, sl, lr}
     8c4:	4545535f 	strbmi	r5, [r5, #-863]	; 0xfffffca1
     8c8:	3b315f44 	blcc	c585e0 <_Min_Stack_Size+0xc581e0>
     8cc:	2d725f20 	ldclcs	15, cr5, [r2, #-128]!	; 0xffffff80
     8d0:	34725f3e 	ldrbtcc	r5, [r2], #-3902	; 0xfffff0c2
     8d4:	5f3e2d38 	svcpl	0x003e2d38
     8d8:	64656573 	strbtvs	r6, [r5], #-1395	; 0xfffffa8d
     8dc:	205d325b 	subscs	r3, sp, fp, asr r2
     8e0:	525f203d 	subspl	r2, pc, #61	; 0x3d
     8e4:	34444e41 	strbcc	r4, [r4], #-3649	; 0xfffff1bf
     8e8:	45535f38 	ldrbmi	r5, [r3, #-3896]	; 0xfffff0c8
     8ec:	325f4445 	subscc	r4, pc, #1157627904	; 0x45000000
     8f0:	725f203b 	subsvc	r2, pc, #59	; 0x3b
     8f4:	725f3e2d 	subsvc	r3, pc, #720	; 0x2d0
     8f8:	3e2d3834 	mcrcc	8, 1, r3, cr13, cr4, {1}
     8fc:	6c756d5f 	ldclvs	13, cr6, [r5], #-380	; 0xfffffe84
     900:	5d305b74 	vldmdbpl	r0!, {d5-<overflow reg d62>}
     904:	5f203d20 	svcpl	0x00203d20
     908:	444e4152 	strbmi	r4, [lr], #-338	; 0xfffffeae
     90c:	4d5f3834 	ldclmi	8, cr3, [pc, #-208]	; 844 <_Min_Stack_Size+0x444>
     910:	5f544c55 	svcpl	0x00544c55
     914:	5f203b30 	svcpl	0x00203b30
     918:	5f3e2d72 	svcpl	0x003e2d72
     91c:	2d383472 	cfldrscs	mvf3, [r8, #-456]!	; 0xfffffe38
     920:	756d5f3e 	strbvc	r5, [sp, #-3902]!	; 0xfffff0c2
     924:	315b746c 	cmpcc	fp, ip, ror #8
     928:	203d205d 	eorscs	r2, sp, sp, asr r0
     92c:	4e41525f 	mcrmi	2, 2, r5, cr1, cr15, {2}
     930:	5f383444 	svcpl	0x00383444
     934:	544c554d 	strbpl	r5, [ip], #-1357	; 0xfffffab3
     938:	203b315f 	eorscs	r3, fp, pc, asr r1
     93c:	3e2d725f 	mcrcc	2, 1, r7, cr13, cr15, {2}
     940:	3834725f 	ldmdacc	r4!, {r0, r1, r2, r3, r4, r6, r9, ip, sp, lr}
     944:	6d5f3e2d 	ldclvs	14, cr3, [pc, #-180]	; 898 <_Min_Stack_Size+0x498>
     948:	5b746c75 	blpl	1d1bb24 <_Min_Stack_Size+0x1d1b724>
     94c:	3d205d32 	stccc	13, cr5, [r0, #-200]!	; 0xffffff38
     950:	41525f20 	cmpmi	r2, r0, lsr #30
     954:	3834444e 	ldmdacc	r4!, {r1, r2, r3, r6, sl, lr}
     958:	4c554d5f 	mrrcmi	13, 5, r4, r5, cr15
     95c:	3b325f54 	blcc	c986b4 <_Min_Stack_Size+0xc982b4>
     960:	2d725f20 	ldclcs	15, cr5, [r2, #-128]!	; 0xffffff80
     964:	34725f3e 	ldrbtcc	r5, [r2], #-3902	; 0xfffff0c2
     968:	5f3e2d38 	svcpl	0x003e2d38
     96c:	20646461 	rsbcs	r6, r4, r1, ror #8
     970:	525f203d 	subspl	r2, pc, #61	; 0x3d
     974:	34444e41 	strbcc	r4, [r4], #-3649	; 0xfffff1bf
     978:	44415f38 	strbmi	r5, [r1], #-3896	; 0xfffff0c8
     97c:	5f203b44 	svcpl	0x00203b44
     980:	5f3e2d72 	svcpl	0x003e2d72
     984:	2d383472 	cfldrscs	mvf3, [r8, #-456]!	; 0xfffffe38
     988:	61725f3e 	cmnvs	r2, lr, lsr pc
     98c:	6e5f646e 	cdpvs	4, 5, cr6, cr15, cr14, {3}
     990:	20747865 	rsbscs	r7, r4, r5, ror #16
     994:	3b31203d 	blcc	c48a90 <_Min_Stack_Size+0xc48690>
     998:	77207d20 	strvc	r7, [r0, -r0, lsr #26]!
     99c:	656c6968 	strbvs	r6, [ip, #-2408]!	; 0xfffff698
     9a0:	29302820 	ldmdbcs	r0!, {r5, fp, sp}
     9a4:	4c5f5f00 	mrrcmi	15, 0, r5, pc, cr0	; <UNPREDICTABLE>
     9a8:	5f4c4244 	svcpl	0x004c4244
     9ac:	544e414d 	strbpl	r4, [lr], #-333	; 0xfffffeb3
     9b0:	4749445f 	smlsldmi	r4, r9, pc, r4	; <UNPREDICTABLE>
     9b4:	35205f5f 	strcc	r5, [r0, #-3935]!	; 0xfffff0a1
     9b8:	5f5f0033 	svcpl	0x005f0033
     9bc:	5f006d74 	svcpl	0x00006d74
     9c0:	72736377 	rsbsvc	r6, r3, #-603979775	; 0xdc000001
     9c4:	626d6f74 	rsbvs	r6, sp, #116, 30	; 0x1d0
     9c8:	74735f73 	ldrbtvc	r5, [r3], #-3955	; 0xfffff08d
     9cc:	00657461 	rsbeq	r7, r5, r1, ror #8
     9d0:	75626e5f 	strbvc	r6, [r2, #-3679]!	; 0xfffff1a1
     9d4:	5f5f0066 	svcpl	0x005f0066
     9d8:	735f6d74 	cmpvc	pc, #116, 26	; 0x1d00
     9dc:	5f006365 	svcpl	0x00006365
     9e0:	4e49555f 	mcrmi	5, 2, r5, cr9, cr15, {2}
     9e4:	435f3854 	cmpmi	pc, #84, 16	; 0x540000
     9e8:	20296328 	eorcs	r6, r9, r8, lsr #6
     9ec:	5f5f0063 	svcpl	0x005f0063
     9f0:	31544e49 	cmpcc	r4, r9, asr #28
     9f4:	59545f36 	ldmdbpl	r4, {r1, r2, r4, r5, r8, r9, sl, fp, ip, lr}^
     9f8:	5f5f4550 	svcpl	0x005f4550
     9fc:	6f687320 	svcvs	0x00687320
     a00:	69207472 	stmdbvs	r0!, {r1, r4, r5, r6, sl, ip, sp, lr}
     a04:	5f00746e 	svcpl	0x0000746e
     a08:	696c615f 	stmdbvs	ip!, {r0, r1, r2, r3, r4, r6, r8, sp, lr}^
     a0c:	64656e67 	strbtvs	r6, [r5], #-3687	; 0xfffff199
     a10:	20297828 	eorcs	r7, r9, r8, lsr #16
     a14:	74615f5f 	strbtvc	r5, [r1], #-3935	; 0xfffff0a1
     a18:	62697274 	rsbvs	r7, r9, #116, 4	; 0x40000007
     a1c:	5f657475 	svcpl	0x00657475
     a20:	5f28285f 	svcpl	0x0028285f
     a24:	696c615f 	stmdbvs	ip!, {r0, r1, r2, r3, r4, r6, r8, sp, lr}^
     a28:	64656e67 	strbtvs	r6, [r5], #-3687	; 0xfffff199
     a2c:	78285f5f 	stmdavc	r8!, {r0, r1, r2, r3, r4, r6, r8, r9, sl, fp, ip, lr}
     a30:	00292929 	eoreq	r2, r9, r9, lsr #18
     a34:	6f6c5f5f 	svcvs	0x006c5f5f
     a38:	5f736b63 	svcpl	0x00736b63
     a3c:	6c637865 	stclvs	8, cr7, [r3], #-404	; 0xfffffe6c
     a40:	76697375 			; <UNDEFINED> instruction: 0x76697375
     a44:	2e2e2865 	cdpcs	8, 2, cr2, cr14, cr5, {3}
     a48:	5f20292e 	svcpl	0x0020292e
     a4c:	636f6c5f 	cmnvs	pc, #24320	; 0x5f00
     a50:	6e615f6b 	cdpvs	15, 6, cr5, cr1, cr11, {3}
     a54:	61746f6e 	cmnvs	r4, lr, ror #30
     a58:	65286574 	strvs	r6, [r8, #-1396]!	; 0xfffffa8c
     a5c:	756c6378 	strbvc	r6, [ip, #-888]!	; 0xfffffc88
     a60:	65766973 	ldrbvs	r6, [r6, #-2419]!	; 0xfffff68d
     a64:	636f6c5f 	cmnvs	pc, #24320	; 0x5f00
     a68:	75665f6b 	strbvc	r5, [r6, #-3947]!	; 0xfffff095
     a6c:	6974636e 	ldmdbvs	r4!, {r1, r2, r3, r5, r6, r8, r9, sp, lr}^
     a70:	5f286e6f 	svcpl	0x00286e6f
     a74:	5f41565f 	svcpl	0x0041565f
     a78:	53475241 	movtpl	r5, #29249	; 0x7241
     a7c:	29295f5f 	stmdbcs	r9!, {r0, r1, r2, r3, r4, r6, r8, r9, sl, fp, ip, lr}
     a80:	366c5f00 	strbtcc	r5, [ip], -r0, lsl #30
     a84:	625f6134 	subsvs	r6, pc, #52, 2
     a88:	5f006675 	svcpl	0x00006675
     a8c:	544c465f 	strbpl	r4, [ip], #-1631	; 0xfffff9a1
     a90:	4d5f3436 	cfldrdmi	mvd3, [pc, #-216]	; 9c0 <_Min_Stack_Size+0x5c0>
     a94:	5f5f5841 	svcpl	0x005f5841
     a98:	372e3120 	strcc	r3, [lr, -r0, lsr #2]!
     a9c:	39363739 	ldmdbcc	r6!, {r0, r3, r4, r5, r8, r9, sl, ip, sp}
     aa0:	34333133 	ldrtcc	r3, [r3], #-307	; 0xfffffecd
     aa4:	33323638 	teqcc	r2, #56, 12	; 0x3800000
     aa8:	65373531 	ldrvs	r3, [r7, #-1329]!	; 0xfffffacf
     aac:	3830332b 	ldmdacc	r0!, {r0, r1, r3, r5, r8, r9, ip, sp}
     ab0:	00343646 	eorseq	r3, r4, r6, asr #12
     ab4:	4f495047 	svcmi	0x00495047
     ab8:	4e49505f 	mcrmi	0, 2, r5, cr9, cr15, {2}
     abc:	2820345f 	stmdacs	r0!, {r0, r1, r2, r3, r4, r6, sl, ip, sp}
     ac0:	6e697528 	cdpvs	5, 6, cr7, cr9, cr8, {1}
     ac4:	5f363174 	svcpl	0x00363174
     ac8:	78302974 	ldmdavc	r0!, {r2, r4, r5, r6, r8, fp, sp}
     acc:	30313030 	eorscc	r3, r1, r0, lsr r0
     ad0:	5f5f0029 	svcpl	0x005f0029
     ad4:	6f626e75 	svcvs	0x00626e75
     ad8:	65646e75 	strbvs	r6, [r4, #-3701]!	; 0xfffff18b
     adc:	47002064 	strmi	r2, [r0, -r4, rrx]
     ae0:	5f4f4950 	svcpl	0x004f4950
     ae4:	534e4950 	movtpl	r4, #59728	; 0xe950
     ae8:	6c6c415f 	stfvse	f4, [ip], #-380	; 0xfffffe84
     aec:	75282820 	strvc	r2, [r8, #-2080]!	; 0xfffff7e0
     af0:	31746e69 	cmncc	r4, r9, ror #28
     af4:	29745f36 	ldmdbcs	r4!, {r1, r2, r4, r5, r8, r9, sl, fp, ip, lr}^
     af8:	46467830 			; <UNDEFINED> instruction: 0x46467830
     afc:	00294646 	eoreq	r4, r9, r6, asr #12
     b00:	4e495f5f 	mcrmi	15, 2, r5, cr9, cr15, {2}
     b04:	22203854 	eorcs	r3, r0, #84, 16	; 0x540000
     b08:	00226868 	eoreq	r6, r2, r8, ror #16
     b0c:	50415f5f 	subpl	r5, r1, pc, asr pc
     b10:	335f5343 	cmpcc	pc, #201326593	; 0xc000001
     b14:	205f5f32 	subscs	r5, pc, r2, lsr pc	; <UNPREDICTABLE>
     b18:	4e490031 	mcrmi	0, 2, r0, cr9, cr1, {1}
     b1c:	454c5f54 	strbmi	r5, [ip, #-3924]	; 0xfffff0ac
     b20:	31545341 	cmpcc	r4, r1, asr #6
     b24:	414d5f36 	cmpmi	sp, r6, lsr pc
     b28:	5f282058 	svcpl	0x00282058
     b2c:	544e495f 	strbpl	r4, [lr], #-2399	; 0xfffff6a1
     b30:	41454c5f 	cmpmi	r5, pc, asr ip
     b34:	36315453 			; <UNDEFINED> instruction: 0x36315453
     b38:	58414d5f 	stmdapl	r1, {r0, r1, r2, r3, r4, r6, r8, sl, fp, lr}^
     b3c:	00295f5f 	eoreq	r5, r9, pc, asr pc
     b40:	54535f5f 	ldrbpl	r5, [r3], #-3935	; 0xfffff0a1
     b44:	485f4344 	ldmdami	pc, {r2, r6, r8, r9, lr}^	; <UNPREDICTABLE>
     b48:	4554534f 	ldrbmi	r5, [r4, #-847]	; 0xfffffcb1
     b4c:	205f5f44 	subscs	r5, pc, r4, asr #30
     b50:	5f5f0031 	svcpl	0x005f0031
     b54:	464c4c55 			; <UNDEFINED> instruction: 0x464c4c55
     b58:	54434152 	strbpl	r4, [r3], #-338	; 0xfffffeae
     b5c:	4942465f 	stmdbmi	r2, {r0, r1, r2, r3, r4, r6, r9, sl, lr}^
     b60:	205f5f54 	subscs	r5, pc, r4, asr pc	; <UNPREDICTABLE>
     b64:	45003436 	strmi	r3, [r0, #-1078]	; 0xfffffbca
     b68:	39495458 	stmdbcc	r9, {r3, r4, r6, sl, ip, lr}^
     b6c:	20394250 	eorscs	r4, r9, r0, asr r2
     b70:	54584528 	ldrbpl	r4, [r8], #-1320	; 0xfffffad8
     b74:	50475f49 	subpl	r5, r7, r9, asr #30
     b78:	4d5f4f49 	ldclmi	15, cr4, [pc, #-292]	; a5c <_Min_Stack_Size+0x65c>
     b7c:	69707061 	ldmdbvs	r0!, {r0, r5, r6, ip, sp, lr}^
     b80:	745f676e 	ldrbvc	r6, [pc], #-1902	; b88 <_Min_Stack_Size+0x788>
     b84:	58457b29 	stmdapl	r5, {r0, r3, r5, r8, r9, fp, ip, sp, lr}^
     b88:	2c394954 			; <UNDEFINED> instruction: 0x2c394954
     b8c:	49504720 	ldmdbmi	r0, {r5, r8, r9, sl, lr}^
     b90:	202c424f 	eorcs	r4, ip, pc, asr #4
     b94:	4f495047 	svcmi	0x00495047
     b98:	4e49505f 	mcrmi	0, 2, r5, cr9, cr15, {2}
     b9c:	202c395f 	eorcs	r3, ip, pc, asr r9
     ba0:	49545845 	ldmdbmi	r4, {r0, r2, r6, fp, ip, lr}^
     ba4:	52495f39 	subpl	r5, r9, #57, 30	; 0xe4
     ba8:	007d2051 	rsbseq	r2, sp, r1, asr r0
     bac:	42444c5f 	submi	r4, r4, #24320	; 0x5f00
     bb0:	51455f4c 	cmppl	r5, ip, asr #30
     bb4:	4c42445f 	cfstrdmi	mvd4, [r2], {95}	; 0x5f
     bb8:	5f003120 	svcpl	0x00003120
     bbc:	544e495f 	strbpl	r4, [lr], #-2399	; 0xfffff6a1
     bc0:	5341465f 	movtpl	r4, #5727	; 0x165f
     bc4:	5f343654 	svcpl	0x00343654
     bc8:	45505954 	ldrbmi	r5, [r0, #-2388]	; 0xfffff6ac
     bcc:	6c205f5f 	stcvs	15, cr5, [r0], #-380	; 0xfffffe84
     bd0:	20676e6f 	rsbcs	r6, r7, pc, ror #28
     bd4:	676e6f6c 	strbvs	r6, [lr, -ip, ror #30]!
     bd8:	746e6920 	strbtvc	r6, [lr], #-2336	; 0xfffff6e0
     bdc:	415f5f00 	cmpmi	pc, r0, lsl #30
     be0:	465f4d52 			; <UNDEFINED> instruction: 0x465f4d52
     be4:	55544145 	ldrbpl	r4, [r4, #-325]	; 0xfffffebb
     be8:	435f4552 	cmpmi	pc, #343932928	; 0x14800000
     bec:	4f52504f 	svcmi	0x0052504f
     bf0:	35312043 	ldrcc	r2, [r1, #-67]!	; 0xffffffbd
     bf4:	43435200 	movtmi	r5, #12800	; 0x3200
     bf8:	4950475f 	ldmdbmi	r0, {r0, r1, r2, r3, r4, r6, r8, r9, sl, lr}^
     bfc:	435f434f 	cmpmi	pc, #1006632961	; 0x3c000001
     c00:	455f4b4c 	ldrbmi	r4, [pc, #-2892]	; bc <_Min_Heap_Size-0x144>
     c04:	2029284e 	eorcs	r2, r9, lr, asr #16
     c08:	43435228 	movtmi	r5, #12840	; 0x3228
     c0c:	50413e2d 	subpl	r3, r1, sp, lsr #28
     c10:	4e453242 	cdpmi	2, 4, cr3, cr5, cr2, {2}
     c14:	3d7c2052 	ldclcc	0, cr2, [ip, #-328]!	; 0xfffffeb8
     c18:	3c312820 	ldccc	8, cr2, [r1], #-128	; 0xffffff80
     c1c:	2929343c 	stmdbcs	r9!, {r2, r3, r4, r5, sl, ip, sp}
     c20:	6e665f00 	cdpvs	15, 6, cr5, cr6, cr0, {0}
     c24:	73677261 	cmnvc	r7, #268435462	; 0x10000006
     c28:	6f6c5f00 	svcvs	0x006c5f00
     c2c:	50006b63 	andpl	r6, r0, r3, ror #22
     c30:	49445254 	stmdbmi	r4, {r2, r4, r6, r9, ip, lr}^
     c34:	4d5f4646 	ldclmi	6, cr4, [pc, #-280]	; b24 <_Min_Stack_Size+0x724>
     c38:	28205841 	stmdacs	r0!, {r0, r6, fp, ip, lr}
     c3c:	54505f5f 	ldrbpl	r5, [r0], #-3935	; 0xfffff0a1
     c40:	46494452 			; <UNDEFINED> instruction: 0x46494452
     c44:	414d5f46 	cmpmi	sp, r6, asr #30
     c48:	295f5f58 	ldmdbcs	pc, {r3, r4, r6, r8, r9, sl, fp, ip, lr}^	; <UNPREDICTABLE>
     c4c:	555f5f00 	ldrbpl	r5, [pc, #-3840]	; fffffd54 <_estack+0xdfffd554>
     c50:	5f544e49 	svcpl	0x00544e49
     c54:	54534146 	ldrbpl	r4, [r3], #-326	; 0xfffffeba
     c58:	414d5f38 	cmpmi	sp, r8, lsr pc
     c5c:	205f5f58 	subscs	r5, pc, r8, asr pc	; <UNPREDICTABLE>
     c60:	66667830 			; <UNDEFINED> instruction: 0x66667830
     c64:	66666666 	strbtvs	r6, [r6], -r6, ror #12
     c68:	00556666 	subseq	r6, r5, r6, ror #12
     c6c:	6c754e5f 	ldclvs	14, cr4, [r5], #-380	; 0xfffffe84
     c70:	6c62616c 	stfvse	f6, [r2], #-432	; 0xfffffe50
     c74:	5f002065 	svcpl	0x00002065
     c78:	4e454552 	mcrmi	5, 2, r4, cr5, cr2, {2}
     c7c:	48435f54 	stmdami	r3, {r2, r4, r6, r8, r9, sl, fp, ip, lr}^
     c80:	5f4b4345 	svcpl	0x004b4345
     c84:	76284d54 			; <UNDEFINED> instruction: 0x76284d54
     c88:	20297261 	eorcs	r7, r9, r1, ror #4
     c8c:	4545525f 	strbmi	r5, [r5, #-607]	; 0xfffffda1
     c90:	435f544e 	cmpmi	pc, #1308622848	; 0x4e000000
     c94:	4b434548 	blmi	10d21bc <_Min_Stack_Size+0x10d1dbc>
     c98:	72617628 	rsbvc	r7, r1, #40, 12	; 0x2800000
     c9c:	6c5f202c 	mrrcvs	0, 2, r2, pc, cr12	; <UNPREDICTABLE>
     ca0:	6c61636f 	stclvs	3, cr6, [r1], #-444	; 0xfffffe44
     ca4:	656d6974 	strbvs	r6, [sp, #-2420]!	; 0xfffff68c
     ca8:	6675625f 			; <UNDEFINED> instruction: 0x6675625f
     cac:	7473202c 	ldrbtvc	r2, [r3], #-44	; 0xffffffd4
     cb0:	74637572 	strbtvc	r7, [r3], #-1394	; 0xfffffa8e
     cb4:	745f5f20 	ldrbvc	r5, [pc], #-3872	; cbc <_Min_Stack_Size+0x8bc>
     cb8:	2c2a206d 	stccs	0, cr2, [sl], #-436	; 0xfffffe4c
     cbc:	7a697320 	bvc	1a5d944 <_Min_Stack_Size+0x1a5d544>
     cc0:	20666f65 	rsbcs	r6, r6, r5, ror #30
     cc4:	7628282a 	strtvc	r2, [r8], -sl, lsr #16
     cc8:	2d297261 	sfmcs	f7, 4, [r9, #-388]!	; 0xfffffe7c
     ccc:	6f6c5f3e 	svcvs	0x006c5f3e
     cd0:	746c6163 	strbtvc	r6, [ip], #-355	; 0xfffffe9d
     cd4:	5f656d69 	svcpl	0x00656d69
     cd8:	29667562 	stmdbcs	r6!, {r1, r5, r6, r8, sl, ip, sp, lr}^
     cdc:	0029202c 	eoreq	r2, r9, ip, lsr #32
     ce0:	53555f5f 	cmppl	r5, #380	; 0x17c
     ce4:	43415246 	movtmi	r5, #4678	; 0x1246
     ce8:	414d5f54 	cmpmi	sp, r4, asr pc
     cec:	205f5f58 	subscs	r5, pc, r8, asr pc	; <UNPREDICTABLE>
     cf0:	46465830 			; <UNDEFINED> instruction: 0x46465830
     cf4:	55382d50 	ldrpl	r2, [r8, #-3408]!	; 0xfffff2b0
     cf8:	45005248 	strmi	r5, [r0, #-584]	; 0xfffffdb8
     cfc:	31495458 	cmpcc	r9, r8, asr r4
     d00:	30312030 	eorscc	r2, r1, r0, lsr r0
     d04:	54584500 	ldrbpl	r4, [r8], #-1280	; 0xfffffb00
     d08:	50303149 	eorspl	r3, r0, r9, asr #2
     d0c:	20303142 	eorscs	r3, r0, r2, asr #2
     d10:	54584528 	ldrbpl	r4, [r8], #-1320	; 0xfffffad8
     d14:	50475f49 	subpl	r5, r7, r9, asr #30
     d18:	4d5f4f49 	ldclmi	15, cr4, [pc, #-292]	; bfc <_Min_Stack_Size+0x7fc>
     d1c:	69707061 	ldmdbvs	r0!, {r0, r5, r6, ip, sp, lr}^
     d20:	745f676e 	ldrbvc	r6, [pc], #-1902	; d28 <_Min_Stack_Size+0x928>
     d24:	58457b29 	stmdapl	r5, {r0, r3, r5, r8, r9, fp, ip, sp, lr}^
     d28:	30314954 	eorscc	r4, r1, r4, asr r9
     d2c:	5047202c 	subpl	r2, r7, ip, lsr #32
     d30:	2c424f49 	mcrrcs	15, 4, r4, r2, cr9
     d34:	49504720 	ldmdbmi	r0, {r5, r8, r9, sl, lr}^
     d38:	49505f4f 	ldmdbmi	r0, {r0, r1, r2, r3, r6, r8, r9, sl, fp, ip, lr}^
     d3c:	30315f4e 	eorscc	r5, r1, lr, asr #30
     d40:	5845202c 	stmdapl	r5, {r2, r3, r5, sp}^
     d44:	30314954 	eorscc	r4, r1, r4, asr r9
     d48:	5152495f 	cmppl	r2, pc, asr r9
     d4c:	5f007d20 	svcpl	0x00007d20
     d50:	65656e5f 	strbvs	r6, [r5, #-3679]!	; 0xfffff1a1
     d54:	63775f64 	cmnvs	r7, #100, 30	; 0x190
     d58:	5f726168 	svcpl	0x00726168
     d5c:	5f5f0074 	svcpl	0x005f0074
     d60:	33544c46 	cmpcc	r4, #17920	; 0x4600
     d64:	494d5f32 	stmdbmi	sp, {r1, r4, r5, r8, r9, sl, fp, ip, lr}^
     d68:	58455f4e 	stmdapl	r5, {r1, r2, r3, r6, r8, r9, sl, fp, ip, lr}^
     d6c:	205f5f50 	subscs	r5, pc, r0, asr pc	; <UNPREDICTABLE>
     d70:	32312d28 	eorscc	r2, r1, #40, 26	; 0xa00
     d74:	45002935 	strmi	r2, [r0, #-2357]	; 0xfffff6cb
     d78:	31495458 	cmpcc	r9, r8, asr r4
     d7c:	31425035 	cmpcc	r2, r5, lsr r0
     d80:	45282035 	strmi	r2, [r8, #-53]!	; 0xffffffcb
     d84:	5f495458 	svcpl	0x00495458
     d88:	4f495047 	svcmi	0x00495047
     d8c:	70614d5f 	rsbvc	r4, r1, pc, asr sp
     d90:	676e6970 			; <UNDEFINED> instruction: 0x676e6970
     d94:	7b29745f 	blvc	a5df18 <_Min_Stack_Size+0xa5db18>
     d98:	49545845 	ldmdbmi	r4, {r0, r2, r6, fp, ip, lr}^
     d9c:	202c3531 	eorcs	r3, ip, r1, lsr r5
     da0:	4f495047 	svcmi	0x00495047
     da4:	47202c42 	strmi	r2, [r0, -r2, asr #24]!
     da8:	5f4f4950 	svcpl	0x004f4950
     dac:	5f4e4950 	svcpl	0x004e4950
     db0:	202c3531 	eorcs	r3, ip, r1, lsr r5
     db4:	49545845 	ldmdbmi	r4, {r0, r2, r6, fp, ip, lr}^
     db8:	495f3531 	ldmdbmi	pc, {r0, r4, r5, r8, sl, ip, sp}^	; <UNPREDICTABLE>
     dbc:	7d205152 	stfvcs	f5, [r0, #-328]!	; 0xfffffeb8
     dc0:	65675f00 	strbvs	r5, [r7, #-3840]!	; 0xfffff100
     dc4:	74616474 	strbtvc	r6, [r1], #-1140	; 0xfffffb8c
     dc8:	72655f65 	rsbvc	r5, r5, #404	; 0x194
     dcc:	6d5f0072 	ldclvs	0, cr0, [pc, #-456]	; c0c <_Min_Stack_Size+0x80c>
     dd0:	00746c75 	rsbseq	r6, r4, r5, ror ip
     dd4:	31544e49 	cmpcc	r4, r9, asr #28
     dd8:	414d5f36 	cmpmi	sp, r6, lsr pc
     ddc:	5f282058 	svcpl	0x00282058
     de0:	544e495f 	strbpl	r4, [lr], #-2399	; 0xfffff6a1
     de4:	4d5f3631 	ldclmi	6, cr3, [pc, #-196]	; d28 <_Min_Stack_Size+0x928>
     de8:	5f5f5841 	svcpl	0x005f5841
     dec:	5f5f0029 	svcpl	0x005f0029
     df0:	52464c55 	subpl	r4, r6, #21760	; 0x5500
     df4:	5f544341 	svcpl	0x00544341
     df8:	54494246 	strbpl	r4, [r9], #-582	; 0xfffffdba
     dfc:	33205f5f 			; <UNDEFINED> instruction: 0x33205f5f
     e00:	58450032 	stmdapl	r5, {r1, r4, r5}^
     e04:	32314954 	eorscc	r4, r1, #84, 18	; 0x150000
     e08:	00323120 	eorseq	r3, r2, r0, lsr #2
     e0c:	4c465f5f 	mcrrmi	15, 5, r5, r6, cr15
     e10:	5f343654 	svcpl	0x00343654
     e14:	5f4e494d 	svcpl	0x004e494d
     e18:	455f3031 	ldrbmi	r3, [pc, #-49]	; def <_Min_Stack_Size+0x9ef>
     e1c:	5f5f5058 	svcpl	0x005f5058
     e20:	332d2820 			; <UNDEFINED> instruction: 0x332d2820
     e24:	00293730 	eoreq	r3, r9, r0, lsr r7
     e28:	69735f5f 	ldmdbvs	r3!, {r0, r1, r2, r3, r4, r6, r8, r9, sl, fp, ip, lr}^
     e2c:	745f657a 	ldrbvc	r6, [pc], #-1402	; e34 <_Min_Stack_Size+0xa34>
     e30:	5f5f0020 	svcpl	0x005f0020
     e34:	6e756f62 	cdpvs	15, 7, cr6, cr5, cr2, {3}
     e38:	20646564 	rsbcs	r6, r4, r4, ror #10
     e3c:	695f5f00 	ldmdbvs	pc, {r8, r9, sl, fp, ip, lr}^	; <UNPREDICTABLE>
     e40:	665f746e 	ldrbvs	r7, [pc], -lr, ror #8
     e44:	33747361 	cmncc	r4, #-2080374783	; 0x84000001
     e48:	5f745f32 	svcpl	0x00745f32
     e4c:	69666564 	stmdbvs	r6!, {r2, r5, r6, r8, sl, sp, lr}^
     e50:	2064656e 	rsbcs	r6, r4, lr, ror #10
     e54:	5f5f0031 	svcpl	0x005f0031
     e58:	5f544e49 	svcpl	0x00544e49
     e5c:	54534146 	ldrbpl	r4, [r3], #-326	; 0xfffffeba
     e60:	575f3436 	smmlarpl	pc, r6, r4, r3	; <UNPREDICTABLE>
     e64:	48544449 	ldmdami	r4, {r0, r3, r6, sl, lr}^
     e68:	36205f5f 	qsaxcc	r5, r0, pc	; <UNPREDICTABLE>
     e6c:	5f5f0034 	svcpl	0x005f0034
     e70:	33544c46 	cmpcc	r4, #17920	; 0x4600
     e74:	414d5f32 	cmpmi	sp, r2, lsr pc
     e78:	30315f58 	eorscc	r5, r1, r8, asr pc
     e7c:	5058455f 	subspl	r4, r8, pc, asr r5
     e80:	33205f5f 			; <UNDEFINED> instruction: 0x33205f5f
     e84:	5f5f0038 	svcpl	0x005f0038
     e88:	746e695f 	strbtvc	r6, [lr], #-2399	; 0xfffff6a1
     e8c:	6863775f 	stmdavs	r3!, {r0, r1, r2, r3, r4, r6, r8, r9, sl, ip, sp, lr}^
     e90:	745f7261 	ldrbvc	r7, [pc], #-609	; e98 <_Min_Stack_Size+0xa98>
     e94:	0020685f 	eoreq	r6, r0, pc, asr r8
     e98:	49545845 	ldmdbmi	r4, {r0, r2, r6, fp, ip, lr}^
     e9c:	43503131 	cmpmi	r0, #1073741836	; 0x4000000c
     ea0:	28203131 	stmdacs	r0!, {r0, r4, r5, r8, ip, sp}
     ea4:	49545845 	ldmdbmi	r4, {r0, r2, r6, fp, ip, lr}^
     ea8:	4950475f 	ldmdbmi	r0, {r0, r1, r2, r3, r4, r6, r8, r9, sl, lr}^
     eac:	614d5f4f 	cmpvs	sp, pc, asr #30
     eb0:	6e697070 	mcrvs	0, 3, r7, cr9, cr0, {3}
     eb4:	29745f67 	ldmdbcs	r4!, {r0, r1, r2, r5, r6, r8, r9, sl, fp, ip, lr}^
     eb8:	5458457b 	ldrbpl	r4, [r8], #-1403	; 0xfffffa85
     ebc:	2c313149 	ldfcss	f3, [r1], #-292	; 0xfffffedc
     ec0:	49504720 	ldmdbmi	r0, {r5, r8, r9, sl, lr}^
     ec4:	202c434f 	eorcs	r4, ip, pc, asr #6
     ec8:	4f495047 	svcmi	0x00495047
     ecc:	4e49505f 	mcrmi	0, 2, r5, cr9, cr15, {2}
     ed0:	2c31315f 	ldfcss	f3, [r1], #-380	; 0xfffffe84
     ed4:	54584520 	ldrbpl	r4, [r8], #-1312	; 0xfffffae0
     ed8:	5f313149 	svcpl	0x00313149
     edc:	20515249 	subscs	r5, r1, r9, asr #4
     ee0:	5047007d 	subpl	r0, r7, sp, ror r0
     ee4:	505f4f49 	subspl	r4, pc, r9, asr #30
     ee8:	315f4e49 	cmpcc	pc, r9, asr #28
     eec:	75282820 	strvc	r2, [r8, #-2080]!	; 0xfffff7e0
     ef0:	31746e69 	cmncc	r4, r9, ror #28
     ef4:	29745f36 	ldmdbcs	r4!, {r1, r2, r4, r5, r8, r9, sl, fp, ip, lr}^
     ef8:	30307830 	eorscc	r7, r0, r0, lsr r8
     efc:	00293230 	eoreq	r3, r9, r0, lsr r2
     f00:	4f495047 	svcmi	0x00495047
     f04:	5445525f 	strbpl	r5, [r5], #-607	; 0xfffffda1
     f08:	5f4e5255 	svcpl	0x004e5255
     f0c:	4b434f4c 	blmi	10d4c44 <_Min_Stack_Size+0x10d4844>
     f10:	5252455f 	subspl	r4, r2, #398458880	; 0x17c00000
     f14:	3020524f 	eorcc	r5, r0, pc, asr #4
     f18:	544e4900 	strbpl	r4, [lr], #-2304	; 0xfffff700
     f1c:	435f3631 	cmpmi	pc, #51380224	; 0x3100000
     f20:	20297828 	eorcs	r7, r9, r8, lsr #16
     f24:	4e495f5f 	mcrmi	15, 2, r5, cr9, cr15, {2}
     f28:	5f363154 	svcpl	0x00363154
     f2c:	29782843 	ldmdbcs	r8!, {r0, r1, r6, fp, sp}^
     f30:	4f505f00 	svcmi	0x00505f00
     f34:	45544e49 	ldrbmi	r4, [r4, #-3657]	; 0xfffff1b7
     f38:	4e495f52 	mcrmi	15, 2, r5, cr9, cr2, {2}
     f3c:	6f6c2054 	svcvs	0x006c2054
     f40:	5f00676e 	svcpl	0x0000676e
     f44:	5246535f 	subpl	r5, r6, #2080374785	; 0x7c000001
     f48:	5f544341 	svcpl	0x00544341
     f4c:	49535045 	ldmdbmi	r3, {r0, r2, r6, ip, lr}^
     f50:	5f4e4f4c 	svcpl	0x004e4f4c
     f54:	7830205f 	ldmdavc	r0!, {r0, r1, r2, r3, r4, r6, sp}
     f58:	372d5031 			; <UNDEFINED> instruction: 0x372d5031
     f5c:	5f005248 	svcpl	0x00005248
     f60:	4e4f435f 	mcrmi	3, 2, r4, cr15, cr15, {2}
     f64:	31544143 	cmpcc	r4, r3, asr #2
     f68:	792c7828 	stmdbvc	ip!, {r3, r5, fp, ip, sp, lr}
     f6c:	20782029 	rsbscs	r2, r8, r9, lsr #32
     f70:	79202323 	stmdbvc	r0!, {r0, r1, r5, r8, r9, sp}
     f74:	5f545f00 	svcpl	0x00545f00
     f78:	455a4953 	ldrbmi	r4, [sl, #-2387]	; 0xfffff6ad
     f7c:	5f5f0020 	svcpl	0x005f0020
     f80:	5f4c4244 	svcpl	0x004c4244
     f84:	5f4e494d 	svcpl	0x004e494d
     f88:	455f3031 	ldrbmi	r3, [pc, #-49]	; f5f <_Min_Stack_Size+0xb5f>
     f8c:	5f5f5058 	svcpl	0x005f5058
     f90:	332d2820 			; <UNDEFINED> instruction: 0x332d2820
     f94:	00293730 	eoreq	r3, r9, r0, lsr r7
     f98:	53555f5f 	cmppl	r5, #380	; 0x17c
     f9c:	42465f51 	submi	r5, r6, #324	; 0x144
     fa0:	5f5f5449 	svcpl	0x005f5449
     fa4:	00323320 	eorseq	r3, r2, r0, lsr #6
     fa8:	524f5f5f 	subpl	r5, pc, #380	; 0x17c
     fac:	5f524544 	svcpl	0x00524544
     fb0:	5f474942 	svcpl	0x00474942
     fb4:	49444e45 	stmdbmi	r4, {r0, r2, r6, r9, sl, fp, lr}^
     fb8:	5f5f4e41 	svcpl	0x005f4e41
     fbc:	32333420 	eorscc	r3, r3, #32, 8	; 0x20000000
     fc0:	58450031 	stmdapl	r5, {r0, r4, r5}^
     fc4:	34314954 	ldrtcc	r4, [r1], #-2388	; 0xfffff6ac
     fc8:	00343120 	eorseq	r3, r4, r0, lsr #2
     fcc:	51535f5f 	cmppl	r3, pc, asr pc
     fd0:	4942465f 	stmdbmi	r2, {r0, r1, r2, r3, r4, r6, r9, sl, lr}^
     fd4:	205f5f54 	subscs	r5, pc, r4, asr pc	; <UNPREDICTABLE>
     fd8:	47003133 	smladxmi	r0, r3, r1, r3
     fdc:	5f4f4950 	svcpl	0x004f4950
     fe0:	45444f4d 	strbmi	r4, [r4, #-3917]	; 0xfffff0b3
     fe4:	504e495f 	subpl	r4, lr, pc, asr r9
     fe8:	505f5455 	subspl	r5, pc, r5, asr r4	; <UNPREDICTABLE>
     fec:	78302044 	ldmdavc	r0!, {r2, r6, sp}
     ff0:	30303030 	eorscc	r3, r0, r0, lsr r0
     ff4:	33303030 	teqcc	r0, #48	; 0x30
     ff8:	4e490075 	mcrmi	0, 2, r0, cr9, cr5, {3}
     ffc:	4d5f3854 	ldclmi	8, cr3, [pc, #-336]	; eb4 <_Min_Stack_Size+0xab4>
    1000:	28204e49 	stmdacs	r0!, {r0, r3, r6, r9, sl, fp, lr}
    1004:	495f5f2d 	ldmdbmi	pc, {r0, r2, r3, r5, r8, r9, sl, fp, ip, lr}^	; <UNPREDICTABLE>
    1008:	5f38544e 	svcpl	0x0038544e
    100c:	5f58414d 	svcpl	0x0058414d
    1010:	202d205f 	eorcs	r2, sp, pc, asr r0
    1014:	5f002931 	svcpl	0x00002931
    1018:	544e4955 	strbpl	r4, [lr], #-2389	; 0xfffff6ab
    101c:	545f3631 	ldrbpl	r3, [pc], #-1585	; 1024 <_Min_Stack_Size+0xc24>
    1020:	4345445f 	movtmi	r4, #21599	; 0x545f
    1024:	4552414c 	ldrbmi	r4, [r2, #-332]	; 0xfffffeb4
    1028:	45002044 	strmi	r2, [r0, #-68]	; 0xffffffbc
    102c:	39495458 	stmdbcc	r9, {r3, r4, r6, sl, ip, lr}^
    1030:	6c61435f 	stclvs	3, cr4, [r1], #-380	; 0xfffffe84
    1034:	6361626c 	cmnvs	r1, #108, 4	; 0xc0000006
    1038:	564e006b 	strbpl	r0, [lr], -fp, rrx
    103c:	495f4349 	ldmdbmi	pc, {r0, r3, r6, r8, r9, lr}^	; <UNPREDICTABLE>
    1040:	5f365152 	svcpl	0x00365152
    1044:	49545845 	ldmdbmi	r4, {r0, r2, r6, fp, ip, lr}^
    1048:	49445f34 	stmdbmi	r4, {r2, r4, r5, r8, r9, sl, fp, ip, lr}^
    104c:	4c424153 	stfmie	f4, [r2], {83}	; 0x53
    1050:	4e282045 	cdpmi	0, 2, cr2, cr8, cr5, {2}
    1054:	5f434956 	svcpl	0x00434956
    1058:	52454349 	subpl	r4, r5, #603979777	; 0x24000001
    105c:	3d7c2030 	ldclcc	0, cr2, [ip, #-192]!	; 0xffffff40
    1060:	3c312820 	ldccc	8, cr2, [r1], #-128	; 0xffffff80
    1064:	2930313c 	ldmdbcs	r0!, {r2, r3, r4, r5, r8, ip, sp}
    1068:	5f5f0029 	svcpl	0x005f0029
    106c:	5f514855 	svcpl	0x00514855
    1070:	54494246 	strbpl	r4, [r9], #-582	; 0xfffffdba
    1074:	31205f5f 			; <UNDEFINED> instruction: 0x31205f5f
    1078:	50470036 	subpl	r0, r7, r6, lsr r0
    107c:	505f4f49 	subspl	r4, pc, r9, asr #30
    1080:	385f4e49 	ldmdacc	pc, {r0, r3, r6, r9, sl, fp, lr}^	; <UNPREDICTABLE>
    1084:	75282820 	strvc	r2, [r8, #-2080]!	; 0xfffff7e0
    1088:	31746e69 	cmncc	r4, r9, ror #28
    108c:	29745f36 	ldmdbcs	r4!, {r1, r2, r4, r5, r8, r9, sl, fp, ip, lr}^
    1090:	31307830 	teqcc	r0, r0, lsr r8
    1094:	00293030 	eoreq	r3, r9, r0, lsr r0
    1098:	5f544e49 	svcpl	0x00544e49
    109c:	5341454c 	movtpl	r4, #5452	; 0x154c
    10a0:	5f343654 	svcpl	0x00343654
    10a4:	2058414d 	subscs	r4, r8, sp, asr #2
    10a8:	495f5f28 	ldmdbmi	pc, {r3, r5, r8, r9, sl, fp, ip, lr}^	; <UNPREDICTABLE>
    10ac:	4c5f544e 	cfldrdmi	mvd5, [pc], {78}	; 0x4e
    10b0:	54534145 	ldrbpl	r4, [r3], #-325	; 0xfffffebb
    10b4:	4d5f3436 	cfldrdmi	mvd3, [pc, #-216]	; fe4 <_Min_Stack_Size+0xbe4>
    10b8:	5f5f5841 	svcpl	0x005f5841
    10bc:	5f5f0029 	svcpl	0x005f0029
    10c0:	36544c46 	ldrbcc	r4, [r4], -r6, asr #24
    10c4:	494d5f34 	stmdbmi	sp, {r2, r4, r5, r8, r9, sl, fp, ip, lr}^
    10c8:	58455f4e 	stmdapl	r5, {r1, r2, r3, r6, r8, r9, sl, fp, ip, lr}^
    10cc:	205f5f50 	subscs	r5, pc, r0, asr pc	; <UNPREDICTABLE>
    10d0:	30312d28 	eorscc	r2, r1, r8, lsr #26
    10d4:	00293132 	eoreq	r3, r9, r2, lsr r1
    10d8:	455a4953 	ldrbmi	r4, [sl, #-2387]	; 0xfffff6ad
    10dc:	58414d5f 	stmdapl	r1, {r0, r1, r2, r3, r4, r6, r8, sl, fp, lr}^
    10e0:	5f5f2820 	svcpl	0x005f2820
    10e4:	455a4953 	ldrbmi	r4, [sl, #-2387]	; 0xfffff6ad
    10e8:	58414d5f 	stmdapl	r1, {r0, r1, r2, r3, r4, r6, r8, sl, fp, lr}^
    10ec:	00295f5f 	eoreq	r5, r9, pc, asr pc
    10f0:	54505f5f 	ldrbpl	r5, [r0], #-3935	; 0xfffff0a1
    10f4:	46494452 			; <UNDEFINED> instruction: 0x46494452
    10f8:	49575f46 	ldmdbmi	r7, {r1, r2, r6, r8, r9, sl, fp, ip, lr}^
    10fc:	5f485444 	svcpl	0x00485444
    1100:	3233205f 	eorscc	r2, r3, #95	; 0x5f
    1104:	775f5f00 	ldrbvc	r5, [pc, -r0, lsl #30]
    1108:	5f6b6165 	svcpl	0x006b6165
    110c:	65666572 	strbvs	r6, [r6, #-1394]!	; 0xfffffa8e
    1110:	636e6572 	cmnvs	lr, #478150656	; 0x1c800000
    1114:	79732865 	ldmdbvc	r3!, {r0, r2, r5, r6, fp, sp}^
    1118:	6c612c6d 	stclvs	12, cr2, [r1], #-436	; 0xfffffe4c
    111c:	29736169 	ldmdbcs	r3!, {r0, r3, r5, r6, r8, sp, lr}^
    1120:	615f5f20 	cmpvs	pc, r0, lsr #30
    1124:	5f5f6d73 	svcpl	0x005f6d73
    1128:	772e2228 	strvc	r2, [lr, -r8, lsr #4]!
    112c:	206b6165 	rsbcs	r6, fp, r5, ror #2
    1130:	61232022 			; <UNDEFINED> instruction: 0x61232022
    1134:	7361696c 	cmnvc	r1, #108, 18	; 0x1b0000
    1138:	5f203b29 	svcpl	0x00203b29
    113c:	6d73615f 	ldfvse	f6, [r3, #-380]!	; 0xfffffe84
    1140:	22285f5f 	eorcs	r5, r8, #380	; 0x17c
    1144:	7571652e 	ldrbvc	r6, [r1, #-1326]!	; 0xfffffad2
    1148:	23202220 			; <UNDEFINED> instruction: 0x23202220
    114c:	61696c61 	cmnvs	r9, r1, ror #24
    1150:	2c222073 	stccs	0, cr2, [r2], #-460	; 0xfffffe34
    1154:	23202220 			; <UNDEFINED> instruction: 0x23202220
    1158:	296d7973 	stmdbcs	sp!, {r0, r1, r4, r5, r6, r8, fp, ip, sp, lr}^
    115c:	4c415600 	mcrrmi	6, 0, r5, r1, cr0
    1160:	41560031 	cmpmi	r6, r1, lsr r0
    1164:	5600324c 	strpl	r3, [r0], -ip, asr #4
    1168:	00334c41 	eorseq	r4, r3, r1, asr #24
    116c:	49545845 	ldmdbmi	r4, {r0, r2, r6, fp, ip, lr}^
    1170:	41503231 	cmpmi	r0, r1, lsr r2
    1174:	28203231 	stmdacs	r0!, {r0, r4, r5, r9, ip, sp}
    1178:	49545845 	ldmdbmi	r4, {r0, r2, r6, fp, ip, lr}^
    117c:	4950475f 	ldmdbmi	r0, {r0, r1, r2, r3, r4, r6, r8, r9, sl, lr}^
    1180:	614d5f4f 	cmpvs	sp, pc, asr #30
    1184:	6e697070 	mcrvs	0, 3, r7, cr9, cr0, {3}
    1188:	29745f67 	ldmdbcs	r4!, {r0, r1, r2, r5, r6, r8, r9, sl, fp, ip, lr}^
    118c:	5458457b 	ldrbpl	r4, [r8], #-1403	; 0xfffffa85
    1190:	2c323149 	ldfcss	f3, [r2], #-292	; 0xfffffedc
    1194:	49504720 	ldmdbmi	r0, {r5, r8, r9, sl, lr}^
    1198:	202c414f 	eorcs	r4, ip, pc, asr #2
    119c:	4f495047 	svcmi	0x00495047
    11a0:	4e49505f 	mcrmi	0, 2, r5, cr9, cr15, {2}
    11a4:	2c32315f 	ldfcss	f3, [r2], #-380	; 0xfffffe84
    11a8:	54584520 	ldrbpl	r4, [r8], #-1312	; 0xfffffae0
    11ac:	5f323149 	svcpl	0x00323149
    11b0:	20515249 	subscs	r5, r1, r9, asr #4
    11b4:	5845007d 	stmdapl	r5, {r0, r2, r3, r4, r5, r6}^
    11b8:	35314954 	ldrcc	r4, [r1, #-2388]!	; 0xfffff6ac
    11bc:	35314350 	ldrcc	r4, [r1, #-848]!	; 0xfffffcb0
    11c0:	58452820 	stmdapl	r5, {r5, fp, sp}^
    11c4:	475f4954 			; <UNDEFINED> instruction: 0x475f4954
    11c8:	5f4f4950 	svcpl	0x004f4950
    11cc:	7070614d 	rsbsvc	r6, r0, sp, asr #2
    11d0:	5f676e69 	svcpl	0x00676e69
    11d4:	457b2974 	ldrbmi	r2, [fp, #-2420]!	; 0xfffff68c
    11d8:	31495458 	cmpcc	r9, r8, asr r4
    11dc:	47202c35 			; <UNDEFINED> instruction: 0x47202c35
    11e0:	434f4950 	movtmi	r4, #63824	; 0xf950
    11e4:	5047202c 	subpl	r2, r7, ip, lsr #32
    11e8:	505f4f49 	subspl	r4, pc, r9, asr #30
    11ec:	315f4e49 	cmpcc	pc, r9, asr #28
    11f0:	45202c35 	strmi	r2, [r0, #-3125]!	; 0xfffff3cb
    11f4:	31495458 	cmpcc	r9, r8, asr r4
    11f8:	52495f35 	subpl	r5, r9, #53, 30	; 0xd4
    11fc:	007d2051 	rsbseq	r2, sp, r1, asr r0
    1200:	45445f5f 	strbmi	r5, [r4, #-3935]	; 0xfffff0a1
    1204:	5f323343 	svcpl	0x00323343
    1208:	49535045 	ldmdbmi	r3, {r0, r2, r6, ip, lr}^
    120c:	5f4e4f4c 	svcpl	0x004e4f4c
    1210:	4531205f 	ldrmi	r2, [r1, #-95]!	; 0xffffffa1
    1214:	4644362d 	strbmi	r3, [r4], -sp, lsr #12
    1218:	685f5f00 	ldmdavs	pc, {r8, r9, sl, fp, ip, lr}^	; <UNPREDICTABLE>
    121c:	655f7361 	ldrbvs	r7, [pc, #-865]	; ec3 <_Min_Stack_Size+0xac3>
    1220:	6e657478 	mcrvs	4, 3, r7, cr5, cr8, {3}
    1224:	6e6f6973 			; <UNDEFINED> instruction: 0x6e6f6973
    1228:	685f5f20 	ldmdavs	pc, {r5, r8, r9, sl, fp, ip, lr}^	; <UNPREDICTABLE>
    122c:	665f7361 	ldrbvs	r7, [pc], -r1, ror #6
    1230:	75746165 	ldrbvc	r6, [r4, #-357]!	; 0xfffffe9b
    1234:	44006572 	strmi	r6, [r0], #-1394	; 0xfffffa8e
    1238:	47554245 	ldrbmi	r4, [r5, -r5, asr #4]
    123c:	5f003120 	svcpl	0x00003120
    1240:	43414c5f 	movtmi	r4, #7263	; 0x1c5f
    1244:	5f4d5543 	svcpl	0x004d5543
    1248:	54494249 	strbpl	r4, [r9], #-585	; 0xfffffdb7
    124c:	33205f5f 			; <UNDEFINED> instruction: 0x33205f5f
    1250:	58450032 	stmdapl	r5, {r1, r4, r5}^
    1254:	425f4954 	subsmi	r4, pc, #84, 18	; 0x150000
    1258:	20455341 	subcs	r5, r5, r1, asr #6
    125c:	30347830 	eorscc	r7, r4, r0, lsr r8
    1260:	34303130 	ldrtcc	r3, [r0], #-304	; 0xfffffed0
    1264:	4c553030 	mrrcmi	0, 3, r3, r5, cr0
    1268:	755f5f00 	ldrbvc	r5, [pc, #-3840]	; 370 <_Min_Heap_Size+0x170>
    126c:	38746e69 	ldmdacc	r4!, {r0, r3, r5, r6, r9, sl, fp, sp, lr}^
    1270:	5f00745f 	svcpl	0x0000745f
    1274:	4843535f 	stmdami	r3, {r0, r1, r2, r3, r4, r6, r8, r9, ip, lr}^
    1278:	575f5241 	ldrbpl	r5, [pc, -r1, asr #4]
    127c:	48544449 	ldmdami	r4, {r0, r3, r6, sl, lr}^
    1280:	38205f5f 	stmdacc	r0!, {r0, r1, r2, r3, r4, r6, r8, r9, sl, fp, ip, lr}
    1284:	4e5f5f00 	cdpmi	15, 5, cr5, cr15, cr0, {0}
    1288:	494c5745 	stmdbmi	ip, {r0, r2, r6, r8, r9, sl, ip, lr}^
    128c:	5f485f42 	svcpl	0x00485f42
    1290:	0031205f 	eorseq	r2, r1, pc, asr r0
    1294:	4e495f5f 	mcrmi	15, 2, r5, cr9, cr15, {2}
    1298:	41465f54 	cmpmi	r6, r4, asr pc
    129c:	36315453 			; <UNDEFINED> instruction: 0x36315453
    12a0:	4449575f 	strbmi	r5, [r9], #-1887	; 0xfffff8a1
    12a4:	5f5f4854 	svcpl	0x005f4854
    12a8:	00323320 	eorseq	r3, r2, r0, lsr #6
    12ac:	46565f5f 	usaxmi	r5, r6, pc	; <UNPREDICTABLE>
    12b0:	50465f50 	subpl	r5, r6, r0, asr pc
    12b4:	31205f5f 			; <UNDEFINED> instruction: 0x31205f5f
    12b8:	4c5f5f00 	mrrcmi	15, 0, r5, pc, cr0	; <UNPREDICTABLE>
    12bc:	54534145 	ldrbpl	r4, [r3], #-325	; 0xfffffebb
    12c0:	22203233 	eorcs	r3, r0, #805306371	; 0x30000003
    12c4:	5f00226c 	svcpl	0x0000226c
    12c8:	464c4c5f 			; <UNDEFINED> instruction: 0x464c4c5f
    12cc:	54434152 	strbpl	r4, [r3], #-338	; 0xfffffeae
    12d0:	4e494d5f 	mcrmi	13, 2, r4, cr9, cr15, {2}
    12d4:	28205f5f 	stmdacs	r0!, {r0, r1, r2, r3, r4, r6, r8, r9, sl, fp, ip, lr}
    12d8:	352e302d 	strcc	r3, [lr, #-45]!	; 0xffffffd3
    12dc:	2d524c4c 	ldclcs	12, cr4, [r2, #-304]	; 0xfffffed0
    12e0:	4c352e30 	ldcmi	14, cr2, [r5], #-192	; 0xffffff40
    12e4:	0029524c 	eoreq	r5, r9, ip, asr #4
    12e8:	4e495f5f 	mcrmi	15, 2, r5, cr9, cr15, {2}
    12ec:	52545054 	subspl	r5, r4, #84	; 0x54
    12f0:	58414d5f 	stmdapl	r1, {r0, r1, r2, r3, r4, r6, r8, sl, fp, lr}^
    12f4:	30205f5f 	eorcc	r5, r0, pc, asr pc
    12f8:	66663778 			; <UNDEFINED> instruction: 0x66663778
    12fc:	66666666 	strbtvs	r6, [r6], -r6, ror #12
    1300:	665f0066 	ldrbvs	r0, [pc], -r6, rrx
    1304:	00656c69 	rsbeq	r6, r5, r9, ror #24
    1308:	49555f5f 	ldmdbmi	r5, {r0, r1, r2, r3, r4, r6, r8, r9, sl, fp, ip, lr}^
    130c:	465f544e 	ldrbmi	r5, [pc], -lr, asr #8
    1310:	31545341 	cmpcc	r4, r1, asr #6
    1314:	414d5f36 	cmpmi	sp, r6, lsr pc
    1318:	205f5f58 	subscs	r5, pc, r8, asr pc	; <UNPREDICTABLE>
    131c:	66667830 			; <UNDEFINED> instruction: 0x66667830
    1320:	66666666 	strbtvs	r6, [r6], -r6, ror #12
    1324:	00556666 	subseq	r6, r5, r6, ror #12
    1328:	5f544e49 	svcpl	0x00544e49
    132c:	5341454c 	movtpl	r4, #5452	; 0x154c
    1330:	5f343654 	svcpl	0x00343654
    1334:	204e494d 	subcs	r4, lr, sp, asr #18
    1338:	5f5f2d28 	svcpl	0x005f2d28
    133c:	5f544e49 	svcpl	0x00544e49
    1340:	5341454c 	movtpl	r4, #5452	; 0x154c
    1344:	5f343654 	svcpl	0x00343654
    1348:	5f58414d 	svcpl	0x0058414d
    134c:	202d205f 	eorcs	r2, sp, pc, asr r0
    1350:	5f002931 	svcpl	0x00002931
    1354:	655f6e6f 	ldrbvs	r6, [pc, #-3695]	; 4ed <_Min_Stack_Size+0xed>
    1358:	5f746978 	svcpl	0x00746978
    135c:	73677261 	cmnvc	r7, #268435462	; 0x10000006
    1360:	475f5f00 	ldrbmi	r5, [pc, -r0, lsl #30]
    1364:	4c43554e 	cfstr64mi	mvdx5, [r3], {78}	; 0x4e
    1368:	5f454b49 	svcpl	0x00454b49
    136c:	4c495542 	cfstr64mi	mvdx5, [r9], {66}	; 0x42
    1370:	5f4e4954 	svcpl	0x004e4954
    1374:	534e4f43 	movtpl	r4, #61251	; 0xef43
    1378:	544e4154 	strbpl	r4, [lr], #-340	; 0xfffffeac
    137c:	3120505f 	qsubcc	r5, pc, r0	; <UNPREDICTABLE>
    1380:	45525f00 	ldrbmi	r5, [r2, #-3840]	; 0xfffff100
    1384:	5f544e45 	svcpl	0x00544e45
    1388:	43454843 	movtmi	r4, #22595	; 0x5843
    138c:	6176284b 	cmnvs	r6, fp, asr #16
    1390:	68772c72 	ldmdavs	r7!, {r1, r4, r5, r6, sl, fp, sp}^
    1394:	742c7461 	strtvc	r7, [ip], #-1121	; 0xfffffb9f
    1398:	2c657079 	stclcs	0, cr7, [r5], #-484	; 0xfffffe1c
    139c:	657a6973 	ldrbvs	r6, [sl, #-2419]!	; 0xfffff68d
    13a0:	696e692c 	stmdbvs	lr!, {r2, r3, r5, r8, fp, sp, lr}^
    13a4:	64202974 	strtvs	r2, [r0], #-2420	; 0xfffff68c
    13a8:	207b206f 	rsbscs	r2, fp, pc, rrx
    13ac:	75727473 	ldrbvc	r7, [r2, #-1139]!	; 0xfffffb8d
    13b0:	5f207463 	svcpl	0x00207463
    13b4:	6e656572 	mcrvs	5, 3, r6, cr5, cr2, {3}
    13b8:	5f2a2074 	svcpl	0x002a2074
    13bc:	203d2072 	eorscs	r2, sp, r2, ror r0
    13c0:	72617628 	rsbvc	r7, r1, #40, 12	; 0x2800000
    13c4:	69203b29 	stmdbvs	r0!, {r0, r3, r5, r8, r9, fp, ip, sp}
    13c8:	5f282066 	svcpl	0x00282066
    13cc:	773e2d72 			; <UNDEFINED> instruction: 0x773e2d72
    13d0:	20746168 	rsbscs	r6, r4, r8, ror #2
    13d4:	4e203d3d 	mcrmi	13, 1, r3, cr0, cr13, {1}
    13d8:	294c4c55 	stmdbcs	ip, {r0, r2, r4, r6, sl, fp, lr}^
    13dc:	5f207b20 	svcpl	0x00207b20
    13e0:	773e2d72 			; <UNDEFINED> instruction: 0x773e2d72
    13e4:	20746168 	rsbscs	r6, r4, r8, ror #2
    13e8:	7428203d 	strtvc	r2, [r8], #-61	; 0xffffffc3
    13ec:	29657079 	stmdbcs	r5!, {r0, r3, r4, r5, r6, ip, sp, lr}^
    13f0:	6c6c616d 	stfvse	f6, [ip], #-436	; 0xfffffe4c
    13f4:	7328636f 			; <UNDEFINED> instruction: 0x7328636f
    13f8:	29657a69 	stmdbcs	r5!, {r0, r3, r5, r6, r9, fp, ip, sp, lr}^
    13fc:	5f5f203b 	svcpl	0x005f203b
    1400:	6e656572 	mcrvs	5, 3, r6, cr5, cr2, {3}
    1404:	73615f74 	cmnvc	r1, #116, 30	; 0x1d0
    1408:	74726573 	ldrbtvc	r6, [r2], #-1395	; 0xfffffa8d
    140c:	2d725f28 	ldclcs	15, cr5, [r2, #-160]!	; 0xffffff60
    1410:	6168773e 	cmnvs	r8, lr, lsr r7
    1414:	203b2974 	eorscs	r2, fp, r4, ror r9
    1418:	74696e69 	strbtvc	r6, [r9], #-3689	; 0xfffff197
    141c:	207d203b 	rsbscs	r2, sp, fp, lsr r0
    1420:	6877207d 	ldmdavs	r7!, {r0, r2, r3, r4, r5, r6, sp}^
    1424:	20656c69 	rsbcs	r6, r5, r9, ror #24
    1428:	00293028 	eoreq	r3, r9, r8, lsr #32
    142c:	6e6f4e5f 	mcrvs	14, 3, r4, cr15, cr15, {2}
    1430:	6c6c756e 	cfstr64vs	mvdx7, [ip], #-440	; 0xfffffe48
    1434:	5f5f0020 	svcpl	0x005f0020
    1438:	00686377 	rsbeq	r6, r8, r7, ror r3
    143c:	4e475f5f 	mcrmi	15, 2, r5, cr7, cr15, {2}
    1440:	505f4355 	subspl	r4, pc, r5, asr r3	; <UNPREDICTABLE>
    1444:	45524552 	ldrbmi	r4, [r2, #-1362]	; 0xfffffaae
    1448:	616d2851 	cmnvs	sp, r1, asr r8
    144c:	696d2c6a 	stmdbvs	sp!, {r1, r3, r5, r6, sl, fp, sp}^
    1450:	2820296e 	stmdacs	r0!, {r1, r2, r3, r5, r6, r8, fp, sp}
    1454:	475f5f28 	ldrbmi	r5, [pc, -r8, lsr #30]
    1458:	5f43554e 	svcpl	0x0043554e
    145c:	3c3c205f 	ldccc	0, cr2, [ip], #-380	; 0xfffffe84
    1460:	29363120 	ldmdbcs	r6!, {r5, r8, ip, sp}
    1464:	5f202b20 	svcpl	0x00202b20
    1468:	554e475f 	strbpl	r4, [lr, #-1887]	; 0xfffff8a1
    146c:	494d5f43 	stmdbmi	sp, {r0, r1, r6, r8, r9, sl, fp, ip, lr}^
    1470:	5f524f4e 	svcpl	0x00524f4e
    1474:	3d3e205f 	ldccc	0, cr2, [lr, #-380]!	; 0xfffffe84
    1478:	6d282820 	stcvs	8, cr2, [r8, #-128]!	; 0xffffff80
    147c:	20296a61 	eorcs	r6, r9, r1, ror #20
    1480:	31203c3c 			; <UNDEFINED> instruction: 0x31203c3c
    1484:	2b202936 	blcs	80b964 <_Min_Stack_Size+0x80b564>
    1488:	696d2820 	stmdbvs	sp!, {r5, fp, sp}^
    148c:	0029296e 	eoreq	r2, r9, lr, ror #18
    1490:	575f545f 			; <UNDEFINED> instruction: 0x575f545f
    1494:	52414843 	subpl	r4, r1, #4390912	; 0x430000
    1498:	58450020 	stmdapl	r5, {r5}^
    149c:	50324954 	eorspl	r4, r2, r4, asr r9
    14a0:	28203244 	stmdacs	r0!, {r2, r6, r9, ip, sp}
    14a4:	49545845 	ldmdbmi	r4, {r0, r2, r6, fp, ip, lr}^
    14a8:	4950475f 	ldmdbmi	r0, {r0, r1, r2, r3, r4, r6, r8, r9, sl, lr}^
    14ac:	614d5f4f 	cmpvs	sp, pc, asr #30
    14b0:	6e697070 	mcrvs	0, 3, r7, cr9, cr0, {3}
    14b4:	29745f67 	ldmdbcs	r4!, {r0, r1, r2, r5, r6, r8, r9, sl, fp, ip, lr}^
    14b8:	5458457b 	ldrbpl	r4, [r8], #-1403	; 0xfffffa85
    14bc:	202c3249 	eorcs	r3, ip, r9, asr #4
    14c0:	4f495047 	svcmi	0x00495047
    14c4:	47202c44 	strmi	r2, [r0, -r4, asr #24]!
    14c8:	5f4f4950 	svcpl	0x004f4950
    14cc:	5f4e4950 	svcpl	0x004e4950
    14d0:	45202c32 	strmi	r2, [r0, #-3122]!	; 0xfffff3ce
    14d4:	32495458 	subcc	r5, r9, #88, 8	; 0x58000000
    14d8:	5152495f 	cmppl	r2, pc, asr r9
    14dc:	5f007d20 	svcpl	0x00007d20
    14e0:	50544e49 	subspl	r4, r4, r9, asr #28
    14e4:	545f5254 	ldrbpl	r5, [pc], #-596	; 14ec <_Min_Stack_Size+0x10ec>
    14e8:	4345445f 	movtmi	r4, #21599	; 0x545f
    14ec:	4552414c 	ldrbmi	r4, [r2, #-332]	; 0xfffffeb4
    14f0:	5f002044 	svcpl	0x00002044
    14f4:	544c465f 	strbpl	r4, [ip], #-1631	; 0xfffff9a1
    14f8:	5f583233 	svcpl	0x00583233
    14fc:	5f534148 	svcpl	0x00534148
    1500:	49464e49 	stmdbmi	r6, {r0, r3, r6, r9, sl, fp, lr}^
    1504:	5954494e 	ldmdbpl	r4, {r1, r2, r3, r6, r8, fp, lr}^
    1508:	31205f5f 			; <UNDEFINED> instruction: 0x31205f5f
    150c:	544e4900 	strbpl	r4, [lr], #-2304	; 0xfffff700
    1510:	5341465f 	movtpl	r4, #5727	; 0x165f
    1514:	5f323354 	svcpl	0x00323354
    1518:	204e494d 	subcs	r4, lr, sp, asr #18
    151c:	5f5f2d28 	svcpl	0x005f2d28
    1520:	5f544e49 	svcpl	0x00544e49
    1524:	54534146 	ldrbpl	r4, [r3], #-326	; 0xfffffeba
    1528:	4d5f3233 	lfmmi	f3, 2, [pc, #-204]	; 1464 <_Min_Stack_Size+0x1064>
    152c:	5f5f5841 	svcpl	0x005f5841
    1530:	31202d20 			; <UNDEFINED> instruction: 0x31202d20
    1534:	535f0029 	cmppl	pc, #41	; 0x29
    1538:	535f5359 	cmppl	pc, #1677721601	; 0x64000001
    153c:	5f455a49 	svcpl	0x00455a49
    1540:	20485f54 	subcs	r5, r8, r4, asr pc
    1544:	54584500 	ldrbpl	r4, [r8], #-1280	; 0xfffffb00
    1548:	42503049 	subsmi	r3, r0, #73	; 0x49
    154c:	45282030 	strmi	r2, [r8, #-48]!	; 0xffffffd0
    1550:	5f495458 	svcpl	0x00495458
    1554:	4f495047 	svcmi	0x00495047
    1558:	70614d5f 	rsbvc	r4, r1, pc, asr sp
    155c:	676e6970 			; <UNDEFINED> instruction: 0x676e6970
    1560:	7b29745f 	blvc	a5e6e4 <_Min_Stack_Size+0xa5e2e4>
    1564:	49545845 	ldmdbmi	r4, {r0, r2, r6, fp, ip, lr}^
    1568:	47202c30 			; <UNDEFINED> instruction: 0x47202c30
    156c:	424f4950 	submi	r4, pc, #80, 18	; 0x140000
    1570:	5047202c 	subpl	r2, r7, ip, lsr #32
    1574:	505f4f49 	subspl	r4, pc, r9, asr #30
    1578:	305f4e49 	subscc	r4, pc, r9, asr #28
    157c:	5845202c 	stmdapl	r5, {r2, r3, r5, sp}^
    1580:	5f304954 	svcpl	0x00304954
    1584:	20515249 	subscs	r5, r1, r9, asr #4
    1588:	5f5f007d 	svcpl	0x005f007d
    158c:	544e4955 	strbpl	r4, [lr], #-2389	; 0xfffff6ab
    1590:	41454c5f 	cmpmi	r5, pc, asr ip
    1594:	5f385453 	svcpl	0x00385453
    1598:	45505954 	ldrbmi	r5, [r0, #-2388]	; 0xfffff6ac
    159c:	75205f5f 	strvc	r5, [r0, #-3935]!	; 0xfffff0a1
    15a0:	6769736e 	strbvs	r7, [r9, -lr, ror #6]!
    15a4:	2064656e 	rsbcs	r6, r4, lr, ror #10
    15a8:	72616863 	rsbvc	r6, r1, #6488064	; 0x630000
    15ac:	415f5f00 	cmpmi	pc, r0, lsl #30
    15b0:	4c494654 	mcrrmi	6, 5, r4, r9, cr4
    15b4:	49565f45 	ldmdbmi	r6, {r0, r2, r6, r8, r9, sl, fp, ip, lr}^
    15b8:	4c424953 	mcrrmi	9, 5, r4, r2, cr3	; <UNPREDICTABLE>
    15bc:	00312045 	eorseq	r2, r1, r5, asr #32
    15c0:	43415f5f 	movtmi	r5, #8031	; 0x1f5f
    15c4:	5f4d5543 	svcpl	0x004d5543
    15c8:	54494246 	strbpl	r4, [r9], #-582	; 0xfffffdba
    15cc:	31205f5f 			; <UNDEFINED> instruction: 0x31205f5f
    15d0:	58450035 	stmdapl	r5, {r0, r2, r4, r5}^
    15d4:	495f4954 	ldmdbmi	pc, {r2, r4, r6, r8, fp, lr}^	; <UNPREDICTABLE>
    15d8:	455f5152 	ldrbmi	r5, [pc, #-338]	; 148e <_Min_Stack_Size+0x108e>
    15dc:	4c42414e 	stfmie	f4, [r2], {78}	; 0x4e
    15e0:	00302045 	eorseq	r2, r0, r5, asr #32
    15e4:	72626d5f 	rsbvc	r6, r2, #6080	; 0x17c0
    15e8:	5f6e656c 	svcpl	0x006e656c
    15ec:	74617473 	strbtvc	r7, [r1], #-1139	; 0xfffffb8d
    15f0:	50470065 	subpl	r0, r7, r5, rrx
    15f4:	505f4f49 	subspl	r4, pc, r9, asr #30
    15f8:	305f4e49 	subscc	r4, pc, r9, asr #28
    15fc:	75282820 	strvc	r2, [r8, #-2080]!	; 0xfffff7e0
    1600:	31746e69 	cmncc	r4, r9, ror #28
    1604:	29745f36 	ldmdbcs	r4!, {r1, r2, r4, r5, r8, r9, sl, fp, ip, lr}^
    1608:	30307830 	eorscc	r7, r0, r0, lsr r8
    160c:	00293130 	eoreq	r3, r9, r0, lsr r1
    1610:	4e495f5f 	mcrmi	15, 2, r5, cr9, cr15, {2}
    1614:	41465f54 	cmpmi	r6, r4, asr pc
    1618:	34365453 	ldrtcc	r5, [r6], #-1107	; 0xfffffbad
    161c:	58414d5f 	stmdapl	r1, {r0, r1, r2, r3, r4, r6, r8, sl, fp, lr}^
    1620:	30205f5f 	eorcc	r5, r0, pc, asr pc
    1624:	66663778 			; <UNDEFINED> instruction: 0x66663778
    1628:	66666666 	strbtvs	r6, [r6], -r6, ror #12
    162c:	66666666 	strbtvs	r6, [r6], -r6, ror #12
    1630:	66666666 	strbtvs	r6, [r6], -r6, ror #12
    1634:	004c4c66 	subeq	r4, ip, r6, ror #24
    1638:	4c465f5f 	mcrrmi	15, 5, r5, r6, cr15
    163c:	58323354 	ldmdapl	r2!, {r2, r4, r6, r8, r9, ip, sp}
    1640:	4345445f 	movtmi	r4, #21599	; 0x545f
    1644:	4c414d49 	mcrrmi	13, 4, r4, r1, cr9
    1648:	4749445f 	smlsldmi	r4, r9, pc, r4	; <UNPREDICTABLE>
    164c:	31205f5f 			; <UNDEFINED> instruction: 0x31205f5f
    1650:	725f0037 	subsvc	r0, pc, #55	; 0x37
    1654:	6c757365 	ldclvs	3, cr7, [r5], #-404	; 0xfffffe6c
    1658:	006b5f74 	rsbeq	r5, fp, r4, ror pc
    165c:	4c465f5f 	mcrrmi	15, 5, r5, r6, cr15
    1660:	58323354 	ldmdapl	r2!, {r2, r4, r6, r8, r9, ip, sp}
    1664:	5341485f 	movtpl	r4, #6239	; 0x185f
    1668:	4955515f 	ldmdbmi	r5, {r0, r1, r2, r3, r4, r6, r8, ip, lr}^
    166c:	4e5f5445 	cdpmi	4, 5, cr5, cr15, cr5, {2}
    1670:	5f5f4e41 	svcpl	0x005f4e41
    1674:	5f003120 	svcpl	0x00003120
    1678:	6c756e5f 	ldclvs	14, cr6, [r5], #-380	; 0xfffffe84
    167c:	65735f6c 	ldrbvs	r5, [r3, #-3948]!	; 0xfffff094
    1680:	6e69746e 	cdpvs	4, 6, cr7, cr9, cr14, {3}
    1684:	5f206c65 	svcpl	0x00206c65
    1688:	7474615f 	ldrbtvc	r6, [r4], #-351	; 0xfffffea1
    168c:	75626972 	strbvc	r6, [r2, #-2418]!	; 0xfffff68e
    1690:	5f5f6574 	svcpl	0x005f6574
    1694:	5f5f2828 	svcpl	0x005f2828
    1698:	746e6573 	strbtvc	r6, [lr], #-1395	; 0xfffffa8d
    169c:	6c656e69 	stclvs	14, cr6, [r5], #-420	; 0xfffffe5c
    16a0:	29295f5f 	stmdbcs	r9!, {r0, r1, r2, r3, r4, r6, r8, r9, sl, fp, ip, lr}
    16a4:	465f5f00 	ldrbmi	r5, [pc], -r0, lsl #30
    16a8:	3233544c 	eorscc	r5, r3, #76, 8	; 0x4c000000
    16ac:	50455f58 	subpl	r5, r5, r8, asr pc
    16b0:	4f4c4953 	svcmi	0x004c4953
    16b4:	205f5f4e 	subscs	r5, pc, lr, asr #30
    16b8:	32322e32 	eorscc	r2, r2, #800	; 0x320
    16bc:	36343430 			; <UNDEFINED> instruction: 0x36343430
    16c0:	32393430 	eorscc	r3, r9, #48, 8	; 0x30000000
    16c4:	31333035 	teqcc	r3, r5, lsr r0
    16c8:	2d653133 	stfcse	f3, [r5, #-204]!	; 0xffffff34
    16cc:	33463631 	movtcc	r3, #26161	; 0x6631
    16d0:	5f007832 	svcpl	0x00007832
    16d4:	6e695f5f 	mcrvs	15, 3, r5, cr9, cr15, {2}
    16d8:	656c5f74 	strbvs	r5, [ip, #-3956]!	; 0xfffff08c
    16dc:	31747361 	cmncc	r4, r1, ror #6
    16e0:	5f745f36 	svcpl	0x00745f36
    16e4:	69666564 	stmdbvs	r6!, {r2, r5, r6, r8, sl, sp, lr}^
    16e8:	2064656e 	rsbcs	r6, r4, lr, ror #10
    16ec:	5f5f0031 	svcpl	0x005f0031
    16f0:	5f4d5241 	svcpl	0x004d5241
    16f4:	48435241 	stmdami	r3, {r0, r6, r9, ip, lr}^
    16f8:	5f4d375f 	svcpl	0x004d375f
    16fc:	0031205f 	eorseq	r2, r1, pc, asr r0
    1700:	45445f5f 	strbmi	r5, [r4, #-3935]	; 0xfffff0a1
    1704:	38323143 	ldmdacc	r2!, {r0, r1, r6, r8, ip, sp}
    1708:	4e494d5f 	mcrmi	13, 2, r4, cr9, cr15, {2}
    170c:	5058455f 	subspl	r4, r8, pc, asr r5
    1710:	28205f5f 	stmdacs	r0!, {r0, r1, r2, r3, r4, r6, r8, r9, sl, fp, ip, lr}
    1714:	3431362d 	ldrtcc	r3, [r1], #-1581	; 0xfffff9d3
    1718:	45002932 	strmi	r2, [r0, #-2354]	; 0xfffff6ce
    171c:	31495458 	cmpcc	r9, r8, asr r4
    1720:	31425034 	cmpcc	r2, r4, lsr r0
    1724:	45282034 	strmi	r2, [r8, #-52]!	; 0xffffffcc
    1728:	5f495458 	svcpl	0x00495458
    172c:	4f495047 	svcmi	0x00495047
    1730:	70614d5f 	rsbvc	r4, r1, pc, asr sp
    1734:	676e6970 			; <UNDEFINED> instruction: 0x676e6970
    1738:	7b29745f 	blvc	a5e8bc <_Min_Stack_Size+0xa5e4bc>
    173c:	49545845 	ldmdbmi	r4, {r0, r2, r6, fp, ip, lr}^
    1740:	202c3431 	eorcs	r3, ip, r1, lsr r4
    1744:	4f495047 	svcmi	0x00495047
    1748:	47202c42 	strmi	r2, [r0, -r2, asr #24]!
    174c:	5f4f4950 	svcpl	0x004f4950
    1750:	5f4e4950 	svcpl	0x004e4950
    1754:	202c3431 	eorcs	r3, ip, r1, lsr r4
    1758:	49545845 	ldmdbmi	r4, {r0, r2, r6, fp, ip, lr}^
    175c:	495f3431 	ldmdbmi	pc, {r0, r4, r5, sl, ip, sp}^	; <UNPREDICTABLE>
    1760:	7d205152 	stfvcs	f5, [r0, #-328]!	; 0xfffffeb8
    1764:	495f5f00 	ldmdbmi	pc, {r8, r9, sl, fp, ip, lr}^	; <UNPREDICTABLE>
    1768:	465f544e 	ldrbmi	r5, [pc], -lr, asr #8
    176c:	38545341 	ldmdacc	r4, {r0, r6, r8, r9, ip, lr}^
    1770:	5059545f 	subspl	r5, r9, pc, asr r4
    1774:	205f5f45 	subscs	r5, pc, r5, asr #30
    1778:	00746e69 	rsbseq	r6, r4, r9, ror #28
    177c:	494f4e5f 	stmdbmi	pc, {r0, r1, r2, r3, r4, r6, r9, sl, fp, lr}^	; <UNPREDICTABLE>
    1780:	4e494c4e 	cdpmi	12, 4, cr4, cr9, cr14, {2}
    1784:	5f5f2045 	svcpl	0x005f2045
    1788:	72747461 	rsbsvc	r7, r4, #1627389952	; 0x61000000
    178c:	74756269 	ldrbtvc	r6, [r5], #-617	; 0xfffffd97
    1790:	205f5f65 	subscs	r5, pc, r5, ror #30
    1794:	5f5f2828 	svcpl	0x005f2828
    1798:	6e696f6e 	cdpvs	15, 6, cr6, cr9, cr14, {3}
    179c:	656e696c 	strbvs	r6, [lr, #-2412]!	; 0xfffff694
    17a0:	29295f5f 	stmdbcs	r9!, {r0, r1, r2, r3, r4, r6, r8, r9, sl, fp, ip, lr}
    17a4:	735f5f00 	cmpvc	pc, #0, 30
    17a8:	5f657a69 	svcpl	0x00657a69
    17ac:	205f5f74 	subscs	r5, pc, r4, ror pc	; <UNPREDICTABLE>
    17b0:	555f5f00 	ldrbpl	r5, [pc, #-3840]	; 8b8 <_Min_Stack_Size+0x4b8>
    17b4:	4d544e49 	ldclmi	14, cr4, [r4, #-292]	; 0xfffffedc
    17b8:	435f5841 	cmpmi	pc, #4259840	; 0x410000
    17bc:	20296328 	eorcs	r6, r9, r8, lsr #6
    17c0:	23232063 			; <UNDEFINED> instruction: 0x23232063
    17c4:	4c4c5520 	cfstr64mi	mvdx5, [ip], {32}
    17c8:	535f5f00 	cmppl	pc, #0, 30
    17cc:	4f455a49 	svcmi	0x00455a49
    17d0:	4f505f46 	svcmi	0x00505f46
    17d4:	45544e49 	ldrbmi	r4, [r4, #-3657]	; 0xfffff1b7
    17d8:	205f5f52 	subscs	r5, pc, r2, asr pc	; <UNPREDICTABLE>
    17dc:	5f5f0034 	svcpl	0x005f0034
    17e0:	5f544e49 	svcpl	0x00544e49
    17e4:	5341454c 	movtpl	r4, #5452	; 0x154c
    17e8:	545f3854 	ldrbpl	r3, [pc], #-2132	; 17f0 <_Min_Stack_Size+0x13f0>
    17ec:	5f455059 	svcpl	0x00455059
    17f0:	6973205f 	ldmdbvs	r3!, {r0, r1, r2, r3, r4, r6, sp}^
    17f4:	64656e67 	strbtvs	r6, [r5], #-3687	; 0xfffff199
    17f8:	61686320 	cmnvs	r8, r0, lsr #6
    17fc:	6c5f0072 	mrrcvs	0, 7, r0, pc, cr2	; <UNPREDICTABLE>
    1800:	6c61636f 	stclvs	3, cr6, [r1], #-444	; 0xfffffe44
    1804:	656d6974 	strbvs	r6, [sp, #-2420]!	; 0xfffff68c
    1808:	6675625f 			; <UNDEFINED> instruction: 0x6675625f
    180c:	54584500 	ldrbpl	r4, [r8], #-1280	; 0xfffffb00
    1810:	42503349 	subsmi	r3, r0, #603979777	; 0x24000001
    1814:	45282033 	strmi	r2, [r8, #-51]!	; 0xffffffcd
    1818:	5f495458 	svcpl	0x00495458
    181c:	4f495047 	svcmi	0x00495047
    1820:	70614d5f 	rsbvc	r4, r1, pc, asr sp
    1824:	676e6970 			; <UNDEFINED> instruction: 0x676e6970
    1828:	7b29745f 	blvc	a5e9ac <_Min_Stack_Size+0xa5e5ac>
    182c:	49545845 	ldmdbmi	r4, {r0, r2, r6, fp, ip, lr}^
    1830:	47202c33 			; <UNDEFINED> instruction: 0x47202c33
    1834:	424f4950 	submi	r4, pc, #80, 18	; 0x140000
    1838:	5047202c 	subpl	r2, r7, ip, lsr #32
    183c:	505f4f49 	subspl	r4, pc, r9, asr #30
    1840:	335f4e49 	cmpcc	pc, #1168	; 0x490
    1844:	5845202c 	stmdapl	r5, {r2, r3, r5, sp}^
    1848:	5f334954 	svcpl	0x00334954
    184c:	20515249 	subscs	r5, r1, r9, asr #4
    1850:	5f5f007d 	svcpl	0x005f007d
    1854:	5f434347 	svcpl	0x00434347
    1858:	4d4f5441 	cfstrdmi	mvd5, [pc, #-260]	; 175c <_Min_Stack_Size+0x135c>
    185c:	425f4349 	subsmi	r4, pc, #603979777	; 0x24000001
    1860:	5f4c4f4f 	svcpl	0x004c4f4f
    1864:	4b434f4c 	blmi	10d559c <_Min_Stack_Size+0x10d519c>
    1868:	4552465f 	ldrbmi	r4, [r2, #-1631]	; 0xfffff9a1
    186c:	00322045 	eorseq	r2, r2, r5, asr #32
    1870:	695f5f5f 	ldmdbvs	pc, {r0, r1, r2, r3, r4, r6, r8, r9, sl, fp, ip, lr}^	; <UNPREDICTABLE>
    1874:	3436746e 	ldrtcc	r7, [r6], #-1134	; 0xfffffb92
    1878:	645f745f 	ldrbvs	r7, [pc], #-1119	; 1880 <_Min_Stack_Size+0x1480>
    187c:	6e696665 	cdpvs	6, 6, cr6, cr9, cr5, {3}
    1880:	31206465 			; <UNDEFINED> instruction: 0x31206465
    1884:	43435200 	movtmi	r5, #12800	; 0x3200
    1888:	4950475f 	ldmdbmi	r0, {r0, r1, r2, r3, r4, r6, r8, r9, sl, lr}^
    188c:	435f454f 	cmpmi	pc, #331350016	; 0x13c00000
    1890:	455f4b4c 	ldrbmi	r4, [pc, #-2892]	; d4c <_Min_Stack_Size+0x94c>
    1894:	2029284e 	eorcs	r2, r9, lr, asr #16
    1898:	43435228 	movtmi	r5, #12840	; 0x3228
    189c:	50413e2d 	subpl	r3, r1, sp, lsr #28
    18a0:	4e453242 	cdpmi	2, 4, cr3, cr5, cr2, {2}
    18a4:	3d7c2052 	ldclcc	0, cr2, [ip, #-328]!	; 0xfffffeb8
    18a8:	3c312820 	ldccc	8, cr2, [r1], #-128	; 0xffffff80
    18ac:	2929363c 	stmdbcs	r9!, {r2, r3, r4, r5, r9, sl, ip, sp}
    18b0:	415f5f00 	cmpmi	pc, r0, lsl #30
    18b4:	4e5f4d52 	mrcmi	13, 2, r4, cr15, cr2, {2}
    18b8:	5f4e4f45 	svcpl	0x004e4f45
    18bc:	4955005f 	ldmdbmi	r5, {r0, r1, r2, r3, r4, r6}^
    18c0:	5450544e 	ldrbpl	r5, [r0], #-1102	; 0xfffffbb2
    18c4:	414d5f52 	cmpmi	sp, r2, asr pc
    18c8:	5f282058 	svcpl	0x00282058
    18cc:	4e49555f 	mcrmi	5, 2, r5, cr9, cr15, {2}
    18d0:	52545054 	subspl	r5, r4, #84	; 0x54
    18d4:	58414d5f 	stmdapl	r1, {r0, r1, r2, r3, r4, r6, r8, sl, fp, lr}^
    18d8:	00295f5f 	eoreq	r5, r9, pc, asr pc
    18dc:	4c465f5f 	mcrrmi	15, 5, r5, r6, cr15
    18e0:	5f323354 	svcpl	0x00323354
    18e4:	5f58414d 	svcpl	0x0058414d
    18e8:	5f505845 	svcpl	0x00505845
    18ec:	3231205f 	eorscc	r2, r1, #95	; 0x5f
    18f0:	5f5f0038 	svcpl	0x005f0038
    18f4:	43434153 	movtmi	r4, #12627	; 0x3153
    18f8:	495f4d55 	ldmdbmi	pc, {r0, r2, r4, r6, r8, sl, fp, lr}^	; <UNPREDICTABLE>
    18fc:	5f544942 	svcpl	0x00544942
    1900:	0038205f 	eorseq	r2, r8, pc, asr r0
    1904:	6e69616d 	powvsez	f6, f1, #5.0
    1908:	545f5f00 	ldrbpl	r5, [pc], #-3840	; 1910 <_Min_Stack_Size+0x1510>
    190c:	424d5548 	submi	r5, sp, #72, 10	; 0x12000000
    1910:	544e495f 	strbpl	r4, [lr], #-2399	; 0xfffff6a1
    1914:	4f575245 	svcmi	0x00575245
    1918:	5f5f4b52 	svcpl	0x005f4b52
    191c:	5f003120 	svcpl	0x00003120
    1920:	4c4c555f 	cfstr64mi	mvdx5, [ip], {95}	; 0x5f
    1924:	43415246 	movtmi	r5, #4678	; 0x1246
    1928:	414d5f54 	cmpmi	sp, r4, asr pc
    192c:	205f5f58 	subscs	r5, pc, r8, asr pc	; <UNPREDICTABLE>
    1930:	46465830 			; <UNDEFINED> instruction: 0x46465830
    1934:	46464646 	strbmi	r4, [r6], -r6, asr #12
    1938:	46464646 	strbmi	r4, [r6], -r6, asr #12
    193c:	46464646 	strbmi	r4, [r6], -r6, asr #12
    1940:	2d504646 	ldclcs	6, cr4, [r0, #-280]	; 0xfffffee8
    1944:	4c553436 	cfldrdmi	mvd3, [r5], {54}	; 0x36
    1948:	4500524c 	strmi	r5, [r0, #-588]	; 0xfffffdb4
    194c:	39495458 	stmdbcc	r9, {r3, r4, r6, sl, ip, lr}^
    1950:	5f003920 	svcpl	0x00003920
    1954:	79746e66 	ldmdbvc	r4!, {r1, r2, r5, r6, r9, sl, fp, sp, lr}^
    1958:	00736570 	rsbseq	r6, r3, r0, ror r5
    195c:	54535953 	ldrbpl	r5, [r3], #-2387	; 0xfffff6ad
    1960:	4d5f4d45 	ldclmi	13, cr4, [pc, #-276]	; 1854 <_Min_Stack_Size+0x1454>
    1964:	524f4d45 	subpl	r4, pc, #4416	; 0x1140
    1968:	41425f59 	cmpmi	r2, r9, asr pc
    196c:	30204553 	eorcc	r4, r0, r3, asr r5
    1970:	46463178 			; <UNDEFINED> instruction: 0x46463178
    1974:	30384646 	eorscc	r4, r8, r6, asr #12
    1978:	004c5530 	subeq	r5, ip, r0, lsr r5
    197c:	4f495047 	svcmi	0x00495047
    1980:	444f4d5f 	strbmi	r4, [pc], #-3423	; 1988 <_Min_Stack_Size+0x1588>
    1984:	4e495f45 	cdpmi	15, 4, cr5, cr9, cr5, {2}
    1988:	5f545550 	svcpl	0x00545550
    198c:	414f4c46 	cmpmi	pc, r6, asr #24
    1990:	78302054 	ldmdavc	r0!, {r2, r4, r6, sp}
    1994:	30303030 	eorscc	r3, r0, r0, lsr r0
    1998:	31303030 	teqcc	r0, r0, lsr r0
    199c:	5f5f0075 	svcpl	0x005f0075
    19a0:	746e695f 	strbtvc	r6, [lr], #-2399	; 0xfffff6a1
    19a4:	7274705f 	rsbsvc	r7, r4, #95	; 0x5f
    19a8:	66666964 	strbtvs	r6, [r6], -r4, ror #18
    19ac:	685f745f 	ldmdavs	pc, {r0, r1, r2, r3, r4, r6, sl, ip, sp, lr}^	; <UNPREDICTABLE>
    19b0:	535f0020 	cmppl	pc, #32
    19b4:	5f455a49 	svcpl	0x00455a49
    19b8:	45445f54 	strbmi	r5, [r4, #-3924]	; 0xfffff0ac
    19bc:	52414c43 	subpl	r4, r1, #17152	; 0x4300
    19c0:	00204445 	eoreq	r4, r0, r5, asr #8
    19c4:	48435f5f 	stmdami	r3, {r0, r1, r2, r3, r4, r6, r8, r9, sl, fp, ip, lr}^
    19c8:	32335241 	eorscc	r5, r3, #268435460	; 0x10000004
    19cc:	5059545f 	subspl	r5, r9, pc, asr r4
    19d0:	205f5f45 	subscs	r5, pc, r5, asr #30
    19d4:	676e6f6c 	strbvs	r6, [lr, -ip, ror #30]!
    19d8:	736e7520 	cmnvc	lr, #32, 10	; 0x8000000
    19dc:	656e6769 	strbvs	r6, [lr, #-1897]!	; 0xfffff897
    19e0:	6e692064 	cdpvs	0, 6, cr2, cr9, cr4, {3}
    19e4:	5f5f0074 	svcpl	0x005f0074
    19e8:	5f4d5241 	svcpl	0x004d5241
    19ec:	54414546 	strbpl	r4, [r1], #-1350	; 0xfffffaba
    19f0:	5f455255 	svcpl	0x00455255
    19f4:	36315046 	ldrtcc	r5, [r1], -r6, asr #32
    19f8:	4345565f 	movtmi	r5, #22111	; 0x565f
    19fc:	5f524f54 	svcpl	0x00524f54
    1a00:	54495241 	strbpl	r5, [r9], #-577	; 0xfffffdbf
    1a04:	54454d48 	strbpl	r4, [r5], #-3400	; 0xfffff2b8
    1a08:	5f004349 	svcpl	0x00004349
    1a0c:	49534f50 	ldmdbmi	r3, {r4, r6, r8, r9, sl, fp, lr}^
    1a10:	5f435f58 	svcpl	0x00435f58
    1a14:	52554f53 	subspl	r4, r5, #332	; 0x14c
    1a18:	32204543 	eorcc	r4, r0, #281018368	; 0x10c00000
    1a1c:	30383030 	eorscc	r3, r8, r0, lsr r0
    1a20:	5f004c39 	svcpl	0x00004c39
    1a24:	5f43435f 	svcpl	0x0043435f
    1a28:	50505553 	subspl	r5, r0, r3, asr r5
    1a2c:	5354524f 	cmppl	r4, #-268435452	; 0xf0000004
    1a30:	4e59445f 	mrcmi	4, 2, r4, cr9, cr15, {2}
    1a34:	43494d41 	movtmi	r4, #40257	; 0x9d41
    1a38:	5252415f 	subspl	r4, r2, #-1073741801	; 0xc0000017
    1a3c:	495f5941 	ldmdbmi	pc, {r0, r6, r8, fp, ip, lr}^	; <UNPREDICTABLE>
    1a40:	2054494e 	subscs	r4, r4, lr, asr #18
    1a44:	4e490031 	mcrmi	0, 2, r0, cr9, cr1, {1}
    1a48:	54535f43 	ldrbpl	r5, [r3], #-3907	; 0xfffff0bd
    1a4c:	5f32334d 	svcpl	0x0032334d
    1a50:	33303146 	teqcc	r0, #-2147483631	; 0x80000011
    1a54:	455f3643 	ldrbmi	r3, [pc, #-1603]	; 1419 <_Min_Stack_Size+0x1019>
    1a58:	5f495458 	svcpl	0x00495458
    1a5c:	56495244 	strbpl	r5, [r9], -r4, asr #4
    1a60:	485f5245 	ldmdami	pc, {r0, r2, r6, r9, ip, lr}^	; <UNPREDICTABLE>
    1a64:	5f00205f 	svcpl	0x0000205f
    1a68:	4e49555f 	mcrmi	5, 2, r5, cr9, cr15, {2}
    1a6c:	41465f54 	cmpmi	r6, r4, asr pc
    1a70:	32335453 	eorscc	r5, r3, #1392508928	; 0x53000000
    1a74:	58414d5f 	stmdapl	r1, {r0, r1, r2, r3, r4, r6, r8, sl, fp, lr}^
    1a78:	30205f5f 	eorcc	r5, r0, pc, asr pc
    1a7c:	66666678 			; <UNDEFINED> instruction: 0x66666678
    1a80:	66666666 	strbtvs	r6, [r6], -r6, ror #12
    1a84:	5f005566 	svcpl	0x00005566
    1a88:	5f6d745f 	svcpl	0x006d745f
    1a8c:	006e6f6d 	rsbeq	r6, lr, sp, ror #30
    1a90:	4c465f5f 	mcrrmi	15, 5, r5, r6, cr15
    1a94:	414d5f54 	cmpmi	sp, r4, asr pc
    1a98:	58455f58 	stmdapl	r5, {r3, r4, r6, r8, r9, sl, fp, ip, lr}^
    1a9c:	205f5f50 	subscs	r5, pc, r0, asr pc	; <UNPREDICTABLE>
    1aa0:	00383231 	eorseq	r3, r8, r1, lsr r2
    1aa4:	4545525f 	strbmi	r5, [r5, #-607]	; 0xfffffda1
    1aa8:	455f544e 	ldrbmi	r5, [pc, #-1102]	; 1662 <_Min_Stack_Size+0x1262>
    1aac:	4752454d 	ldrbmi	r4, [r2, -sp, asr #10]
    1ab0:	59434e45 	stmdbpl	r3, {r0, r2, r6, r9, sl, fp, lr}^
    1ab4:	5a49535f 	bpl	1256838 <_Min_Stack_Size+0x1256438>
    1ab8:	35322045 	ldrcc	r2, [r2, #-69]!	; 0xffffffbb
    1abc:	42504100 	subsmi	r4, r0, #0, 2
    1ac0:	524e4532 	subpl	r4, lr, #209715200	; 0xc800000
    1ac4:	735f5f00 	cmpvc	pc, #0, 30
    1ac8:	6d667274 	sfmvs	f7, 2, [r6, #-464]!	; 0xfffffe30
    1acc:	696c6e6f 	stmdbvs	ip!, {r0, r1, r2, r3, r5, r6, r9, sl, fp, sp, lr}^
    1ad0:	6628656b 	strtvs	r6, [r8], -fp, ror #10
    1ad4:	7261746d 	rsbvc	r7, r1, #1828716544	; 0x6d000000
    1ad8:	69662c67 	stmdbvs	r6!, {r0, r1, r2, r5, r6, sl, fp, sp}^
    1adc:	76747372 			; <UNDEFINED> instruction: 0x76747372
    1ae0:	72617261 	rsbvc	r7, r1, #268435462	; 0x10000006
    1ae4:	5f202967 	svcpl	0x00202967
    1ae8:	7474615f 	ldrbtvc	r6, [r4], #-351	; 0xfffffea1
    1aec:	75626972 	strbvc	r6, [r2, #-2418]!	; 0xfffff68e
    1af0:	5f5f6574 	svcpl	0x005f6574
    1af4:	5f5f2828 	svcpl	0x005f2828
    1af8:	6d726f66 	ldclvs	15, cr6, [r2, #-408]!	; 0xfffffe68
    1afc:	5f5f7461 	svcpl	0x005f7461
    1b00:	5f5f2820 	svcpl	0x005f2820
    1b04:	66727473 			; <UNDEFINED> instruction: 0x66727473
    1b08:	5f6e6f6d 	svcpl	0x006e6f6d
    1b0c:	66202c5f 			; <UNDEFINED> instruction: 0x66202c5f
    1b10:	7261746d 	rsbvc	r7, r1, #1828716544	; 0x6d000000
    1b14:	66202c67 	strtvs	r2, [r0], -r7, ror #24
    1b18:	74737269 	ldrbtvc	r7, [r3], #-617	; 0xfffffd97
    1b1c:	61726176 	cmnvs	r2, r6, ror r1
    1b20:	29296772 	stmdbcs	r9!, {r1, r4, r5, r6, r8, r9, sl, sp, lr}
    1b24:	5f5f0029 	svcpl	0x005f0029
    1b28:	31434544 	cmpcc	r3, r4, asr #10
    1b2c:	4d5f3832 	ldclmi	8, cr3, [pc, #-200]	; 1a6c <_Min_Stack_Size+0x166c>
    1b30:	5f544e41 	svcpl	0x00544e41
    1b34:	5f474944 	svcpl	0x00474944
    1b38:	3433205f 	ldrtcc	r2, [r3], #-95	; 0xffffffa1
    1b3c:	49564e00 	ldmdbmi	r6, {r9, sl, fp, lr}^
    1b40:	53495f43 	movtpl	r5, #40771	; 0x9f43
    1b44:	20315245 	eorscs	r5, r1, r5, asr #4
    1b48:	6f76282a 	svcvs	0x0076282a
    1b4c:	6974616c 	ldmdbvs	r4!, {r2, r3, r5, r6, r8, sp, lr}^
    1b50:	7520656c 	strvc	r6, [r0, #-1388]!	; 0xfffffa94
    1b54:	33746e69 	cmncc	r4, #1680	; 0x690
    1b58:	20745f32 	rsbscs	r5, r4, r2, lsr pc
    1b5c:	4e28292a 	vmulmi.f16	s4, s16, s21	; <UNPREDICTABLE>
    1b60:	5f434956 	svcpl	0x00434956
    1b64:	45534142 	ldrbmi	r4, [r3, #-322]	; 0xfffffebe
    1b68:	30202b20 	eorcc	r2, r0, r0, lsr #22
    1b6c:	34303078 	ldrtcc	r3, [r0], #-120	; 0xffffff88
    1b70:	50470029 	subpl	r0, r7, r9, lsr #32
    1b74:	525f4f49 	subspl	r4, pc, #292	; 0x124
    1b78:	52555445 	subspl	r5, r5, #1157627904	; 0x45000000
    1b7c:	4f4c5f4e 	svcmi	0x004c5f4e
    1b80:	455f4b43 	ldrbmi	r4, [pc, #-2883]	; 1045 <_Min_Stack_Size+0xc45>
    1b84:	4c42414e 	stfmie	f4, [r2], {78}	; 0x4e
    1b88:	31204445 			; <UNDEFINED> instruction: 0x31204445
    1b8c:	45525f00 	ldrbmi	r5, [r2, #-3840]	; 0xfffff100
    1b90:	575f4441 	ldrbpl	r4, [pc, -r1, asr #8]
    1b94:	45544952 	ldrbmi	r4, [r4, #-2386]	; 0xfffff6ae
    1b98:	4655425f 			; <UNDEFINED> instruction: 0x4655425f
    1b9c:	455a4953 	ldrbmi	r4, [sl, #-2387]	; 0xfffff6ad
    1ba0:	5059545f 	subspl	r5, r9, pc, asr r4
    1ba4:	6e692045 	cdpvs	0, 6, cr2, cr9, cr5, {2}
    1ba8:	5f5f0074 	svcpl	0x005f0074
    1bac:	455a4953 	ldrbmi	r4, [sl, #-2387]	; 0xfffff6ad
    1bb0:	445f464f 	ldrbmi	r4, [pc], #-1615	; 1bb8 <_Min_Stack_Size+0x17b8>
    1bb4:	4c42554f 	cfstr64mi	mvdx5, [r2], {79}	; 0x4f
    1bb8:	205f5f45 	subscs	r5, pc, r5, asr #30
    1bbc:	5f5f0038 	svcpl	0x005f0038
    1bc0:	5f544e49 	svcpl	0x00544e49
    1bc4:	5341454c 	movtpl	r4, #5452	; 0x154c
    1bc8:	5f323354 	svcpl	0x00323354
    1bcc:	54444957 	strbpl	r4, [r4], #-2391	; 0xfffff6a9
    1bd0:	205f5f48 	subscs	r5, pc, r8, asr #30
    1bd4:	5f003233 	svcpl	0x00003233
    1bd8:	434f4c43 	movtmi	r4, #64579	; 0xfc43
    1bdc:	5f545f4b 	svcpl	0x00545f4b
    1be0:	736e7520 	cmnvc	lr, #32, 10	; 0x8000000
    1be4:	656e6769 	strbvs	r6, [lr, #-1897]!	; 0xfffff897
    1be8:	6f6c2064 	svcvs	0x006c2064
    1bec:	5f00676e 	svcpl	0x0000676e
    1bf0:	544c465f 	strbpl	r4, [ip], #-1631	; 0xfffff9a1
    1bf4:	5f583233 	svcpl	0x00583233
    1bf8:	5f4e494d 	svcpl	0x004e494d
    1bfc:	5f505845 	svcpl	0x00505845
    1c00:	2d28205f 	stccs	0, cr2, [r8, #-380]!	; 0xfffffe84
    1c04:	31323031 	teqcc	r2, r1, lsr r0
    1c08:	5f5f0029 	svcpl	0x005f0029
    1c0c:	54534146 	ldrbpl	r4, [r3], #-326	; 0xfffffeba
    1c10:	00203631 	eoreq	r3, r0, r1, lsr r6
    1c14:	73696d5f 	cmnvc	r9, #6080	; 0x17c0
    1c18:	65725f63 	ldrbvs	r5, [r2, #-3939]!	; 0xfffff09d
    1c1c:	00746e65 	rsbseq	r6, r4, r5, ror #28
    1c20:	4545525f 	strbmi	r5, [r5, #-607]	; 0xfffffda1
    1c24:	525f544e 	subspl	r5, pc, #1308622848	; 0x4e000000
    1c28:	34444e41 	strbcc	r4, [r4], #-3649	; 0xfffff1bf
    1c2c:	45535f38 	ldrbmi	r5, [r3, #-3896]	; 0xfffff0c8
    1c30:	70284445 	eorvc	r4, r8, r5, asr #8
    1c34:	20297274 	eorcs	r7, r9, r4, ror r2
    1c38:	74702828 	ldrbtvc	r2, [r0], #-2088	; 0xfffff7d8
    1c3c:	3e2d2972 			; <UNDEFINED> instruction: 0x3e2d2972
    1c40:	3834725f 	ldmdacc	r4!, {r0, r1, r2, r3, r4, r6, r9, ip, sp, lr}
    1c44:	735f3e2d 	cmpvc	pc, #720	; 0x2d0
    1c48:	29646565 	stmdbcs	r4!, {r0, r2, r5, r6, r8, sl, sp, lr}^
    1c4c:	4c5f5f00 	mrrcmi	15, 0, r5, pc, cr0	; <UNPREDICTABLE>
    1c50:	45475241 	strbmi	r5, [r7, #-577]	; 0xfffffdbf
    1c54:	454c4946 	strbmi	r4, [ip, #-2374]	; 0xfffff6ba
    1c58:	5349565f 	movtpl	r5, #38495	; 0x965f
    1c5c:	454c4249 	strbmi	r4, [ip, #-585]	; 0xfffffdb7
    1c60:	5f003020 	svcpl	0x00003020
    1c64:	4345445f 	movtmi	r4, #21599	; 0x545f
    1c68:	4d5f3436 	cfldrdmi	mvd3, [pc, #-216]	; 1b98 <_Min_Stack_Size+0x1798>
    1c6c:	5f5f5841 	svcpl	0x005f5841
    1c70:	392e3920 	stmdbcc	lr!, {r5, r8, fp, ip, sp}
    1c74:	39393939 	ldmdbcc	r9!, {r0, r3, r4, r5, r8, fp, ip, sp}
    1c78:	39393939 	ldmdbcc	r9!, {r0, r3, r4, r5, r8, fp, ip, sp}
    1c7c:	39393939 	ldmdbcc	r9!, {r0, r3, r4, r5, r8, fp, ip, sp}
    1c80:	33453939 	movtcc	r3, #22841	; 0x5939
    1c84:	44443438 	strbmi	r3, [r4], #-1080	; 0xfffffbc8
    1c88:	695f5f00 	ldmdbvs	pc, {r8, r9, sl, fp, ip, lr}^	; <UNPREDICTABLE>
    1c8c:	665f746e 	ldrbvs	r7, [pc], -lr, ror #8
    1c90:	38747361 	ldmdacc	r4!, {r0, r5, r6, r8, r9, ip, sp, lr}^
    1c94:	645f745f 	ldrbvs	r7, [pc], #-1119	; 1c9c <_Min_Stack_Size+0x189c>
    1c98:	6e696665 	cdpvs	6, 6, cr6, cr9, cr5, {3}
    1c9c:	31206465 			; <UNDEFINED> instruction: 0x31206465
    1ca0:	4e5f5f00 	cdpmi	15, 5, cr5, cr15, cr0, {0}
    1ca4:	494c5745 	stmdbmi	ip, {r0, r2, r6, r8, r9, sl, ip, lr}^
    1ca8:	205f5f42 	subscs	r5, pc, r2, asr #30
    1cac:	525f0033 	subspl	r0, pc, #51	; 0x33
    1cb0:	544e4545 	strbpl	r4, [lr], #-1349	; 0xfffffabb
    1cb4:	494e495f 	stmdbmi	lr, {r0, r1, r2, r3, r4, r6, r8, fp, lr}^
    1cb8:	61762854 	cmnvs	r6, r4, asr r8
    1cbc:	7b202972 	blvc	80c28c <_Min_Stack_Size+0x80be8c>
    1cc0:	202c3020 	eorcs	r3, ip, r0, lsr #32
    1cc4:	465f5f28 	ldrbmi	r5, [pc], -r8, lsr #30
    1cc8:	20454c49 	subcs	r4, r5, r9, asr #24
    1ccc:	5f26292a 	svcpl	0x0026292a
    1cd0:	5f66735f 	svcpl	0x0066735f
    1cd4:	656b6166 	strbvs	r6, [fp, #-358]!	; 0xfffffe9a
    1cd8:	6474735f 	ldrbtvs	r7, [r4], #-863	; 0xfffffca1
    1cdc:	202c6e69 	eorcs	r6, ip, r9, ror #28
    1ce0:	465f5f28 	ldrbmi	r5, [pc], -r8, lsr #30
    1ce4:	20454c49 	subcs	r4, r5, r9, asr #24
    1ce8:	5f26292a 	svcpl	0x0026292a
    1cec:	5f66735f 	svcpl	0x0066735f
    1cf0:	656b6166 	strbvs	r6, [fp, #-358]!	; 0xfffffe9a
    1cf4:	6474735f 	ldrbtvs	r7, [r4], #-863	; 0xfffffca1
    1cf8:	2c74756f 	cfldr64cs	mvdx7, [r4], #-444	; 0xfffffe44
    1cfc:	5f5f2820 	svcpl	0x005f2820
    1d00:	454c4946 	strbmi	r4, [ip, #-2374]	; 0xfffff6ba
    1d04:	26292a20 	strtcs	r2, [r9], -r0, lsr #20
    1d08:	66735f5f 	uhsaxvs	r5, r3, pc	; <UNPREDICTABLE>
    1d0c:	6b61665f 	blvs	185b690 <_Min_Stack_Size+0x185b290>
    1d10:	74735f65 	ldrbtvc	r5, [r3], #-3941	; 0xfffff09b
    1d14:	72726564 	rsbsvc	r6, r2, #100, 10	; 0x19000000
    1d18:	2c30202c 	ldccs	0, cr2, [r0], #-176	; 0xffffff50
    1d1c:	554e5f20 	strbpl	r5, [lr, #-3872]	; 0xfffff0e0
    1d20:	202c4c4c 	eorcs	r4, ip, ip, asr #24
    1d24:	30202c30 	eorcc	r2, r0, r0, lsr ip
    1d28:	4e5f202c 	cdpmi	0, 5, cr2, cr15, cr12, {1}
    1d2c:	2c4c4c55 	mcrrcs	12, 5, r4, ip, cr5
    1d30:	554e5f20 	strbpl	r5, [lr, #-3872]	; 0xfffff0e0
    1d34:	202c4c4c 	eorcs	r4, ip, ip, asr #24
    1d38:	4c554e5f 	mrrcmi	14, 5, r4, r5, cr15
    1d3c:	30202c4c 	eorcc	r2, r0, ip, asr #24
    1d40:	2c30202c 	ldccs	0, cr2, [r0], #-176	; 0xffffff50
    1d44:	554e5f20 	strbpl	r5, [lr, #-3872]	; 0xfffff0e0
    1d48:	202c4c4c 	eorcs	r4, ip, ip, asr #24
    1d4c:	4c554e5f 	mrrcmi	14, 5, r4, r5, cr15
    1d50:	5f202c4c 	svcpl	0x00202c4c
    1d54:	4c4c554e 	cfstr64mi	mvdx5, [ip], {78}	; 0x4e
    1d58:	4e5f202c 	cdpmi	0, 5, cr2, cr15, cr12, {1}
    1d5c:	2c4c4c55 	mcrrcs	12, 5, r4, ip, cr5
    1d60:	554e5f20 	strbpl	r5, [lr, #-3872]	; 0xfffff0e0
    1d64:	202c4c4c 	eorcs	r4, ip, ip, asr #24
    1d68:	4545525f 	strbmi	r5, [r5, #-607]	; 0xfffffda1
    1d6c:	495f544e 	ldmdbmi	pc, {r1, r2, r3, r6, sl, ip, lr}^	; <UNPREDICTABLE>
    1d70:	5f54494e 	svcpl	0x0054494e
    1d74:	58455441 	stmdapl	r5, {r0, r6, sl, ip, lr}^
    1d78:	7b205449 	blvc	816ea4 <_Min_Stack_Size+0x816aa4>
    1d7c:	4c554e5f 	mrrcmi	14, 5, r4, r5, cr15
    1d80:	30202c4c 	eorcc	r2, r0, ip, asr #24
    1d84:	4e5f202c 	cdpmi	0, 5, cr2, cr15, cr12, {1}
    1d88:	7d4c4c55 	stclvc	12, cr4, [ip, #-340]	; 0xfffffeac
    1d8c:	4e5f202c 	cdpmi	0, 5, cr2, cr15, cr12, {1}
    1d90:	2c4c4c55 	mcrrcs	12, 5, r4, ip, cr5
    1d94:	554e5f20 	strbpl	r5, [lr, #-3872]	; 0xfffff0e0
    1d98:	202c4c4c 	eorcs	r4, ip, ip, asr #24
    1d9c:	4c554e5f 	mrrcmi	14, 5, r4, r5, cr15
    1da0:	007d204c 	rsbseq	r2, sp, ip, asr #32
    1da4:	54495845 	strbpl	r5, [r9], #-2117	; 0xfffff7bb
    1da8:	4355535f 	cmpmi	r5, #2080374785	; 0x7c000001
    1dac:	53534543 	cmppl	r3, #281018368	; 0x10c00000
    1db0:	45003020 	strmi	r3, [r0, #-32]	; 0xffffffe0
    1db4:	36495458 			; <UNDEFINED> instruction: 0x36495458
    1db8:	5152495f 	cmppl	r2, pc, asr r9
    1dbc:	00333220 	eorseq	r3, r3, r0, lsr #4
    1dc0:	54555f5f 	ldrbpl	r5, [r5], #-3935	; 0xfffff0a1
    1dc4:	42465f41 	submi	r5, r6, #260	; 0x104
    1dc8:	5f5f5449 	svcpl	0x005f5449
    1dcc:	00343620 	eorseq	r3, r4, r0, lsr #12
    1dd0:	53415f5f 	movtpl	r5, #8031	; 0x1f5f
    1dd4:	4d414e4d 	stclmi	14, cr4, [r1, #-308]	; 0xfffffecc
    1dd8:	6e632845 	cdpvs	8, 6, cr2, cr3, cr5, {2}
    1ddc:	29656d61 	stmdbcs	r5!, {r0, r5, r6, r8, sl, fp, sp, lr}^
    1de0:	585f5f20 	ldmdapl	pc, {r5, r8, r9, sl, fp, ip, lr}^	; <UNPREDICTABLE>
    1de4:	49525453 	ldmdbmi	r2, {r0, r1, r4, r6, sl, ip, lr}^
    1de8:	2820474e 	stmdacs	r0!, {r1, r2, r3, r6, r8, r9, sl, lr}
    1dec:	53555f5f 	cmppl	r5, #380	; 0x17c
    1df0:	4c5f5245 	lfmmi	f5, 2, [pc], {69}	; 0x45
    1df4:	4c454241 	sfmmi	f4, 2, [r5], {65}	; 0x41
    1df8:	4552505f 	ldrbmi	r5, [r2, #-95]	; 0xffffffa1
    1dfc:	5f584946 	svcpl	0x00584946
    1e00:	6320295f 			; <UNDEFINED> instruction: 0x6320295f
    1e04:	656d616e 	strbvs	r6, [sp, #-366]!	; 0xfffffe92
    1e08:	465f5f00 	ldrbmi	r5, [pc], -r0, lsl #30
    1e0c:	445f544c 	ldrbmi	r5, [pc], #-1100	; 1e14 <_Min_Stack_Size+0x1a14>
    1e10:	4d494345 	stclmi	3, cr4, [r9, #-276]	; 0xfffffeec
    1e14:	445f4c41 	ldrbmi	r4, [pc], #-3137	; 1e1c <_Min_Stack_Size+0x1a1c>
    1e18:	5f5f4749 	svcpl	0x005f4749
    1e1c:	45003920 	strmi	r3, [r0, #-2336]	; 0xfffff6e0
    1e20:	31495458 	cmpcc	r9, r8, asr r4
    1e24:	20314450 	eorscs	r4, r1, r0, asr r4
    1e28:	54584528 	ldrbpl	r4, [r8], #-1320	; 0xfffffad8
    1e2c:	50475f49 	subpl	r5, r7, r9, asr #30
    1e30:	4d5f4f49 	ldclmi	15, cr4, [pc, #-292]	; 1d14 <_Min_Stack_Size+0x1914>
    1e34:	69707061 	ldmdbvs	r0!, {r0, r5, r6, ip, sp, lr}^
    1e38:	745f676e 	ldrbvc	r6, [pc], #-1902	; 1e40 <_Min_Stack_Size+0x1a40>
    1e3c:	58457b29 	stmdapl	r5, {r0, r3, r5, r8, r9, fp, ip, sp, lr}^
    1e40:	2c314954 			; <UNDEFINED> instruction: 0x2c314954
    1e44:	49504720 	ldmdbmi	r0, {r5, r8, r9, sl, lr}^
    1e48:	202c444f 	eorcs	r4, ip, pc, asr #8
    1e4c:	4f495047 	svcmi	0x00495047
    1e50:	4e49505f 	mcrmi	0, 2, r5, cr9, cr15, {2}
    1e54:	202c315f 	eorcs	r3, ip, pc, asr r1
    1e58:	49545845 	ldmdbmi	r4, {r0, r2, r6, fp, ip, lr}^
    1e5c:	52495f31 	subpl	r5, r9, #49, 30	; 0xc4
    1e60:	007d2051 	rsbseq	r2, sp, r1, asr r0
    1e64:	4e495f5f 	mcrmi	15, 2, r5, cr9, cr15, {2}
    1e68:	454c5f54 	strbmi	r5, [ip, #-3924]	; 0xfffff0ac
    1e6c:	33545341 	cmpcc	r4, #67108865	; 0x4000001
    1e70:	414d5f32 	cmpmi	sp, r2, lsr pc
    1e74:	205f5f58 	subscs	r5, pc, r8, asr pc	; <UNPREDICTABLE>
    1e78:	66377830 			; <UNDEFINED> instruction: 0x66377830
    1e7c:	66666666 	strbtvs	r6, [r6], -r6, ror #12
    1e80:	004c6666 	subeq	r6, ip, r6, ror #12
    1e84:	4f495047 	svcmi	0x00495047
    1e88:	4e49505f 	mcrmi	0, 2, r5, cr9, cr15, {2}
    1e8c:	2032315f 	eorscs	r3, r2, pc, asr r1
    1e90:	69752828 	ldmdbvs	r5!, {r3, r5, fp, sp}^
    1e94:	3631746e 	ldrtcc	r7, [r1], -lr, ror #8
    1e98:	3029745f 	eorcc	r7, r9, pc, asr r4
    1e9c:	30303178 	eorscc	r3, r0, r8, ror r1
    1ea0:	45002930 	strmi	r2, [r0, #-2352]	; 0xfffff6d0
    1ea4:	5f495458 	svcpl	0x00495458
    1ea8:	67697254 			; <UNDEFINED> instruction: 0x67697254
    1eac:	5f726567 	svcpl	0x00726567
    1eb0:	4c4c4146 	stfmie	f4, [ip], {70}	; 0x46
    1eb4:	20474e49 	subcs	r4, r7, r9, asr #28
    1eb8:	5f5f0031 	svcpl	0x005f0031
    1ebc:	665f6673 			; <UNDEFINED> instruction: 0x665f6673
    1ec0:	5f656b61 	svcpl	0x00656b61
    1ec4:	69647473 	stmdbvs	r4!, {r0, r1, r4, r5, r6, sl, ip, sp, lr}^
    1ec8:	5845006e 	stmdapl	r5, {r1, r2, r3, r5, r6}^
    1ecc:	50324954 	eorspl	r4, r2, r4, asr r9
    1ed0:	28203242 	stmdacs	r0!, {r1, r6, r9, ip, sp}
    1ed4:	49545845 	ldmdbmi	r4, {r0, r2, r6, fp, ip, lr}^
    1ed8:	4950475f 	ldmdbmi	r0, {r0, r1, r2, r3, r4, r6, r8, r9, sl, lr}^
    1edc:	614d5f4f 	cmpvs	sp, pc, asr #30
    1ee0:	6e697070 	mcrvs	0, 3, r7, cr9, cr0, {3}
    1ee4:	29745f67 	ldmdbcs	r4!, {r0, r1, r2, r5, r6, r8, r9, sl, fp, ip, lr}^
    1ee8:	5458457b 	ldrbpl	r4, [r8], #-1403	; 0xfffffa85
    1eec:	202c3249 	eorcs	r3, ip, r9, asr #4
    1ef0:	4f495047 	svcmi	0x00495047
    1ef4:	47202c42 	strmi	r2, [r0, -r2, asr #24]!
    1ef8:	5f4f4950 	svcpl	0x004f4950
    1efc:	5f4e4950 	svcpl	0x004e4950
    1f00:	45202c32 	strmi	r2, [r0, #-3122]!	; 0xfffff3ce
    1f04:	32495458 	subcc	r5, r9, #88, 8	; 0x58000000
    1f08:	5152495f 	cmppl	r2, pc, asr r9
    1f0c:	5f007d20 	svcpl	0x00007d20
    1f10:	7274705f 	rsbsvc	r7, r4, #95	; 0x5f
    1f14:	7620745f 			; <UNDEFINED> instruction: 0x7620745f
    1f18:	2064696f 	rsbcs	r6, r4, pc, ror #18
    1f1c:	5f5f002a 	svcpl	0x005f002a
    1f20:	43554e47 	cmpmi	r5, #1136	; 0x470
    1f24:	4454535f 	ldrbmi	r5, [r4], #-863	; 0xfffffca1
    1f28:	4e495f43 	cdpmi	15, 4, cr5, cr9, cr3, {2}
    1f2c:	454e494c 	strbmi	r4, [lr, #-2380]	; 0xfffff6b4
    1f30:	31205f5f 			; <UNDEFINED> instruction: 0x31205f5f
    1f34:	48435700 	stmdami	r3, {r8, r9, sl, ip, lr}^
    1f38:	4d5f5241 	lfmmi	f5, 2, [pc, #-260]	; 1e3c <_Min_Stack_Size+0x1a3c>
    1f3c:	28204e49 	stmdacs	r0!, {r0, r3, r6, r9, sl, fp, lr}
    1f40:	43575f5f 	cmpmi	r7, #380	; 0x17c
    1f44:	5f524148 	svcpl	0x00524148
    1f48:	5f4e494d 	svcpl	0x004e494d
    1f4c:	5f00295f 	svcpl	0x0000295f
    1f50:	4152465f 	cmpmi	r2, pc, asr r6
    1f54:	465f5443 	ldrbmi	r5, [pc], -r3, asr #8
    1f58:	5f544942 	svcpl	0x00544942
    1f5c:	3531205f 	ldrcc	r2, [r1, #-95]!	; 0xffffffa1
    1f60:	4c5f5f00 	mrrcmi	15, 0, r5, pc, cr0	; <UNPREDICTABLE>
    1f64:	4343414c 	movtmi	r4, #12620	; 0x314c
    1f68:	455f4d55 	ldrbmi	r4, [pc, #-3413]	; 121b <_Min_Stack_Size+0xe1b>
    1f6c:	4c495350 	mcrrmi	3, 5, r5, r9, cr0
    1f70:	5f5f4e4f 	svcpl	0x005f4e4f
    1f74:	31783020 	cmncc	r8, r0, lsr #32
    1f78:	31332d50 	teqcc	r3, r0, asr sp
    1f7c:	004b4c4c 	subeq	r4, fp, ip, asr #24
    1f80:	4e475f5f 	mcrmi	15, 2, r5, cr7, cr15, {2}
    1f84:	505f4355 	subspl	r4, pc, r5, asr r3	; <UNPREDICTABLE>
    1f88:	48435441 	stmdami	r3, {r0, r6, sl, ip, lr}^
    1f8c:	4556454c 	ldrbmi	r4, [r6, #-1356]	; 0xfffffab4
    1f90:	205f5f4c 	subscs	r5, pc, ip, asr #30
    1f94:	5f5f0031 	svcpl	0x005f0031
    1f98:	5f434347 	svcpl	0x00434347
    1f9c:	4d4f5441 	cfstrdmi	mvd5, [pc, #-260]	; 1ea0 <_Min_Stack_Size+0x1aa0>
    1fa0:	435f4349 	cmpmi	pc, #603979777	; 0x24000001
    1fa4:	33524148 	cmpcc	r2, #72, 2
    1fa8:	5f545f32 	svcpl	0x00545f32
    1fac:	4b434f4c 	blmi	10d5ce4 <_Min_Stack_Size+0x10d58e4>
    1fb0:	4552465f 	ldrbmi	r4, [r2, #-1631]	; 0xfffff9a1
    1fb4:	00322045 	eorseq	r2, r2, r5, asr #32
    1fb8:	6c615f5f 	stclvs	15, cr5, [r1], #-380	; 0xfffffe84
    1fbc:	5f636f6c 	svcpl	0x00636f6c
    1fc0:	67696c61 	strbvs	r6, [r9, -r1, ror #24]!
    1fc4:	2978286e 	ldmdbcs	r8!, {r1, r2, r3, r5, r6, fp, sp}^
    1fc8:	615f5f20 	cmpvs	pc, r0, lsr #30
    1fcc:	69727474 	ldmdbvs	r2!, {r2, r4, r5, r6, sl, ip, sp, lr}^
    1fd0:	65747562 	ldrbvs	r7, [r4, #-1378]!	; 0xfffffa9e
    1fd4:	28285f5f 	stmdacs	r8!, {r0, r1, r2, r3, r4, r6, r8, r9, sl, fp, ip, lr}
    1fd8:	6c615f5f 	stclvs	15, cr5, [r1], #-380	; 0xfffffe84
    1fdc:	5f636f6c 	svcpl	0x00636f6c
    1fe0:	67696c61 	strbvs	r6, [r9, -r1, ror #24]!
    1fe4:	285f5f6e 	ldmdacs	pc, {r1, r2, r3, r5, r6, r8, r9, sl, fp, ip, lr}^	; <UNPREDICTABLE>
    1fe8:	29292978 	stmdbcs	r9!, {r3, r4, r5, r6, r8, fp, sp}
    1fec:	555f5f00 	ldrbpl	r5, [pc, #-3840]	; 10f4 <_Min_Stack_Size+0xcf4>
    1ff0:	5f544e49 	svcpl	0x00544e49
    1ff4:	5341454c 	movtpl	r4, #5452	; 0x154c
    1ff8:	5f363154 	svcpl	0x00363154
    1ffc:	5f58414d 	svcpl	0x0058414d
    2000:	7830205f 	ldmdavc	r0!, {r0, r1, r2, r3, r4, r6, sp}
    2004:	66666666 	strbtvs	r6, [r6], -r6, ror #12
    2008:	49504700 	ldmdbmi	r0, {r8, r9, sl, lr}^
    200c:	4f4d5f4f 	svcmi	0x004d5f4f
    2010:	415f4544 	cmpmi	pc, r4, asr #10
    2014:	6f6c616e 	svcvs	0x006c616e
    2018:	78302067 	ldmdavc	r0!, {r0, r1, r2, r5, r6, sp}
    201c:	30303030 	eorscc	r3, r0, r0, lsr r0
    2020:	30303030 	eorscc	r3, r0, r0, lsr r0
    2024:	5f5f0075 	svcpl	0x005f0075
    2028:	4343414c 	movtmi	r4, #12620	; 0x314c
    202c:	465f4d55 			; <UNDEFINED> instruction: 0x465f4d55
    2030:	5f544942 	svcpl	0x00544942
    2034:	3133205f 	teqcc	r3, pc, asr r0
    2038:	705f5f00 	subsvc	r5, pc, r0, lsl #30
    203c:	69646572 	stmdbvs	r4!, {r1, r4, r5, r6, r8, sl, sp, lr}^
    2040:	745f7463 	ldrbvc	r7, [pc], #-1123	; 2048 <_Min_Stack_Size+0x1c48>
    2044:	28657572 	stmdacs	r5!, {r1, r4, r5, r6, r8, sl, ip, sp, lr}^
    2048:	29707865 	ldmdbcs	r0!, {r0, r2, r5, r6, fp, ip, sp, lr}^
    204c:	625f5f20 	subsvs	r5, pc, #32, 30	; 0x80
    2050:	746c6975 	strbtvc	r6, [ip], #-2421	; 0xfffff68b
    2054:	655f6e69 	ldrbvs	r6, [pc, #-3689]	; 11f3 <_Min_Stack_Size+0xdf3>
    2058:	63657078 	cmnvs	r5, #120	; 0x78
    205c:	65282874 	strvs	r2, [r8, #-2164]!	; 0xfffff78c
    2060:	2c297078 	stccs	0, cr7, [r9], #-480	; 0xfffffe20
    2064:	00293120 	eoreq	r3, r9, r0, lsr #2
    2068:	49524550 	ldmdbmi	r2, {r4, r6, r8, sl, lr}^
    206c:	52454850 	subpl	r4, r5, #80, 16	; 0x500000
    2070:	5f534c41 	svcpl	0x00534c41
    2074:	45534142 	ldrbmi	r4, [r3, #-322]	; 0xfffffebe
    2078:	34783020 	ldrbtcc	r3, [r8], #-32	; 0xffffffe0
    207c:	30303030 	eorscc	r3, r0, r0, lsr r0
    2080:	55303030 	ldrpl	r3, [r0, #-48]!	; 0xffffffd0
    2084:	5f5f004c 	svcpl	0x005f004c
    2088:	36544c46 	ldrbcc	r4, [r4], -r6, asr #24
    208c:	414d5f34 	cmpmi	sp, r4, lsr pc
    2090:	30315f58 	eorscc	r5, r1, r8, asr pc
    2094:	5058455f 	subspl	r4, r8, pc, asr r5
    2098:	33205f5f 			; <UNDEFINED> instruction: 0x33205f5f
    209c:	5f003830 	svcpl	0x00003830
    20a0:	5a49535f 	bpl	1256e24 <_Min_Stack_Size+0x1256a24>
    20a4:	5f464f45 	svcpl	0x00464f45
    20a8:	474e4f4c 	strbmi	r4, [lr, -ip, asr #30]
    20ac:	34205f5f 	strtcc	r5, [r0], #-3935	; 0xfffff0a1
    20b0:	615f5f00 	cmpvs	pc, r0, lsl #30
    20b4:	69727474 	ldmdbvs	r2!, {r2, r4, r5, r6, sl, ip, sp, lr}^
    20b8:	65747562 	ldrbvs	r7, [r4, #-1378]!	; 0xfffffa9e
    20bc:	726f665f 	rsbvc	r6, pc, #99614720	; 0x5f00000
    20c0:	5f74616d 	svcpl	0x0074616d
    20c4:	66727473 			; <UNDEFINED> instruction: 0x66727473
    20c8:	5f6e6f6d 	svcpl	0x006e6f6d
    20cc:	2c61285f 	stclcs	8, cr2, [r1], #-380	; 0xfffffe84
    20d0:	00202962 	eoreq	r2, r0, r2, ror #18
    20d4:	4453425f 	ldrbmi	r4, [r3], #-607	; 0xfffffda1
    20d8:	5a49535f 	bpl	1256e5c <_Min_Stack_Size+0x1256a5c>
    20dc:	5f545f45 	svcpl	0x00545f45
    20e0:	49464544 	stmdbmi	r6, {r2, r6, r8, sl, lr}^
    20e4:	5f44454e 	svcpl	0x0044454e
    20e8:	5f5f0020 	svcpl	0x005f0020
    20ec:	544e4955 	strbpl	r4, [lr], #-2389	; 0xfffff6ab
    20f0:	5341465f 	movtpl	r4, #5727	; 0x165f
    20f4:	5f323354 	svcpl	0x00323354
    20f8:	45505954 	ldrbmi	r5, [r0, #-2388]	; 0xfffff6ac
    20fc:	75205f5f 	strvc	r5, [r0, #-3935]!	; 0xfffff0a1
    2100:	6769736e 	strbvs	r7, [r9, -lr, ror #6]!
    2104:	2064656e 	rsbcs	r6, r4, lr, ror #10
    2108:	00746e69 	rsbseq	r6, r4, r9, ror #28
    210c:	695f5f5f 	ldmdbvs	pc, {r0, r1, r2, r3, r4, r6, r8, r9, sl, fp, ip, lr}^	; <UNPREDICTABLE>
    2110:	735f746e 	cmpvc	pc, #1845493760	; 0x6e000000
    2114:	5f657a69 	svcpl	0x00657a69
    2118:	20685f74 	rsbcs	r5, r8, r4, ror pc
    211c:	535f5f00 	cmppl	pc, #0, 30
    2120:	5f434454 	svcpl	0x00434454
    2124:	5f465455 	svcpl	0x00465455
    2128:	5f5f3233 	svcpl	0x005f3233
    212c:	5f003120 	svcpl	0x00003120
    2130:	5a49535f 	bpl	1256eb4 <_Min_Stack_Size+0x1256ab4>
    2134:	5f464f45 	svcpl	0x00464f45
    2138:	414f4c46 	cmpmi	pc, r6, asr #24
    213c:	205f5f54 	subscs	r5, pc, r4, asr pc	; <UNPREDICTABLE>
    2140:	5f5f0034 	svcpl	0x005f0034
    2144:	33544c46 	cmpcc	r4, #17920	; 0x4600
    2148:	445f5832 	ldrbmi	r5, [pc], #-2098	; 2150 <_Min_Stack_Size+0x1d50>
    214c:	524f4e45 	subpl	r4, pc, #1104	; 0x450
    2150:	494d5f4d 	stmdbmi	sp, {r0, r2, r3, r6, r8, r9, sl, fp, ip, lr}^
    2154:	205f5f4e 	subscs	r5, pc, lr, asr #30
    2158:	34392e34 	ldrtcc	r2, [r9], #-3636	; 0xfffff1cc
    215c:	36353630 			; <UNDEFINED> instruction: 0x36353630
    2160:	34383534 	ldrtcc	r3, [r8], #-1332	; 0xfffffacc
    2164:	36343231 			; <UNDEFINED> instruction: 0x36343231
    2168:	2d653435 	cfstrdcs	mvd3, [r5, #-212]!	; 0xffffff2c
    216c:	46343233 			; <UNDEFINED> instruction: 0x46343233
    2170:	00783233 	rsbseq	r3, r8, r3, lsr r2
    2174:	4e475f5f 	mcrmi	15, 2, r5, cr7, cr15, {2}
    2178:	494c4355 	stmdbmi	ip, {r0, r2, r4, r6, r8, r9, lr}^
    217c:	4d5f454b 	cfldr64mi	mvdx4, [pc, #-300]	; 2058 <_Min_Stack_Size+0x1c58>
    2180:	5f485441 	svcpl	0x00485441
    2184:	4c495542 	cfstr64mi	mvdx5, [r9], {66}	; 0x42
    2188:	5f4e4954 	svcpl	0x004e4954
    218c:	4f4c4552 	svcmi	0x004c4552
    2190:	00205350 	eoreq	r5, r0, r0, asr r3
    2194:	4c465f5f 	mcrrmi	15, 5, r5, r6, cr15
    2198:	414d5f54 	cmpmi	sp, r4, asr pc
    219c:	30315f58 	eorscc	r5, r1, r8, asr pc
    21a0:	5058455f 	subspl	r4, r8, pc, asr r5
    21a4:	33205f5f 			; <UNDEFINED> instruction: 0x33205f5f
    21a8:	5f5f0038 	svcpl	0x005f0038
    21ac:	5f474953 	svcpl	0x00474953
    21b0:	4d4f5441 	cfstrdmi	mvd5, [pc, #-260]	; 20b4 <_Min_Stack_Size+0x1cb4>
    21b4:	545f4349 	ldrbpl	r4, [pc], #-841	; 21bc <_Min_Stack_Size+0x1dbc>
    21b8:	5f455059 	svcpl	0x00455059
    21bc:	6e69205f 	mcrvs	0, 3, r2, cr9, cr15, {2}
    21c0:	5f5f0074 	svcpl	0x005f0074
    21c4:	31434544 	cmpcc	r3, r4, asr #10
    21c8:	4d5f3832 	ldclmi	8, cr3, [pc, #-200]	; 2108 <_Min_Stack_Size+0x1d08>
    21cc:	5f5f5841 	svcpl	0x005f5841
    21d0:	392e3920 	stmdbcc	lr!, {r5, r8, fp, ip, sp}
    21d4:	39393939 	ldmdbcc	r9!, {r0, r3, r4, r5, r8, fp, ip, sp}
    21d8:	39393939 	ldmdbcc	r9!, {r0, r3, r4, r5, r8, fp, ip, sp}
    21dc:	39393939 	ldmdbcc	r9!, {r0, r3, r4, r5, r8, fp, ip, sp}
    21e0:	39393939 	ldmdbcc	r9!, {r0, r3, r4, r5, r8, fp, ip, sp}
    21e4:	39393939 	ldmdbcc	r9!, {r0, r3, r4, r5, r8, fp, ip, sp}
    21e8:	39393939 	ldmdbcc	r9!, {r0, r3, r4, r5, r8, fp, ip, sp}
    21ec:	39393939 	ldmdbcc	r9!, {r0, r3, r4, r5, r8, fp, ip, sp}
    21f0:	39393939 	ldmdbcc	r9!, {r0, r3, r4, r5, r8, fp, ip, sp}
    21f4:	34313645 	ldrtcc	r3, [r1], #-1605	; 0xfffff9bb
    21f8:	004c4434 	subeq	r4, ip, r4, lsr r4
    21fc:	52465f5f 	subpl	r5, r6, #380	; 0x17c
    2200:	5f544341 	svcpl	0x00544341
    2204:	5f58414d 	svcpl	0x0058414d
    2208:	5830205f 	ldmdapl	r0!, {r0, r1, r2, r3, r4, r6, sp}
    220c:	46464637 			; <UNDEFINED> instruction: 0x46464637
    2210:	35312d50 	ldrcc	r2, [r1, #-3408]!	; 0xfffff2b0
    2214:	5f5f0052 	svcpl	0x005f0052
    2218:	5f434347 	svcpl	0x00434347
    221c:	5f434549 	svcpl	0x00434549
    2220:	20393535 	eorscs	r3, r9, r5, lsr r5
    2224:	535f0030 	cmppl	pc, #48	; 0x30
    2228:	435f5359 	cmpmi	pc, #1677721601	; 0x64000001
    222c:	53464544 	movtpl	r4, #25924	; 0x6544
    2230:	205f485f 	subscs	r4, pc, pc, asr r8	; <UNPREDICTABLE>
    2234:	495f5f00 	ldmdbmi	pc, {r8, r9, sl, fp, ip, lr}^	; <UNPREDICTABLE>
    2238:	465f544e 	ldrbmi	r5, [pc], -lr, asr #8
    223c:	33545341 	cmpcc	r4, #67108865	; 0x4000001
    2240:	414d5f32 	cmpmi	sp, r2, lsr pc
    2244:	205f5f58 	subscs	r5, pc, r8, asr pc	; <UNPREDICTABLE>
    2248:	66377830 			; <UNDEFINED> instruction: 0x66377830
    224c:	66666666 	strbtvs	r6, [r6], -r6, ror #12
    2250:	5f006666 	svcpl	0x00006666
    2254:	4f54415f 	svcmi	0x0054415f
    2258:	5f43494d 	svcpl	0x0043494d
    225c:	5f514553 	svcpl	0x00514553
    2260:	20545343 	subscs	r5, r4, r3, asr #6
    2264:	525f0035 	subspl	r0, pc, #53	; 0x35
    2268:	5f444145 	svcpl	0x00444145
    226c:	54495257 	strbpl	r5, [r9], #-599	; 0xfffffda9
    2270:	45525f45 	ldrbmi	r5, [r2, #-3909]	; 0xfffff0bb
    2274:	4e525554 	mrcmi	5, 2, r5, cr2, cr4, {2}
    2278:	5059545f 	subspl	r5, r9, pc, asr r4
    227c:	6e692045 	cdpvs	0, 6, cr2, cr9, cr5, {2}
    2280:	755f0074 	ldrbvc	r0, [pc, #-116]	; 2214 <_Min_Stack_Size+0x1e14>
    2284:	6570736e 	ldrbvs	r7, [r0, #-878]!	; 0xfffffc92
    2288:	69666963 	stmdbvs	r6!, {r0, r1, r5, r6, r8, fp, sp, lr}^
    228c:	6c5f6465 	cfldrdvs	mvd6, [pc], {101}	; 0x65
    2290:	6c61636f 	stclvs	3, cr6, [r1], #-444	; 0xfffffe44
    2294:	6e695f65 	cdpvs	15, 6, cr5, cr9, cr5, {3}
    2298:	5f006f66 	svcpl	0x00006f66
    229c:	65656e5f 	strbvs	r6, [r5, #-3679]!	; 0xfffff1a1
    22a0:	69775f64 	ldmdbvs	r7!, {r2, r5, r6, r8, r9, sl, fp, ip, lr}^
    22a4:	745f746e 	ldrbvc	r7, [pc], #-1134	; 22ac <_Min_Stack_Size+0x1eac>
    22a8:	735f5f00 	cmpvc	pc, #0, 30
    22ac:	645f6d79 	ldrbvs	r6, [pc], #-3449	; 22b4 <_Min_Stack_Size+0x1eb4>
    22b0:	75616665 	strbvc	r6, [r1, #-1637]!	; 0xfffff99b
    22b4:	7328746c 			; <UNDEFINED> instruction: 0x7328746c
    22b8:	692c6d79 	stmdbvs	ip!, {r0, r3, r4, r5, r6, r8, sl, fp, sp, lr}
    22bc:	2c6c706d 	stclcs	0, cr7, [ip], #-436	; 0xfffffe4c
    22c0:	69726576 	ldmdbvs	r2!, {r1, r2, r4, r5, r6, r8, sl, sp, lr}^
    22c4:	5f202964 	svcpl	0x00202964
    22c8:	6d73615f 	ldfvse	f6, [r3, #-380]!	; 0xfffffe84
    22cc:	22285f5f 	eorcs	r5, r8, #380	; 0x17c
    22d0:	6d79732e 	ldclvs	3, cr7, [r9, #-184]!	; 0xffffff48
    22d4:	20726576 	rsbscs	r6, r2, r6, ror r5
    22d8:	69232022 	stmdbvs	r3!, {r1, r5, sp}
    22dc:	206c706d 	rsbcs	r7, ip, sp, rrx
    22e0:	22202c22 	eorcs	r2, r0, #8704	; 0x2200
    22e4:	79732320 	ldmdbvc	r3!, {r5, r8, r9, sp}^
    22e8:	4022206d 	eormi	r2, r2, sp, rrx
    22ec:	23202240 			; <UNDEFINED> instruction: 0x23202240
    22f0:	69726576 	ldmdbvs	r2!, {r1, r2, r4, r5, r6, r8, sl, sp, lr}^
    22f4:	44002964 	strmi	r2, [r0], #-2404	; 0xfffff69c
    22f8:	614d2f3a 	cmpvs	sp, sl, lsr pc
    22fc:	72657473 	rsbvc	r7, r5, #1929379840	; 0x73000000
    2300:	20676e69 	rsbcs	r6, r7, r9, ror #28
    2304:	65626d45 	strbvs	r6, [r2, #-3397]!	; 0xfffff2bb
    2308:	64656464 	strbtvs	r6, [r5], #-1124	; 0xfffffb9c
    230c:	73795320 	cmnvc	r9, #32, 6	; 0x80000000
    2310:	736d6574 	cmnvc	sp, #116, 10	; 0x1d000000
    2314:	696e552f 	stmdbvs	lr!, {r0, r1, r2, r3, r5, r8, sl, ip, lr}^
    2318:	34312074 	ldrtcc	r2, [r1], #-116	; 0xffffff8c
    231c:	4d524120 	ldfmie	f4, [r2, #-128]	; 0xffffff80
    2320:	696e552f 	stmdbvs	lr!, {r0, r1, r2, r3, r5, r8, sl, ip, lr}^
    2324:	5f343174 	svcpl	0x00343174
    2328:	7373656c 	cmnvc	r3, #108, 10	; 0x1b000000
    232c:	2f336e6f 	svccs	0x00336e6f
    2330:	76697244 	strbtvc	r7, [r9], -r4, asr #4
    2334:	2f737265 	svccs	0x00737265
    2338:	75626544 	strbvc	r6, [r2, #-1348]!	; 0xfffffabc
    233c:	4e490067 	cdpmi	0, 4, cr0, cr9, cr7, {3}
    2340:	41465f54 	cmpmi	r6, r4, asr pc
    2344:	5f385453 	svcpl	0x00385453
    2348:	2058414d 	subscs	r4, r8, sp, asr #2
    234c:	495f5f28 	ldmdbmi	pc, {r3, r5, r8, r9, sl, fp, ip, lr}^	; <UNPREDICTABLE>
    2350:	465f544e 	ldrbmi	r5, [pc], -lr, asr #8
    2354:	38545341 	ldmdacc	r4, {r0, r6, r8, r9, ip, lr}^
    2358:	58414d5f 	stmdapl	r1, {r0, r1, r2, r3, r4, r6, r8, sl, fp, lr}^
    235c:	00295f5f 	eoreq	r5, r9, pc, asr pc
    2360:	4f495047 	svcmi	0x00495047
    2364:	4e49505f 	mcrmi	0, 2, r5, cr9, cr15, {2}
    2368:	5445535f 	strbpl	r5, [r5], #-863	; 0xfffffca1
    236c:	5f003120 	svcpl	0x00003120
    2370:	4e49555f 	mcrmi	5, 2, r5, cr9, cr15, {2}
    2374:	5f363154 	svcpl	0x00363154
    2378:	5f58414d 	svcpl	0x0058414d
    237c:	7830205f 	ldmdavc	r0!, {r0, r1, r2, r3, r4, r6, sp}
    2380:	66666666 	strbtvs	r6, [r6], -r6, ror #12
    2384:	545f5f00 	ldrbpl	r5, [pc], #-3840	; 238c <_Min_Stack_Size+0x1f8c>
    2388:	42465f51 	submi	r5, r6, #324	; 0x144
    238c:	5f5f5449 	svcpl	0x005f5449
    2390:	37323120 	ldrcc	r3, [r2, -r0, lsr #2]!
    2394:	445f5f00 	ldrbmi	r5, [pc], #-3840	; 239c <_Min_Stack_Size+0x1f9c>
    2398:	32314345 	eorscc	r4, r1, #335544321	; 0x14000001
    239c:	55535f38 	ldrbpl	r5, [r3, #-3896]	; 0xfffff0c8
    23a0:	524f4e42 	subpl	r4, pc, #1056	; 0x420
    23a4:	5f4c414d 	svcpl	0x004c414d
    23a8:	5f4e494d 	svcpl	0x004e494d
    23ac:	2e30205f 	mrccs	0, 1, r2, cr0, cr15, {2}
    23b0:	30303030 	eorscc	r3, r0, r0, lsr r0
    23b4:	30303030 	eorscc	r3, r0, r0, lsr r0
    23b8:	30303030 	eorscc	r3, r0, r0, lsr r0
    23bc:	30303030 	eorscc	r3, r0, r0, lsr r0
    23c0:	30303030 	eorscc	r3, r0, r0, lsr r0
    23c4:	30303030 	eorscc	r3, r0, r0, lsr r0
    23c8:	30303030 	eorscc	r3, r0, r0, lsr r0
    23cc:	30303030 	eorscc	r3, r0, r0, lsr r0
    23d0:	362d4531 			; <UNDEFINED> instruction: 0x362d4531
    23d4:	44333431 	ldrtmi	r3, [r3], #-1073	; 0xfffffbcf
    23d8:	485f004c 	ldmdami	pc, {r2, r3, r6}^	; <UNPREDICTABLE>
    23dc:	5f455641 	svcpl	0x00455641
    23e0:	474e4f4c 	strbmi	r4, [lr, -ip, asr #30]
    23e4:	554f445f 	strbpl	r4, [pc, #-1119]	; 1f8d <_Min_Stack_Size+0x1b8d>
    23e8:	20454c42 	subcs	r4, r5, r2, asr #24
    23ec:	5f5f0031 	svcpl	0x005f0031
    23f0:	5f746e69 	svcpl	0x00746e69
    23f4:	74736166 	ldrbtvc	r6, [r3], #-358	; 0xfffffe9a
    23f8:	745f3436 	ldrbvc	r3, [pc], #-1078	; 2400 <_Min_Stack_Size+0x2000>
    23fc:	6665645f 			; <UNDEFINED> instruction: 0x6665645f
    2400:	64656e69 	strbtvs	r6, [r5], #-3689	; 0xfffff197
    2404:	4e003120 	adfmisp	f3, f0, f0
    2408:	5f434956 	svcpl	0x00434956
    240c:	36515249 	ldrbcc	r5, [r1], -r9, asr #4
    2410:	5458455f 	ldrbpl	r4, [r8], #-1375	; 0xfffffaa1
    2414:	455f3049 	ldrbmi	r3, [pc, #-73]	; 23d3 <_Min_Stack_Size+0x1fd3>
    2418:	4c42414e 	stfmie	f4, [r2], {78}	; 0x4e
    241c:	4e282045 	cdpmi	0, 2, cr2, cr8, cr5, {2}
    2420:	5f434956 	svcpl	0x00434956
    2424:	52455349 	subpl	r5, r5, #603979777	; 0x24000001
    2428:	3d7c2030 	ldclcc	0, cr2, [ip, #-192]!	; 0xffffff40
    242c:	3c312820 	ldccc	8, cr2, [r1], #-128	; 0xffffff80
    2430:	2929363c 	stmdbcs	r9!, {r2, r3, r4, r5, r9, sl, ip, sp}
    2434:	45525f00 	ldrbmi	r5, [r2, #-3840]	; 0xfffff100
    2438:	5f544e45 	svcpl	0x00544e45
    243c:	5452424d 	ldrbpl	r4, [r2], #-589	; 0xfffffdb3
    2440:	5f43574f 	svcpl	0x0043574f
    2444:	54415453 	strbpl	r5, [r1], #-1107	; 0xfffffbad
    2448:	74702845 	ldrbtvc	r2, [r0], #-2117	; 0xfffff7bb
    244c:	28202972 	stmdacs	r0!, {r1, r4, r5, r6, r8, fp, sp}
    2450:	72747028 	rsbsvc	r7, r4, #40	; 0x28
    2454:	5f3e2d29 	svcpl	0x003e2d29
    2458:	6373696d 	cmnvs	r3, #1785856	; 0x1b4000
    245c:	6d5f3e2d 	ldclvs	14, cr3, [pc, #-180]	; 23b0 <_Min_Stack_Size+0x1fb0>
    2460:	6f747262 	svcvs	0x00747262
    2464:	735f6377 	cmpvc	pc, #-603979775	; 0xdc000001
    2468:	65746174 	ldrbvs	r6, [r4, #-372]!	; 0xfffffe8c
    246c:	5f5f0029 	svcpl	0x005f0029
    2470:	455a4953 	ldrbmi	r4, [sl, #-2387]	; 0xfffff6ad
    2474:	535f464f 	cmppl	pc, #82837504	; 0x4f00000
    2478:	54524f48 	ldrbpl	r4, [r2], #-3912	; 0xfffff0b8
    247c:	32205f5f 	eorcc	r5, r0, #380	; 0x17c
    2480:	555f5f00 	ldrbpl	r5, [pc, #-3840]	; 1588 <_Min_Stack_Size+0x1188>
    2484:	43414c4c 	movtmi	r4, #7244	; 0x1c4c
    2488:	5f4d5543 	svcpl	0x004d5543
    248c:	54494246 	strbpl	r4, [r9], #-582	; 0xfffffdba
    2490:	33205f5f 			; <UNDEFINED> instruction: 0x33205f5f
    2494:	58450032 	stmdapl	r5, {r1, r4, r5}^
    2498:	50334954 	eorspl	r4, r3, r4, asr r9
    249c:	28203343 	stmdacs	r0!, {r0, r1, r6, r8, r9, ip, sp}
    24a0:	49545845 	ldmdbmi	r4, {r0, r2, r6, fp, ip, lr}^
    24a4:	4950475f 	ldmdbmi	r0, {r0, r1, r2, r3, r4, r6, r8, r9, sl, lr}^
    24a8:	614d5f4f 	cmpvs	sp, pc, asr #30
    24ac:	6e697070 	mcrvs	0, 3, r7, cr9, cr0, {3}
    24b0:	29745f67 	ldmdbcs	r4!, {r0, r1, r2, r5, r6, r8, r9, sl, fp, ip, lr}^
    24b4:	5458457b 	ldrbpl	r4, [r8], #-1403	; 0xfffffa85
    24b8:	202c3349 	eorcs	r3, ip, r9, asr #6
    24bc:	4f495047 	svcmi	0x00495047
    24c0:	47202c43 	strmi	r2, [r0, -r3, asr #24]!
    24c4:	5f4f4950 	svcpl	0x004f4950
    24c8:	5f4e4950 	svcpl	0x004e4950
    24cc:	45202c33 	strmi	r2, [r0, #-3123]!	; 0xfffff3cd
    24d0:	33495458 	movtcc	r5, #37976	; 0x9458
    24d4:	5152495f 	cmppl	r2, pc, asr r9
    24d8:	45007d20 	strmi	r7, [r0, #-3360]	; 0xfffff2e0
    24dc:	37495458 	smlsldcc	r5, r9, r8, r4
    24e0:	20374450 	eorscs	r4, r7, r0, asr r4
    24e4:	54584528 	ldrbpl	r4, [r8], #-1320	; 0xfffffad8
    24e8:	50475f49 	subpl	r5, r7, r9, asr #30
    24ec:	4d5f4f49 	ldclmi	15, cr4, [pc, #-292]	; 23d0 <_Min_Stack_Size+0x1fd0>
    24f0:	69707061 	ldmdbvs	r0!, {r0, r5, r6, ip, sp, lr}^
    24f4:	745f676e 	ldrbvc	r6, [pc], #-1902	; 24fc <_Min_Stack_Size+0x20fc>
    24f8:	58457b29 	stmdapl	r5, {r0, r3, r5, r8, r9, fp, ip, sp, lr}^
    24fc:	2c374954 			; <UNDEFINED> instruction: 0x2c374954
    2500:	49504720 	ldmdbmi	r0, {r5, r8, r9, sl, lr}^
    2504:	202c444f 	eorcs	r4, ip, pc, asr #8
    2508:	4f495047 	svcmi	0x00495047
    250c:	4e49505f 	mcrmi	0, 2, r5, cr9, cr15, {2}
    2510:	202c375f 	eorcs	r3, ip, pc, asr r7
    2514:	49545845 	ldmdbmi	r4, {r0, r2, r6, fp, ip, lr}^
    2518:	52495f37 	subpl	r5, r9, #55, 30	; 0xdc
    251c:	007d2051 	rsbseq	r2, sp, r1, asr r0
    2520:	45445f5f 	strbmi	r5, [r4, #-3935]	; 0xfffff0a1
    2524:	534e4f43 	movtpl	r4, #61251	; 0xef43
    2528:	79742854 	ldmdbvc	r4!, {r2, r4, r6, fp, sp}^
    252c:	762c6570 			; <UNDEFINED> instruction: 0x762c6570
    2530:	20297261 	eorcs	r7, r9, r1, ror #4
    2534:	79742828 	ldmdbvc	r4!, {r3, r5, fp, sp}^
    2538:	28296570 	stmdacs	r9!, {r4, r5, r6, r8, sl, sp, lr}
    253c:	69755f5f 	ldmdbvs	r5!, {r0, r1, r2, r3, r4, r6, r8, r9, sl, fp, ip, lr}^
    2540:	7470746e 	ldrbtvc	r7, [r0], #-1134	; 0xfffffb92
    2544:	29745f72 	ldmdbcs	r4!, {r1, r4, r5, r6, r8, r9, sl, fp, ip, lr}^
    2548:	6e6f6328 	cdpvs	3, 6, cr6, cr15, cr8, {1}
    254c:	76207473 			; <UNDEFINED> instruction: 0x76207473
    2550:	2064696f 	rsbcs	r6, r4, pc, ror #18
    2554:	7628292a 	strtvc	r2, [r8], -sl, lsr #18
    2558:	29297261 	stmdbcs	r9!, {r0, r5, r6, r9, ip, sp, lr}
    255c:	59535f00 	ldmdbpl	r3, {r8, r9, sl, fp, ip, lr}^
    2560:	45465f53 	strbmi	r5, [r6, #-3923]	; 0xfffff0ad
    2564:	52555441 	subspl	r5, r5, #1090519040	; 0x41000000
    2568:	485f5345 	ldmdami	pc, {r0, r2, r6, r8, r9, ip, lr}^	; <UNPREDICTABLE>
    256c:	49550020 	ldmdbmi	r5, {r5}^
    2570:	4c5f544e 	cfldrdmi	mvd5, [pc], {78}	; 0x4e
    2574:	54534145 	ldrbpl	r4, [r3], #-325	; 0xfffffebb
    2578:	4d5f3436 	cfldrdmi	mvd3, [pc, #-216]	; 24a8 <_Min_Stack_Size+0x20a8>
    257c:	28205841 	stmdacs	r0!, {r0, r6, fp, ip, lr}
    2580:	49555f5f 	ldmdbmi	r5, {r0, r1, r2, r3, r4, r6, r8, r9, sl, fp, ip, lr}^
    2584:	4c5f544e 	cfldrdmi	mvd5, [pc], {78}	; 0x4e
    2588:	54534145 	ldrbpl	r4, [r3], #-325	; 0xfffffebb
    258c:	4d5f3436 	cfldrdmi	mvd3, [pc, #-216]	; 24bc <_Min_Stack_Size+0x20bc>
    2590:	5f5f5841 	svcpl	0x005f5841
    2594:	695f0029 	ldmdbvs	pc, {r0, r3, r5}^	; <UNPREDICTABLE>
    2598:	4500636e 	strmi	r6, [r0, #-878]	; 0xfffffc92
    259c:	31495458 	cmpcc	r9, r8, asr r4
    25a0:	31445031 	cmpcc	r4, r1, lsr r0
    25a4:	45282031 	strmi	r2, [r8, #-49]!	; 0xffffffcf
    25a8:	5f495458 	svcpl	0x00495458
    25ac:	4f495047 	svcmi	0x00495047
    25b0:	70614d5f 	rsbvc	r4, r1, pc, asr sp
    25b4:	676e6970 			; <UNDEFINED> instruction: 0x676e6970
    25b8:	7b29745f 	blvc	a5f73c <_Min_Stack_Size+0xa5f33c>
    25bc:	49545845 	ldmdbmi	r4, {r0, r2, r6, fp, ip, lr}^
    25c0:	202c3131 	eorcs	r3, ip, r1, lsr r1
    25c4:	4f495047 	svcmi	0x00495047
    25c8:	47202c44 	strmi	r2, [r0, -r4, asr #24]!
    25cc:	5f4f4950 	svcpl	0x004f4950
    25d0:	5f4e4950 	svcpl	0x004e4950
    25d4:	202c3131 	eorcs	r3, ip, r1, lsr r1
    25d8:	49545845 	ldmdbmi	r4, {r0, r2, r6, fp, ip, lr}^
    25dc:	495f3131 	ldmdbmi	pc, {r0, r4, r5, r8, ip, sp}^	; <UNPREDICTABLE>
    25e0:	7d205152 	stfvcs	f5, [r0, #-328]!	; 0xfffffeb8
    25e4:	414d5f00 	cmpmi	sp, r0, lsl #30
    25e8:	54534843 	ldrbpl	r4, [r3], #-2115	; 0xfffff7bd
    25ec:	42494c44 	submi	r4, r9, #68, 24	; 0x4400
    25f0:	205f485f 	subscs	r4, pc, pc, asr r8	; <UNPREDICTABLE>
    25f4:	49504700 	ldmdbmi	r0, {r8, r9, sl, lr}^
    25f8:	49505f4f 	ldmdbmi	r0, {r0, r1, r2, r3, r6, r8, r9, sl, fp, ip, lr}^
    25fc:	20335f4e 	eorscs	r5, r3, lr, asr #30
    2600:	69752828 	ldmdbvs	r5!, {r3, r5, fp, sp}^
    2604:	3631746e 	ldrtcc	r7, [r1], -lr, ror #8
    2608:	3029745f 	eorcc	r7, r9, pc, asr r4
    260c:	30303078 	eorscc	r3, r0, r8, ror r0
    2610:	45002938 	strmi	r2, [r0, #-2360]	; 0xfffff6c8
    2614:	20495458 	subcs	r5, r9, r8, asr r4
    2618:	58452828 	stmdapl	r5, {r3, r5, fp, sp}^
    261c:	545f4954 	ldrbpl	r4, [pc], #-2388	; 2624 <_Min_Stack_Size+0x2224>
    2620:	44657079 	strbtmi	r7, [r5], #-121	; 0xffffff87
    2624:	292a6665 	stmdbcs	sl!, {r0, r2, r5, r6, r9, sl, sp, lr}
    2628:	49545845 	ldmdbmi	r4, {r0, r2, r6, fp, ip, lr}^
    262c:	5341425f 	movtpl	r4, #4703	; 0x125f
    2630:	5f002945 	svcpl	0x00002945
    2634:	5a49535f 	bpl	12573b8 <_Min_Stack_Size+0x1256fb8>
    2638:	5f464f45 	svcpl	0x00464f45
    263c:	474e4f4c 	strbmi	r4, [lr, -ip, asr #30]
    2640:	554f445f 	strbpl	r4, [pc, #-1119]	; 21e9 <_Min_Stack_Size+0x1de9>
    2644:	5f454c42 	svcpl	0x00454c42
    2648:	0038205f 	eorseq	r2, r8, pc, asr r0
    264c:	49545845 	ldmdbmi	r4, {r0, r2, r6, fp, ip, lr}^
    2650:	30435030 	subcc	r5, r3, r0, lsr r0
    2654:	58452820 	stmdapl	r5, {r5, fp, sp}^
    2658:	475f4954 			; <UNDEFINED> instruction: 0x475f4954
    265c:	5f4f4950 	svcpl	0x004f4950
    2660:	7070614d 	rsbsvc	r6, r0, sp, asr #2
    2664:	5f676e69 	svcpl	0x00676e69
    2668:	457b2974 	ldrbmi	r2, [fp, #-2420]!	; 0xfffff68c
    266c:	30495458 	subcc	r5, r9, r8, asr r4
    2670:	5047202c 	subpl	r2, r7, ip, lsr #32
    2674:	2c434f49 	mcrrcs	15, 4, r4, r3, cr9
    2678:	49504720 	ldmdbmi	r0, {r5, r8, r9, sl, lr}^
    267c:	49505f4f 	ldmdbmi	r0, {r0, r1, r2, r3, r6, r8, r9, sl, fp, ip, lr}^
    2680:	2c305f4e 	ldccs	15, cr5, [r0], #-312	; 0xfffffec8
    2684:	54584520 	ldrbpl	r4, [r8], #-1312	; 0xfffffae0
    2688:	495f3049 	ldmdbmi	pc, {r0, r3, r6, ip, sp}^	; <UNPREDICTABLE>
    268c:	7d205152 	stfvcs	f5, [r0, #-328]!	; 0xfffffeb8
    2690:	505f5f00 	subspl	r5, pc, r0, lsl #30
    2694:	4d474152 	stfmie	f4, [r7, #-328]	; 0xfffffeb8
    2698:	45525f41 	ldrbmi	r5, [r2, #-3905]	; 0xfffff0bf
    269c:	49464544 	stmdbmi	r6, {r2, r6, r8, sl, lr}^
    26a0:	455f454e 	ldrbmi	r4, [pc, #-1358]	; 215a <_Min_Stack_Size+0x1d5a>
    26a4:	414e5458 	cmpmi	lr, r8, asr r4
    26a8:	3120454d 			; <UNDEFINED> instruction: 0x3120454d
    26ac:	575f5f00 	ldrbpl	r5, [pc, -r0, lsl #30]
    26b0:	52414843 	subpl	r4, r1, #4390912	; 0x430000
    26b4:	5059545f 	subspl	r5, r9, pc, asr r4
    26b8:	205f5f45 	subscs	r5, pc, r5, asr #30
    26bc:	69736e75 	ldmdbvs	r3!, {r0, r2, r4, r5, r6, r9, sl, fp, sp, lr}^
    26c0:	64656e67 	strbtvs	r6, [r5], #-3687	; 0xfffff199
    26c4:	746e6920 	strbtvc	r6, [lr], #-2336	; 0xfffff6e0
    26c8:	45525f00 	ldrbmi	r5, [r2, #-3840]	; 0xfffff100
    26cc:	5f544e45 	svcpl	0x00544e45
    26d0:	4e474953 			; <UNDEFINED> instruction: 0x4e474953
    26d4:	284d4147 	stmdacs	sp, {r0, r1, r2, r6, r8, lr}^
    26d8:	29727470 	ldmdbcs	r2!, {r4, r5, r6, sl, ip, sp, lr}^
    26dc:	70282820 	eorvc	r2, r8, r0, lsr #16
    26e0:	2d297274 	sfmcs	f7, 4, [r9, #-464]!	; 0xfffffe30
    26e4:	61675f3e 	cmnvs	r7, lr, lsr pc
    26e8:	5f616d6d 	svcpl	0x00616d6d
    26ec:	6e676973 			; <UNDEFINED> instruction: 0x6e676973
    26f0:	296d6167 	stmdbcs	sp!, {r0, r1, r2, r5, r6, r8, sp, lr}^
    26f4:	555f5f00 	ldrbpl	r5, [pc, #-3840]	; 17fc <_Min_Stack_Size+0x13fc>
    26f8:	495f4153 	ldmdbmi	pc, {r0, r1, r4, r6, r8, lr}^	; <UNPREDICTABLE>
    26fc:	5f544942 	svcpl	0x00544942
    2700:	3631205f 			; <UNDEFINED> instruction: 0x3631205f
    2704:	54584500 	ldrbpl	r4, [r8], #-1280	; 0xfffffb00
    2708:	495f3149 	ldmdbmi	pc, {r0, r3, r6, r8, ip, sp}^	; <UNPREDICTABLE>
    270c:	37205152 			; <UNDEFINED> instruction: 0x37205152
    2710:	475f5f00 	ldrbmi	r5, [pc, -r0, lsl #30]
    2714:	485f4343 	ldmdami	pc, {r0, r1, r6, r8, r9, lr}^	; <UNPREDICTABLE>
    2718:	5f455641 	svcpl	0x00455641
    271c:	434e5953 	movtmi	r5, #59731	; 0xe953
    2720:	4d4f435f 	stclmi	3, cr4, [pc, #-380]	; 25ac <_Min_Stack_Size+0x21ac>
    2724:	45524150 	ldrbmi	r4, [r2, #-336]	; 0xfffffeb0
    2728:	444e415f 	strbmi	r4, [lr], #-351	; 0xfffffea1
    272c:	4157535f 	cmpmi	r7, pc, asr r3
    2730:	20325f50 	eorscs	r5, r2, r0, asr pc
    2734:	4e490031 	mcrmi	0, 2, r0, cr9, cr1, {1}
    2738:	58414d54 	stmdapl	r1, {r2, r4, r6, r8, sl, fp, lr}^
    273c:	7828435f 	stmdavc	r8!, {r0, r1, r2, r3, r4, r6, r8, r9, lr}
    2740:	5f5f2029 	svcpl	0x005f2029
    2744:	4d544e49 	ldclmi	14, cr4, [r4, #-292]	; 0xfffffedc
    2748:	435f5841 	cmpmi	pc, #4259840	; 0x410000
    274c:	00297828 	eoreq	r7, r9, r8, lsr #16
    2750:	656e5f5f 	strbvs	r5, [lr, #-3935]!	; 0xfffff0a1
    2754:	775f6465 	ldrbvc	r6, [pc, -r5, ror #8]
    2758:	72616863 	rsbvc	r6, r1, #6488064	; 0x630000
    275c:	0020745f 	eoreq	r7, r0, pc, asr r4
    2760:	69685f5f 	stmdbvs	r8!, {r0, r1, r2, r3, r4, r6, r8, r9, sl, fp, ip, lr}^
    2764:	6e656464 	cdpvs	4, 6, cr6, cr5, cr4, {3}
    2768:	615f5f20 	cmpvs	pc, r0, lsr #30
    276c:	69727474 	ldmdbvs	r2!, {r2, r4, r5, r6, sl, ip, sp, lr}^
    2770:	65747562 	ldrbvs	r7, [r4, #-1378]!	; 0xfffffa9e
    2774:	28285f5f 	stmdacs	r8!, {r0, r1, r2, r3, r4, r6, r8, r9, sl, fp, ip, lr}
    2778:	69765f5f 	ldmdbvs	r6!, {r0, r1, r2, r3, r4, r6, r8, r9, sl, fp, ip, lr}^
    277c:	69626973 	stmdbvs	r2!, {r0, r1, r4, r5, r6, r8, fp, sp, lr}^
    2780:	7974696c 	ldmdbvc	r4!, {r2, r3, r5, r6, r8, fp, sp, lr}^
    2784:	22285f5f 	eorcs	r5, r8, #380	; 0x17c
    2788:	64646968 	strbtvs	r6, [r4], #-2408	; 0xfffff698
    278c:	29226e65 	stmdbcs	r2!, {r0, r2, r5, r6, r9, sl, fp, sp, lr}
    2790:	49002929 	stmdbmi	r0, {r0, r3, r5, r8, fp, sp}
    2794:	4c5f544e 	cfldrdmi	mvd5, [pc], {78}	; 0x4e
    2798:	54534145 	ldrbpl	r4, [r3], #-325	; 0xfffffebb
    279c:	4d5f3233 	lfmmi	f3, 2, [pc, #-204]	; 26d8 <_Min_Stack_Size+0x22d8>
    27a0:	28205841 	stmdacs	r0!, {r0, r6, fp, ip, lr}
    27a4:	4e495f5f 	mcrmi	15, 2, r5, cr9, cr15, {2}
    27a8:	454c5f54 	strbmi	r5, [ip, #-3924]	; 0xfffff0ac
    27ac:	33545341 	cmpcc	r4, #67108865	; 0x4000001
    27b0:	414d5f32 	cmpmi	sp, r2, lsr pc
    27b4:	295f5f58 	ldmdbcs	pc, {r3, r4, r6, r8, r9, sl, fp, ip, lr}^	; <UNPREDICTABLE>
    27b8:	6e665f00 	cdpvs	15, 6, cr5, cr6, cr0, {0}
    27bc:	5f5f0073 	svcpl	0x005f0073
    27c0:	41524653 	cmpmi	r2, r3, asr r6
    27c4:	4d5f5443 	cfldrdmi	mvd5, [pc, #-268]	; 26c0 <_Min_Stack_Size+0x22c0>
    27c8:	5f5f5841 	svcpl	0x005f5841
    27cc:	37583020 	ldrbcc	r3, [r8, -r0, lsr #32]
    27d0:	372d5046 	strcc	r5, [sp, -r6, asr #32]!
    27d4:	5f005248 	svcpl	0x00005248
    27d8:	4e49555f 	mcrmi	5, 2, r5, cr9, cr15, {2}
    27dc:	41465f54 	cmpmi	r6, r4, asr pc
    27e0:	34365453 	ldrtcc	r5, [r6], #-1107	; 0xfffffbad
    27e4:	5059545f 	subspl	r5, r9, pc, asr r4
    27e8:	205f5f45 	subscs	r5, pc, r5, asr #30
    27ec:	676e6f6c 	strbvs	r6, [lr, -ip, ror #30]!
    27f0:	6e6f6c20 	cdpvs	12, 6, cr6, cr15, cr0, {1}
    27f4:	6e752067 	cdpvs	0, 7, cr2, cr5, cr7, {3}
    27f8:	6e676973 			; <UNDEFINED> instruction: 0x6e676973
    27fc:	69206465 	stmdbvs	r0!, {r0, r2, r5, r6, sl, sp, lr}
    2800:	5f00746e 	svcpl	0x0000746e
    2804:	544e4957 	strbpl	r4, [lr], #-2391	; 0xfffff6a9
    2808:	0020545f 	eoreq	r5, r0, pc, asr r4
    280c:	5f544e49 	svcpl	0x00544e49
    2810:	5341454c 	movtpl	r4, #5452	; 0x154c
    2814:	4d5f3854 	ldclmi	8, cr3, [pc, #-336]	; 26cc <_Min_Stack_Size+0x22cc>
    2818:	28205841 	stmdacs	r0!, {r0, r6, fp, ip, lr}
    281c:	4e495f5f 	mcrmi	15, 2, r5, cr9, cr15, {2}
    2820:	454c5f54 	strbmi	r5, [ip, #-3924]	; 0xfffff0ac
    2824:	38545341 	ldmdacc	r4, {r0, r6, r8, r9, ip, lr}^
    2828:	58414d5f 	stmdapl	r1, {r0, r1, r2, r3, r4, r6, r8, sl, fp, lr}^
    282c:	00295f5f 	eoreq	r5, r9, pc, asr pc
    2830:	6f6c5f5f 	svcvs	0x006c5f5f
    2834:	635f6b63 	cmpvs	pc, #101376	; 0x18c00
    2838:	65736f6c 	ldrbvs	r6, [r3, #-3948]!	; 0xfffff094
    283c:	636f6c28 	cmnvs	pc, #40, 24	; 0x2800
    2840:	2820296b 	stmdacs	r0!, {r0, r1, r3, r5, r6, r8, fp, sp}
    2844:	696f7628 	stmdbvs	pc!, {r3, r5, r9, sl, ip, sp, lr}^	; <UNPREDICTABLE>
    2848:	30202964 	eorcc	r2, r0, r4, ror #18
    284c:	5f5f0029 	svcpl	0x005f0029
    2850:	5f544c46 	svcpl	0x00544c46
    2854:	5f4e494d 	svcpl	0x004e494d
    2858:	2e31205f 	mrccs	0, 1, r2, cr1, cr15, {2}
    285c:	34353731 	ldrtcc	r3, [r5], #-1841	; 0xfffff8cf
    2860:	35333439 	ldrcc	r3, [r3, #-1081]!	; 0xfffffbc7
    2864:	32323830 	eorscc	r3, r2, #48, 16	; 0x300000
    2868:	35373832 	ldrcc	r3, [r7, #-2098]!	; 0xfffff7ce
    286c:	38332d65 	ldmdacc	r3!, {r0, r2, r5, r6, r8, sl, fp, sp}
    2870:	5f5f0046 	svcpl	0x005f0046
    2874:	6465656e 	strbtvs	r6, [r5], #-1390	; 0xfffffa92
    2878:	7a69735f 	bvc	1a5f5fc <_Min_Stack_Size+0x1a5f1fc>
    287c:	20745f65 	rsbscs	r5, r4, r5, ror #30
    2880:	485f5f00 	ldmdami	pc, {r8, r9, sl, fp, ip, lr}^	; <UNPREDICTABLE>
    2884:	42465f41 	submi	r5, r6, #260	; 0x104
    2888:	5f5f5449 	svcpl	0x005f5449
    288c:	45003720 	strmi	r3, [r0, #-1824]	; 0xfffff8e0
    2890:	33495458 	movtcc	r5, #37976	; 0x9458
    2894:	20334150 	eorscs	r4, r3, r0, asr r1
    2898:	54584528 	ldrbpl	r4, [r8], #-1320	; 0xfffffad8
    289c:	50475f49 	subpl	r5, r7, r9, asr #30
    28a0:	4d5f4f49 	ldclmi	15, cr4, [pc, #-292]	; 2784 <_Min_Stack_Size+0x2384>
    28a4:	69707061 	ldmdbvs	r0!, {r0, r5, r6, ip, sp, lr}^
    28a8:	745f676e 	ldrbvc	r6, [pc], #-1902	; 28b0 <_Min_Stack_Size+0x24b0>
    28ac:	58457b29 	stmdapl	r5, {r0, r3, r5, r8, r9, fp, ip, sp, lr}^
    28b0:	2c334954 			; <UNDEFINED> instruction: 0x2c334954
    28b4:	49504720 	ldmdbmi	r0, {r5, r8, r9, sl, lr}^
    28b8:	202c414f 	eorcs	r4, ip, pc, asr #2
    28bc:	4f495047 	svcmi	0x00495047
    28c0:	4e49505f 	mcrmi	0, 2, r5, cr9, cr15, {2}
    28c4:	202c335f 	eorcs	r3, ip, pc, asr r3
    28c8:	49545845 	ldmdbmi	r4, {r0, r2, r6, fp, ip, lr}^
    28cc:	52495f33 	subpl	r5, r9, #51, 30	; 0xcc
    28d0:	007d2051 	rsbseq	r2, sp, r1, asr r0
    28d4:	4545525f 	strbmi	r5, [r5, #-607]	; 0xfffffda1
    28d8:	4d5f544e 	cfldrdmi	mvd5, [pc, #-312]	; 27a8 <_Min_Stack_Size+0x23a8>
    28dc:	4e454c42 	cdpmi	12, 4, cr4, cr5, cr2, {2}
    28e0:	4154535f 	cmpmi	r4, pc, asr r3
    28e4:	70284554 	eorvc	r4, r8, r4, asr r5
    28e8:	20297274 	eorcs	r7, r9, r4, ror r2
    28ec:	74702828 	ldrbtvc	r2, [r0], #-2088	; 0xfffff7d8
    28f0:	3e2d2972 			; <UNDEFINED> instruction: 0x3e2d2972
    28f4:	73696d5f 	cmnvc	r9, #6080	; 0x17c0
    28f8:	5f3e2d63 	svcpl	0x003e2d63
    28fc:	656c626d 	strbvs	r6, [ip, #-621]!	; 0xfffffd93
    2900:	74735f6e 	ldrbtvc	r5, [r3], #-3950	; 0xfffff092
    2904:	29657461 	stmdbcs	r5!, {r0, r5, r6, sl, ip, sp, lr}^
    2908:	555f5f00 	ldrbpl	r5, [pc, #-3840]	; 1a10 <_Min_Stack_Size+0x1610>
    290c:	43415246 	movtmi	r5, #4678	; 0x1246
    2910:	494d5f54 	stmdbmi	sp, {r2, r4, r6, r8, r9, sl, fp, ip, lr}^
    2914:	205f5f4e 	subscs	r5, pc, lr, asr #30
    2918:	55302e30 	ldrpl	r2, [r0, #-3632]!	; 0xfffff1d0
    291c:	58450052 	stmdapl	r5, {r1, r4, r6}^
    2920:	545f4954 	ldrbpl	r4, [pc], #-2388	; 2928 <_Min_Stack_Size+0x2528>
    2924:	67676972 			; <UNDEFINED> instruction: 0x67676972
    2928:	525f7265 	subspl	r7, pc, #1342177286	; 0x50000006
    292c:	4e495349 	cdpmi	3, 4, cr5, cr9, cr9, {2}
    2930:	00302047 	eorseq	r2, r0, r7, asr #32
    2934:	5f474953 	svcpl	0x00474953
    2938:	4d4f5441 	cfstrdmi	mvd5, [pc, #-260]	; 283c <_Min_Stack_Size+0x243c>
    293c:	4d5f4349 	ldclmi	3, cr4, [pc, #-292]	; 2820 <_Min_Stack_Size+0x2420>
    2940:	28205841 	stmdacs	r0!, {r0, r6, fp, ip, lr}
    2944:	54535f5f 	ldrbpl	r5, [r3], #-3935	; 0xfffff0a1
    2948:	544e4944 	strbpl	r4, [lr], #-2372	; 0xfffff6bc
    294c:	5058455f 	subspl	r4, r8, pc, asr r5
    2950:	544e4928 	strbpl	r4, [lr], #-2344	; 0xfffff6d8
    2954:	58414d5f 	stmdapl	r1, {r0, r1, r2, r3, r4, r6, r8, sl, fp, lr}^
    2958:	5f002929 	svcpl	0x00002929
    295c:	696f6e5f 	stmdbvs	pc!, {r0, r1, r2, r3, r4, r6, r9, sl, fp, sp, lr}^	; <UNPREDICTABLE>
    2960:	6e696c6e 	cdpvs	12, 6, cr6, cr9, cr14, {3}
    2964:	5f5f2065 	svcpl	0x005f2065
    2968:	72747461 	rsbsvc	r7, r4, #1627389952	; 0x61000000
    296c:	74756269 	ldrbtvc	r6, [r5], #-617	; 0xfffffd97
    2970:	205f5f65 	subscs	r5, pc, r5, ror #30
    2974:	5f5f2828 	svcpl	0x005f2828
    2978:	6e696f6e 	cdpvs	15, 6, cr6, cr9, cr14, {3}
    297c:	656e696c 	strbvs	r6, [lr, #-2412]!	; 0xfffff694
    2980:	29295f5f 	stmdbcs	r9!, {r0, r1, r2, r3, r4, r6, r8, r9, sl, fp, ip, lr}
    2984:	4e495500 	cdpmi	5, 4, cr5, cr9, cr0, {0}
    2988:	5f343654 	svcpl	0x00343654
    298c:	2058414d 	subscs	r4, r8, sp, asr #2
    2990:	555f5f28 	ldrbpl	r5, [pc, #-3880]	; 1a70 <_Min_Stack_Size+0x1670>
    2994:	36544e49 	ldrbcc	r4, [r4], -r9, asr #28
    2998:	414d5f34 	cmpmi	sp, r4, lsr pc
    299c:	295f5f58 	ldmdbcs	pc, {r3, r4, r6, r8, r9, sl, fp, ip, lr}^	; <UNPREDICTABLE>
    29a0:	49564e00 	ldmdbmi	r6, {r9, sl, fp, lr}^
    29a4:	52495f43 	subpl	r5, r9, #268	; 0x10c
    29a8:	455f3651 	ldrbmi	r3, [pc, #-1617]	; 235f <_Min_Stack_Size+0x1f5f>
    29ac:	33495458 	movtcc	r5, #37976	; 0x9458
    29b0:	5349445f 	movtpl	r4, #37983	; 0x945f
    29b4:	454c4241 	strbmi	r4, [ip, #-577]	; 0xfffffdbf
    29b8:	564e2820 	strbpl	r2, [lr], -r0, lsr #16
    29bc:	495f4349 	ldmdbmi	pc, {r0, r3, r6, r8, r9, lr}^	; <UNPREDICTABLE>
    29c0:	30524543 	subscc	r4, r2, r3, asr #10
    29c4:	203d7c20 	eorscs	r7, sp, r0, lsr #24
    29c8:	3c3c3128 	ldfccs	f3, [ip], #-160	; 0xffffff60
    29cc:	00292939 	eoreq	r2, r9, r9, lsr r9
    29d0:	45445f5f 	strbmi	r5, [r4, #-3935]	; 0xfffff0a1
    29d4:	5f323343 	svcpl	0x00323343
    29d8:	5f4e494d 	svcpl	0x004e494d
    29dc:	5f505845 	svcpl	0x00505845
    29e0:	2d28205f 	stccs	0, cr2, [r8, #-380]!	; 0xfffffe84
    29e4:	00293439 	eoreq	r3, r9, r9, lsr r4
    29e8:	49545845 	ldmdbmi	r4, {r0, r2, r6, fp, ip, lr}^
    29ec:	495f3331 	ldmdbmi	pc, {r0, r4, r5, r8, r9, ip, sp}^	; <UNPREDICTABLE>
    29f0:	34205152 	strtcc	r5, [r0], #-338	; 0xfffffeae
    29f4:	5f5f0030 	svcpl	0x005f0030
    29f8:	52465355 	subpl	r5, r6, #1409286145	; 0x54000001
    29fc:	5f544341 	svcpl	0x00544341
    2a00:	54494249 	strbpl	r4, [r9], #-585	; 0xfffffdb7
    2a04:	30205f5f 	eorcc	r5, r0, pc, asr pc
    2a08:	495f5f00 	ldmdbmi	pc, {r8, r9, sl, fp, ip, lr}^	; <UNPREDICTABLE>
    2a0c:	3233544e 	eorscc	r5, r3, #1308622848	; 0x4e000000
    2a10:	6328435f 			; <UNDEFINED> instruction: 0x6328435f
    2a14:	20632029 	rsbcs	r2, r3, r9, lsr #32
    2a18:	4c202323 	stcmi	3, cr2, [r0], #-140	; 0xffffff74
    2a1c:	755f5f00 	ldrbvc	r5, [pc, #-3840]	; 1b24 <_Min_Stack_Size+0x1724>
    2a20:	31746e69 	cmncc	r4, r9, ror #28
    2a24:	00745f36 	rsbseq	r5, r4, r6, lsr pc
    2a28:	4545525f 	strbmi	r5, [r5, #-607]	; 0xfffffda1
    2a2c:	535f544e 	cmppl	pc, #1308622848	; 0x4e000000
    2a30:	414e4749 	cmpmi	lr, r9, asr #14
    2a34:	55425f4c 	strbpl	r5, [r2, #-3916]	; 0xfffff0b4
    2a38:	74702846 	ldrbtvc	r2, [r0], #-2118	; 0xfffff7ba
    2a3c:	28202972 	stmdacs	r0!, {r1, r4, r5, r6, r8, fp, sp}
    2a40:	72747028 	rsbsvc	r7, r4, #40	; 0x28
    2a44:	5f3e2d29 	svcpl	0x003e2d29
    2a48:	6e676973 			; <UNDEFINED> instruction: 0x6e676973
    2a4c:	625f6c61 	subsvs	r6, pc, #24832	; 0x6100
    2a50:	00296675 	eoreq	r6, r9, r5, ror r6
    2a54:	53555f5f 	cmppl	r5, #380	; 0x17c
    2a58:	43415246 	movtmi	r5, #4678	; 0x1246
    2a5c:	494d5f54 	stmdbmi	sp, {r2, r4, r6, r8, r9, sl, fp, ip, lr}^
    2a60:	205f5f4e 	subscs	r5, pc, lr, asr #30
    2a64:	55302e30 	ldrpl	r2, [r0, #-3632]!	; 0xfffff1d0
    2a68:	5f005248 	svcpl	0x00005248
    2a6c:	6573755f 	ldrbvs	r7, [r3, #-1375]!	; 0xfffffaa1
    2a70:	5f5f2064 	svcpl	0x005f2064
    2a74:	72747461 	rsbsvc	r7, r4, #1627389952	; 0x61000000
    2a78:	74756269 	ldrbtvc	r6, [r5], #-617	; 0xfffffd97
    2a7c:	285f5f65 	ldmdacs	pc, {r0, r2, r5, r6, r8, r9, sl, fp, ip, lr}^	; <UNPREDICTABLE>
    2a80:	755f5f28 	ldrbvc	r5, [pc, #-3880]	; 1b60 <_Min_Stack_Size+0x1760>
    2a84:	5f646573 	svcpl	0x00646573
    2a88:	0029295f 	eoreq	r2, r9, pc, asr r9
    2a8c:	65675f5f 	strbvs	r5, [r7, #-3935]!	; 0xfffff0a1
    2a90:	6972656e 	ldmdbvs	r2!, {r1, r2, r3, r5, r6, r8, sl, sp, lr}^
    2a94:	78652863 	stmdavc	r5!, {r0, r1, r5, r6, fp, sp}^
    2a98:	742c7270 	strtvc	r7, [ip], #-624	; 0xfffffd90
    2a9c:	7365792c 	cmnvc	r5, #44, 18	; 0xb0000
    2aa0:	296f6e2c 	stmdbcs	pc!, {r2, r3, r5, r9, sl, fp, sp, lr}^	; <UNPREDICTABLE>
    2aa4:	65475f20 	strbvs	r5, [r7, #-3872]	; 0xfffff0e0
    2aa8:	6972656e 	ldmdbvs	r2!, {r1, r2, r3, r5, r6, r8, sl, sp, lr}^
    2aac:	78652863 	stmdavc	r5!, {r0, r1, r5, r6, fp, sp}^
    2ab0:	202c7270 	eorcs	r7, ip, r0, ror r2
    2ab4:	79203a74 	stmdbvc	r0!, {r2, r4, r5, r6, r9, fp, ip, sp}
    2ab8:	202c7365 	eorcs	r7, ip, r5, ror #6
    2abc:	61666564 	cmnvs	r6, r4, ror #10
    2ac0:	3a746c75 	bcc	1d1dc9c <_Min_Stack_Size+0x1d1d89c>
    2ac4:	296f6e20 	stmdbcs	pc!, {r5, r9, sl, fp, sp, lr}^	; <UNPREDICTABLE>
    2ac8:	415f5f00 	cmpmi	pc, r0, lsl #30
    2acc:	4e5f4d52 	mrcmi	13, 2, r4, cr15, cr2, {2}
    2ad0:	004e4f45 	subeq	r4, lr, r5, asr #30
    2ad4:	4545525f 	strbmi	r5, [r5, #-607]	; 0xfffffda1
    2ad8:	455f544e 	ldrbmi	r5, [pc, #-1102]	; 2692 <_Min_Stack_Size+0x2292>
    2adc:	4752454d 	ldrbmi	r4, [r2, -sp, asr #10]
    2ae0:	59434e45 	stmdbpl	r3, {r0, r2, r6, r9, sl, fp, lr}^
    2ae4:	72747028 	rsbsvc	r7, r4, #40	; 0x28
    2ae8:	28282029 	stmdacs	r8!, {r0, r3, r5, sp}
    2aec:	29727470 	ldmdbcs	r2!, {r4, r5, r6, sl, ip, sp, lr}^
    2af0:	655f3e2d 	ldrbvs	r3, [pc, #-3629]	; 1ccb <_Min_Stack_Size+0x18cb>
    2af4:	6772656d 	ldrbvs	r6, [r2, -sp, ror #10]!
    2af8:	79636e65 	stmdbvc	r3!, {r0, r2, r5, r6, r9, sl, fp, sp, lr}^
    2afc:	5f5f0029 	svcpl	0x005f0029
    2b00:	43554e47 	cmpmi	r5, #1136	; 0x470
    2b04:	454b494c 	strbmi	r4, [fp, #-2380]	; 0xfffff6b4
    2b08:	4f54435f 	svcmi	0x0054435f
    2b0c:	45535f52 	ldrbmi	r5, [r3, #-3922]	; 0xfffff0ae
    2b10:	4f495443 	svcmi	0x00495443
    2b14:	41485f4e 	cmpmi	r8, lr, asr #30
    2b18:	494c444e 	stmdbmi	ip, {r1, r2, r3, r6, sl, lr}^
    2b1c:	3120474e 			; <UNDEFINED> instruction: 0x3120474e
    2b20:	555f5f00 	ldrbpl	r5, [pc, #-3840]	; 1c28 <_Min_Stack_Size+0x1828>
    2b24:	38544e49 	ldmdacc	r4, {r0, r3, r6, r9, sl, fp, lr}^
    2b28:	58414d5f 	stmdapl	r1, {r0, r1, r2, r3, r4, r6, r8, sl, fp, lr}^
    2b2c:	30205f5f 	eorcc	r5, r0, pc, asr pc
    2b30:	00666678 	rsbeq	r6, r6, r8, ror r6
    2b34:	695f5f5f 	ldmdbvs	pc, {r0, r1, r2, r3, r4, r6, r8, r9, sl, fp, ip, lr}^	; <UNPREDICTABLE>
    2b38:	3631746e 	ldrtcc	r7, [r1], -lr, ror #8
    2b3c:	645f745f 	ldrbvs	r7, [pc], #-1119	; 2b44 <_Min_Stack_Size+0x2744>
    2b40:	6e696665 	cdpvs	6, 6, cr6, cr9, cr5, {3}
    2b44:	31206465 			; <UNDEFINED> instruction: 0x31206465
    2b48:	45525f00 	ldrbmi	r5, [r2, #-3840]	; 0xfffff100
    2b4c:	20544e45 	subscs	r4, r4, r5, asr #28
    2b50:	706d695f 	rsbvc	r6, sp, pc, asr r9
    2b54:	5f657275 	svcpl	0x00657275
    2b58:	00727470 	rsbseq	r7, r2, r0, ror r4
    2b5c:	444c5f5f 	strbmi	r5, [ip], #-3935	; 0xfffff0a1
    2b60:	4d5f4c42 	ldclmi	12, cr4, [pc, #-264]	; 2a60 <_Min_Stack_Size+0x2660>
    2b64:	455f5841 	ldrbmi	r5, [pc, #-2113]	; 232b <_Min_Stack_Size+0x1f2b>
    2b68:	5f5f5058 	svcpl	0x005f5058
    2b6c:	32303120 	eorscc	r3, r0, #32, 2
    2b70:	58450034 	stmdapl	r5, {r2, r4, r5}^
    2b74:	505f4954 	subspl	r4, pc, r4, asr r9	; <UNPREDICTABLE>
    2b78:	6f436e69 	svcvs	0x00436e69
    2b7c:	6769666e 	strbvs	r6, [r9, -lr, ror #12]!
    2b80:	5f00745f 	svcpl	0x0000745f
    2b84:	7078655f 	rsbsvc	r6, r8, pc, asr r5
    2b88:	6574726f 	ldrbvs	r7, [r4, #-623]!	; 0xfffffd91
    2b8c:	5f5f2064 	svcpl	0x005f2064
    2b90:	72747461 	rsbsvc	r7, r4, #1627389952	; 0x61000000
    2b94:	74756269 	ldrbtvc	r6, [r5], #-617	; 0xfffffd97
    2b98:	285f5f65 	ldmdacs	pc, {r0, r2, r5, r6, r8, r9, sl, fp, ip, lr}^	; <UNPREDICTABLE>
    2b9c:	765f5f28 	ldrbvc	r5, [pc], -r8, lsr #30
    2ba0:	62697369 	rsbvs	r7, r9, #-1543503871	; 0xa4000001
    2ba4:	74696c69 	strbtvc	r6, [r9], #-3177	; 0xfffff397
    2ba8:	285f5f79 	ldmdacs	pc, {r0, r3, r4, r5, r6, r8, r9, sl, fp, ip, lr}^	; <UNPREDICTABLE>
    2bac:	66656422 	strbtvs	r6, [r5], -r2, lsr #8
    2bb0:	746c7561 	strbtvc	r7, [ip], #-1377	; 0xfffffa9f
    2bb4:	29292922 	stmdbcs	r9!, {r1, r5, r8, fp, sp}
    2bb8:	445f5f00 	ldrbmi	r5, [pc], #-3840	; 2bc0 <_Min_Stack_Size+0x27c0>
    2bbc:	485f4c42 	ldmdami	pc, {r1, r6, sl, fp, lr}^	; <UNPREDICTABLE>
    2bc0:	445f5341 	ldrbmi	r5, [pc], #-833	; 2bc8 <_Min_Stack_Size+0x27c8>
    2bc4:	524f4e45 	subpl	r4, pc, #1104	; 0x450
    2bc8:	205f5f4d 	subscs	r5, pc, sp, asr #30
    2bcc:	5f5f0031 	svcpl	0x005f0031
    2bd0:	535f4343 	cmppl	pc, #201326593	; 0xc000001
    2bd4:	4f505055 	svcmi	0x00505055
    2bd8:	5f535452 	svcpl	0x00535452
    2bdc:	4e495f5f 	mcrmi	15, 2, r5, cr9, cr15, {2}
    2be0:	454e494c 	strbmi	r4, [lr, #-2380]	; 0xfffff6b4
    2be4:	5f003120 	svcpl	0x00003120
    2be8:	4c5f424d 	lfmmi	f4, 2, [pc], {77}	; 0x4d
    2bec:	4d5f4e45 	ldclmi	14, cr4, [pc, #-276]	; 2ae0 <_Min_Stack_Size+0x26e0>
    2bf0:	31205841 			; <UNDEFINED> instruction: 0x31205841
    2bf4:	696e5f00 	stmdbvs	lr!, {r8, r9, sl, fp, ip, lr}^
    2bf8:	0073626f 	rsbseq	r6, r3, pc, ror #4
    2bfc:	33544e49 	cmpcc	r4, #1168	; 0x490
    2c00:	414d5f32 	cmpmi	sp, r2, lsr pc
    2c04:	5f282058 	svcpl	0x00282058
    2c08:	544e495f 	strbpl	r4, [lr], #-2399	; 0xfffff6a1
    2c0c:	4d5f3233 	lfmmi	f3, 2, [pc, #-204]	; 2b48 <_Min_Stack_Size+0x2748>
    2c10:	5f5f5841 	svcpl	0x005f5841
    2c14:	564e0029 	strbpl	r0, [lr], -r9, lsr #32
    2c18:	495f4349 	ldmdbmi	pc, {r0, r3, r6, r8, r9, lr}^	; <UNPREDICTABLE>
    2c1c:	5f365152 	svcpl	0x00365152
    2c20:	49545845 	ldmdbmi	r4, {r0, r2, r6, fp, ip, lr}^
    2c24:	5f395f35 	svcpl	0x00395f35
    2c28:	42414e45 	submi	r4, r1, #1104	; 0x450
    2c2c:	2820454c 	stmdacs	r0!, {r2, r3, r6, r8, sl, lr}
    2c30:	4349564e 	movtmi	r5, #38478	; 0x964e
    2c34:	4553495f 	ldrbmi	r4, [r3, #-2399]	; 0xfffff6a1
    2c38:	7c203052 	stcvc	0, cr3, [r0], #-328	; 0xfffffeb8
    2c3c:	3128203d 			; <UNDEFINED> instruction: 0x3128203d
    2c40:	33323c3c 	teqcc	r2, #60, 24	; 0x3c00
    2c44:	5f002929 	svcpl	0x00002929
    2c48:	5858475f 	ldmdapl	r8, {r0, r1, r2, r3, r4, r6, r8, r9, sl, lr}^
    2c4c:	4942415f 	stmdbmi	r2, {r0, r1, r2, r3, r4, r6, r8, lr}^
    2c50:	5245565f 	subpl	r5, r5, #99614720	; 0x5f00000
    2c54:	4e4f4953 			; <UNDEFINED> instruction: 0x4e4f4953
    2c58:	31303120 	teqcc	r0, r0, lsr #2
    2c5c:	5f5f0031 	svcpl	0x005f0031
    2c60:	465f4144 	ldrbmi	r4, [pc], -r4, asr #2
    2c64:	5f544942 	svcpl	0x00544942
    2c68:	3133205f 	teqcc	r3, pc, asr r0
    2c6c:	495f5f00 	ldmdbmi	pc, {r8, r9, sl, fp, ip, lr}^	; <UNPREDICTABLE>
    2c70:	4c5f544e 	cfldrdmi	mvd5, [pc], {78}	; 0x4e
    2c74:	54534145 	ldrbpl	r4, [r3], #-325	; 0xfffffebb
    2c78:	4d5f3631 	ldclmi	6, cr3, [pc, #-196]	; 2bbc <_Min_Stack_Size+0x27bc>
    2c7c:	5f5f5841 	svcpl	0x005f5841
    2c80:	37783020 	ldrbcc	r3, [r8, -r0, lsr #32]!
    2c84:	00666666 	rsbeq	r6, r6, r6, ror #12
    2c88:	4c465f5f 	mcrrmi	15, 5, r5, r6, cr15
    2c8c:	45445f54 	strbmi	r5, [r4, #-3924]	; 0xfffff0ac
    2c90:	4d524f4e 	ldclmi	15, cr4, [r2, #-312]	; 0xfffffec8
    2c94:	4e494d5f 	mcrmi	13, 2, r4, cr9, cr15, {2}
    2c98:	31205f5f 			; <UNDEFINED> instruction: 0x31205f5f
    2c9c:	3130342e 	teqcc	r0, lr, lsr #8
    2ca0:	34383932 	ldrtcc	r3, [r8], #-2354	; 0xfffff6ce
    2ca4:	32333436 	eorscc	r3, r3, #905969664	; 0x36000000
    2ca8:	37313834 			; <UNDEFINED> instruction: 0x37313834
    2cac:	342d6531 	strtcc	r6, [sp], #-1329	; 0xfffffacf
    2cb0:	5f004635 	svcpl	0x00004635
    2cb4:	42444c5f 	submi	r4, r4, #24320	; 0x5f00
    2cb8:	414d5f4c 	cmpmi	sp, ip, asr #30
    2cbc:	205f5f58 	subscs	r5, pc, r8, asr pc	; <UNPREDICTABLE>
    2cc0:	39372e31 	ldmdbcc	r7!, {r0, r4, r5, r9, sl, fp, sp}
    2cc4:	33393637 	teqcc	r9, #57671680	; 0x3700000
    2cc8:	38343331 	ldmdacc	r4!, {r0, r4, r5, r8, r9, ip, sp}
    2ccc:	31333236 	teqcc	r3, r6, lsr r2
    2cd0:	2b653735 	blcs	19509ac <_Min_Stack_Size+0x19505ac>
    2cd4:	4c383033 	ldcmi	0, cr3, [r8], #-204	; 0xffffff34
    2cd8:	4e495500 	cdpmi	5, 4, cr5, cr9, cr0, {0}
    2cdc:	41465f54 	cmpmi	r6, r4, asr pc
    2ce0:	36315453 			; <UNDEFINED> instruction: 0x36315453
    2ce4:	58414d5f 	stmdapl	r1, {r0, r1, r2, r3, r4, r6, r8, sl, fp, lr}^
    2ce8:	5f5f2820 	svcpl	0x005f2820
    2cec:	544e4955 	strbpl	r4, [lr], #-2389	; 0xfffff6ab
    2cf0:	5341465f 	movtpl	r4, #5727	; 0x165f
    2cf4:	5f363154 	svcpl	0x00363154
    2cf8:	5f58414d 	svcpl	0x0058414d
    2cfc:	5f00295f 	svcpl	0x0000295f
    2d00:	655f6e6f 	ldrbvs	r6, [pc, #-3695]	; 1e99 <_Min_Stack_Size+0x1a99>
    2d04:	5f746978 	svcpl	0x00746978
    2d08:	73677261 	cmnvc	r7, #268435462	; 0x10000006
    2d0c:	7274705f 	rsbsvc	r7, r4, #95	; 0x5f
    2d10:	4e455f00 	cdpmi	15, 4, cr5, cr5, cr0, {0}
    2d14:	54535f44 	ldrbpl	r5, [r3], #-3908	; 0xfffff0bc
    2d18:	20435f44 	subcs	r5, r3, r4, asr #30
    2d1c:	545f5f00 	ldrbpl	r5, [pc], #-3840	; 2d24 <_Min_Stack_Size+0x2924>
    2d20:	574f5248 	strbpl	r5, [pc, -r8, asr #4]
    2d24:	5f5f0020 	svcpl	0x005f0020
    2d28:	5f736168 	svcpl	0x00736168
    2d2c:	6c636e69 	stclvs	14, cr6, [r3], #-420	; 0xfffffe5c
    2d30:	5f656475 	svcpl	0x00656475
    2d34:	7478656e 	ldrbtvc	r6, [r8], #-1390	; 0xfffffa92
    2d38:	52545328 	subspl	r5, r4, #40, 6	; 0xa0000000
    2d3c:	5f5f2029 	svcpl	0x005f2029
    2d40:	5f736168 	svcpl	0x00736168
    2d44:	6c636e69 	stclvs	14, cr6, [r3], #-420	; 0xfffffe5c
    2d48:	5f656475 	svcpl	0x00656475
    2d4c:	7478656e 	ldrbtvc	r6, [r8], #-1390	; 0xfffffa92
    2d50:	53285f5f 			; <UNDEFINED> instruction: 0x53285f5f
    2d54:	00295254 	eoreq	r5, r9, r4, asr r2
    2d58:	544e4955 	strbpl	r4, [lr], #-2389	; 0xfffff6ab
    2d5c:	41454c5f 	cmpmi	r5, pc, asr ip
    2d60:	36315453 			; <UNDEFINED> instruction: 0x36315453
    2d64:	58414d5f 	stmdapl	r1, {r0, r1, r2, r3, r4, r6, r8, sl, fp, lr}^
    2d68:	5f5f2820 	svcpl	0x005f2820
    2d6c:	544e4955 	strbpl	r4, [lr], #-2389	; 0xfffff6ab
    2d70:	41454c5f 	cmpmi	r5, pc, asr ip
    2d74:	36315453 			; <UNDEFINED> instruction: 0x36315453
    2d78:	58414d5f 	stmdapl	r1, {r0, r1, r2, r3, r4, r6, r8, sl, fp, lr}^
    2d7c:	00295f5f 	eoreq	r5, r9, pc, asr pc
    2d80:	49555f5f 	ldmdbmi	r5, {r0, r1, r2, r3, r4, r6, r8, r9, sl, fp, ip, lr}^
    2d84:	3233544e 	eorscc	r5, r3, #1308622848	; 0x4e000000
    2d88:	6328435f 			; <UNDEFINED> instruction: 0x6328435f
    2d8c:	20632029 	rsbcs	r2, r3, r9, lsr #32
    2d90:	55202323 	strpl	r2, [r0, #-803]!	; 0xfffffcdd
    2d94:	5845004c 	stmdapl	r5, {r2, r3, r6}^
    2d98:	50364954 	eorspl	r4, r6, r4, asr r9
    2d9c:	28203641 	stmdacs	r0!, {r0, r6, r9, sl, ip, sp}
    2da0:	49545845 	ldmdbmi	r4, {r0, r2, r6, fp, ip, lr}^
    2da4:	4950475f 	ldmdbmi	r0, {r0, r1, r2, r3, r4, r6, r8, r9, sl, lr}^
    2da8:	614d5f4f 	cmpvs	sp, pc, asr #30
    2dac:	6e697070 	mcrvs	0, 3, r7, cr9, cr0, {3}
    2db0:	29745f67 	ldmdbcs	r4!, {r0, r1, r2, r5, r6, r8, r9, sl, fp, ip, lr}^
    2db4:	5458457b 	ldrbpl	r4, [r8], #-1403	; 0xfffffa85
    2db8:	202c3649 	eorcs	r3, ip, r9, asr #12
    2dbc:	4f495047 	svcmi	0x00495047
    2dc0:	47202c41 	strmi	r2, [r0, -r1, asr #24]!
    2dc4:	5f4f4950 	svcpl	0x004f4950
    2dc8:	5f4e4950 	svcpl	0x004e4950
    2dcc:	45202c36 	strmi	r2, [r0, #-3126]!	; 0xfffff3ca
    2dd0:	36495458 			; <UNDEFINED> instruction: 0x36495458
    2dd4:	5152495f 	cmppl	r2, pc, asr r9
    2dd8:	5f007d20 	svcpl	0x00007d20
    2ddc:	4341555f 	movtmi	r5, #5471	; 0x155f
    2de0:	5f4d5543 	svcpl	0x004d5543
    2de4:	5f4e494d 	svcpl	0x004e494d
    2de8:	2e30205f 	mrccs	0, 1, r2, cr0, cr15, {2}
    2dec:	004b5530 	subeq	r5, fp, r0, lsr r5
    2df0:	4545525f 	strbmi	r5, [r5, #-607]	; 0xfffffda1
    2df4:	4d5f544e 	cfldrdmi	mvd5, [pc, #-312]	; 2cc4 <_Min_Stack_Size+0x28c4>
    2df8:	574f5442 	strbpl	r5, [pc, -r2, asr #8]
    2dfc:	54535f43 	ldrbpl	r5, [r3], #-3907	; 0xfffff0bd
    2e00:	28455441 	stmdacs	r5, {r0, r6, sl, ip, lr}^
    2e04:	29727470 	ldmdbcs	r2!, {r4, r5, r6, sl, ip, sp, lr}^
    2e08:	70282820 	eorvc	r2, r8, r0, lsr #16
    2e0c:	2d297274 	sfmcs	f7, 4, [r9, #-464]!	; 0xfffffe30
    2e10:	696d5f3e 	stmdbvs	sp!, {r1, r2, r3, r4, r5, r8, r9, sl, fp, ip, lr}^
    2e14:	3e2d6373 	mcrcc	3, 1, r6, cr13, cr3, {3}
    2e18:	74626d5f 	strbtvc	r6, [r2], #-3423	; 0xfffff2a1
    2e1c:	5f63776f 	svcpl	0x0063776f
    2e20:	74617473 	strbtvc	r7, [r1], #-1139	; 0xfffffb8d
    2e24:	5f002965 	svcpl	0x00002965
    2e28:	6c6c754e 	cfstr64vs	mvdx7, [ip], #-312	; 0xfffffec8
    2e2c:	736e755f 	cmnvc	lr, #398458880	; 0x17c00000
    2e30:	69636570 	stmdbvs	r3!, {r4, r5, r6, r8, sl, sp, lr}^
    2e34:	64656966 	strbtvs	r6, [r5], #-2406	; 0xfffff69a
    2e38:	5f5f0020 	svcpl	0x005f0020
    2e3c:	5f544c46 	svcpl	0x00544c46
    2e40:	49535045 	ldmdbmi	r3, {r0, r2, r6, ip, lr}^
    2e44:	5f4e4f4c 	svcpl	0x004e4f4c
    2e48:	2e31205f 	mrccs	0, 1, r2, cr1, cr15, {2}
    2e4c:	30323931 	eorscc	r3, r2, r1, lsr r9
    2e50:	39383239 	ldmdbcc	r8!, {r0, r3, r4, r5, r9, ip, sp}
    2e54:	37303535 			; <UNDEFINED> instruction: 0x37303535
    2e58:	35323138 	ldrcc	r3, [r2, #-312]!	; 0xfffffec8
    2e5c:	46372d65 	ldrtmi	r2, [r7], -r5, ror #26
    2e60:	49564e00 	ldmdbmi	r6, {r9, sl, fp, lr}^
    2e64:	43495f43 	movtmi	r5, #40771	; 0x9f43
    2e68:	20305245 	eorscs	r5, r0, r5, asr #4
    2e6c:	6f76282a 	svcvs	0x0076282a
    2e70:	6974616c 	ldmdbvs	r4!, {r2, r3, r5, r6, r8, sp, lr}^
    2e74:	7520656c 	strvc	r6, [r0, #-1388]!	; 0xfffffa94
    2e78:	33746e69 	cmncc	r4, #1680	; 0x690
    2e7c:	20745f32 	rsbscs	r5, r4, r2, lsr pc
    2e80:	4e28292a 	vmulmi.f16	s4, s16, s21	; <UNPREDICTABLE>
    2e84:	5f434956 	svcpl	0x00434956
    2e88:	45534142 	ldrbmi	r4, [r3, #-322]	; 0xfffffebe
    2e8c:	30202b20 	eorcc	r2, r0, r0, lsr #22
    2e90:	30383078 	eorscc	r3, r8, r8, ror r0
    2e94:	5f5f0029 	svcpl	0x005f0029
    2e98:	52545358 	subspl	r5, r4, #88, 6	; 0x60000001
    2e9c:	28474e49 	stmdacs	r7, {r0, r3, r6, r9, sl, fp, lr}^
    2ea0:	5f202978 	svcpl	0x00202978
    2ea4:	5254535f 	subspl	r5, r4, #2080374785	; 0x7c000001
    2ea8:	28474e49 	stmdacs	r7, {r0, r3, r6, r9, sl, fp, lr}^
    2eac:	5f002978 	svcpl	0x00002978
    2eb0:	7474615f 	ldrbtvc	r6, [r4], #-351	; 0xfffffea1
    2eb4:	75626972 	strbvc	r6, [r2, #-2418]!	; 0xfffff68e
    2eb8:	705f6574 	subsvc	r6, pc, r4, ror r5	; <UNPREDICTABLE>
    2ebc:	5f657275 	svcpl	0x00657275
    2ec0:	5f00205f 	svcpl	0x0000205f
    2ec4:	4343475f 	movtmi	r4, #14175	; 0x375f
    2ec8:	4f54415f 	svcmi	0x0054415f
    2ecc:	5f43494d 	svcpl	0x0043494d
    2ed0:	524f4853 	subpl	r4, pc, #5439488	; 0x530000
    2ed4:	4f4c5f54 	svcmi	0x004c5f54
    2ed8:	465f4b43 	ldrbmi	r4, [pc], -r3, asr #22
    2edc:	20454552 	subcs	r4, r5, r2, asr r5
    2ee0:	58450032 	stmdapl	r5, {r1, r4, r5}^
    2ee4:	50384954 	eorspl	r4, r8, r4, asr r9
    2ee8:	28203843 	stmdacs	r0!, {r0, r1, r6, fp, ip, sp}
    2eec:	49545845 	ldmdbmi	r4, {r0, r2, r6, fp, ip, lr}^
    2ef0:	4950475f 	ldmdbmi	r0, {r0, r1, r2, r3, r4, r6, r8, r9, sl, lr}^
    2ef4:	614d5f4f 	cmpvs	sp, pc, asr #30
    2ef8:	6e697070 	mcrvs	0, 3, r7, cr9, cr0, {3}
    2efc:	29745f67 	ldmdbcs	r4!, {r0, r1, r2, r5, r6, r8, r9, sl, fp, ip, lr}^
    2f00:	5458457b 	ldrbpl	r4, [r8], #-1403	; 0xfffffa85
    2f04:	202c3849 	eorcs	r3, ip, r9, asr #16
    2f08:	4f495047 	svcmi	0x00495047
    2f0c:	47202c43 	strmi	r2, [r0, -r3, asr #24]!
    2f10:	5f4f4950 	svcpl	0x004f4950
    2f14:	5f4e4950 	svcpl	0x004e4950
    2f18:	45202c38 	strmi	r2, [r0, #-3128]!	; 0xfffff3c8
    2f1c:	38495458 	stmdacc	r9, {r3, r4, r6, sl, ip, lr}^
    2f20:	5152495f 	cmppl	r2, pc, asr r9
    2f24:	5f007d20 	svcpl	0x00007d20
    2f28:	5254505f 	subspl	r5, r4, #95	; 0x5f
    2f2c:	46464944 	strbmi	r4, [r6], -r4, asr #18
    2f30:	5059545f 	subspl	r5, r9, pc, asr r4
    2f34:	205f5f45 	subscs	r5, pc, r5, asr #30
    2f38:	00746e69 	rsbseq	r6, r4, r9, ror #28
    2f3c:	49545845 	ldmdbmi	r4, {r0, r2, r6, fp, ip, lr}^
    2f40:	44503431 	ldrbmi	r3, [r0], #-1073	; 0xfffffbcf
    2f44:	28203431 	stmdacs	r0!, {r0, r4, r5, sl, ip, sp}
    2f48:	49545845 	ldmdbmi	r4, {r0, r2, r6, fp, ip, lr}^
    2f4c:	4950475f 	ldmdbmi	r0, {r0, r1, r2, r3, r4, r6, r8, r9, sl, lr}^
    2f50:	614d5f4f 	cmpvs	sp, pc, asr #30
    2f54:	6e697070 	mcrvs	0, 3, r7, cr9, cr0, {3}
    2f58:	29745f67 	ldmdbcs	r4!, {r0, r1, r2, r5, r6, r8, r9, sl, fp, ip, lr}^
    2f5c:	5458457b 	ldrbpl	r4, [r8], #-1403	; 0xfffffa85
    2f60:	2c343149 	ldfcss	f3, [r4], #-292	; 0xfffffedc
    2f64:	49504720 	ldmdbmi	r0, {r5, r8, r9, sl, lr}^
    2f68:	202c444f 	eorcs	r4, ip, pc, asr #8
    2f6c:	4f495047 	svcmi	0x00495047
    2f70:	4e49505f 	mcrmi	0, 2, r5, cr9, cr15, {2}
    2f74:	2c34315f 	ldfcss	f3, [r4], #-380	; 0xfffffe84
    2f78:	54584520 	ldrbpl	r4, [r8], #-1312	; 0xfffffae0
    2f7c:	5f343149 	svcpl	0x00343149
    2f80:	20515249 	subscs	r5, r1, r9, asr #4
    2f84:	5249007d 	subpl	r0, r9, #125	; 0x7d
    2f88:	6c465f51 	mcrrvs	15, 5, r5, r6, cr1
    2f8c:	5f006761 	svcpl	0x00006761
    2f90:	554e475f 	strbpl	r4, [lr, #-1887]	; 0xfffff8a1
    2f94:	4b494c43 	blmi	12560a8 <_Min_Stack_Size+0x1255ca8>
    2f98:	55425f45 	strbpl	r5, [r2, #-3909]	; 0xfffff0bb
    2f9c:	49544c49 	ldmdbmi	r4, {r0, r3, r6, sl, fp, lr}^
    2fa0:	41565f4e 	cmpmi	r6, lr, asr #30
    2fa4:	47524152 			; <UNDEFINED> instruction: 0x47524152
    2fa8:	00312053 	eorseq	r2, r1, r3, asr r0
    2fac:	41555f5f 	cmpmi	r5, pc, asr pc
    2fb0:	4d554343 	ldclmi	3, cr4, [r5, #-268]	; 0xfffffef4
    2fb4:	5350455f 	cmppl	r0, #398458880	; 0x17c00000
    2fb8:	4e4f4c49 	cdpmi	12, 4, cr4, cr15, cr9, {2}
    2fbc:	30205f5f 	eorcc	r5, r0, pc, asr pc
    2fc0:	2d503178 	ldfcse	f3, [r0, #-480]	; 0xfffffe20
    2fc4:	4b553631 	blmi	1550890 <_Min_Stack_Size+0x1550490>
    2fc8:	555f5f00 	ldrbpl	r5, [pc, #-3840]	; 20d0 <_Min_Stack_Size+0x1cd0>
    2fcc:	38544e49 	ldmdacc	r4, {r0, r3, r6, r9, sl, fp, lr}^
    2fd0:	5059545f 	subspl	r5, r9, pc, asr r4
    2fd4:	205f5f45 	subscs	r5, pc, r5, asr #30
    2fd8:	69736e75 	ldmdbvs	r3!, {r0, r2, r4, r5, r6, r9, sl, fp, sp, lr}^
    2fdc:	64656e67 	strbtvs	r6, [r5], #-3687	; 0xfffff199
    2fe0:	61686320 	cmnvs	r8, r0, lsr #6
    2fe4:	4e490072 	mcrmi	0, 2, r0, cr9, cr2, {3}
    2fe8:	454c5f54 	strbmi	r5, [ip, #-3924]	; 0xfffff0ac
    2fec:	33545341 	cmpcc	r4, #67108865	; 0x4000001
    2ff0:	494d5f32 	stmdbmi	sp, {r1, r4, r5, r8, r9, sl, fp, ip, lr}^
    2ff4:	2d28204e 	stccs	0, cr2, [r8, #-312]!	; 0xfffffec8
    2ff8:	4e495f5f 	mcrmi	15, 2, r5, cr9, cr15, {2}
    2ffc:	454c5f54 	strbmi	r5, [ip, #-3924]	; 0xfffff0ac
    3000:	33545341 	cmpcc	r4, #67108865	; 0x4000001
    3004:	414d5f32 	cmpmi	sp, r2, lsr pc
    3008:	205f5f58 	subscs	r5, pc, r8, asr pc	; <UNPREDICTABLE>
    300c:	2931202d 	ldmdbcs	r1!, {r0, r2, r3, r5, sp}
    3010:	2f2e2e00 	svccs	0x002e2e00
    3014:	2f637253 	svccs	0x00637253
    3018:	6e69616d 	powvsez	f6, f1, #5.0
    301c:	5200632e 	andpl	r6, r0, #-1207959552	; 0xb8000000
    3020:	425f4343 	subsmi	r4, pc, #201326593	; 0xc000001
    3024:	20455341 	subcs	r5, r5, r1, asr #6
    3028:	30347830 	eorscc	r7, r4, r0, lsr r8
    302c:	30313230 	eorscc	r3, r1, r0, lsr r2
    3030:	4c553030 	mrrcmi	0, 3, r3, r5, cr0
    3034:	465f5f00 	ldrbmi	r5, [pc], -r0, lsl #30
    3038:	49445342 	stmdbmi	r4, {r1, r6, r8, r9, ip, lr}^
    303c:	29732844 	ldmdbcs	r3!, {r2, r6, fp, sp}^
    3040:	72747320 	rsbsvc	r7, r4, #32, 6	; 0x80000000
    3044:	20746375 	rsbscs	r6, r4, r5, ror r3
    3048:	61685f5f 	cmnvs	r8, pc, asr pc
    304c:	5f006b63 	svcpl	0x00006b63
    3050:	4153555f 	cmpmi	r3, pc, asr r5
    3054:	4d554343 	ldclmi	3, cr4, [r5, #-268]	; 0xfffffef4
    3058:	4942465f 	stmdbmi	r2, {r0, r1, r2, r3, r4, r6, r9, sl, lr}^
    305c:	205f5f54 	subscs	r5, pc, r4, asr pc	; <UNPREDICTABLE>
    3060:	455f0038 	ldrbmi	r0, [pc, #-56]	; 3030 <_Min_Stack_Size+0x2c30>
    3064:	4144494c 	cmpmi	r4, ip, asr #18
    3068:	5f454c42 	svcpl	0x00454c42
    306c:	494c4e49 	stmdbmi	ip, {r0, r3, r6, r9, sl, fp, lr}^
    3070:	7320454e 			; <UNDEFINED> instruction: 0x7320454e
    3074:	69746174 	ldmdbvs	r4!, {r2, r4, r5, r6, r8, sp, lr}^
    3078:	5f5f2063 	svcpl	0x005f2063
    307c:	696c6e69 	stmdbvs	ip!, {r0, r3, r5, r6, r9, sl, fp, sp, lr}^
    3080:	5f5f656e 	svcpl	0x005f656e
    3084:	49564e00 	ldmdbmi	r6, {r9, sl, fp, lr}^
    3088:	52495f43 	subpl	r5, r9, #268	; 0x10c
    308c:	455f3651 	ldrbmi	r3, [pc, #-1617]	; 2a43 <_Min_Stack_Size+0x2643>
    3090:	31495458 	cmpcc	r9, r8, asr r4
    3094:	35315f30 	ldrcc	r5, [r1, #-3888]!	; 0xfffff0d0
    3098:	5349445f 	movtpl	r4, #37983	; 0x945f
    309c:	454c4241 	strbmi	r4, [ip, #-577]	; 0xfffffdbf
    30a0:	564e2820 	strbpl	r2, [lr], -r0, lsr #16
    30a4:	495f4349 	ldmdbmi	pc, {r0, r3, r6, r8, r9, lr}^	; <UNPREDICTABLE>
    30a8:	31524543 	cmpcc	r2, r3, asr #10
    30ac:	203d7c20 	eorscs	r7, sp, r0, lsr #24
    30b0:	3c3c3128 	ldfccs	f3, [ip], #-160	; 0xffffff60
    30b4:	00292938 	eoreq	r2, r9, r8, lsr r9
    30b8:	494d5f5f 	stmdbmi	sp, {r0, r1, r2, r3, r4, r6, r8, r9, sl, fp, ip, lr}^
    30bc:	565f4353 			; <UNDEFINED> instruction: 0x565f4353
    30c0:	42495349 	submi	r5, r9, #603979777	; 0x24000001
    30c4:	3120454c 			; <UNDEFINED> instruction: 0x3120454c
    30c8:	54584500 	ldrbpl	r4, [r8], #-1280	; 0xfffffb00
    30cc:	50333149 	eorspl	r3, r3, r9, asr #2
    30d0:	20333143 	eorscs	r3, r3, r3, asr #2
    30d4:	54584528 	ldrbpl	r4, [r8], #-1320	; 0xfffffad8
    30d8:	50475f49 	subpl	r5, r7, r9, asr #30
    30dc:	4d5f4f49 	ldclmi	15, cr4, [pc, #-292]	; 2fc0 <_Min_Stack_Size+0x2bc0>
    30e0:	69707061 	ldmdbvs	r0!, {r0, r5, r6, ip, sp, lr}^
    30e4:	745f676e 	ldrbvc	r6, [pc], #-1902	; 30ec <_Min_Stack_Size+0x2cec>
    30e8:	58457b29 	stmdapl	r5, {r0, r3, r5, r8, r9, fp, ip, sp, lr}^
    30ec:	33314954 	teqcc	r1, #84, 18	; 0x150000
    30f0:	5047202c 	subpl	r2, r7, ip, lsr #32
    30f4:	2c434f49 	mcrrcs	15, 4, r4, r3, cr9
    30f8:	49504720 	ldmdbmi	r0, {r5, r8, r9, sl, lr}^
    30fc:	49505f4f 	ldmdbmi	r0, {r0, r1, r2, r3, r6, r8, r9, sl, fp, ip, lr}^
    3100:	33315f4e 	teqcc	r1, #312	; 0x138
    3104:	5845202c 	stmdapl	r5, {r2, r3, r5, sp}^
    3108:	33314954 	teqcc	r1, #84, 18	; 0x150000
    310c:	5152495f 	cmppl	r2, pc, asr r9
    3110:	42007d20 	andmi	r7, r0, #32, 26	; 0x800
    3114:	00524344 	subseq	r4, r2, r4, asr #6
    3118:	67697254 			; <UNDEFINED> instruction: 0x67697254
    311c:	5f726567 	svcpl	0x00726567
    3120:	65736143 	ldrbvs	r6, [r3, #-323]!	; 0xfffffebd
    3124:	54584500 	ldrbpl	r4, [r8], #-1280	; 0xfffffb00
    3128:	50313149 	eorspl	r3, r1, r9, asr #2
    312c:	20313141 	eorscs	r3, r1, r1, asr #2
    3130:	54584528 	ldrbpl	r4, [r8], #-1320	; 0xfffffad8
    3134:	50475f49 	subpl	r5, r7, r9, asr #30
    3138:	4d5f4f49 	ldclmi	15, cr4, [pc, #-292]	; 301c <_Min_Stack_Size+0x2c1c>
    313c:	69707061 	ldmdbvs	r0!, {r0, r5, r6, ip, sp, lr}^
    3140:	745f676e 	ldrbvc	r6, [pc], #-1902	; 3148 <_Min_Stack_Size+0x2d48>
    3144:	58457b29 	stmdapl	r5, {r0, r3, r5, r8, r9, fp, ip, sp, lr}^
    3148:	31314954 	teqcc	r1, r4, asr r9
    314c:	5047202c 	subpl	r2, r7, ip, lsr #32
    3150:	2c414f49 	mcrrcs	15, 4, r4, r1, cr9
    3154:	49504720 	ldmdbmi	r0, {r5, r8, r9, sl, lr}^
    3158:	49505f4f 	ldmdbmi	r0, {r0, r1, r2, r3, r6, r8, r9, sl, fp, ip, lr}^
    315c:	31315f4e 	teqcc	r1, lr, asr #30
    3160:	5845202c 	stmdapl	r5, {r2, r3, r5, sp}^
    3164:	31314954 	teqcc	r1, r4, asr r9
    3168:	5152495f 	cmppl	r2, pc, asr r9
    316c:	5f007d20 	svcpl	0x00007d20
    3170:	544c465f 	strbpl	r4, [ip], #-1631	; 0xfffff9a1
    3174:	485f3233 	ldmdami	pc, {r0, r1, r4, r5, r9, ip, sp}^	; <UNPREDICTABLE>
    3178:	515f5341 	cmppl	pc, r1, asr #6
    317c:	54454955 	strbpl	r4, [r5], #-2389	; 0xfffff6ab
    3180:	4e414e5f 	mcrmi	14, 2, r4, cr1, cr15, {2}
    3184:	31205f5f 			; <UNDEFINED> instruction: 0x31205f5f
    3188:	4f5f5f00 	svcmi	0x005f5f00
    318c:	4c4f5342 	mcrrmi	3, 4, r5, pc, cr2
    3190:	5f455445 	svcpl	0x00455445
    3194:	4854414d 	ldmdami	r4, {r0, r2, r3, r6, r8, lr}^
    3198:	4f5f5f20 	svcmi	0x005f5f20
    319c:	4c4f5342 	mcrrmi	3, 4, r5, pc, cr2
    31a0:	5f455445 	svcpl	0x00455445
    31a4:	4854414d 	ldmdami	r4, {r0, r2, r3, r6, r8, lr}^
    31a8:	4645445f 			; <UNDEFINED> instruction: 0x4645445f
    31ac:	544c5541 	strbpl	r5, [ip], #-1345	; 0xfffffabf
    31b0:	49504700 	ldmdbmi	r0, {r8, r9, sl, lr}^
    31b4:	4f4d5f4f 	svcmi	0x004d5f4f
    31b8:	495f4544 	ldmdbmi	pc, {r2, r6, r8, sl, lr}^	; <UNPREDICTABLE>
    31bc:	5455504e 	ldrbpl	r5, [r5], #-78	; 0xffffffb2
    31c0:	2055505f 	subscs	r5, r5, pc, asr r0
    31c4:	30307830 	eorscc	r7, r0, r0, lsr r8
    31c8:	30303030 	eorscc	r3, r0, r0, lsr r0
    31cc:	00753230 	rsbseq	r3, r5, r0, lsr r2
    31d0:	444c5f5f 	strbmi	r5, [ip], #-3935	; 0xfffff0a1
    31d4:	485f4c42 	ldmdami	pc, {r1, r6, sl, fp, lr}^	; <UNPREDICTABLE>
    31d8:	495f5341 	ldmdbmi	pc, {r0, r6, r8, r9, ip, lr}^	; <UNPREDICTABLE>
    31dc:	4e49464e 	cdpmi	6, 4, cr4, cr9, cr14, {2}
    31e0:	5f595449 	svcpl	0x00595449
    31e4:	0031205f 	eorseq	r2, r1, pc, asr r0
    31e8:	544e4955 	strbpl	r4, [lr], #-2389	; 0xfffff6ab
    31ec:	5341465f 	movtpl	r4, #5727	; 0x165f
    31f0:	5f343654 	svcpl	0x00343654
    31f4:	2058414d 	subscs	r4, r8, sp, asr #2
    31f8:	555f5f28 	ldrbpl	r5, [pc, #-3880]	; 22d8 <_Min_Stack_Size+0x1ed8>
    31fc:	5f544e49 	svcpl	0x00544e49
    3200:	54534146 	ldrbpl	r4, [r3], #-326	; 0xfffffeba
    3204:	4d5f3436 	cfldrdmi	mvd3, [pc, #-216]	; 3134 <_Min_Stack_Size+0x2d34>
    3208:	5f5f5841 	svcpl	0x005f5841
    320c:	5f5f0029 	svcpl	0x005f0029
    3210:	33434544 	movtcc	r4, #13636	; 0x3544
    3214:	414d5f32 	cmpmi	sp, r2, lsr pc
    3218:	205f5f58 	subscs	r5, pc, r8, asr pc	; <UNPREDICTABLE>
    321c:	39392e39 	ldmdbcc	r9!, {r0, r3, r4, r5, r9, sl, fp, sp}
    3220:	39393939 	ldmdbcc	r9!, {r0, r3, r4, r5, r8, fp, ip, sp}
    3224:	44363945 	ldrtmi	r3, [r6], #-2373	; 0xfffff6bb
    3228:	58450046 	stmdapl	r5, {r1, r2, r6}^
    322c:	20304954 	eorscs	r4, r0, r4, asr r9
    3230:	58450030 	stmdapl	r5, {r4, r5}^
    3234:	5f334954 	svcpl	0x00334954
    3238:	20515249 	subscs	r5, r1, r9, asr #4
    323c:	5f5f0039 	svcpl	0x005f0039
    3240:	33544c46 	cmpcc	r4, #17920	; 0x4600
    3244:	4d5f5832 	ldclmi	8, cr5, [pc, #-200]	; 3184 <_Min_Stack_Size+0x2d84>
    3248:	315f5841 	cmpcc	pc, r1, asr #16
    324c:	58455f30 	stmdapl	r5, {r4, r5, r8, r9, sl, fp, ip, lr}^
    3250:	205f5f50 	subscs	r5, pc, r0, asr pc	; <UNPREDICTABLE>
    3254:	00383033 	eorseq	r3, r8, r3, lsr r0
    3258:	52415f5f 	subpl	r5, r1, #380	; 0x17c
    325c:	52415f4d 	subpl	r5, r1, #308	; 0x134
    3260:	455f4843 	ldrbmi	r4, [pc, #-2115]	; 2a25 <_Min_Stack_Size+0x2625>
    3264:	495f5458 	ldmdbmi	pc, {r3, r4, r6, sl, ip, lr}^	; <UNPREDICTABLE>
    3268:	5f564944 	svcpl	0x00564944
    326c:	0031205f 	eorseq	r2, r1, pc, asr r0
    3270:	52415f5f 	subpl	r5, r1, #380	; 0x17c
    3274:	43505f4d 	cmpmi	r0, #308	; 0x134
    3278:	00312053 	eorseq	r2, r1, r3, asr r0
    327c:	75705f5f 	ldrbvc	r5, [r0, #-3935]!	; 0xfffff0a1
    3280:	5f206572 	svcpl	0x00206572
    3284:	7474615f 	ldrbtvc	r6, [r4], #-351	; 0xfffffea1
    3288:	75626972 	strbvc	r6, [r2, #-2418]!	; 0xfffff68e
    328c:	5f5f6574 	svcpl	0x005f6574
    3290:	5f5f2828 	svcpl	0x005f2828
    3294:	65727570 	ldrbvs	r7, [r2, #-1392]!	; 0xfffffa90
    3298:	29295f5f 	stmdbcs	r9!, {r0, r1, r2, r3, r4, r6, r8, r9, sl, fp, ip, lr}
    329c:	555f5f00 	ldrbpl	r5, [pc, #-3840]	; 23a4 <_Min_Stack_Size+0x1fa4>
    32a0:	495f5151 	ldmdbmi	pc, {r0, r4, r6, r8, ip, lr}^	; <UNPREDICTABLE>
    32a4:	5f544942 	svcpl	0x00544942
    32a8:	0030205f 	eorseq	r2, r0, pc, asr r0
    32ac:	49535f5f 	ldmdbmi	r3, {r0, r1, r2, r3, r4, r6, r8, r9, sl, fp, ip, lr}^
    32b0:	54415f47 	strbpl	r5, [r1], #-3911	; 0xfffff0b9
    32b4:	43494d4f 	movtmi	r4, #40271	; 0x9d4f
    32b8:	4e494d5f 	mcrmi	13, 2, r4, cr9, cr15, {2}
    32bc:	28205f5f 	stmdacs	r0!, {r0, r1, r2, r3, r4, r6, r8, r9, sl, fp, ip, lr}
    32c0:	535f5f2d 	cmppl	pc, #45, 30	; 0xb4
    32c4:	415f4749 	cmpmi	pc, r9, asr #14
    32c8:	494d4f54 	stmdbmi	sp, {r2, r4, r6, r8, r9, sl, fp, lr}^
    32cc:	414d5f43 	cmpmi	sp, r3, asr #30
    32d0:	205f5f58 	subscs	r5, pc, r8, asr pc	; <UNPREDICTABLE>
    32d4:	2931202d 	ldmdbcs	r1!, {r0, r2, r3, r5, sp}
    32d8:	54584500 	ldrbpl	r4, [r8], #-1280	; 0xfffffb00
    32dc:	35203549 	strcc	r3, [r0, #-1353]!	; 0xfffffab7
    32e0:	555f5f00 	ldrbpl	r5, [pc, #-3840]	; 23e8 <_Min_Stack_Size+0x1fe8>
    32e4:	5f544e49 	svcpl	0x00544e49
    32e8:	5341454c 	movtpl	r4, #5452	; 0x154c
    32ec:	4d5f3854 	ldclmi	8, cr3, [pc, #-336]	; 31a4 <_Min_Stack_Size+0x2da4>
    32f0:	5f5f5841 	svcpl	0x005f5841
    32f4:	66783020 	ldrbtvs	r3, [r8], -r0, lsr #32
    32f8:	425f0066 	subsmi	r0, pc, #102	; 0x66
    32fc:	575f4453 			; <UNDEFINED> instruction: 0x575f4453
    3300:	52414843 	subpl	r4, r1, #4390912	; 0x430000
    3304:	205f545f 	subscs	r5, pc, pc, asr r4	; <UNPREDICTABLE>
    3308:	49564e00 	ldmdbmi	r6, {r9, sl, fp, lr}^
    330c:	52495f43 	subpl	r5, r9, #268	; 0x10c
    3310:	455f3651 	ldrbmi	r3, [pc, #-1617]	; 2cc7 <_Min_Stack_Size+0x28c7>
    3314:	31495458 	cmpcc	r9, r8, asr r4
    3318:	35315f30 	ldrcc	r5, [r1, #-3888]!	; 0xfffff0d0
    331c:	414e455f 	cmpmi	lr, pc, asr r5
    3320:	20454c42 	subcs	r4, r5, r2, asr #24
    3324:	49564e28 	ldmdbmi	r6, {r3, r5, r9, sl, fp, lr}^
    3328:	53495f43 	movtpl	r5, #40771	; 0x9f43
    332c:	20315245 	eorscs	r5, r1, r5, asr #4
    3330:	28203d7c 	stmdacs	r0!, {r2, r3, r4, r5, r6, r8, sl, fp, ip, sp}
    3334:	383c3c31 	ldmdacc	ip!, {r0, r4, r5, sl, fp, ip, sp}
    3338:	5f002929 	svcpl	0x00002929
    333c:	4e454552 	mcrmi	5, 2, r4, cr5, cr2, {2}
    3340:	504d5f54 	subpl	r5, sp, r4, asr pc
    3344:	5335505f 	teqpl	r5, #95	; 0x5f
    3348:	72747028 	rsbsvc	r7, r4, #40	; 0x28
    334c:	28282029 	stmdacs	r8!, {r0, r3, r5, sp}
    3350:	29727470 	ldmdbcs	r2!, {r4, r5, r6, sl, ip, sp, lr}^
    3354:	6d5f3e2d 	ldclvs	14, cr3, [pc, #-180]	; 32a8 <_Min_Stack_Size+0x2ea8>
    3358:	5f3e2d70 	svcpl	0x003e2d70
    335c:	29733570 	ldmdbcs	r3!, {r4, r5, r6, r8, sl, ip, sp}^
    3360:	47495300 	strbmi	r5, [r9, -r0, lsl #6]
    3364:	4f54415f 	svcmi	0x0054415f
    3368:	5f43494d 	svcpl	0x0043494d
    336c:	204e494d 	subcs	r4, lr, sp, asr #18
    3370:	5f5f2d28 	svcpl	0x005f2d28
    3374:	49445453 	stmdbmi	r4, {r0, r1, r4, r6, sl, ip, lr}^
    3378:	455f544e 	ldrbmi	r5, [pc, #-1102]	; 2f32 <_Min_Stack_Size+0x2b32>
    337c:	49285058 	stmdbmi	r8!, {r3, r4, r6, ip, lr}
    3380:	4d5f544e 	cfldrdmi	mvd5, [pc, #-312]	; 3250 <_Min_Stack_Size+0x2e50>
    3384:	20295841 	eorcs	r5, r9, r1, asr #16
    3388:	2931202d 	ldmdbcs	r1!, {r0, r2, r3, r5, sp}
    338c:	6f635f00 	svcvs	0x00635f00
    3390:	65696b6f 	strbvs	r6, [r9, #-2927]!	; 0xfffff491
    3394:	4e495f00 	cdpmi	15, 4, cr5, cr9, cr0, {0}
    3398:	5f363154 	svcpl	0x00363154
    339c:	45445f54 	strbmi	r5, [r4, #-3924]	; 0xfffff0ac
    33a0:	52414c43 	subpl	r4, r1, #17152	; 0x4300
    33a4:	00204445 	eoreq	r4, r0, r5, asr #8
    33a8:	7335705f 	teqvc	r5, #95	; 0x5f
    33ac:	505f5f00 	subspl	r5, pc, r0, lsl #30
    33b0:	6128544d 			; <UNDEFINED> instruction: 0x6128544d
    33b4:	29736772 	ldmdbcs	r3!, {r1, r4, r5, r6, r8, r9, sl, sp, lr}^
    33b8:	67726120 	ldrbvs	r6, [r2, -r0, lsr #2]!
    33bc:	58450073 	stmdapl	r5, {r0, r1, r4, r5, r6}^
    33c0:	50374954 	eorspl	r4, r7, r4, asr r9
    33c4:	28203742 	stmdacs	r0!, {r1, r6, r8, r9, sl, ip, sp}
    33c8:	49545845 	ldmdbmi	r4, {r0, r2, r6, fp, ip, lr}^
    33cc:	4950475f 	ldmdbmi	r0, {r0, r1, r2, r3, r4, r6, r8, r9, sl, lr}^
    33d0:	614d5f4f 	cmpvs	sp, pc, asr #30
    33d4:	6e697070 	mcrvs	0, 3, r7, cr9, cr0, {3}
    33d8:	29745f67 	ldmdbcs	r4!, {r0, r1, r2, r5, r6, r8, r9, sl, fp, ip, lr}^
    33dc:	5458457b 	ldrbpl	r4, [r8], #-1403	; 0xfffffa85
    33e0:	202c3749 	eorcs	r3, ip, r9, asr #14
    33e4:	4f495047 	svcmi	0x00495047
    33e8:	47202c42 	strmi	r2, [r0, -r2, asr #24]!
    33ec:	5f4f4950 	svcpl	0x004f4950
    33f0:	5f4e4950 	svcpl	0x004e4950
    33f4:	45202c37 	strmi	r2, [r0, #-3127]!	; 0xfffff3c9
    33f8:	37495458 	smlsldcc	r5, r9, r8, r4
    33fc:	5152495f 	cmppl	r2, pc, asr r9
    3400:	5f007d20 	svcpl	0x00007d20
    3404:	4946735f 	stmdbmi	r6, {r0, r1, r2, r3, r4, r6, r8, r9, ip, sp, lr}^
    3408:	665f454c 	ldrbvs	r4, [pc], -ip, asr #10
    340c:	00656b61 	rsbeq	r6, r5, r1, ror #22
    3410:	4554415f 	ldrbmi	r4, [r4, #-351]	; 0xfffffea1
    3414:	5f544958 	svcpl	0x00544958
    3418:	54494e49 	strbpl	r4, [r9], #-3657	; 0xfffff1b7
    341c:	4e5f7b20 	vnmlsmi.f64	d23, d15, d16
    3420:	2c4c4c55 	mcrrcs	12, 5, r4, ip, cr5
    3424:	202c3020 	eorcs	r3, ip, r0, lsr #32
    3428:	554e5f7b 	strbpl	r5, [lr, #-3963]	; 0xfffff085
    342c:	2c7d4c4c 	ldclcs	12, cr4, [sp], #-304	; 0xfffffed0
    3430:	554e5f20 	strbpl	r5, [lr, #-3872]	; 0xfffff0e0
    3434:	007d4c4c 	rsbseq	r4, sp, ip, asr #24
    3438:	7364775f 	cmnvc	r4, #24903680	; 0x17c0000
    343c:	495f5f00 	ldmdbmi	pc, {r8, r9, sl, fp, ip, lr}^	; <UNPREDICTABLE>
    3440:	4c5f544e 	cfldrdmi	mvd5, [pc], {78}	; 0x4e
    3444:	54534145 	ldrbpl	r4, [r3], #-325	; 0xfffffebb
    3448:	575f3631 	smmlarpl	pc, r1, r6, r3	; <UNPREDICTABLE>
    344c:	48544449 	ldmdami	r4, {r0, r3, r6, sl, lr}^
    3450:	31205f5f 			; <UNDEFINED> instruction: 0x31205f5f
    3454:	5f5f0036 	svcpl	0x005f0036
    3458:	5f434544 	svcpl	0x00434544
    345c:	4c415645 	mcrrmi	6, 4, r5, r1, cr5
    3460:	54454d5f 	strbpl	r4, [r5], #-3423	; 0xfffff2a1
    3464:	5f444f48 	svcpl	0x00444f48
    3468:	0032205f 	eorseq	r2, r2, pc, asr r0
    346c:	4545525f 	strbmi	r5, [r5, #-607]	; 0xfffffda1
    3470:	435f544e 	cmpmi	pc, #1308622848	; 0x4e000000
    3474:	4b434548 	blmi	10d499c <_Min_Stack_Size+0x10d459c>
    3478:	4749535f 	smlsldmi	r5, r9, pc, r3	; <UNPREDICTABLE>
    347c:	5f4c414e 	svcpl	0x004c414e
    3480:	28465542 	stmdacs	r6, {r1, r6, r8, sl, ip, lr}^
    3484:	29726176 	ldmdbcs	r2!, {r1, r2, r4, r5, r6, r8, sp, lr}^
    3488:	45525f20 	ldrbmi	r5, [r2, #-3872]	; 0xfffff0e0
    348c:	5f544e45 	svcpl	0x00544e45
    3490:	43454843 	movtmi	r4, #22595	; 0x5843
    3494:	6176284b 	cmnvs	r6, fp, asr #16
    3498:	5f202c72 	svcpl	0x00202c72
    349c:	6e676973 			; <UNDEFINED> instruction: 0x6e676973
    34a0:	625f6c61 	subsvs	r6, pc, #24832	; 0x6100
    34a4:	202c6675 	eorcs	r6, ip, r5, ror r6
    34a8:	72616863 	rsbvc	r6, r1, #6488064	; 0x630000
    34ac:	202c2a20 	eorcs	r2, ip, r0, lsr #20
    34b0:	4545525f 	strbmi	r5, [r5, #-607]	; 0xfffffda1
    34b4:	535f544e 	cmppl	pc, #1308622848	; 0x4e000000
    34b8:	414e4749 	cmpmi	lr, r9, asr #14
    34bc:	49535f4c 	ldmdbmi	r3, {r2, r3, r6, r8, r9, sl, fp, ip, lr}^
    34c0:	202c455a 	eorcs	r4, ip, sl, asr r5
    34c4:	4e5f0029 	cdpmi	0, 5, cr0, cr15, cr9, {1}
    34c8:	494c5745 	stmdbmi	ip, {r0, r2, r6, r8, r9, sl, ip, lr}^
    34cc:	45565f42 	ldrbmi	r5, [r6, #-3906]	; 0xfffff0be
    34d0:	4f495352 	svcmi	0x00495352
    34d4:	3322204e 			; <UNDEFINED> instruction: 0x3322204e
    34d8:	302e302e 	eorcc	r3, lr, lr, lsr #32
    34dc:	49550022 	ldmdbmi	r5, {r1, r5}^
    34e0:	3233544e 	eorscc	r5, r3, #1308622848	; 0x4e000000
    34e4:	58414d5f 	stmdapl	r1, {r0, r1, r2, r3, r4, r6, r8, sl, fp, lr}^
    34e8:	5f5f2820 	svcpl	0x005f2820
    34ec:	544e4955 	strbpl	r4, [lr], #-2389	; 0xfffff6ab
    34f0:	4d5f3233 	lfmmi	f3, 2, [pc, #-204]	; 342c <_Min_Stack_Size+0x302c>
    34f4:	5f5f5841 	svcpl	0x005f5841
    34f8:	735f0029 	cmpvc	pc, #41	; 0x29
    34fc:	665f6769 	ldrbvs	r6, [pc], -r9, ror #14
    3500:	00636e75 	rsbeq	r6, r3, r5, ror lr
    3504:	45445f5f 	strbmi	r5, [r4, #-3935]	; 0xfffff0a1
    3508:	5f343643 	svcpl	0x00343643
    350c:	4e425553 	mcrmi	5, 2, r5, cr2, cr3, {2}
    3510:	414d524f 	cmpmi	sp, pc, asr #4
    3514:	494d5f4c 	stmdbmi	sp, {r2, r3, r6, r8, r9, sl, fp, ip, lr}^
    3518:	205f5f4e 	subscs	r5, pc, lr, asr #30
    351c:	30302e30 	eorscc	r2, r0, r0, lsr lr
    3520:	30303030 	eorscc	r3, r0, r0, lsr r0
    3524:	30303030 	eorscc	r3, r0, r0, lsr r0
    3528:	30303030 	eorscc	r3, r0, r0, lsr r0
    352c:	332d4531 			; <UNDEFINED> instruction: 0x332d4531
    3530:	44443338 	strbmi	r3, [r4], #-824	; 0xfffffcc8
    3534:	555f5f00 	ldrbpl	r5, [pc, #-3840]	; 263c <_Min_Stack_Size+0x223c>
    3538:	41524653 	cmpmi	r2, r3, asr r6
    353c:	455f5443 	ldrbmi	r5, [pc, #-1091]	; 3101 <_Min_Stack_Size+0x2d01>
    3540:	4c495350 	mcrrmi	3, 5, r5, r9, cr0
    3544:	5f5f4e4f 	svcpl	0x005f4e4f
    3548:	31783020 	cmncc	r8, r0, lsr #32
    354c:	55382d50 	ldrpl	r2, [r8, #-3408]!	; 0xfffff2b0
    3550:	4e005248 	cdpmi	2, 0, cr5, cr0, cr8, {2}
    3554:	204c4c55 	subcs	r4, ip, r5, asr ip
    3558:	6f762828 	svcvs	0x00762828
    355c:	2a206469 	bcs	81c708 <_Min_Stack_Size+0x81c308>
    3560:	00293029 	eoreq	r3, r9, r9, lsr #32
    3564:	4545525f 	strbmi	r5, [r5, #-607]	; 0xfffffda1
    3568:	435f544e 	cmpmi	pc, #1308622848	; 0x4e000000
    356c:	4b434548 	blmi	10d4a94 <_Min_Stack_Size+0x10d4694>
    3570:	28504d5f 	ldmdacs	r0, {r0, r1, r2, r3, r4, r6, r8, sl, fp, lr}^
    3574:	29726176 	ldmdbcs	r2!, {r1, r2, r4, r5, r6, r8, sp, lr}^
    3578:	45525f20 	ldrbmi	r5, [r2, #-3872]	; 0xfffff0e0
    357c:	5f544e45 	svcpl	0x00544e45
    3580:	43454843 	movtmi	r4, #22595	; 0x5843
    3584:	6176284b 	cmnvs	r6, fp, asr #16
    3588:	5f202c72 	svcpl	0x00202c72
    358c:	202c706d 	eorcs	r7, ip, sp, rrx
    3590:	75727473 	ldrbvc	r7, [r2, #-1139]!	; 0xfffffb8d
    3594:	5f207463 	svcpl	0x00207463
    3598:	6572706d 	ldrbvs	r7, [r2, #-109]!	; 0xffffff93
    359c:	2c2a2063 	stccs	0, cr2, [sl], #-396	; 0xfffffe74
    35a0:	7a697320 	bvc	1a60228 <_Min_Stack_Size+0x1a5fe28>
    35a4:	20666f65 	rsbcs	r6, r6, r5, ror #30
    35a8:	7628282a 	strtvc	r2, [r8], -sl, lsr #16
    35ac:	2d297261 	sfmcs	f7, 4, [r9, #-388]!	; 0xfffffe7c
    35b0:	706d5f3e 	rsbvc	r5, sp, lr, lsr pc
    35b4:	5f202c29 	svcpl	0x00202c29
    35b8:	4e454552 	mcrmi	5, 2, r4, cr5, cr2, {2}
    35bc:	4e495f54 	mcrmi	15, 2, r5, cr9, cr4, {2}
    35c0:	4d5f5449 	cfldrdmi	mvd5, [pc, #-292]	; 34a4 <_Min_Stack_Size+0x30a4>
    35c4:	61762850 	cmnvs	r6, r0, asr r8
    35c8:	00292972 	eoreq	r2, r9, r2, ror r9
    35cc:	73615f5f 	cmnvc	r1, #380	; 0x17c
    35d0:	74726573 	ldrbtvc	r6, [r2], #-1395	; 0xfffffa8d
    35d4:	78655f73 	stmdavc	r5!, {r0, r1, r4, r5, r6, r8, r9, sl, fp, ip, lr}^
    35d8:	73756c63 	cmnvc	r5, #25344	; 0x6300
    35dc:	28657669 	stmdacs	r5!, {r0, r3, r5, r6, r9, sl, ip, sp, lr}^
    35e0:	292e2e2e 	stmdbcs	lr!, {r1, r2, r3, r5, r9, sl, fp, sp}
    35e4:	6c5f5f20 	mrrcvs	15, 2, r5, pc, cr0	; <UNPREDICTABLE>
    35e8:	5f6b636f 	svcpl	0x006b636f
    35ec:	6f6e6e61 	svcvs	0x006e6e61
    35f0:	65746174 	ldrbvs	r6, [r4, #-372]!	; 0xfffffe8c
    35f4:	73736128 	cmnvc	r3, #40, 2
    35f8:	5f747265 	svcpl	0x00747265
    35fc:	6c637865 	stclvs	8, cr7, [r3], #-404	; 0xfffffe6c
    3600:	76697375 			; <UNDEFINED> instruction: 0x76697375
    3604:	6f6c5f65 	svcvs	0x006c5f65
    3608:	5f286b63 	svcpl	0x00286b63
    360c:	5f41565f 	svcpl	0x0041565f
    3610:	53475241 	movtpl	r5, #29249	; 0x7241
    3614:	29295f5f 	stmdbcs	r9!, {r0, r1, r2, r3, r4, r6, r8, r9, sl, fp, ip, lr}
    3618:	47464300 	strbmi	r4, [r6, -r0, lsl #6]
    361c:	5f5f0052 	svcpl	0x005f0052
    3620:	746e695f 	strbtvc	r6, [lr], #-2399	; 0xfffff6a1
    3624:	61656c5f 	cmnvs	r5, pc, asr ip
    3628:	32337473 	eorscc	r7, r3, #1929379840	; 0x73000000
    362c:	645f745f 	ldrbvs	r7, [pc], #-1119	; 3634 <_Min_Stack_Size+0x3234>
    3630:	6e696665 	cdpvs	6, 6, cr6, cr9, cr5, {3}
    3634:	31206465 			; <UNDEFINED> instruction: 0x31206465
    3638:	4c5f5f00 	mrrcmi	15, 0, r5, pc, cr0	; <UNPREDICTABLE>
    363c:	4343414c 	movtmi	r4, #12620	; 0x314c
    3640:	4d5f4d55 	ldclmi	13, cr4, [pc, #-340]	; 34f4 <_Min_Stack_Size+0x30f4>
    3644:	5f5f5841 	svcpl	0x005f5841
    3648:	37583020 	ldrbcc	r3, [r8, -r0, lsr #32]
    364c:	46464646 	strbmi	r4, [r6], -r6, asr #12
    3650:	46464646 	strbmi	r4, [r6], -r6, asr #12
    3654:	46464646 	strbmi	r4, [r6], -r6, asr #12
    3658:	50464646 	subpl	r4, r6, r6, asr #12
    365c:	4c31332d 	ldcmi	3, cr3, [r1], #-180	; 0xffffff4c
    3660:	5f004b4c 	svcpl	0x00004b4c
    3664:	7366666f 	cmnvc	r6, #116391936	; 0x6f00000
    3668:	45007465 	strmi	r7, [r0, #-1125]	; 0xfffffb9b
    366c:	31495458 	cmpcc	r9, r8, asr r4
    3670:	31435034 	cmpcc	r3, r4, lsr r0
    3674:	45282034 	strmi	r2, [r8, #-52]!	; 0xffffffcc
    3678:	5f495458 	svcpl	0x00495458
    367c:	4f495047 	svcmi	0x00495047
    3680:	70614d5f 	rsbvc	r4, r1, pc, asr sp
    3684:	676e6970 			; <UNDEFINED> instruction: 0x676e6970
    3688:	7b29745f 	blvc	a6080c <_Min_Stack_Size+0xa6040c>
    368c:	49545845 	ldmdbmi	r4, {r0, r2, r6, fp, ip, lr}^
    3690:	202c3431 	eorcs	r3, ip, r1, lsr r4
    3694:	4f495047 	svcmi	0x00495047
    3698:	47202c43 	strmi	r2, [r0, -r3, asr #24]!
    369c:	5f4f4950 	svcpl	0x004f4950
    36a0:	5f4e4950 	svcpl	0x004e4950
    36a4:	202c3431 	eorcs	r3, ip, r1, lsr r4
    36a8:	49545845 	ldmdbmi	r4, {r0, r2, r6, fp, ip, lr}^
    36ac:	495f3431 	ldmdbmi	pc, {r0, r4, r5, sl, ip, sp}^	; <UNPREDICTABLE>
    36b0:	7d205152 	stfvcs	f5, [r0, #-328]!	; 0xfffffeb8
    36b4:	53425f00 	movtpl	r5, #12032	; 0x2f00
    36b8:	54505f44 	ldrbpl	r5, [r0], #-3908	; 0xfffff0bc
    36bc:	46494452 			; <UNDEFINED> instruction: 0x46494452
    36c0:	5f545f46 	svcpl	0x00545f46
    36c4:	635f0020 	cmpvs	pc, #32
    36c8:	75627476 	strbvc	r7, [r2, #-1142]!	; 0xfffffb8a
    36cc:	58450066 	stmdapl	r5, {r1, r2, r5, r6}^
    36d0:	495f4954 	ldmdbmi	pc, {r2, r4, r6, r8, fp, lr}^	; <UNPREDICTABLE>
    36d4:	445f5152 	ldrbmi	r5, [pc], #-338	; 36dc <_Min_Stack_Size+0x32dc>
    36d8:	41425349 	cmpmi	r2, r9, asr #6
    36dc:	3120454c 			; <UNDEFINED> instruction: 0x3120454c
    36e0:	555f5f00 	ldrbpl	r5, [pc, #-3840]	; 27e8 <_Min_Stack_Size+0x23e8>
    36e4:	5f524553 	svcpl	0x00524553
    36e8:	4542414c 	strbmi	r4, [r2, #-332]	; 0xfffffeb4
    36ec:	52505f4c 	subspl	r5, r0, #76, 30	; 0x130
    36f0:	58494645 	stmdapl	r9, {r0, r2, r6, r9, sl, lr}^
    36f4:	00205f5f 	eoreq	r5, r0, pc, asr pc
    36f8:	49555f5f 	ldmdbmi	r5, {r0, r1, r2, r3, r4, r6, r8, r9, sl, fp, ip, lr}^
    36fc:	3436544e 	ldrtcc	r5, [r6], #-1102	; 0xfffffbb2
    3700:	58414d5f 	stmdapl	r1, {r0, r1, r2, r3, r4, r6, r8, sl, fp, lr}^
    3704:	30205f5f 	eorcc	r5, r0, pc, asr pc
    3708:	66666678 			; <UNDEFINED> instruction: 0x66666678
    370c:	66666666 	strbtvs	r6, [r6], -r6, ror #12
    3710:	66666666 	strbtvs	r6, [r6], -r6, ror #12
    3714:	66666666 	strbtvs	r6, [r6], -r6, ror #12
    3718:	4c4c5566 	cfstr64mi	mvdx5, [ip], {102}	; 0x66
    371c:	45525f00 	ldrbmi	r5, [r2, #-3840]	; 0xfffff100
    3720:	5f544e45 	svcpl	0x00544e45
    3724:	54525453 	ldrbpl	r5, [r2], #-1107	; 0xfffffbad
    3728:	4c5f4b4f 	mrrcmi	11, 4, r4, pc, cr15	; <UNPREDICTABLE>
    372c:	28545341 	ldmdacs	r4, {r0, r6, r8, r9, ip, lr}^
    3730:	29727470 	ldmdbcs	r2!, {r4, r5, r6, sl, ip, sp, lr}^
    3734:	70282820 	eorvc	r2, r8, r0, lsr #16
    3738:	2d297274 	sfmcs	f7, 4, [r9, #-464]!	; 0xfffffe30
    373c:	696d5f3e 	stmdbvs	sp!, {r1, r2, r3, r4, r5, r8, r9, sl, fp, ip, lr}^
    3740:	3e2d6373 	mcrcc	3, 1, r6, cr13, cr3, {3}
    3744:	7274735f 	rsbsvc	r7, r4, #2080374785	; 0x7c000001
    3748:	5f6b6f74 	svcpl	0x006b6f74
    374c:	7473616c 	ldrbtvc	r6, [r3], #-364	; 0xfffffe94
    3750:	58450029 	stmdapl	r5, {r0, r3, r5}^
    3754:	35314954 	ldrcc	r4, [r1, #-2388]!	; 0xfffff6ac
    3758:	35314150 	ldrcc	r4, [r1, #-336]!	; 0xfffffeb0
    375c:	58452820 	stmdapl	r5, {r5, fp, sp}^
    3760:	475f4954 			; <UNDEFINED> instruction: 0x475f4954
    3764:	5f4f4950 	svcpl	0x004f4950
    3768:	7070614d 	rsbsvc	r6, r0, sp, asr #2
    376c:	5f676e69 	svcpl	0x00676e69
    3770:	457b2974 	ldrbmi	r2, [fp, #-2420]!	; 0xfffff68c
    3774:	31495458 	cmpcc	r9, r8, asr r4
    3778:	47202c35 			; <UNDEFINED> instruction: 0x47202c35
    377c:	414f4950 	cmpmi	pc, r0, asr r9	; <UNPREDICTABLE>
    3780:	5047202c 	subpl	r2, r7, ip, lsr #32
    3784:	505f4f49 	subspl	r4, pc, r9, asr #30
    3788:	315f4e49 	cmpcc	pc, r9, asr #28
    378c:	45202c35 	strmi	r2, [r0, #-3125]!	; 0xfffff3cb
    3790:	31495458 	cmpcc	r9, r8, asr r4
    3794:	52495f35 	subpl	r5, r9, #53, 30	; 0xd4
    3798:	007d2051 	rsbseq	r2, sp, r1, asr r0
    379c:	626f695f 	rsbvs	r6, pc, #1556480	; 0x17c000
    37a0:	525f0073 	subspl	r0, pc, #115	; 0x73
    37a4:	544e4545 	strbpl	r4, [lr], #-1349	; 0xfffffabb
    37a8:	494e495f 	stmdbmi	lr, {r0, r1, r2, r3, r4, r6, r8, fp, lr}^
    37ac:	494d5f54 	stmdbmi	sp, {r2, r4, r6, r8, r9, sl, fp, ip, lr}^
    37b0:	76284353 			; <UNDEFINED> instruction: 0x76284353
    37b4:	20297261 	eorcs	r7, r9, r1, ror #4
    37b8:	7b206f64 	blvc	81f550 <_Min_Stack_Size+0x81f150>
    37bc:	72747320 	rsbsvc	r7, r4, #32, 6	; 0x80000000
    37c0:	20746375 	rsbscs	r6, r4, r5, ror r3
    37c4:	6565725f 	strbvs	r7, [r5, #-607]!	; 0xfffffda1
    37c8:	2a20746e 	bcs	820988 <_Min_Stack_Size+0x820588>
    37cc:	3d20725f 	sfmcc	f7, 4, [r0, #-380]!	; 0xfffffe84
    37d0:	61762820 	cmnvs	r6, r0, lsr #16
    37d4:	203b2972 	eorscs	r2, fp, r2, ror r9
    37d8:	3e2d725f 	mcrcc	2, 1, r7, cr13, cr15, {2}
    37dc:	73696d5f 	cmnvc	r9, #6080	; 0x17c0
    37e0:	5f3e2d63 	svcpl	0x003e2d63
    37e4:	74727473 	ldrbtvc	r7, [r2], #-1139	; 0xfffffb8d
    37e8:	6c5f6b6f 	mrrcvs	11, 6, r6, pc, cr15	; <UNPREDICTABLE>
    37ec:	20747361 	rsbscs	r7, r4, r1, ror #6
    37f0:	4e5f203d 	mrcmi	0, 2, r2, cr15, cr13, {1}
    37f4:	3b4c4c55 	blcc	1316950 <_Min_Stack_Size+0x1316550>
    37f8:	2d725f20 	ldclcs	15, cr5, [r2, #-128]!	; 0xffffff80
    37fc:	696d5f3e 	stmdbvs	sp!, {r1, r2, r3, r4, r5, r8, r9, sl, fp, ip, lr}^
    3800:	3e2d6373 	mcrcc	3, 1, r6, cr13, cr3, {3}
    3804:	6c626d5f 	stclvs	13, cr6, [r2], #-380	; 0xfffffe84
    3808:	735f6e65 	cmpvc	pc, #1616	; 0x650
    380c:	65746174 	ldrbvs	r6, [r4, #-372]!	; 0xfffffe8c
    3810:	635f5f2e 	cmpvs	pc, #46, 30	; 0xb8
    3814:	746e756f 	strbtvc	r7, [lr], #-1391	; 0xfffffa91
    3818:	30203d20 	eorcc	r3, r0, r0, lsr #26
    381c:	725f203b 	subsvc	r2, pc, #59	; 0x3b
    3820:	6d5f3e2d 	ldclvs	14, cr3, [pc, #-180]	; 3774 <_Min_Stack_Size+0x3374>
    3824:	2d637369 	stclcs	3, cr7, [r3, #-420]!	; 0xfffffe5c
    3828:	626d5f3e 	rsbvs	r5, sp, #62, 30	; 0xf8
    382c:	5f6e656c 	svcpl	0x006e656c
    3830:	74617473 	strbtvc	r7, [r1], #-1139	; 0xfffffb8d
    3834:	5f5f2e65 	svcpl	0x005f2e65
    3838:	756c6176 	strbvc	r6, [ip, #-374]!	; 0xfffffe8a
    383c:	5f5f2e65 	svcpl	0x005f2e65
    3840:	20686377 	rsbcs	r6, r8, r7, ror r3
    3844:	3b30203d 	blcc	c0b940 <_Min_Stack_Size+0xc0b540>
    3848:	2d725f20 	ldclcs	15, cr5, [r2, #-128]!	; 0xffffff80
    384c:	696d5f3e 	stmdbvs	sp!, {r1, r2, r3, r4, r5, r8, r9, sl, fp, ip, lr}^
    3850:	3e2d6373 	mcrcc	3, 1, r6, cr13, cr3, {3}
    3854:	7463775f 	strbtvc	r7, [r3], #-1887	; 0xfffff8a1
    3858:	5f626d6f 	svcpl	0x00626d6f
    385c:	74617473 	strbtvc	r7, [r1], #-1139	; 0xfffffb8d
    3860:	5f5f2e65 	svcpl	0x005f2e65
    3864:	6e756f63 	cdpvs	15, 7, cr6, cr5, cr3, {3}
    3868:	203d2074 	eorscs	r2, sp, r4, ror r0
    386c:	5f203b30 	svcpl	0x00203b30
    3870:	5f3e2d72 	svcpl	0x003e2d72
    3874:	6373696d 	cmnvs	r3, #1785856	; 0x1b4000
    3878:	775f3e2d 	ldrbvc	r3, [pc, -sp, lsr #28]
    387c:	6d6f7463 	cfstrdvs	mvd7, [pc, #-396]!	; 36f8 <_Min_Stack_Size+0x32f8>
    3880:	74735f62 	ldrbtvc	r5, [r3], #-3938	; 0xfffff09e
    3884:	2e657461 	cdpcs	4, 6, cr7, cr5, cr1, {3}
    3888:	61765f5f 	cmnvs	r6, pc, asr pc
    388c:	2e65756c 	cdpcs	5, 6, cr7, cr5, cr12, {3}
    3890:	63775f5f 	cmnvs	r7, #380	; 0x17c
    3894:	203d2068 	eorscs	r2, sp, r8, rrx
    3898:	5f203b30 	svcpl	0x00203b30
    389c:	5f3e2d72 	svcpl	0x003e2d72
    38a0:	6373696d 	cmnvs	r3, #1785856	; 0x1b4000
    38a4:	6d5f3e2d 	ldclvs	14, cr3, [pc, #-180]	; 37f8 <_Min_Stack_Size+0x33f8>
    38a8:	776f7462 	strbvc	r7, [pc, -r2, ror #8]!
    38ac:	74735f63 	ldrbtvc	r5, [r3], #-3939	; 0xfffff09d
    38b0:	2e657461 	cdpcs	4, 6, cr7, cr5, cr1, {3}
    38b4:	6f635f5f 	svcvs	0x00635f5f
    38b8:	20746e75 	rsbscs	r6, r4, r5, ror lr
    38bc:	3b30203d 	blcc	c0b9b8 <_Min_Stack_Size+0xc0b5b8>
    38c0:	2d725f20 	ldclcs	15, cr5, [r2, #-128]!	; 0xffffff80
    38c4:	696d5f3e 	stmdbvs	sp!, {r1, r2, r3, r4, r5, r8, r9, sl, fp, ip, lr}^
    38c8:	3e2d6373 	mcrcc	3, 1, r6, cr13, cr3, {3}
    38cc:	74626d5f 	strbtvc	r6, [r2], #-3423	; 0xfffff2a1
    38d0:	5f63776f 	svcpl	0x0063776f
    38d4:	74617473 	strbtvc	r7, [r1], #-1139	; 0xfffffb8d
    38d8:	5f5f2e65 	svcpl	0x005f2e65
    38dc:	756c6176 	strbvc	r6, [ip, #-374]!	; 0xfffffe8a
    38e0:	5f5f2e65 	svcpl	0x005f2e65
    38e4:	20686377 	rsbcs	r6, r8, r7, ror r3
    38e8:	3b30203d 	blcc	c0b9e4 <_Min_Stack_Size+0xc0b5e4>
    38ec:	2d725f20 	ldclcs	15, cr5, [r2, #-128]!	; 0xffffff80
    38f0:	696d5f3e 	stmdbvs	sp!, {r1, r2, r3, r4, r5, r8, r9, sl, fp, ip, lr}^
    38f4:	3e2d6373 	mcrcc	3, 1, r6, cr13, cr3, {3}
    38f8:	72626d5f 	rsbvc	r6, r2, #6080	; 0x17c0
    38fc:	5f6e656c 	svcpl	0x006e656c
    3900:	74617473 	strbtvc	r7, [r1], #-1139	; 0xfffffb8d
    3904:	5f5f2e65 	svcpl	0x005f2e65
    3908:	6e756f63 	cdpvs	15, 7, cr6, cr5, cr3, {3}
    390c:	203d2074 	eorscs	r2, sp, r4, ror r0
    3910:	5f203b30 	svcpl	0x00203b30
    3914:	5f3e2d72 	svcpl	0x003e2d72
    3918:	6373696d 	cmnvs	r3, #1785856	; 0x1b4000
    391c:	6d5f3e2d 	ldclvs	14, cr3, [pc, #-180]	; 3870 <_Min_Stack_Size+0x3470>
    3920:	656c7262 	strbvs	r7, [ip, #-610]!	; 0xfffffd9e
    3924:	74735f6e 	ldrbtvc	r5, [r3], #-3950	; 0xfffff092
    3928:	2e657461 	cdpcs	4, 6, cr7, cr5, cr1, {3}
    392c:	61765f5f 	cmnvs	r6, pc, asr pc
    3930:	2e65756c 	cdpcs	5, 6, cr7, cr5, cr12, {3}
    3934:	63775f5f 	cmnvs	r7, #380	; 0x17c
    3938:	203d2068 	eorscs	r2, sp, r8, rrx
    393c:	5f203b30 	svcpl	0x00203b30
    3940:	5f3e2d72 	svcpl	0x003e2d72
    3944:	6373696d 	cmnvs	r3, #1785856	; 0x1b4000
    3948:	6d5f3e2d 	ldclvs	14, cr3, [pc, #-180]	; 389c <_Min_Stack_Size+0x349c>
    394c:	6f747262 	svcvs	0x00747262
    3950:	735f6377 	cmpvc	pc, #-603979775	; 0xdc000001
    3954:	65746174 	ldrbvs	r6, [r4, #-372]!	; 0xfffffe8c
    3958:	635f5f2e 	cmpvs	pc, #46, 30	; 0xb8
    395c:	746e756f 	strbtvc	r7, [lr], #-1391	; 0xfffffa91
    3960:	30203d20 	eorcc	r3, r0, r0, lsr #26
    3964:	725f203b 	subsvc	r2, pc, #59	; 0x3b
    3968:	6d5f3e2d 	ldclvs	14, cr3, [pc, #-180]	; 38bc <_Min_Stack_Size+0x34bc>
    396c:	2d637369 	stclcs	3, cr7, [r3, #-420]!	; 0xfffffe5c
    3970:	626d5f3e 	rsbvs	r5, sp, #62, 30	; 0xf8
    3974:	776f7472 			; <UNDEFINED> instruction: 0x776f7472
    3978:	74735f63 	ldrbtvc	r5, [r3], #-3939	; 0xfffff09d
    397c:	2e657461 	cdpcs	4, 6, cr7, cr5, cr1, {3}
    3980:	61765f5f 	cmnvs	r6, pc, asr pc
    3984:	2e65756c 	cdpcs	5, 6, cr7, cr5, cr12, {3}
    3988:	63775f5f 	cmnvs	r7, #380	; 0x17c
    398c:	203d2068 	eorscs	r2, sp, r8, rrx
    3990:	5f203b30 	svcpl	0x00203b30
    3994:	5f3e2d72 	svcpl	0x003e2d72
    3998:	6373696d 	cmnvs	r3, #1785856	; 0x1b4000
    399c:	6d5f3e2d 	ldclvs	14, cr3, [pc, #-180]	; 38f0 <_Min_Stack_Size+0x34f0>
    39a0:	74727362 	ldrbtvc	r7, [r2], #-866	; 0xfffffc9e
    39a4:	7363776f 	cmnvc	r3, #29097984	; 0x1bc0000
    39a8:	6174735f 	cmnvs	r4, pc, asr r3
    39ac:	5f2e6574 	svcpl	0x002e6574
    39b0:	756f635f 	strbvc	r6, [pc, #-863]!	; 3659 <_Min_Stack_Size+0x3259>
    39b4:	3d20746e 	cfstrscc	mvf7, [r0, #-440]!	; 0xfffffe48
    39b8:	203b3020 	eorscs	r3, fp, r0, lsr #32
    39bc:	3e2d725f 	mcrcc	2, 1, r7, cr13, cr15, {2}
    39c0:	73696d5f 	cmnvc	r9, #6080	; 0x17c0
    39c4:	5f3e2d63 	svcpl	0x003e2d63
    39c8:	7273626d 	rsbsvc	r6, r3, #-805306362	; 0xd0000006
    39cc:	63776f74 	cmnvs	r7, #116, 30	; 0x1d0
    39d0:	74735f73 	ldrbtvc	r5, [r3], #-3955	; 0xfffff08d
    39d4:	2e657461 	cdpcs	4, 6, cr7, cr5, cr1, {3}
    39d8:	61765f5f 	cmnvs	r6, pc, asr pc
    39dc:	2e65756c 	cdpcs	5, 6, cr7, cr5, cr12, {3}
    39e0:	63775f5f 	cmnvs	r7, #380	; 0x17c
    39e4:	203d2068 	eorscs	r2, sp, r8, rrx
    39e8:	5f203b30 	svcpl	0x00203b30
    39ec:	5f3e2d72 	svcpl	0x003e2d72
    39f0:	6373696d 	cmnvs	r3, #1785856	; 0x1b4000
    39f4:	775f3e2d 	ldrbvc	r3, [pc, -sp, lsr #28]
    39f8:	6f747263 	svcvs	0x00747263
    39fc:	735f626d 	cmpvc	pc, #-805306362	; 0xd0000006
    3a00:	65746174 	ldrbvs	r6, [r4, #-372]!	; 0xfffffe8c
    3a04:	635f5f2e 	cmpvs	pc, #46, 30	; 0xb8
    3a08:	746e756f 	strbtvc	r7, [lr], #-1391	; 0xfffffa91
    3a0c:	30203d20 	eorcc	r3, r0, r0, lsr #26
    3a10:	725f203b 	subsvc	r2, pc, #59	; 0x3b
    3a14:	6d5f3e2d 	ldclvs	14, cr3, [pc, #-180]	; 3968 <_Min_Stack_Size+0x3568>
    3a18:	2d637369 	stclcs	3, cr7, [r3, #-420]!	; 0xfffffe5c
    3a1c:	63775f3e 	cmnvs	r7, #62, 30	; 0xf8
    3a20:	6d6f7472 	cfstrdvs	mvd7, [pc, #-456]!	; 3860 <_Min_Stack_Size+0x3460>
    3a24:	74735f62 	ldrbtvc	r5, [r3], #-3938	; 0xfffff09e
    3a28:	2e657461 	cdpcs	4, 6, cr7, cr5, cr1, {3}
    3a2c:	61765f5f 	cmnvs	r6, pc, asr pc
    3a30:	2e65756c 	cdpcs	5, 6, cr7, cr5, cr12, {3}
    3a34:	63775f5f 	cmnvs	r7, #380	; 0x17c
    3a38:	203d2068 	eorscs	r2, sp, r8, rrx
    3a3c:	5f203b30 	svcpl	0x00203b30
    3a40:	5f3e2d72 	svcpl	0x003e2d72
    3a44:	6373696d 	cmnvs	r3, #1785856	; 0x1b4000
    3a48:	775f3e2d 	ldrbvc	r3, [pc, -sp, lsr #28]
    3a4c:	74727363 	ldrbtvc	r7, [r2], #-867	; 0xfffffc9d
    3a50:	73626d6f 	cmnvc	r2, #7104	; 0x1bc0
    3a54:	6174735f 	cmnvs	r4, pc, asr r3
    3a58:	5f2e6574 	svcpl	0x002e6574
    3a5c:	756f635f 	strbvc	r6, [pc, #-863]!	; 3705 <_Min_Stack_Size+0x3305>
    3a60:	3d20746e 	cfstrscc	mvf7, [r0, #-440]!	; 0xfffffe48
    3a64:	203b3020 	eorscs	r3, fp, r0, lsr #32
    3a68:	3e2d725f 	mcrcc	2, 1, r7, cr13, cr15, {2}
    3a6c:	73696d5f 	cmnvc	r9, #6080	; 0x17c0
    3a70:	5f3e2d63 	svcpl	0x003e2d63
    3a74:	72736377 	rsbsvc	r6, r3, #-603979775	; 0xdc000001
    3a78:	626d6f74 	rsbvs	r6, sp, #116, 30	; 0x1d0
    3a7c:	74735f73 	ldrbtvc	r5, [r3], #-3955	; 0xfffff08d
    3a80:	2e657461 	cdpcs	4, 6, cr7, cr5, cr1, {3}
    3a84:	61765f5f 	cmnvs	r6, pc, asr pc
    3a88:	2e65756c 	cdpcs	5, 6, cr7, cr5, cr12, {3}
    3a8c:	63775f5f 	cmnvs	r7, #380	; 0x17c
    3a90:	203d2068 	eorscs	r2, sp, r8, rrx
    3a94:	5f203b30 	svcpl	0x00203b30
    3a98:	5f3e2d72 	svcpl	0x003e2d72
    3a9c:	6373696d 	cmnvs	r3, #1785856	; 0x1b4000
    3aa0:	6c5f3e2d 	mrrcvs	14, 2, r3, pc, cr13	; <UNPREDICTABLE>
    3aa4:	5f613436 	svcpl	0x00613436
    3aa8:	5b667562 	blpl	19a1038 <_Min_Stack_Size+0x19a0c38>
    3aac:	3d205d30 	stccc	13, cr5, [r0, #-192]!	; 0xffffff40
    3ab0:	305c2720 	subscc	r2, ip, r0, lsr #14
    3ab4:	5f203b27 	svcpl	0x00203b27
    3ab8:	5f3e2d72 	svcpl	0x003e2d72
    3abc:	6373696d 	cmnvs	r3, #1785856	; 0x1b4000
    3ac0:	675f3e2d 	ldrbvs	r3, [pc, -sp, lsr #28]
    3ac4:	61647465 	cmnvs	r4, r5, ror #8
    3ac8:	655f6574 	ldrbvs	r6, [pc, #-1396]	; 355c <_Min_Stack_Size+0x315c>
    3acc:	3d207272 	sfmcc	f7, 4, [r0, #-456]!	; 0xfffffe38
    3ad0:	203b3020 	eorscs	r3, fp, r0, lsr #32
    3ad4:	6877207d 	ldmdavs	r7!, {r0, r2, r3, r4, r5, r6, sp}^
    3ad8:	20656c69 	rsbcs	r6, r5, r9, ror #24
    3adc:	00293028 	eoreq	r3, r9, r8, lsr #32
    3ae0:	4654415f 			; <UNDEFINED> instruction: 0x4654415f
    3ae4:	5f454c49 	svcpl	0x00454c49
    3ae8:	52554f53 	subspl	r4, r5, #332	; 0x14c
    3aec:	49004543 	stmdbmi	r0, {r0, r1, r6, r8, sl, lr}
    3af0:	465f544e 	ldrbmi	r5, [pc], -lr, asr #8
    3af4:	31545341 	cmpcc	r4, r1, asr #6
    3af8:	494d5f36 	stmdbmi	sp, {r1, r2, r4, r5, r8, r9, sl, fp, ip, lr}^
    3afc:	2d28204e 	stccs	0, cr2, [r8, #-312]!	; 0xfffffec8
    3b00:	4e495f5f 	mcrmi	15, 2, r5, cr9, cr15, {2}
    3b04:	41465f54 	cmpmi	r6, r4, asr pc
    3b08:	36315453 			; <UNDEFINED> instruction: 0x36315453
    3b0c:	58414d5f 	stmdapl	r1, {r0, r1, r2, r3, r4, r6, r8, sl, fp, lr}^
    3b10:	2d205f5f 	stccs	15, cr5, [r0, #-380]!	; 0xfffffe84
    3b14:	00293120 	eoreq	r3, r9, r0, lsr #2
    3b18:	54535f5f 	ldrbpl	r5, [r3], #-3935	; 0xfffff0a1
    3b1c:	565f4344 	ldrbpl	r4, [pc], -r4, asr #6
    3b20:	49535245 	ldmdbmi	r3, {r0, r2, r6, r9, ip, lr}^
    3b24:	5f5f4e4f 	svcpl	0x005f4e4f
    3b28:	31303220 	teqcc	r0, r0, lsr #4
    3b2c:	4c323131 	ldfmis	f3, [r2], #-196	; 0xffffff3c
    3b30:	6d5f5f00 	ldclvs	15, cr5, [pc, #-0]	; 3b38 <_Min_Stack_Size+0x3738>
    3b34:	6f6c6c61 	svcvs	0x006c6c61
    3b38:	696c5f63 	stmdbvs	ip!, {r0, r1, r5, r6, r8, r9, sl, fp, ip, lr}^
    3b3c:	5f20656b 	svcpl	0x0020656b
    3b40:	7474615f 	ldrbtvc	r6, [r4], #-351	; 0xfffffea1
    3b44:	75626972 	strbvc	r6, [r2, #-2418]!	; 0xfffff68e
    3b48:	5f5f6574 	svcpl	0x005f6574
    3b4c:	5f5f2828 	svcpl	0x005f2828
    3b50:	6c6c616d 	stfvse	f6, [ip], #-436	; 0xfffffe4c
    3b54:	5f5f636f 	svcpl	0x005f636f
    3b58:	5f002929 	svcpl	0x00002929
    3b5c:	7972745f 	ldmdbvc	r2!, {r0, r1, r2, r3, r4, r6, sl, ip, sp, lr}^
    3b60:	6b636f6c 	blvs	18df918 <_Min_Stack_Size+0x18df518>
    3b64:	68735f73 	ldmdavs	r3!, {r0, r1, r4, r5, r6, r8, r9, sl, fp, ip, lr}^
    3b68:	64657261 	strbtvs	r7, [r5], #-609	; 0xfffffd9f
    3b6c:	2e2e2e28 	cdpcs	14, 2, cr2, cr14, cr8, {1}
    3b70:	5f5f2029 	svcpl	0x005f2029
    3b74:	6b636f6c 	blvs	18df92c <_Min_Stack_Size+0x18df52c>
    3b78:	6e6e615f 	mcrvs	1, 3, r6, cr14, cr15, {2}
    3b7c:	7461746f 	strbtvc	r7, [r1], #-1135	; 0xfffffb91
    3b80:	68732865 	ldmdavs	r3!, {r0, r2, r5, r6, fp, sp}^
    3b84:	64657261 	strbtvs	r7, [r5], #-609	; 0xfffffd9f
    3b88:	7972745f 	ldmdbvc	r2!, {r0, r1, r2, r3, r4, r6, sl, ip, sp, lr}^
    3b8c:	6b636f6c 	blvs	18df944 <_Min_Stack_Size+0x18df544>
    3b90:	6e75665f 	mrcvs	6, 3, r6, cr5, cr15, {2}
    3b94:	6f697463 	svcvs	0x00697463
    3b98:	5f5f286e 	svcpl	0x005f286e
    3b9c:	415f4156 	cmpmi	pc, r6, asr r1	; <UNPREDICTABLE>
    3ba0:	5f534752 	svcpl	0x00534752
    3ba4:	0029295f 	eoreq	r2, r9, pc, asr r9
    3ba8:	4e495f5f 	mcrmi	15, 2, r5, cr9, cr15, {2}
    3bac:	454c5f54 	strbmi	r5, [ip, #-3924]	; 0xfffff0ac
    3bb0:	38545341 	ldmdacc	r4, {r0, r6, r8, r9, ip, lr}^
    3bb4:	58414d5f 	stmdapl	r1, {r0, r1, r2, r3, r4, r6, r8, sl, fp, lr}^
    3bb8:	30205f5f 	eorcc	r5, r0, pc, asr pc
    3bbc:	00663778 	rsbeq	r3, r6, r8, ror r7
    3bc0:	43475f5f 	movtmi	r5, #32607	; 0x7f5f
    3bc4:	54415f43 	strbpl	r5, [r1], #-3907	; 0xfffff0bd
    3bc8:	43494d4f 	movtmi	r4, #40271	; 0x9d4f
    3bcc:	494f505f 	stmdbmi	pc, {r0, r1, r2, r3, r4, r6, ip, lr}^	; <UNPREDICTABLE>
    3bd0:	5245544e 	subpl	r5, r5, #1308622848	; 0x4e000000
    3bd4:	434f4c5f 	movtmi	r4, #64607	; 0xfc5f
    3bd8:	52465f4b 	subpl	r5, r6, #300	; 0x12c
    3bdc:	32204545 	eorcc	r4, r0, #289406976	; 0x11400000
    3be0:	415f5f00 	cmpmi	pc, r0, lsl #30
    3be4:	465f4d52 			; <UNDEFINED> instruction: 0x465f4d52
    3be8:	55544145 	ldrbpl	r4, [r4, #-325]	; 0xfffffebb
    3bec:	515f4552 	cmppl	pc, r2, asr r5	; <UNPREDICTABLE>
    3bf0:	20544942 	subscs	r4, r4, r2, asr #18
    3bf4:	5f5f0031 	svcpl	0x005f0031
    3bf8:	5f4d5241 	svcpl	0x004d5241
    3bfc:	54414546 	strbpl	r4, [r1], #-1350	; 0xfffffaba
    3c00:	5f455255 	svcpl	0x00455255
    3c04:	205a4c43 	subscs	r4, sl, r3, asr #24
    3c08:	5f5f0031 	svcpl	0x005f0031
    3c0c:	535f4343 	cmppl	pc, #201326593	; 0xc000001
    3c10:	4f505055 	svcmi	0x00505055
    3c14:	5f535452 	svcpl	0x00535452
    3c18:	4e524157 	mrcmi	1, 2, r4, cr2, cr7, {2}
    3c1c:	20474e49 	subcs	r4, r7, r9, asr #28
    3c20:	5f5f0031 	svcpl	0x005f0031
    3c24:	4d4f5441 	cfstrdmi	mvd5, [pc, #-260]	; 3b28 <_Min_Stack_Size+0x3728>
    3c28:	415f4349 	cmpmi	pc, r9, asr #6
    3c2c:	49555143 	ldmdbmi	r5, {r0, r1, r6, r8, ip, lr}^
    3c30:	32204552 	eorcc	r4, r0, #343932928	; 0x14800000
    3c34:	49564e00 	ldmdbmi	r6, {r9, sl, fp, lr}^
    3c38:	52495f43 	subpl	r5, r9, #268	; 0x10c
    3c3c:	455f3651 	ldrbmi	r3, [pc, #-1617]	; 35f3 <_Min_Stack_Size+0x31f3>
    3c40:	33495458 	movtcc	r5, #37976	; 0x9458
    3c44:	414e455f 	cmpmi	lr, pc, asr r5
    3c48:	20454c42 	subcs	r4, r5, r2, asr #24
    3c4c:	49564e28 	ldmdbmi	r6, {r3, r5, r9, sl, fp, lr}^
    3c50:	53495f43 	movtpl	r5, #40771	; 0x9f43
    3c54:	20305245 	eorscs	r5, r0, r5, asr #4
    3c58:	28203d7c 	stmdacs	r0!, {r2, r3, r4, r5, r6, r8, sl, fp, ip, sp}
    3c5c:	393c3c31 	ldmdbcc	ip!, {r0, r4, r5, sl, fp, ip, sp}
    3c60:	5f002929 	svcpl	0x00002929
    3c64:	636f6c5f 	cmnvs	pc, #24320	; 0x5f00
    3c68:	735f736b 	cmpvc	pc, #-1409286143	; 0xac000001
    3c6c:	65726168 	ldrbvs	r6, [r2, #-360]!	; 0xfffffe98
    3c70:	2e2e2864 	cdpcs	8, 2, cr2, cr14, cr4, {3}
    3c74:	5f20292e 	svcpl	0x0020292e
    3c78:	636f6c5f 	cmnvs	pc, #24320	; 0x5f00
    3c7c:	6e615f6b 	cdpvs	15, 6, cr5, cr1, cr11, {3}
    3c80:	61746f6e 	cmnvs	r4, lr, ror #30
    3c84:	73286574 			; <UNDEFINED> instruction: 0x73286574
    3c88:	65726168 	ldrbvs	r6, [r2, #-360]!	; 0xfffffe98
    3c8c:	6f6c5f64 	svcvs	0x006c5f64
    3c90:	665f6b63 	ldrbvs	r6, [pc], -r3, ror #22
    3c94:	74636e75 	strbtvc	r6, [r3], #-3701	; 0xfffff18b
    3c98:	286e6f69 	stmdacs	lr!, {r0, r3, r5, r6, r8, r9, sl, fp, sp, lr}^
    3c9c:	41565f5f 	cmpmi	r6, pc, asr pc
    3ca0:	4752415f 			; <UNDEFINED> instruction: 0x4752415f
    3ca4:	295f5f53 	ldmdbcs	pc, {r0, r1, r4, r6, r8, r9, sl, fp, ip, lr}^	; <UNPREDICTABLE>
    3ca8:	564e0029 	strbpl	r0, [lr], -r9, lsr #32
    3cac:	495f4349 	ldmdbmi	pc, {r0, r3, r6, r8, r9, lr}^	; <UNPREDICTABLE>
    3cb0:	30524553 	subscc	r4, r2, r3, asr r5
    3cb4:	76282a20 	strtvc	r2, [r8], -r0, lsr #20
    3cb8:	74616c6f 	strbtvc	r6, [r1], #-3183	; 0xfffff391
    3cbc:	20656c69 	rsbcs	r6, r5, r9, ror #24
    3cc0:	746e6975 	strbtvc	r6, [lr], #-2421	; 0xfffff68b
    3cc4:	745f3233 	ldrbvc	r3, [pc], #-563	; 3ccc <_Min_Stack_Size+0x38cc>
    3cc8:	28292a20 	stmdacs	r9!, {r5, r9, fp, sp}
    3ccc:	4349564e 	movtmi	r5, #38478	; 0x964e
    3cd0:	5341425f 	movtpl	r4, #4703	; 0x125f
    3cd4:	202b2045 	eorcs	r2, fp, r5, asr #32
    3cd8:	29307830 	ldmdbcs	r0!, {r4, r5, fp, ip, sp, lr}
    3cdc:	495f5f00 	ldmdbmi	pc, {r8, r9, sl, fp, ip, lr}^	; <UNPREDICTABLE>
    3ce0:	3631544e 	ldrtcc	r5, [r1], -lr, asr #8
    3ce4:	22682220 	rsbcs	r2, r8, #32, 4
    3ce8:	736e7500 	cmnvc	lr, #0, 10
    3cec:	656e6769 	strbvs	r6, [lr, #-1897]!	; 0xfffff897
    3cf0:	69732064 	ldmdbvs	r3!, {r2, r5, r6, sp}^
    3cf4:	64656e67 	strbtvs	r6, [r5], #-3687	; 0xfffff199
    3cf8:	555f5f00 	ldrbpl	r5, [pc, #-3840]	; 2e00 <_Min_Stack_Size+0x2a00>
    3cfc:	36544e49 	ldrbcc	r4, [r4], -r9, asr #28
    3d00:	59545f34 	ldmdbpl	r4, {r2, r4, r5, r8, r9, sl, fp, ip, lr}^
    3d04:	5f5f4550 	svcpl	0x005f4550
    3d08:	6e6f6c20 	cdpvs	12, 6, cr6, cr15, cr0, {1}
    3d0c:	6f6c2067 	svcvs	0x006c2067
    3d10:	7520676e 	strvc	r6, [r0, #-1902]!	; 0xfffff892
    3d14:	6769736e 	strbvs	r7, [r9, -lr, ror #6]!
    3d18:	2064656e 	rsbcs	r6, r4, lr, ror #10
    3d1c:	00746e69 	rsbseq	r6, r4, r9, ror #28
    3d20:	544e495f 	strbpl	r4, [lr], #-2399	; 0xfffff6a1
    3d24:	5f525450 	svcpl	0x00525450
    3d28:	495f5145 	ldmdbmi	pc, {r0, r2, r6, r8, ip, lr}^	; <UNPREDICTABLE>
    3d2c:	0020544e 	eoreq	r5, r0, lr, asr #8
    3d30:	52415f5f 	subpl	r5, r1, #380	; 0x17c
    3d34:	49535f4d 	ldmdbmi	r3, {r0, r2, r3, r6, r8, r9, sl, fp, ip, lr}^
    3d38:	464f455a 			; <UNDEFINED> instruction: 0x464f455a
    3d3c:	4843575f 	stmdami	r3, {r0, r1, r2, r3, r4, r6, r8, r9, sl, ip, lr}^
    3d40:	545f5241 	ldrbpl	r5, [pc], #-577	; 3d48 <_Min_Stack_Size+0x3948>
    3d44:	5f003420 	svcpl	0x00003420
    3d48:	544c465f 	strbpl	r4, [ip], #-1631	; 0xfffff9a1
    3d4c:	5f583233 	svcpl	0x00583233
    3d50:	5f58414d 	svcpl	0x0058414d
    3d54:	5f505845 	svcpl	0x00505845
    3d58:	3031205f 	eorscc	r2, r1, pc, asr r0
    3d5c:	5f003432 	svcpl	0x00003432
    3d60:	7361685f 	cmnvc	r1, #6225920	; 0x5f0000
    3d64:	636e695f 	cmnvs	lr, #1556480	; 0x17c000
    3d68:	6564756c 	strbvs	r7, [r4, #-1388]!	; 0xfffffa94
    3d6c:	52545328 	subspl	r5, r4, #40, 6	; 0xa0000000
    3d70:	5f5f2029 	svcpl	0x005f2029
    3d74:	5f736168 	svcpl	0x00736168
    3d78:	6c636e69 	stclvs	14, cr6, [r3], #-420	; 0xfffffe5c
    3d7c:	5f656475 	svcpl	0x00656475
    3d80:	5453285f 	ldrbpl	r2, [r3], #-2143	; 0xfffff7a1
    3d84:	4e002952 			; <UNDEFINED> instruction: 0x4e002952
    3d88:	5f434956 	svcpl	0x00434956
    3d8c:	36515249 	ldrbcc	r5, [r1], -r9, asr #4
    3d90:	5458455f 	ldrbpl	r4, [r8], #-1375	; 0xfffffaa1
    3d94:	395f3549 	ldmdbcc	pc, {r0, r3, r6, r8, sl, ip, sp}^	; <UNPREDICTABLE>
    3d98:	5349445f 	movtpl	r4, #37983	; 0x945f
    3d9c:	454c4241 	strbmi	r4, [ip, #-577]	; 0xfffffdbf
    3da0:	564e2820 	strbpl	r2, [lr], -r0, lsr #16
    3da4:	495f4349 	ldmdbmi	pc, {r0, r3, r6, r8, r9, lr}^	; <UNPREDICTABLE>
    3da8:	30524543 	subscc	r4, r2, r3, asr #10
    3dac:	203d7c20 	eorscs	r7, sp, r0, lsr #24
    3db0:	3c3c3128 	ldfccs	f3, [ip], #-160	; 0xffffff60
    3db4:	29293332 	stmdbcs	r9!, {r1, r4, r5, r8, r9, ip, sp}
    3db8:	555f5f00 	ldrbpl	r5, [pc, #-3840]	; 2ec0 <_Min_Stack_Size+0x2ac0>
    3dbc:	5f544e49 	svcpl	0x00544e49
    3dc0:	5341454c 	movtpl	r4, #5452	; 0x154c
    3dc4:	5f323354 	svcpl	0x00323354
    3dc8:	5f58414d 	svcpl	0x0058414d
    3dcc:	7830205f 	ldmdavc	r0!, {r0, r1, r2, r3, r4, r6, sp}
    3dd0:	66666666 	strbtvs	r6, [r6], -r6, ror #12
    3dd4:	66666666 	strbtvs	r6, [r6], -r6, ror #12
    3dd8:	5f004c55 	svcpl	0x00004c55
    3ddc:	4c42445f 	cfstrdmi	mvd4, [r2], {95}	; 0x5f
    3de0:	5350455f 	cmppl	r0, #398458880	; 0x17c00000
    3de4:	4e4f4c49 	cdpmi	12, 4, cr4, cr15, cr9, {2}
    3de8:	28205f5f 	stmdacs	r0!, {r0, r1, r2, r3, r4, r6, r8, r9, sl, fp, ip, lr}
    3dec:	756f6428 	strbvc	r6, [pc, #-1064]!	; 39cc <_Min_Stack_Size+0x35cc>
    3df0:	29656c62 	stmdbcs	r5!, {r1, r5, r6, sl, fp, sp, lr}^
    3df4:	32322e32 	eorscc	r2, r2, #800	; 0x320
    3df8:	36343430 			; <UNDEFINED> instruction: 0x36343430
    3dfc:	32393430 	eorscc	r3, r9, #48, 8	; 0x30000000
    3e00:	31333035 	teqcc	r3, r5, lsr r0
    3e04:	2d653133 	stfcse	f3, [r5, #-204]!	; 0xffffff34
    3e08:	294c3631 	stmdbcs	ip, {r0, r4, r5, r9, sl, ip, sp}^
    3e0c:	6c5f5f00 	mrrcvs	15, 0, r5, pc, cr0	; <UNPREDICTABLE>
    3e10:	5f6b636f 	svcpl	0x006b636f
    3e14:	75716361 	ldrbvc	r6, [r1, #-865]!	; 0xfffffc9f
    3e18:	28657269 	stmdacs	r5!, {r0, r3, r5, r6, r9, ip, sp, lr}^
    3e1c:	6b636f6c 	blvs	18dfbd4 <_Min_Stack_Size+0x18df7d4>
    3e20:	28282029 	stmdacs	r8!, {r0, r3, r5, sp}
    3e24:	64696f76 	strbtvs	r6, [r9], #-3958	; 0xfffff08a
    3e28:	29302029 	ldmdbcs	r0!, {r0, r3, r5, sp}
    3e2c:	4c5f5f00 	mrrcmi	15, 0, r5, pc, cr0	; <UNPREDICTABLE>
    3e30:	43415246 	movtmi	r5, #4678	; 0x1246
    3e34:	494d5f54 	stmdbmi	sp, {r2, r4, r6, r8, r9, sl, fp, ip, lr}^
    3e38:	205f5f4e 	subscs	r5, pc, lr, asr #30
    3e3c:	2e302d28 	cdpcs	13, 3, cr2, cr0, cr8, {1}
    3e40:	2d524c35 	ldclcs	12, cr4, [r2, #-212]	; 0xffffff2c
    3e44:	4c352e30 	ldcmi	14, cr2, [r5], #-192	; 0xffffff40
    3e48:	47002952 	smlsdmi	r0, r2, r9, r2
    3e4c:	5f4f4950 	svcpl	0x004f4950
    3e50:	45455053 	strbmi	r5, [r5, #-83]	; 0xffffffad
    3e54:	30355f44 	eorscc	r5, r5, r4, asr #30
    3e58:	7830204d 	ldmdavc	r0!, {r0, r2, r3, r6, sp}
    3e5c:	30303030 	eorscc	r3, r0, r0, lsr r0
    3e60:	33303030 	teqcc	r0, #48	; 0x30
    3e64:	525f0075 	subspl	r0, pc, #117	; 0x75
    3e68:	544e4545 	strbpl	r4, [lr], #-1349	; 0xfffffabb
    3e6c:	5343575f 	movtpl	r5, #14175	; 0x375f
    3e70:	4d4f5452 	cfstrdmi	mvd5, [pc, #-328]	; 3d30 <_Min_Stack_Size+0x3930>
    3e74:	535f5342 	cmppl	pc, #134217729	; 0x8000001
    3e78:	45544154 	ldrbmi	r4, [r4, #-340]	; 0xfffffeac
    3e7c:	72747028 	rsbsvc	r7, r4, #40	; 0x28
    3e80:	28282029 	stmdacs	r8!, {r0, r3, r5, sp}
    3e84:	29727470 	ldmdbcs	r2!, {r4, r5, r6, sl, ip, sp, lr}^
    3e88:	6d5f3e2d 	ldclvs	14, cr3, [pc, #-180]	; 3ddc <_Min_Stack_Size+0x39dc>
    3e8c:	2d637369 	stclcs	3, cr7, [r3, #-420]!	; 0xfffffe5c
    3e90:	63775f3e 	cmnvs	r7, #62, 30	; 0xf8
    3e94:	6f747273 	svcvs	0x00747273
    3e98:	5f73626d 	svcpl	0x0073626d
    3e9c:	74617473 	strbtvc	r7, [r1], #-1139	; 0xfffffb8d
    3ea0:	5f002965 	svcpl	0x00002965
    3ea4:	544e495f 	strbpl	r4, [lr], #-2399	; 0xfffff6a1
    3ea8:	41454c5f 	cmpmi	r5, pc, asr ip
    3eac:	34365453 	ldrtcc	r5, [r6], #-1107	; 0xfffffbad
    3eb0:	4449575f 	strbmi	r5, [r9], #-1887	; 0xfffff8a1
    3eb4:	5f5f4854 	svcpl	0x005f4854
    3eb8:	00343620 	eorseq	r3, r4, r0, lsr #12
    3ebc:	4c465f5f 	mcrrmi	15, 5, r5, r6, cr15
    3ec0:	41485f54 	cmpmi	r8, r4, asr pc
    3ec4:	4e495f53 	mcrmi	15, 2, r5, cr9, cr3, {2}
    3ec8:	494e4946 	stmdbmi	lr, {r1, r2, r6, r8, fp, lr}^
    3ecc:	5f5f5954 	svcpl	0x005f5954
    3ed0:	5f003120 	svcpl	0x00003120
    3ed4:	4e454552 	mcrmi	5, 2, r4, cr5, cr2, {2}
    3ed8:	4c475f54 	mcrrmi	15, 5, r5, r7, cr4
    3edc:	4c41424f 	sfmmi	f4, 2, [r1], {79}	; 0x4f
    3ee0:	4554415f 	ldrbmi	r4, [r4, #-351]	; 0xfffffea1
    3ee4:	20544958 	subscs	r4, r4, r8, asr r9
    3ee8:	5f5f0031 	svcpl	0x005f0031
    3eec:	55434341 	strbpl	r4, [r3, #-833]	; 0xfffffcbf
    3ef0:	414d5f4d 	cmpmi	sp, sp, asr #30
    3ef4:	205f5f58 	subscs	r5, pc, r8, asr pc	; <UNPREDICTABLE>
    3ef8:	46375830 			; <UNDEFINED> instruction: 0x46375830
    3efc:	46464646 	strbmi	r4, [r6], -r6, asr #12
    3f00:	2d504646 	ldclcs	6, cr4, [r0, #-280]	; 0xfffffee8
    3f04:	004b3531 	subeq	r3, fp, r1, lsr r5
    3f08:	4e495f5f 	mcrmi	15, 2, r5, cr9, cr15, {2}
    3f0c:	4d5f3854 	ldclmi	8, cr3, [pc, #-336]	; 3dc4 <_Min_Stack_Size+0x39c4>
    3f10:	5f5f5841 	svcpl	0x005f5841
    3f14:	37783020 	ldrbcc	r3, [r8, -r0, lsr #32]!
    3f18:	58450066 	stmdapl	r5, {r1, r2, r5, r6}^
    3f1c:	33314954 	teqcc	r1, #84, 18	; 0x150000
    3f20:	33314250 	teqcc	r1, #80, 4
    3f24:	58452820 	stmdapl	r5, {r5, fp, sp}^
    3f28:	475f4954 			; <UNDEFINED> instruction: 0x475f4954
    3f2c:	5f4f4950 	svcpl	0x004f4950
    3f30:	7070614d 	rsbsvc	r6, r0, sp, asr #2
    3f34:	5f676e69 	svcpl	0x00676e69
    3f38:	457b2974 	ldrbmi	r2, [fp, #-2420]!	; 0xfffff68c
    3f3c:	31495458 	cmpcc	r9, r8, asr r4
    3f40:	47202c33 			; <UNDEFINED> instruction: 0x47202c33
    3f44:	424f4950 	submi	r4, pc, #80, 18	; 0x140000
    3f48:	5047202c 	subpl	r2, r7, ip, lsr #32
    3f4c:	505f4f49 	subspl	r4, pc, r9, asr #30
    3f50:	315f4e49 	cmpcc	pc, r9, asr #28
    3f54:	45202c33 	strmi	r2, [r0, #-3123]!	; 0xfffff3cd
    3f58:	31495458 	cmpcc	r9, r8, asr r4
    3f5c:	52495f33 	subpl	r5, r9, #51, 30	; 0xcc
    3f60:	007d2051 	rsbseq	r2, sp, r1, asr r0
    3f64:	43475f5f 	movtmi	r5, #32607	; 0x7f5f
    3f68:	41485f43 	cmpmi	r8, r3, asr #30
    3f6c:	445f4556 	ldrbmi	r4, [pc], #-1366	; 3f74 <_Min_Stack_Size+0x3b74>
    3f70:	46524157 			; <UNDEFINED> instruction: 0x46524157
    3f74:	46435f32 			; <UNDEFINED> instruction: 0x46435f32
    3f78:	53415f49 	movtpl	r5, #8009	; 0x1f49
    3f7c:	0031204d 	eorseq	r2, r1, sp, asr #32
    3f80:	695f5f5f 	ldmdbvs	pc, {r0, r1, r2, r3, r4, r6, r8, r9, sl, fp, ip, lr}^	; <UNPREDICTABLE>
    3f84:	5f38746e 	svcpl	0x0038746e
    3f88:	65645f74 	strbvs	r5, [r4, #-3956]!	; 0xfffff08c
    3f8c:	656e6966 	strbvs	r6, [lr, #-2406]!	; 0xfffff69a
    3f90:	00312064 	eorseq	r2, r1, r4, rrx
    3f94:	46535f5f 	usaxmi	r5, r3, pc	; <UNPREDICTABLE>
    3f98:	54434152 	strbpl	r4, [r3], #-338	; 0xfffffeae
    3f9c:	4e494d5f 	mcrmi	13, 2, r4, cr9, cr15, {2}
    3fa0:	28205f5f 	stmdacs	r0!, {r0, r1, r2, r3, r4, r6, r8, r9, sl, fp, ip, lr}
    3fa4:	352e302d 	strcc	r3, [lr, #-45]!	; 0xffffffd3
    3fa8:	302d5248 	eorcc	r5, sp, r8, asr #4
    3fac:	5248352e 	subpl	r3, r8, #192937984	; 0xb800000
    3fb0:	5f5f0029 	svcpl	0x005f0029
    3fb4:	495f4153 	ldmdbmi	pc, {r0, r1, r4, r6, r8, lr}^	; <UNPREDICTABLE>
    3fb8:	5f544942 	svcpl	0x00544942
    3fbc:	3631205f 			; <UNDEFINED> instruction: 0x3631205f
    3fc0:	6f5f5f00 	svcvs	0x005f5f00
    3fc4:	65736666 	ldrbvs	r6, [r3, #-1638]!	; 0xfffff99a
    3fc8:	28666f74 	stmdacs	r6!, {r2, r4, r5, r6, r8, r9, sl, fp, sp, lr}^
    3fcc:	65707974 	ldrbvs	r7, [r0, #-2420]!	; 0xfffff68c
    3fd0:	6569662c 	strbvs	r6, [r9, #-1580]!	; 0xfffff9d4
    3fd4:	2029646c 	eorcs	r6, r9, ip, ror #8
    3fd8:	7366666f 	cmnvc	r6, #116391936	; 0x6f00000
    3fdc:	666f7465 	strbtvs	r7, [pc], -r5, ror #8
    3fe0:	70797428 	rsbsvc	r7, r9, r8, lsr #8
    3fe4:	66202c65 	strtvs	r2, [r0], -r5, ror #24
    3fe8:	646c6569 	strbtvs	r6, [ip], #-1385	; 0xfffffa97
    3fec:	5f5f0029 	svcpl	0x005f0029
    3ff0:	5f434347 	svcpl	0x00434347
    3ff4:	5f434549 	svcpl	0x00434549
    3ff8:	5f393535 	svcpl	0x00393535
    3ffc:	504d4f43 	subpl	r4, sp, r3, asr #30
    4000:	2058454c 	subscs	r4, r8, ip, asr #10
    4004:	5f5f0030 	svcpl	0x005f0030
    4008:	6e6e6f6e 	cdpvs	15, 6, cr6, cr14, cr14, {3}
    400c:	5f6c6c75 	svcpl	0x006c6c75
    4010:	206c6c61 	rsbcs	r6, ip, r1, ror #24
    4014:	74615f5f 	strbtvc	r5, [r1], #-3935	; 0xfffff0a1
    4018:	62697274 	rsbvs	r7, r9, #116, 4	; 0x40000007
    401c:	5f657475 	svcpl	0x00657475
    4020:	5f28285f 	svcpl	0x0028285f
    4024:	6e6f6e5f 	mcrvs	14, 3, r6, cr15, cr15, {2}
    4028:	6c6c756e 	cfstr64vs	mvdx7, [ip], #-440	; 0xfffffe48
    402c:	29295f5f 	stmdbcs	r9!, {r0, r1, r2, r3, r4, r6, r8, r9, sl, fp, ip, lr}
    4030:	475f5f00 	ldrbmi	r5, [pc, -r0, lsl #30]
    4034:	5f43554e 	svcpl	0x0043554e
    4038:	0037205f 	eorseq	r2, r7, pc, asr r0
    403c:	52415f5f 	subpl	r5, r1, #380	; 0x17c
    4040:	50465f4d 	subpl	r5, r6, sp, asr #30
    4044:	465f3631 			; <UNDEFINED> instruction: 0x465f3631
    4048:	414d524f 	cmpmi	sp, pc, asr #4
    404c:	45495f54 	strbmi	r5, [r9, #-3924]	; 0xfffff0ac
    4050:	5f004545 	svcpl	0x00004545
    4054:	4e49555f 	mcrmi	5, 2, r5, cr9, cr15, {2}
    4058:	5f363154 	svcpl	0x00363154
    405c:	45505954 	ldrbmi	r5, [r0, #-2388]	; 0xfffff6ac
    4060:	73205f5f 			; <UNDEFINED> instruction: 0x73205f5f
    4064:	74726f68 	ldrbtvc	r6, [r2], #-3944	; 0xfffff098
    4068:	736e7520 	cmnvc	lr, #32, 10	; 0x8000000
    406c:	656e6769 	strbvs	r6, [lr, #-1897]!	; 0xfffff897
    4070:	6e692064 	cdpvs	0, 6, cr2, cr9, cr4, {3}
    4074:	505f0074 	subspl	r0, pc, r4, ror r0	; <UNPREDICTABLE>
    4078:	5849534f 	stmdapl	r9, {r0, r1, r2, r3, r6, r8, r9, ip, lr}^
    407c:	554f535f 	strbpl	r5, [pc, #-863]	; 3d25 <_Min_Stack_Size+0x3925>
    4080:	00454352 	subeq	r4, r5, r2, asr r3
    4084:	444e4152 	strbmi	r4, [lr], #-338	; 0xfffffeae
    4088:	58414d5f 	stmdapl	r1, {r0, r1, r2, r3, r4, r6, r8, sl, fp, lr}^
    408c:	525f5f20 	subspl	r5, pc, #32, 30	; 0x80
    4090:	5f444e41 	svcpl	0x00444e41
    4094:	0058414d 	subseq	r4, r8, sp, asr #2
    4098:	69755f5f 	ldmdbvs	r5!, {r0, r1, r2, r3, r4, r6, r8, r9, sl, fp, ip, lr}^
    409c:	3233746e 	eorscc	r7, r3, #1845493760	; 0x6e000000
    40a0:	5f00745f 	svcpl	0x0000745f
    40a4:	464f535f 			; <UNDEFINED> instruction: 0x464f535f
    40a8:	5f504654 	svcpl	0x00504654
    40ac:	0031205f 	eorseq	r2, r1, pc, asr r0
    40b0:	4545525f 	strbmi	r5, [r5, #-607]	; 0xfffffda1
    40b4:	545f544e 	ldrbpl	r5, [pc], #-1102	; 40bc <_Min_Stack_Size+0x3cbc>
    40b8:	7470284d 	ldrbtvc	r2, [r0], #-2125	; 0xfffff7b3
    40bc:	28202972 	stmdacs	r0!, {r1, r4, r5, r6, r8, fp, sp}
    40c0:	72747028 	rsbsvc	r7, r4, #40	; 0x28
    40c4:	5f3e2d29 	svcpl	0x003e2d29
    40c8:	61636f6c 	cmnvs	r3, ip, ror #30
    40cc:	6d69746c 	cfstrdvs	mvd7, [r9, #-432]!	; 0xfffffe50
    40d0:	75625f65 	strbvc	r5, [r2, #-3941]!	; 0xfffff09b
    40d4:	5f002966 	svcpl	0x00002966
    40d8:	4e49555f 	mcrmi	5, 2, r5, cr9, cr15, {2}
    40dc:	5f323354 	svcpl	0x00323354
    40e0:	5f58414d 	svcpl	0x0058414d
    40e4:	7830205f 	ldmdavc	r0!, {r0, r1, r2, r3, r4, r6, sp}
    40e8:	66666666 	strbtvs	r6, [r6], -r6, ror #12
    40ec:	66666666 	strbtvs	r6, [r6], -r6, ror #12
    40f0:	5f004c55 	svcpl	0x00004c55
    40f4:	6964735f 	stmdbvs	r4!, {r0, r1, r2, r3, r4, r6, r8, r9, ip, sp, lr}^
    40f8:	696e6964 	stmdbvs	lr!, {r2, r5, r6, r8, fp, sp, lr}^
    40fc:	5f5f0074 	svcpl	0x005f0074
    4100:	33434544 	movtcc	r4, #13636	; 0x3544
    4104:	414d5f32 	cmpmi	sp, r2, lsr pc
    4108:	58455f58 	stmdapl	r5, {r3, r4, r6, r8, r9, sl, fp, ip, lr}^
    410c:	205f5f50 	subscs	r5, pc, r0, asr pc	; <UNPREDICTABLE>
    4110:	5f003739 	svcpl	0x00003739
    4114:	49535f54 	ldmdbmi	r3, {r2, r4, r6, r8, r9, sl, fp, ip, lr}^
    4118:	205f455a 	subscs	r4, pc, sl, asr r5	; <UNPREDICTABLE>
    411c:	465f5f00 	ldrbmi	r5, [pc], -r0, lsl #30
    4120:	455f544c 	ldrbmi	r5, [pc, #-1100]	; 3cdc <_Min_Stack_Size+0x38dc>
    4124:	5f4c4156 	svcpl	0x004c4156
    4128:	4854454d 	ldmdami	r4, {r0, r2, r3, r6, r8, sl, lr}^
    412c:	545f444f 	ldrbpl	r4, [pc], #-1103	; 4134 <_Min_Stack_Size+0x3d34>
    4130:	38315f53 	ldmdacc	r1!, {r0, r1, r4, r6, r8, r9, sl, fp, ip, lr}
    4134:	5f313636 	svcpl	0x00313636
    4138:	205f5f33 	subscs	r5, pc, r3, lsr pc	; <UNPREDICTABLE>
    413c:	5f5f0030 	svcpl	0x005f0030
    4140:	72747461 	rsbsvc	r7, r4, #1627389952	; 0x61000000
    4144:	74756269 	ldrbtvc	r6, [r5], #-617	; 0xfffffd97
    4148:	616d5f65 	cmnvs	sp, r5, ror #30
    414c:	636f6c6c 	cmnvs	pc, #108, 24	; 0x6c00
    4150:	00205f5f 	eoreq	r5, r0, pc, asr pc
    4154:	6f6c5f5f 	svcvs	0x006c5f5f
    4158:	695f6b63 	ldmdbvs	pc, {r0, r1, r5, r6, r8, r9, fp, sp, lr}^	; <UNPREDICTABLE>
    415c:	5f74696e 	svcpl	0x0074696e
    4160:	75636572 	strbvc	r6, [r3, #-1394]!	; 0xfffffa8e
    4164:	76697372 			; <UNDEFINED> instruction: 0x76697372
    4168:	6f6c2865 	svcvs	0x006c2865
    416c:	20296b63 	eorcs	r6, r9, r3, ror #22
    4170:	6f762828 	svcvs	0x00762828
    4174:	20296469 	eorcs	r6, r9, r9, ror #8
    4178:	47002930 	smladxmi	r0, r0, r9, r2
    417c:	414f4950 	cmpmi	pc, r0, asr r9	; <UNPREDICTABLE>
    4180:	47282820 	strmi	r2, [r8, -r0, lsr #16]!
    4184:	5f4f4950 	svcpl	0x004f4950
    4188:	65707954 	ldrbvs	r7, [r0, #-2388]!	; 0xfffff6ac
    418c:	2a666544 	bcs	199d6a4 <_Min_Stack_Size+0x199d2a4>
    4190:	49504729 	ldmdbmi	r0, {r0, r3, r5, r8, r9, sl, lr}^
    4194:	425f414f 	subsmi	r4, pc, #-1073741805	; 0xc0000013
    4198:	29455341 	stmdbcs	r5, {r0, r6, r8, r9, ip, lr}^
    419c:	4e5f5f00 	cdpmi	15, 5, cr5, cr15, cr0, {0}
    41a0:	414c4c55 	cmpmi	ip, r5, asr ip
    41a4:	494c4942 	stmdbmi	ip, {r1, r6, r8, fp, lr}^
    41a8:	505f5954 	subspl	r5, pc, r4, asr r9	; <UNPREDICTABLE>
    41ac:	4d474152 	stfmie	f4, [r7, #-328]	; 0xfffffeb8
    41b0:	4f505f41 	svcmi	0x00505f41
    41b4:	5f002050 	svcpl	0x00002050
    41b8:	7365725f 	cmnvc	r5, #-268435451	; 0xf0000005
    41bc:	63697274 	cmnvs	r9, #116, 4	; 0x40000007
    41c0:	65722074 	ldrbvs	r2, [r2, #-116]!	; 0xffffff8c
    41c4:	69727473 	ldmdbvs	r2!, {r0, r1, r4, r5, r6, sl, ip, sp, lr}^
    41c8:	5f007463 	svcpl	0x00007463
    41cc:	4e49555f 	mcrmi	5, 2, r5, cr9, cr15, {2}
    41d0:	41465f54 	cmpmi	r6, r4, asr pc
    41d4:	5f385453 	svcpl	0x00385453
    41d8:	45505954 	ldrbmi	r5, [r0, #-2388]	; 0xfffff6ac
    41dc:	75205f5f 	strvc	r5, [r0, #-3935]!	; 0xfffff0a1
    41e0:	6769736e 	strbvs	r7, [r9, -lr, ror #6]!
    41e4:	2064656e 	rsbcs	r6, r4, lr, ror #10
    41e8:	00746e69 	rsbseq	r6, r4, r9, ror #28
    41ec:	4c4c5f5f 	mcrrmi	15, 5, r5, ip, cr15
    41f0:	55434341 	strbpl	r4, [r3, #-833]	; 0xfffffcbf
    41f4:	42495f4d 	submi	r5, r9, #308	; 0x134
    41f8:	5f5f5449 	svcpl	0x005f5449
    41fc:	00323320 	eorseq	r3, r2, r0, lsr #6
    4200:	52465f5f 	subpl	r5, r6, #380	; 0x17c
    4204:	5f544341 	svcpl	0x00544341
    4208:	49535045 	ldmdbmi	r3, {r0, r2, r6, ip, lr}^
    420c:	5f4e4f4c 	svcpl	0x004e4f4c
    4210:	7830205f 	ldmdavc	r0!, {r0, r1, r2, r3, r4, r6, sp}
    4214:	312d5031 			; <UNDEFINED> instruction: 0x312d5031
    4218:	5f005235 	svcpl	0x00005235
    421c:	7165725f 	cmnvc	r5, pc, asr r2
    4220:	65726975 	ldrbvs	r6, [r2, #-2421]!	; 0xfffff68b
    4224:	6e755f73 	mrcvs	15, 3, r5, cr5, cr3, {3}
    4228:	6b636f6c 	blvs	18dffe0 <_Min_Stack_Size+0x18dfbe0>
    422c:	2e286465 	cdpcs	4, 2, cr6, cr8, cr5, {3}
    4230:	20292e2e 	eorcs	r2, r9, lr, lsr #28
    4234:	6f6c5f5f 	svcvs	0x006c5f5f
    4238:	615f6b63 	cmpvs	pc, r3, ror #22
    423c:	746f6e6e 	strbtvc	r6, [pc], #-3694	; 4244 <_Min_Stack_Size+0x3e44>
    4240:	28657461 	stmdacs	r5!, {r0, r5, r6, sl, ip, sp, lr}^
    4244:	6b636f6c 	blvs	18dfffc <_Min_Stack_Size+0x18dfbfc>
    4248:	78655f73 	stmdavc	r5!, {r0, r1, r4, r5, r6, r8, r9, sl, fp, ip, lr}^
    424c:	64756c63 	ldrbtvs	r6, [r5], #-3171	; 0xfffff39d
    4250:	5f286465 	svcpl	0x00286465
    4254:	5f41565f 	svcpl	0x0041565f
    4258:	53475241 	movtpl	r5, #29249	; 0x7241
    425c:	29295f5f 	stmdbcs	r9!, {r0, r1, r2, r3, r4, r6, r8, r9, sl, fp, ip, lr}
    4260:	544e4900 	strbpl	r4, [lr], #-2304	; 0xfffff700
    4264:	28435f38 	stmdacs	r3, {r3, r4, r5, r8, r9, sl, fp, ip, lr}^
    4268:	5f202978 	svcpl	0x00202978
    426c:	544e495f 	strbpl	r4, [lr], #-2399	; 0xfffff6a1
    4270:	28435f38 	stmdacs	r3, {r3, r4, r5, r8, r9, sl, fp, ip, lr}^
    4274:	5f002978 	svcpl	0x00002978
    4278:	544e495f 	strbpl	r4, [lr], #-2399	; 0xfffff6a1
    427c:	4d5f3233 	lfmmi	f3, 2, [pc, #-204]	; 41b8 <_Min_Stack_Size+0x3db8>
    4280:	5f5f5841 	svcpl	0x005f5841
    4284:	37783020 	ldrbcc	r3, [r8, -r0, lsr #32]!
    4288:	66666666 	strbtvs	r6, [r6], -r6, ror #12
    428c:	4c666666 	stclmi	6, cr6, [r6], #-408	; 0xfffffe68
    4290:	6d5f5f00 	ldclvs	15, cr5, [pc, #-0]	; 4298 <_Min_Stack_Size+0x3e98>
    4294:	735f6e69 	cmpvc	pc, #1680	; 0x690
    4298:	28657a69 	stmdacs	r5!, {r0, r3, r5, r6, r9, fp, ip, sp, lr}^
    429c:	73202978 			; <UNDEFINED> instruction: 0x73202978
    42a0:	69746174 	ldmdbvs	r4!, {r2, r4, r5, r6, r8, sp, lr}^
    42a4:	78282063 	stmdavc	r8!, {r0, r1, r5, r6, sp}
    42a8:	5f5f0029 	svcpl	0x005f0029
    42ac:	5f585847 	svcpl	0x00585847
    42b0:	45505954 	ldrbmi	r5, [r0, #-2388]	; 0xfffff6ac
    42b4:	4f464e49 	svcmi	0x00464e49
    42b8:	5551455f 	ldrbpl	r4, [r1, #-1375]	; 0xfffffaa1
    42bc:	54494c41 	strbpl	r4, [r9], #-3137	; 0xfffff3bf
    42c0:	4e495f59 	mcrmi	15, 2, r5, cr9, cr9, {2}
    42c4:	454e494c 	strbmi	r4, [lr, #-2380]	; 0xfffff6b4
    42c8:	4e003020 	cdpmi	0, 0, cr3, cr0, cr0, {1}
    42cc:	5f434956 	svcpl	0x00434956
    42d0:	36515249 	ldrbcc	r5, [r1], -r9, asr #4
    42d4:	5458455f 	ldrbpl	r4, [r8], #-1375	; 0xfffffaa1
    42d8:	445f3249 	ldrbmi	r3, [pc], #-585	; 42e0 <_Min_Stack_Size+0x3ee0>
    42dc:	42415349 	submi	r5, r1, #603979777	; 0x24000001
    42e0:	2820454c 	stmdacs	r0!, {r2, r3, r6, r8, sl, lr}
    42e4:	4349564e 	movtmi	r5, #38478	; 0x964e
    42e8:	4543495f 	strbmi	r4, [r3, #-2399]	; 0xfffff6a1
    42ec:	7c203052 	stcvc	0, cr3, [r0], #-328	; 0xfffffeb8
    42f0:	3128203d 			; <UNDEFINED> instruction: 0x3128203d
    42f4:	29383c3c 	ldmdbcs	r8!, {r2, r3, r4, r5, sl, fp, ip, sp}
    42f8:	4c5f0029 	mrrcmi	0, 2, r0, pc, cr9	; <UNPREDICTABLE>
    42fc:	5f4b434f 	svcpl	0x004b434f
    4300:	55434552 	strbpl	r4, [r3, #-1362]	; 0xfffffaae
    4304:	56495352 			; <UNDEFINED> instruction: 0x56495352
    4308:	00545f45 	subseq	r5, r4, r5, asr #30
    430c:	45425f5f 	strbmi	r5, [r2, #-3935]	; 0xfffff0a1
    4310:	5f4e4947 	svcpl	0x004e4947
    4314:	4c434544 	cfstr64mi	mvdx4, [r3], {68}	; 0x44
    4318:	5f002053 	svcpl	0x00002053
    431c:	544e495f 	strbpl	r4, [lr], #-2399	; 0xfffff6a1
    4320:	41454c5f 	cmpmi	r5, pc, asr ip
    4324:	34365453 	ldrtcc	r5, [r6], #-1107	; 0xfffffbad
    4328:	58414d5f 	stmdapl	r1, {r0, r1, r2, r3, r4, r6, r8, sl, fp, lr}^
    432c:	30205f5f 	eorcc	r5, r0, pc, asr pc
    4330:	66663778 			; <UNDEFINED> instruction: 0x66663778
    4334:	66666666 	strbtvs	r6, [r6], -r6, ror #12
    4338:	66666666 	strbtvs	r6, [r6], -r6, ror #12
    433c:	66666666 	strbtvs	r6, [r6], -r6, ror #12
    4340:	004c4c66 	subeq	r4, ip, r6, ror #24
    4344:	4545525f 	strbmi	r5, [r5, #-607]	; 0xfffffda1
    4348:	4d5f544e 	cfldrdmi	mvd5, [pc, #-312]	; 4218 <_Min_Stack_Size+0x3e18>
    434c:	454c5242 	strbmi	r5, [ip, #-578]	; 0xfffffdbe
    4350:	54535f4e 	ldrbpl	r5, [r3], #-3918	; 0xfffff0b2
    4354:	28455441 	stmdacs	r5, {r0, r6, sl, ip, lr}^
    4358:	29727470 	ldmdbcs	r2!, {r4, r5, r6, sl, ip, sp, lr}^
    435c:	70282820 	eorvc	r2, r8, r0, lsr #16
    4360:	2d297274 	sfmcs	f7, 4, [r9, #-464]!	; 0xfffffe30
    4364:	696d5f3e 	stmdbvs	sp!, {r1, r2, r3, r4, r5, r8, r9, sl, fp, ip, lr}^
    4368:	3e2d6373 	mcrcc	3, 1, r6, cr13, cr3, {3}
    436c:	72626d5f 	rsbvc	r6, r2, #6080	; 0x17c0
    4370:	5f6e656c 	svcpl	0x006e656c
    4374:	74617473 	strbtvc	r7, [r1], #-1139	; 0xfffffb8d
    4378:	5f002965 	svcpl	0x00002965
    437c:	5f66735f 	svcpl	0x0066735f
    4380:	656b6166 	strbvs	r6, [fp, #-358]!	; 0xfffffe9a
    4384:	6474735f 	ldrbtvs	r7, [r4], #-863	; 0xfffffca1
    4388:	00727265 	rsbseq	r7, r2, r5, ror #4
    438c:	5359535f 	cmppl	r9, #2080374785	; 0x7c000001
    4390:	54535f5f 	ldrbpl	r5, [r3], #-3935	; 0xfffff0a1
    4394:	544e4944 	strbpl	r4, [lr], #-2372	; 0xfffff6bc
    4398:	0020485f 	eoreq	r4, r0, pc, asr r8
    439c:	656e5f5f 	strbvs	r5, [lr, #-3935]!	; 0xfffff0a1
    43a0:	4e5f6465 	cdpmi	4, 5, cr6, cr15, cr5, {3}
    43a4:	204c4c55 	subcs	r4, ip, r5, asr ip
    43a8:	49504700 	ldmdbmi	r0, {r8, r9, sl, lr}^
    43ac:	49505f4f 	ldmdbmi	r0, {r0, r1, r2, r3, r6, r8, r9, sl, fp, ip, lr}^
    43b0:	20395f4e 	eorscs	r5, r9, lr, asr #30
    43b4:	69752828 	ldmdbvs	r5!, {r3, r5, fp, sp}^
    43b8:	3631746e 	ldrtcc	r7, [r1], -lr, ror #8
    43bc:	3029745f 	eorcc	r7, r9, pc, asr r4
    43c0:	30323078 	eorscc	r3, r2, r8, ror r0
    43c4:	5f002930 	svcpl	0x00002930
    43c8:	41464544 	cmpmi	r6, r4, asr #10
    43cc:	5f544c55 	svcpl	0x00544c55
    43d0:	52554f53 	subspl	r4, r5, #332	; 0x14c
    43d4:	31204543 			; <UNDEFINED> instruction: 0x31204543
    43d8:	465f5f00 	ldrbmi	r5, [pc], -r0, lsl #30
    43dc:	3233544c 	eorscc	r5, r3, #76, 8	; 0x4c000000
    43e0:	4e414d5f 	mcrmi	13, 2, r4, cr1, cr15, {2}
    43e4:	49445f54 	stmdbmi	r4, {r2, r4, r6, r8, r9, sl, fp, ip, lr}^
    43e8:	205f5f47 	subscs	r5, pc, r7, asr #30
    43ec:	5f003432 	svcpl	0x00003432
    43f0:	6e727265 	cdpvs	2, 7, cr7, cr2, cr5, {3}
    43f4:	5f5f006f 	svcpl	0x005f006f
    43f8:	53524556 	cmppl	r2, #360710144	; 0x15800000
    43fc:	5f4e4f49 	svcpl	0x004e4f49
    4400:	3722205f 			; <UNDEFINED> instruction: 0x3722205f
    4404:	312e332e 			; <UNDEFINED> instruction: 0x312e332e
    4408:	31303220 	teqcc	r0, r0, lsr #4
    440c:	32363038 	eorscc	r3, r6, #56	; 0x38
    4410:	72282032 	eorvc	r2, r8, #50	; 0x32
    4414:	61656c65 	cmnvs	r5, r5, ror #24
    4418:	20296573 	eorcs	r6, r9, r3, ror r5
    441c:	4d52415b 	ldfmie	f4, [r2, #-364]	; 0xfffffe94
    4420:	626d652f 	rsbvs	r6, sp, #197132288	; 0xbc00000
    4424:	65646465 	strbvs	r6, [r4, #-1125]!	; 0xfffffb9b
    4428:	2d372d64 	ldccs	13, cr2, [r7, #-400]!	; 0xfffffe70
    442c:	6e617262 	cdpvs	2, 6, cr7, cr1, cr2, {3}
    4430:	72206863 	eorvc	r6, r0, #6488064	; 0x630000
    4434:	73697665 	cmnvc	r9, #105906176	; 0x6500000
    4438:	206e6f69 	rsbcs	r6, lr, r9, ror #30
    443c:	39313632 	ldmdbcc	r1!, {r1, r4, r5, r9, sl, ip, sp}
    4440:	225d3730 	subscs	r3, sp, #48, 14	; 0xc00000
    4444:	465f5f00 	ldrbmi	r5, [pc], -r0, lsl #30
    4448:	3233544c 	eorscc	r5, r3, #76, 8	; 0x4c000000
    444c:	4e45445f 	mcrmi	4, 2, r4, cr5, cr15, {2}
    4450:	5f4d524f 	svcpl	0x004d524f
    4454:	5f4e494d 	svcpl	0x004e494d
    4458:	2e31205f 	mrccs	0, 1, r2, cr1, cr15, {2}
    445c:	32313034 	eorscc	r3, r1, #52	; 0x34
    4460:	36343839 			; <UNDEFINED> instruction: 0x36343839
    4464:	34323334 	ldrtcc	r3, [r2], #-820	; 0xfffffccc
    4468:	31373138 	teqcc	r7, r8, lsr r1
    446c:	35342d65 	ldrcc	r2, [r4, #-3429]!	; 0xfffff29b
    4470:	00323346 	eorseq	r3, r2, r6, asr #6
    4474:	65735f5f 	ldrbvs	r5, [r3, #-3935]!	; 0xfffff0a1
    4478:	6f697463 	svcvs	0x00697463
    447c:	2978286e 	ldmdbcs	r8!, {r1, r2, r3, r5, r6, fp, sp}^
    4480:	615f5f20 	cmpvs	pc, r0, lsr #30
    4484:	69727474 	ldmdbvs	r2!, {r2, r4, r5, r6, sl, ip, sp, lr}^
    4488:	65747562 	ldrbvs	r7, [r4, #-1378]!	; 0xfffffa9e
    448c:	28285f5f 	stmdacs	r8!, {r0, r1, r2, r3, r4, r6, r8, r9, sl, fp, ip, lr}
    4490:	65735f5f 	ldrbvs	r5, [r3, #-3935]!	; 0xfffff0a1
    4494:	6f697463 	svcvs	0x00697463
    4498:	285f5f6e 	ldmdacs	pc, {r1, r2, r3, r5, r6, r8, r9, sl, fp, ip, lr}^	; <UNPREDICTABLE>
    449c:	29292978 	stmdbcs	r9!, {r3, r4, r5, r6, r8, fp, sp}
    44a0:	66666f00 	strbtvs	r6, [r6], -r0, lsl #30
    44a4:	6f746573 	svcvs	0x00746573
    44a8:	59542866 	ldmdbpl	r4, {r1, r2, r5, r6, fp, sp}^
    44ac:	4d2c4550 	cfstr32mi	mvfx4, [ip, #-320]!	; 0xfffffec0
    44b0:	45424d45 	strbmi	r4, [r2, #-3397]	; 0xfffff2bb
    44b4:	5f202952 	svcpl	0x00202952
    44b8:	6975625f 	ldmdbvs	r5!, {r0, r1, r2, r3, r4, r6, r9, sp, lr}^
    44bc:	6e69746c 	cdpvs	4, 6, cr7, cr9, cr12, {3}
    44c0:	66666f5f 	uqsaxvs	r6, r6, pc	; <UNPREDICTABLE>
    44c4:	6f746573 	svcvs	0x00746573
    44c8:	54282066 	strtpl	r2, [r8], #-102	; 0xffffff9a
    44cc:	2c455059 	mcrrcs	0, 5, r5, r5, cr9
    44d0:	4d454d20 	stclmi	13, cr4, [r5, #-128]	; 0xffffff80
    44d4:	29524542 	ldmdbcs	r2, {r1, r6, r8, sl, lr}^
    44d8:	555f5f00 	ldrbpl	r5, [pc, #-3840]	; 35e0 <_Min_Stack_Size+0x31e0>
    44dc:	36544e49 	ldrbcc	r4, [r4], -r9, asr #28
    44e0:	28435f34 	stmdacs	r3, {r2, r4, r5, r8, r9, sl, fp, ip, lr}^
    44e4:	63202963 			; <UNDEFINED> instruction: 0x63202963
    44e8:	20232320 	eorcs	r2, r3, r0, lsr #6
    44ec:	004c4c55 	subeq	r4, ip, r5, asr ip
    44f0:	49555f5f 	ldmdbmi	r5, {r0, r1, r2, r3, r4, r6, r8, r9, sl, fp, ip, lr}^
    44f4:	4c5f544e 	cfldrdmi	mvd5, [pc], {78}	; 0x4e
    44f8:	54534145 	ldrbpl	r4, [r3], #-325	; 0xfffffebb
    44fc:	545f3436 	ldrbpl	r3, [pc], #-1078	; 4504 <_Min_Stack_Size+0x4104>
    4500:	5f455059 	svcpl	0x00455059
    4504:	6f6c205f 	svcvs	0x006c205f
    4508:	6c20676e 	stcvs	7, cr6, [r0], #-440	; 0xfffffe48
    450c:	20676e6f 	rsbcs	r6, r7, pc, ror #28
    4510:	69736e75 	ldmdbvs	r3!, {r0, r2, r4, r5, r6, r9, sl, fp, sp, lr}^
    4514:	64656e67 	strbtvs	r6, [r5], #-3687	; 0xfffff199
    4518:	746e6920 	strbtvc	r6, [lr], #-2336	; 0xfffff6e0
    451c:	555f5f00 	ldrbpl	r5, [pc, #-3840]	; 3624 <_Min_Stack_Size+0x3224>
    4520:	41524653 	cmpmi	r2, r3, asr r6
    4524:	465f5443 	ldrbmi	r5, [pc], -r3, asr #8
    4528:	5f544942 	svcpl	0x00544942
    452c:	0038205f 	eorseq	r2, r8, pc, asr r0
    4530:	444c5f5f 	strbmi	r5, [ip], #-3935	; 0xfffff0a1
    4534:	455f4c42 	ldrbmi	r4, [pc, #-3138]	; 38fa <_Min_Stack_Size+0x34fa>
    4538:	4c495350 	mcrrmi	3, 5, r5, r9, cr0
    453c:	5f5f4e4f 	svcpl	0x005f4e4f
    4540:	322e3220 	eorcc	r3, lr, #32, 4
    4544:	34343032 	ldrtcc	r3, [r4], #-50	; 0xffffffce
    4548:	39343036 	ldmdbcc	r4!, {r1, r2, r4, r5, ip, sp}
    454c:	33303532 	teqcc	r0, #209715200	; 0xc800000
    4550:	65313331 	ldrvs	r3, [r1, #-817]!	; 0xfffffccf
    4554:	4c36312d 	ldfmis	f3, [r6], #-180	; 0xffffff4c
    4558:	725f5f00 	subsvc	r5, pc, #0, 30
    455c:	69757165 	ldmdbvs	r5!, {r0, r2, r5, r6, r8, ip, sp, lr}^
    4560:	5f736572 	svcpl	0x00736572
    4564:	72616873 	rsbvc	r6, r1, #7536640	; 0x730000
    4568:	2e286465 	cdpcs	4, 2, cr6, cr8, cr5, {3}
    456c:	20292e2e 	eorcs	r2, r9, lr, lsr #28
    4570:	6f6c5f5f 	svcvs	0x006c5f5f
    4574:	615f6b63 	cmpvs	pc, r3, ror #22
    4578:	746f6e6e 	strbtvc	r6, [pc], #-3694	; 4580 <_Min_Stack_Size+0x4180>
    457c:	28657461 	stmdacs	r5!, {r0, r5, r6, sl, ip, sp, lr}^
    4580:	72616873 	rsbvc	r6, r1, #7536640	; 0x730000
    4584:	6c5f6465 	cfldrdvs	mvd6, [pc], {101}	; 0x65
    4588:	736b636f 	cmnvc	fp, #-1140850687	; 0xbc000001
    458c:	7165725f 	cmnvc	r5, pc, asr r2
    4590:	65726975 	ldrbvs	r6, [r2, #-2421]!	; 0xfffff68b
    4594:	5f5f2864 	svcpl	0x005f2864
    4598:	415f4156 	cmpmi	pc, r6, asr r1	; <UNPREDICTABLE>
    459c:	5f534752 	svcpl	0x00534752
    45a0:	0029295f 	eoreq	r2, r9, pc, asr r9
    45a4:	75705f5f 	ldrbvc	r5, [r0, #-3935]!	; 0xfffff0a1
    45a8:	20326572 	eorscs	r6, r2, r2, ror r5
    45ac:	74615f5f 	strbtvc	r5, [r1], #-3935	; 0xfffff0a1
    45b0:	62697274 	rsbvs	r7, r9, #116, 4	; 0x40000007
    45b4:	5f657475 	svcpl	0x00657475
    45b8:	5f28285f 	svcpl	0x0028285f
    45bc:	6e6f635f 	mcrvs	3, 3, r6, cr15, cr15, {2}
    45c0:	5f5f7473 	svcpl	0x005f7473
    45c4:	5f002929 	svcpl	0x00002929
    45c8:	4343475f 	movtmi	r4, #14175	; 0x375f
    45cc:	4f54415f 	svcmi	0x0054415f
    45d0:	5f43494d 	svcpl	0x0043494d
    45d4:	52414843 	subpl	r4, r1, #4390912	; 0x430000
    45d8:	545f3631 	ldrbpl	r3, [pc], #-1585	; 45e0 <_Min_Stack_Size+0x41e0>
    45dc:	434f4c5f 	movtmi	r4, #64607	; 0xfc5f
    45e0:	52465f4b 	subpl	r5, r6, #300	; 0x12c
    45e4:	32204545 	eorcc	r4, r0, #289406976	; 0x11400000
    45e8:	4e5f5f00 	cdpmi	15, 5, cr5, cr15, cr0, {0}
    45ec:	414c4c55 	cmpmi	ip, r5, asr ip
    45f0:	494c4942 	stmdbmi	ip, {r1, r6, r8, fp, lr}^
    45f4:	505f5954 	subspl	r5, pc, r4, asr r9	; <UNPREDICTABLE>
    45f8:	4d474152 	stfmie	f4, [r7, #-328]	; 0xfffffeb8
    45fc:	55505f41 	ldrbpl	r5, [r0, #-3905]	; 0xfffff0bf
    4600:	00204853 	eoreq	r4, r0, r3, asr r8
    4604:	6769735f 			; <UNDEFINED> instruction: 0x6769735f
    4608:	5f6c616e 	svcpl	0x006c616e
    460c:	00667562 	rsbeq	r7, r6, r2, ror #10
    4610:	524b434c 	subpl	r4, fp, #76, 6	; 0x30000001
    4614:	445f5f00 	ldrbmi	r5, [pc], #-3840	; 461c <_Min_Stack_Size+0x421c>
    4618:	4d5f4c42 	ldclmi	12, cr4, [pc, #-264]	; 4518 <_Min_Stack_Size+0x4118>
    461c:	455f5841 	ldrbmi	r5, [pc, #-2113]	; 3de3 <_Min_Stack_Size+0x39e3>
    4620:	5f5f5058 	svcpl	0x005f5058
    4624:	32303120 	eorscc	r3, r0, #32, 2
    4628:	5f5f0034 	svcpl	0x005f0034
    462c:	54534146 	ldrbpl	r4, [r3], #-326	; 0xfffffeba
    4630:	22203436 	eorcs	r3, r0, #905969664	; 0x36000000
    4634:	00226c6c 	eoreq	r6, r2, ip, ror #24
    4638:	54415f5f 	strbpl	r5, [r1], #-3935	; 0xfffff0a1
    463c:	43494d4f 	movtmi	r4, #40271	; 0x9d4f
    4640:	4c45525f 	sfmmi	f5, 2, [r5], {95}	; 0x5f
    4644:	45534145 	ldrbmi	r4, [r3, #-325]	; 0xfffffebb
    4648:	75003320 	strvc	r3, [r0, #-800]	; 0xfffffce0
    464c:	6769736e 	strbvs	r7, [r9, -lr, ror #6]!
    4650:	2064656e 	rsbcs	r6, r4, lr, ror #10
    4654:	5f00302b 	svcpl	0x0000302b
    4658:	544c465f 	strbpl	r4, [ip], #-1631	; 0xfffff9a1
    465c:	5f583233 	svcpl	0x00583233
    4660:	5f534148 	svcpl	0x00534148
    4664:	4f4e4544 	svcmi	0x004e4544
    4668:	5f5f4d52 	svcpl	0x005f4d52
    466c:	5f003120 	svcpl	0x00003120
    4670:	544c465f 	strbpl	r4, [ip], #-1631	; 0xfffff9a1
    4674:	4e414d5f 	mcrmi	13, 2, r4, cr1, cr15, {2}
    4678:	49445f54 	stmdbmi	r4, {r2, r4, r6, r8, r9, sl, fp, ip, lr}^
    467c:	205f5f47 	subscs	r5, pc, r7, asr #30
    4680:	5f003432 	svcpl	0x00003432
    4684:	444e4152 	strbmi	r4, [lr], #-338	; 0xfffffeae
    4688:	535f3834 	cmppl	pc, #52, 16	; 0x340000
    468c:	5f444545 	svcpl	0x00444545
    4690:	30282031 	eorcc	r2, r8, r1, lsr r0
    4694:	63626178 	cmnvs	r2, #120, 2
    4698:	5f002964 	svcpl	0x00002964
    469c:	5144555f 	cmppl	r4, pc, asr r5
    46a0:	4942495f 	stmdbmi	r2, {r0, r1, r2, r3, r4, r6, r8, fp, lr}^
    46a4:	205f5f54 	subscs	r5, pc, r4, asr pc	; <UNPREDICTABLE>
    46a8:	475f0030 	smmlarmi	pc, r0, r0, r0	; <UNPREDICTABLE>
    46ac:	41424f4c 	cmpmi	r2, ip, asr #30
    46b0:	54415f4c 	strbpl	r5, [r1], #-3916	; 0xfffff0b4
    46b4:	54495845 	strbpl	r5, [r9], #-2117	; 0xfffff7bb
    46b8:	6c675f20 	stclvs	15, cr5, [r7], #-128	; 0xffffff80
    46bc:	6c61626f 	sfmvs	f6, 2, [r1], #-444	; 0xfffffe44
    46c0:	6574615f 	ldrbvs	r6, [r4, #-351]!	; 0xfffffea1
    46c4:	00746978 	rsbseq	r6, r4, r8, ror r9
    46c8:	4e495f5f 	mcrmi	15, 2, r5, cr9, cr15, {2}
    46cc:	454c5f54 	strbmi	r5, [ip, #-3924]	; 0xfffff0ac
    46d0:	33545341 	cmpcc	r4, #67108865	; 0x4000001
    46d4:	59545f32 	ldmdbpl	r4, {r1, r4, r5, r8, r9, sl, fp, ip, lr}^
    46d8:	5f5f4550 	svcpl	0x005f4550
    46dc:	6e6f6c20 	cdpvs	12, 6, cr6, cr15, cr0, {1}
    46e0:	6e692067 	cdpvs	0, 6, cr2, cr9, cr7, {3}
    46e4:	49550074 	ldmdbmi	r5, {r2, r4, r5, r6}^
    46e8:	414d544e 	cmpmi	sp, lr, asr #8
    46ec:	414d5f58 	cmpmi	sp, r8, asr pc
    46f0:	5f282058 	svcpl	0x00282058
    46f4:	4e49555f 	mcrmi	5, 2, r5, cr9, cr15, {2}
    46f8:	58414d54 	stmdapl	r1, {r2, r4, r6, r8, sl, fp, lr}^
    46fc:	58414d5f 	stmdapl	r1, {r0, r1, r2, r3, r4, r6, r8, sl, fp, lr}^
    4700:	00295f5f 	eoreq	r5, r9, pc, asr pc
    4704:	4349564e 	movtmi	r5, #38478	; 0x964e
    4708:	4543495f 	strbmi	r4, [r3, #-2399]	; 0xfffff6a1
    470c:	2a203152 	bcs	810c5c <_Min_Stack_Size+0x81085c>
    4710:	6c6f7628 	stclvs	6, cr7, [pc], #-160	; 4678 <_Min_Stack_Size+0x4278>
    4714:	6c697461 	cfstrdvs	mvd7, [r9], #-388	; 0xfffffe7c
    4718:	69752065 	ldmdbvs	r5!, {r0, r2, r5, r6, sp}^
    471c:	3233746e 	eorscc	r7, r3, #1845493760	; 0x6e000000
    4720:	2a20745f 	bcs	8218a4 <_Min_Stack_Size+0x8214a4>
    4724:	564e2829 	strbpl	r2, [lr], -r9, lsr #16
    4728:	425f4349 	subsmi	r4, pc, #603979777	; 0x24000001
    472c:	20455341 	subcs	r5, r5, r1, asr #6
    4730:	7830202b 	ldmdavc	r0!, {r0, r1, r3, r5, sp}
    4734:	29343830 	ldmdbcs	r4!, {r4, r5, fp, ip, sp}
    4738:	4c5f5f00 	mrrcmi	15, 0, r5, pc, cr0	; <UNPREDICTABLE>
    473c:	5f4b434f 	svcpl	0x004b434f
    4740:	54494e49 	strbpl	r4, [r9], #-3657	; 0xfffff1b7
    4744:	4345525f 	movtmi	r5, #21087	; 0x525f
    4748:	49535255 	ldmdbmi	r3, {r0, r2, r4, r6, r9, ip, lr}^
    474c:	63284556 			; <UNDEFINED> instruction: 0x63284556
    4750:	7373616c 	cmnvc	r3, #108, 2
    4754:	636f6c2c 	cmnvs	pc, #44, 24	; 0x2c00
    4758:	7320296b 			; <UNDEFINED> instruction: 0x7320296b
    475c:	69746174 	ldmdbvs	r4!, {r2, r4, r5, r6, r8, sp, lr}^
    4760:	6e692063 	cdpvs	0, 6, cr2, cr9, cr3, {3}
    4764:	6f6c2074 	svcvs	0x006c2074
    4768:	3d206b63 	fstmdbxcc	r0!, {d6-d54}	;@ Deprecated
    476c:	003b3020 	eorseq	r3, fp, r0, lsr #32
    4770:	4349564e 	movtmi	r5, #38478	; 0x964e
    4774:	5341425f 	movtpl	r4, #4703	; 0x125f
    4778:	78302045 	ldmdavc	r0!, {r0, r2, r6, sp}
    477c:	30303045 	eorscc	r3, r0, r5, asr #32
    4780:	30303145 	eorscc	r3, r0, r5, asr #2
    4784:	5f004c55 	svcpl	0x00004c55
    4788:	5f43435f 	svcpl	0x0043435f
    478c:	50505553 	subspl	r5, r0, r3, asr r5
    4790:	5354524f 	cmppl	r4, #-268435452	; 0xf0000004
    4794:	465f5f5f 	usaxmi	r5, pc, pc	; <UNPREDICTABLE>
    4798:	5f434e55 	svcpl	0x00434e55
    479c:	0031205f 	eorseq	r2, r1, pc, asr r0
    47a0:	49545845 	ldmdbmi	r4, {r0, r2, r6, fp, ip, lr}^
    47a4:	31435031 	cmpcc	r3, r1, lsr r0
    47a8:	58452820 	stmdapl	r5, {r5, fp, sp}^
    47ac:	475f4954 			; <UNDEFINED> instruction: 0x475f4954
    47b0:	5f4f4950 	svcpl	0x004f4950
    47b4:	7070614d 	rsbsvc	r6, r0, sp, asr #2
    47b8:	5f676e69 	svcpl	0x00676e69
    47bc:	457b2974 	ldrbmi	r2, [fp, #-2420]!	; 0xfffff68c
    47c0:	31495458 	cmpcc	r9, r8, asr r4
    47c4:	5047202c 	subpl	r2, r7, ip, lsr #32
    47c8:	2c434f49 	mcrrcs	15, 4, r4, r3, cr9
    47cc:	49504720 	ldmdbmi	r0, {r5, r8, r9, sl, lr}^
    47d0:	49505f4f 	ldmdbmi	r0, {r0, r1, r2, r3, r6, r8, r9, sl, fp, ip, lr}^
    47d4:	2c315f4e 	ldccs	15, cr5, [r1], #-312	; 0xfffffec8
    47d8:	54584520 	ldrbpl	r4, [r8], #-1312	; 0xfffffae0
    47dc:	495f3149 	ldmdbmi	pc, {r0, r3, r6, r8, ip, sp}^	; <UNPREDICTABLE>
    47e0:	7d205152 	stfvcs	f5, [r0, #-328]!	; 0xfffffeb8
    47e4:	69425f00 	stmdbvs	r2, {r8, r9, sl, fp, ip, lr}^
    47e8:	746e6967 	strbtvc	r6, [lr], #-2407	; 0xfffff699
    47ec:	535f5f00 	cmppl	pc, #0, 30
    47f0:	5f455a49 	svcpl	0x00455a49
    47f4:	205f5f54 	subscs	r5, pc, r4, asr pc	; <UNPREDICTABLE>
    47f8:	5f545f00 	svcpl	0x00545f00
    47fc:	44525450 	ldrbmi	r5, [r2], #-1104	; 0xfffffbb0
    4800:	5f464649 	svcpl	0x00464649
    4804:	58450020 	stmdapl	r5, {r5}^
    4808:	50334954 	eorspl	r4, r3, r4, asr r9
    480c:	28203344 	stmdacs	r0!, {r2, r6, r8, r9, ip, sp}
    4810:	49545845 	ldmdbmi	r4, {r0, r2, r6, fp, ip, lr}^
    4814:	4950475f 	ldmdbmi	r0, {r0, r1, r2, r3, r4, r6, r8, r9, sl, lr}^
    4818:	614d5f4f 	cmpvs	sp, pc, asr #30
    481c:	6e697070 	mcrvs	0, 3, r7, cr9, cr0, {3}
    4820:	29745f67 	ldmdbcs	r4!, {r0, r1, r2, r5, r6, r8, r9, sl, fp, ip, lr}^
    4824:	5458457b 	ldrbpl	r4, [r8], #-1403	; 0xfffffa85
    4828:	202c3349 	eorcs	r3, ip, r9, asr #6
    482c:	4f495047 	svcmi	0x00495047
    4830:	47202c44 	strmi	r2, [r0, -r4, asr #24]!
    4834:	5f4f4950 	svcpl	0x004f4950
    4838:	5f4e4950 	svcpl	0x004e4950
    483c:	45202c33 	strmi	r2, [r0, #-3123]!	; 0xfffff3cd
    4840:	33495458 	movtcc	r5, #37976	; 0x9458
    4844:	5152495f 	cmppl	r2, pc, asr r9
    4848:	5f007d20 	svcpl	0x00007d20
    484c:	42444c5f 	submi	r4, r4, #24320	; 0x5f00
    4850:	45445f4c 	strbmi	r5, [r4, #-3916]	; 0xfffff0b4
    4854:	4d524f4e 	ldclmi	15, cr4, [r2, #-312]	; 0xfffffec8
    4858:	4e494d5f 	mcrmi	13, 2, r4, cr9, cr15, {2}
    485c:	34205f5f 	strtcc	r5, [r0], #-3935	; 0xfffff0a1
    4860:	3034392e 	eorscc	r3, r4, lr, lsr #18
    4864:	34363536 	ldrtcc	r3, [r6], #-1334	; 0xfffffaca
    4868:	31343835 	teqcc	r4, r5, lsr r8
    486c:	35363432 	ldrcc	r3, [r6, #-1074]!	; 0xfffffbce
    4870:	332d6534 			; <UNDEFINED> instruction: 0x332d6534
    4874:	004c3432 	subeq	r3, ip, r2, lsr r4
    4878:	49545845 	ldmdbmi	r4, {r0, r2, r6, fp, ip, lr}^
    487c:	52495f34 	subpl	r5, r9, #52, 30	; 0xd0
    4880:	30312051 	eorscc	r2, r1, r1, asr r0
    4884:	495f5f00 	ldmdbmi	pc, {r8, r9, sl, fp, ip, lr}^	; <UNPREDICTABLE>
    4888:	3436544e 	ldrtcc	r5, [r6], #-1102	; 0xfffffbb2
    488c:	58414d5f 	stmdapl	r1, {r0, r1, r2, r3, r4, r6, r8, sl, fp, lr}^
    4890:	30205f5f 	eorcc	r5, r0, pc, asr pc
    4894:	66663778 			; <UNDEFINED> instruction: 0x66663778
    4898:	66666666 	strbtvs	r6, [r6], -r6, ror #12
    489c:	66666666 	strbtvs	r6, [r6], -r6, ror #12
    48a0:	66666666 	strbtvs	r6, [r6], -r6, ror #12
    48a4:	004c4c66 	subeq	r4, ip, r6, ror #24
    48a8:	52415f5f 	subpl	r5, r1, #380	; 0x17c
    48ac:	45465f4d 	strbmi	r5, [r6, #-3917]	; 0xfffff0b3
    48b0:	52555441 	subspl	r5, r5, #1090519040	; 0x41000000
    48b4:	41535f45 	cmpmi	r3, r5, asr #30
    48b8:	00312054 	eorseq	r2, r1, r4, asr r0
    48bc:	4545525f 	strbmi	r5, [r5, #-607]	; 0xfffffda1
    48c0:	435f544e 	cmpmi	pc, #1308622848	; 0x4e000000
    48c4:	4b434548 	blmi	10d5dec <_Min_Stack_Size+0x10d59ec>
    48c8:	454d455f 	strbmi	r4, [sp, #-1375]	; 0xfffffaa1
    48cc:	4e454752 	mcrmi	7, 2, r4, cr5, cr2, {2}
    48d0:	76285943 	strtvc	r5, [r8], -r3, asr #18
    48d4:	20297261 	eorcs	r7, r9, r1, ror #4
    48d8:	4545525f 	strbmi	r5, [r5, #-607]	; 0xfffffda1
    48dc:	435f544e 	cmpmi	pc, #1308622848	; 0x4e000000
    48e0:	4b434548 	blmi	10d5e08 <_Min_Stack_Size+0x10d5a08>
    48e4:	72617628 	rsbvc	r7, r1, #40, 12	; 0x2800000
    48e8:	655f202c 	ldrbvs	r2, [pc, #-44]	; 48c4 <_Min_Stack_Size+0x44c4>
    48ec:	6772656d 	ldrbvs	r6, [r2, -sp, ror #10]!
    48f0:	79636e65 	stmdbvc	r3!, {r0, r2, r5, r6, r9, sl, fp, sp, lr}^
    48f4:	6863202c 	stmdavs	r3!, {r2, r3, r5, sp}^
    48f8:	2a207261 	bcs	821284 <_Min_Stack_Size+0x820e84>
    48fc:	525f202c 	subspl	r2, pc, #44	; 0x2c
    4900:	544e4545 	strbpl	r4, [lr], #-1349	; 0xfffffabb
    4904:	454d455f 	strbmi	r4, [sp, #-1375]	; 0xfffffaa1
    4908:	4e454752 	mcrmi	7, 2, r4, cr5, cr2, {2}
    490c:	535f5943 	cmppl	pc, #1097728	; 0x10c000
    4910:	2c455a49 	mcrrcs	10, 4, r5, r5, cr9
    4914:	5f002920 	svcpl	0x00002920
    4918:	4c4c555f 	cfstr64mi	mvdx5, [ip], {95}	; 0x5f
    491c:	43415246 	movtmi	r5, #4678	; 0x1246
    4920:	42495f54 	submi	r5, r9, #84, 30	; 0x150
    4924:	5f5f5449 	svcpl	0x005f5449
    4928:	5f003020 	svcpl	0x00003020
    492c:	49534e41 	ldmdbmi	r3, {r0, r6, r9, sl, fp, lr}^
    4930:	4454535f 	ldrbmi	r5, [r4], #-863	; 0xfffffca1
    4934:	5f464544 	svcpl	0x00464544
    4938:	49002048 	stmdbmi	r0, {r3, r6, sp}
    493c:	414d544e 	cmpmi	sp, lr, asr #8
    4940:	414d5f58 	cmpmi	sp, r8, asr pc
    4944:	5f282058 	svcpl	0x00282058
    4948:	544e495f 	strbpl	r4, [lr], #-2399	; 0xfffff6a1
    494c:	5f58414d 	svcpl	0x0058414d
    4950:	5f58414d 	svcpl	0x0058414d
    4954:	4500295f 	strmi	r2, [r0, #-2399]	; 0xfffff6a1
    4958:	37495458 	smlsldcc	r5, r9, r8, r4
    495c:	20374350 	eorscs	r4, r7, r0, asr r3
    4960:	54584528 	ldrbpl	r4, [r8], #-1320	; 0xfffffad8
    4964:	50475f49 	subpl	r5, r7, r9, asr #30
    4968:	4d5f4f49 	ldclmi	15, cr4, [pc, #-292]	; 484c <_Min_Stack_Size+0x444c>
    496c:	69707061 	ldmdbvs	r0!, {r0, r5, r6, ip, sp, lr}^
    4970:	745f676e 	ldrbvc	r6, [pc], #-1902	; 4978 <_Min_Stack_Size+0x4578>
    4974:	58457b29 	stmdapl	r5, {r0, r3, r5, r8, r9, fp, ip, sp, lr}^
    4978:	2c374954 			; <UNDEFINED> instruction: 0x2c374954
    497c:	49504720 	ldmdbmi	r0, {r5, r8, r9, sl, lr}^
    4980:	202c434f 	eorcs	r4, ip, pc, asr #6
    4984:	4f495047 	svcmi	0x00495047
    4988:	4e49505f 	mcrmi	0, 2, r5, cr9, cr15, {2}
    498c:	202c375f 	eorcs	r3, ip, pc, asr r7
    4990:	49545845 	ldmdbmi	r4, {r0, r2, r6, fp, ip, lr}^
    4994:	52495f37 	subpl	r5, r9, #55, 30	; 0xdc
    4998:	007d2051 	rsbseq	r2, sp, r1, asr r0
    499c:	6c635f5f 	stclvs	15, cr5, [r3], #-380	; 0xfffffe84
    49a0:	756e6165 	strbvc	r6, [lr, #-357]!	; 0xfffffe9b
    49a4:	58450070 	stmdapl	r5, {r4, r5, r6}^
    49a8:	30314954 	eorscc	r4, r1, r4, asr r9
    49ac:	30314450 	eorscc	r4, r1, r0, asr r4
    49b0:	58452820 	stmdapl	r5, {r5, fp, sp}^
    49b4:	475f4954 			; <UNDEFINED> instruction: 0x475f4954
    49b8:	5f4f4950 	svcpl	0x004f4950
    49bc:	7070614d 	rsbsvc	r6, r0, sp, asr #2
    49c0:	5f676e69 	svcpl	0x00676e69
    49c4:	457b2974 	ldrbmi	r2, [fp, #-2420]!	; 0xfffff68c
    49c8:	31495458 	cmpcc	r9, r8, asr r4
    49cc:	47202c30 			; <UNDEFINED> instruction: 0x47202c30
    49d0:	444f4950 	strbmi	r4, [pc], #-2384	; 49d8 <_Min_Stack_Size+0x45d8>
    49d4:	5047202c 	subpl	r2, r7, ip, lsr #32
    49d8:	505f4f49 	subspl	r4, pc, r9, asr #30
    49dc:	315f4e49 	cmpcc	pc, r9, asr #28
    49e0:	45202c30 	strmi	r2, [r0, #-3120]!	; 0xfffff3d0
    49e4:	31495458 	cmpcc	r9, r8, asr r4
    49e8:	52495f30 	subpl	r5, r9, #48, 30	; 0xc0
    49ec:	007d2051 	rsbseq	r2, sp, r1, asr r0
    49f0:	4545525f 	strbmi	r5, [r5, #-607]	; 0xfffffda1
    49f4:	575f544e 	ldrbpl	r5, [pc, -lr, asr #8]
    49f8:	4f545243 	svcmi	0x00545243
    49fc:	535f424d 	cmppl	pc, #-805306364	; 0xd0000004
    4a00:	45544154 	ldrbmi	r4, [r4, #-340]	; 0xfffffeac
    4a04:	72747028 	rsbsvc	r7, r4, #40	; 0x28
    4a08:	28282029 	stmdacs	r8!, {r0, r3, r5, sp}
    4a0c:	29727470 	ldmdbcs	r2!, {r4, r5, r6, sl, ip, sp, lr}^
    4a10:	6d5f3e2d 	ldclvs	14, cr3, [pc, #-180]	; 4964 <_Min_Stack_Size+0x4564>
    4a14:	2d637369 	stclcs	3, cr7, [r3, #-420]!	; 0xfffffe5c
    4a18:	63775f3e 	cmnvs	r7, #62, 30	; 0xf8
    4a1c:	6d6f7472 	cfstrdvs	mvd7, [pc, #-456]!	; 485c <_Min_Stack_Size+0x445c>
    4a20:	74735f62 	ldrbtvc	r5, [r3], #-3938	; 0xfffff09e
    4a24:	29657461 	stmdbcs	r5!, {r0, r5, r6, sl, ip, sp, lr}^
    4a28:	615f5f00 	cmpvs	pc, r0, lsl #30
    4a2c:	636f6c6c 	cmnvs	pc, #108, 24	; 0x6c00
    4a30:	7a69735f 	bvc	1a617b4 <_Min_Stack_Size+0x1a613b4>
    4a34:	29782865 	ldmdbcs	r8!, {r0, r2, r5, r6, fp, sp}^
    4a38:	615f5f20 	cmpvs	pc, r0, lsr #30
    4a3c:	69727474 	ldmdbvs	r2!, {r2, r4, r5, r6, sl, ip, sp, lr}^
    4a40:	65747562 	ldrbvs	r7, [r4, #-1378]!	; 0xfffffa9e
    4a44:	28285f5f 	stmdacs	r8!, {r0, r1, r2, r3, r4, r6, r8, r9, sl, fp, ip, lr}
    4a48:	6c615f5f 	stclvs	15, cr5, [r1], #-380	; 0xfffffe84
    4a4c:	5f636f6c 	svcpl	0x00636f6c
    4a50:	657a6973 	ldrbvs	r6, [sl, #-2419]!	; 0xfffff68d
    4a54:	78285f5f 	stmdavc	r8!, {r0, r1, r2, r3, r4, r6, r8, r9, sl, fp, ip, lr}
    4a58:	00292929 	eoreq	r2, r9, r9, lsr #18
    4a5c:	4f4c5f5f 	svcmi	0x004c5f5f
    4a60:	575f474e 	ldrbpl	r4, [pc, -lr, asr #14]
    4a64:	48544449 	ldmdami	r4, {r0, r3, r6, sl, lr}^
    4a68:	33205f5f 			; <UNDEFINED> instruction: 0x33205f5f
    4a6c:	5f5f0032 	svcpl	0x005f0032
    4a70:	5f544c46 	svcpl	0x00544c46
    4a74:	5f58414d 	svcpl	0x0058414d
    4a78:	2e33205f 	mrccs	0, 1, r2, cr3, cr15, {2}
    4a7c:	38323034 	ldmdacc	r2!, {r2, r4, r5, ip, sp}
    4a80:	36343332 			; <UNDEFINED> instruction: 0x36343332
    4a84:	35383336 	ldrcc	r3, [r8, #-822]!	; 0xfffffcca
    4a88:	36383832 			; <UNDEFINED> instruction: 0x36383832
    4a8c:	38332b65 	ldmdacc	r3!, {r0, r2, r5, r6, r8, r9, fp, sp}
    4a90:	5f5f0046 	svcpl	0x005f0046
    4a94:	43434155 	movtmi	r4, #12629	; 0x3155
    4a98:	465f4d55 			; <UNDEFINED> instruction: 0x465f4d55
    4a9c:	5f544942 	svcpl	0x00544942
    4aa0:	3631205f 			; <UNDEFINED> instruction: 0x3631205f
    4aa4:	775f5f00 	ldrbvc	r5, [pc, -r0, lsl #30]
    4aa8:	5f6e7261 	svcpl	0x006e7261
    4aac:	65666572 	strbvs	r6, [r6, #-1394]!	; 0xfffffa8e
    4ab0:	636e6572 	cmnvs	lr, #478150656	; 0x1c800000
    4ab4:	73287365 			; <UNDEFINED> instruction: 0x73287365
    4ab8:	6d2c6d79 	stcvs	13, cr6, [ip, #-484]!	; 0xfffffe1c
    4abc:	20296773 	eorcs	r6, r9, r3, ror r7
    4ac0:	73615f5f 	cmnvc	r1, #380	; 0x17c
    4ac4:	285f5f6d 	ldmdacs	pc, {r0, r2, r3, r5, r6, r8, r9, sl, fp, ip, lr}^	; <UNPREDICTABLE>
    4ac8:	65732e22 	ldrbvs	r2, [r3, #-3618]!	; 0xfffff1de
    4acc:	6f697463 	svcvs	0x00697463
    4ad0:	672e206e 	strvs	r2, [lr, -lr, rrx]!
    4ad4:	772e756e 	strvc	r7, [lr, -lr, ror #10]!
    4ad8:	696e7261 	stmdbvs	lr!, {r0, r5, r6, r9, ip, sp, lr}^
    4adc:	222e676e 	eorcs	r6, lr, #28835840	; 0x1b80000
    4ae0:	79732320 	ldmdbvc	r3!, {r5, r8, r9, sp}^
    4ae4:	203b296d 	eorscs	r2, fp, sp, ror #18
    4ae8:	73615f5f 	cmnvc	r1, #380	; 0x17c
    4aec:	285f5f6d 	ldmdacs	pc, {r0, r2, r3, r5, r6, r8, r9, sl, fp, ip, lr}^	; <UNPREDICTABLE>
    4af0:	73612e22 	cmnvc	r1, #544	; 0x220
    4af4:	207a6963 	rsbscs	r6, sl, r3, ror #18
    4af8:	2022225c 	eorcs	r2, r2, ip, asr r2
    4afc:	2067736d 	rsbcs	r7, r7, sp, ror #6
    4b00:	22225c22 	eorcs	r5, r2, #8704	; 0x2200
    4b04:	5f203b29 	svcpl	0x00203b29
    4b08:	6d73615f 	ldfvse	f6, [r3, #-380]!	; 0xfffffe84
    4b0c:	22285f5f 	eorcs	r5, r8, #380	; 0x17c
    4b10:	6572702e 	ldrbvs	r7, [r2, #-46]!	; 0xffffffd2
    4b14:	756f6976 	strbvc	r6, [pc, #-2422]!	; 41a6 <_Min_Stack_Size+0x3da6>
    4b18:	00292273 	eoreq	r2, r9, r3, ror r2
    4b1c:	4f495047 	svcmi	0x00495047
    4b20:	4e49505f 	mcrmi	0, 2, r5, cr9, cr15, {2}
    4b24:	2033315f 	eorscs	r3, r3, pc, asr r1
    4b28:	69752828 	ldmdbvs	r5!, {r3, r5, fp, sp}^
    4b2c:	3631746e 	ldrtcc	r7, [r1], -lr, ror #8
    4b30:	3029745f 	eorcc	r7, r9, pc, asr r4
    4b34:	30303278 	eorscc	r3, r0, r8, ror r2
    4b38:	5f002930 	svcpl	0x00002930
    4b3c:	5246555f 	subpl	r5, r6, #398458880	; 0x17c00000
    4b40:	5f544341 	svcpl	0x00544341
    4b44:	49535045 	ldmdbmi	r3, {r0, r2, r6, ip, lr}^
    4b48:	5f4e4f4c 	svcpl	0x004e4f4c
    4b4c:	7830205f 	ldmdavc	r0!, {r0, r1, r2, r3, r4, r6, sp}
    4b50:	312d5031 			; <UNDEFINED> instruction: 0x312d5031
    4b54:	00525536 	subseq	r5, r2, r6, lsr r5
    4b58:	43575f5f 	cmpmi	r7, #380	; 0x17c
    4b5c:	5f524148 	svcpl	0x00524148
    4b60:	5f4e494d 	svcpl	0x004e494d
    4b64:	5530205f 	ldrpl	r2, [r0, #-95]!	; 0xffffffa1
    4b68:	475f5f00 	ldrbmi	r5, [pc, -r0, lsl #30]
    4b6c:	485f4343 	ldmdami	pc, {r0, r1, r6, r8, r9, lr}^	; <UNPREDICTABLE>
    4b70:	5f455641 	svcpl	0x00455641
    4b74:	434e5953 	movtmi	r5, #59731	; 0xe953
    4b78:	4d4f435f 	stclmi	3, cr4, [pc, #-380]	; 4a04 <_Min_Stack_Size+0x4604>
    4b7c:	45524150 	ldrbmi	r4, [r2, #-336]	; 0xfffffeb0
    4b80:	444e415f 	strbmi	r4, [lr], #-351	; 0xfffffea1
    4b84:	4157535f 	cmpmi	r7, pc, asr r3
    4b88:	20315f50 	eorscs	r5, r1, r0, asr pc
    4b8c:	4e490031 	mcrmi	0, 2, r0, cr9, cr1, {1}
    4b90:	54535f43 	ldrbpl	r5, [r3], #-3907	; 0xfffff0bd
    4b94:	5f32334d 	svcpl	0x0032334d
    4b98:	33303146 	teqcc	r0, #-2147483631	; 0x80000011
    4b9c:	475f3643 	ldrbmi	r3, [pc, -r3, asr #12]
    4ba0:	5f4f4950 	svcpl	0x004f4950
    4ba4:	56495244 	strbpl	r5, [r9], -r4, asr #4
    4ba8:	485f5245 	ldmdami	pc, {r0, r2, r6, r9, ip, lr}^	; <UNPREDICTABLE>
    4bac:	5f00205f 	svcpl	0x0000205f
    4bb0:	4c57454e 	cfldr64mi	mvdx4, [r7], {78}	; 0x4e
    4bb4:	565f4249 	ldrbpl	r4, [pc], -r9, asr #4
    4bb8:	49535245 	ldmdbmi	r3, {r0, r2, r6, r9, ip, lr}^
    4bbc:	485f4e4f 	ldmdami	pc, {r0, r1, r2, r3, r6, r9, sl, fp, lr}^	; <UNPREDICTABLE>
    4bc0:	31205f5f 			; <UNDEFINED> instruction: 0x31205f5f
    4bc4:	475f5f00 	ldrbmi	r5, [pc, -r0, lsl #30]
    4bc8:	415f4343 	cmpmi	pc, r3, asr #6
    4bcc:	494d4f54 	stmdbmi	sp, {r2, r4, r6, r8, r9, sl, fp, lr}^
    4bd0:	4f4c5f43 	svcmi	0x004c5f43
    4bd4:	4c5f474e 	mrrcmi	7, 4, r4, pc, cr14	; <UNPREDICTABLE>
    4bd8:	5f4b434f 	svcpl	0x004b434f
    4bdc:	45455246 	strbmi	r5, [r5, #-582]	; 0xfffffdba
    4be0:	5f003220 	svcpl	0x00003220
    4be4:	414c555f 	cmpmi	ip, pc, asr r5
    4be8:	4d554343 	ldclmi	3, cr4, [r5, #-268]	; 0xfffffef4
    4bec:	4e494d5f 	mcrmi	13, 2, r4, cr9, cr15, {2}
    4bf0:	30205f5f 	eorcc	r5, r0, pc, asr pc
    4bf4:	4c55302e 	mrrcmi	0, 2, r3, r5, cr14
    4bf8:	415f004b 	cmpmi	pc, fp, asr #32
    4bfc:	49584554 	ldmdbmi	r8, {r2, r4, r6, r8, sl, lr}^
    4c00:	59445f54 	stmdbpl	r4, {r2, r4, r6, r8, r9, sl, fp, ip, lr}^
    4c04:	494d414e 	stmdbmi	sp, {r1, r2, r3, r6, r8, lr}^
    4c08:	4c415f43 	mcrrmi	15, 4, r5, r1, cr3
    4c0c:	20434f4c 	subcs	r4, r3, ip, asr #30
    4c10:	5f5f0031 	svcpl	0x005f0031
    4c14:	6465656e 	strbtvs	r6, [r5], #-1390	; 0xfffffa92
    4c18:	7a69735f 	bvc	1a6199c <_Min_Stack_Size+0x1a6159c>
    4c1c:	00745f65 	rsbseq	r5, r4, r5, ror #30
    4c20:	4e495f5f 	mcrmi	15, 2, r5, cr9, cr15, {2}
    4c24:	414d5f54 	cmpmi	sp, r4, asr pc
    4c28:	205f5f58 	subscs	r5, pc, r8, asr pc	; <UNPREDICTABLE>
    4c2c:	66377830 			; <UNDEFINED> instruction: 0x66377830
    4c30:	66666666 	strbtvs	r6, [r6], -r6, ror #12
    4c34:	5f006666 	svcpl	0x00006666
    4c38:	4d52415f 	ldfmie	f4, [r2, #-380]	; 0xfffffe84
    4c3c:	4352415f 	cmpmi	r2, #-1073741801	; 0xc0000017
    4c40:	00372048 	eorseq	r2, r7, r8, asr #32
    4c44:	49545845 	ldmdbmi	r4, {r0, r2, r6, fp, ip, lr}^
    4c48:	34445034 	strbcc	r5, [r4], #-52	; 0xffffffcc
    4c4c:	58452820 	stmdapl	r5, {r5, fp, sp}^
    4c50:	475f4954 			; <UNDEFINED> instruction: 0x475f4954
    4c54:	5f4f4950 	svcpl	0x004f4950
    4c58:	7070614d 	rsbsvc	r6, r0, sp, asr #2
    4c5c:	5f676e69 	svcpl	0x00676e69
    4c60:	457b2974 	ldrbmi	r2, [fp, #-2420]!	; 0xfffff68c
    4c64:	34495458 	strbcc	r5, [r9], #-1112	; 0xfffffba8
    4c68:	5047202c 	subpl	r2, r7, ip, lsr #32
    4c6c:	2c444f49 	mcrrcs	15, 4, r4, r4, cr9
    4c70:	49504720 	ldmdbmi	r0, {r5, r8, r9, sl, lr}^
    4c74:	49505f4f 	ldmdbmi	r0, {r0, r1, r2, r3, r6, r8, r9, sl, fp, ip, lr}^
    4c78:	2c345f4e 	ldccs	15, cr5, [r4], #-312	; 0xfffffec8
    4c7c:	54584520 	ldrbpl	r4, [r8], #-1312	; 0xfffffae0
    4c80:	495f3449 	ldmdbmi	pc, {r0, r3, r6, sl, ip, sp}^	; <UNPREDICTABLE>
    4c84:	7d205152 	stfvcs	f5, [r0, #-328]!	; 0xfffffeb8
    4c88:	49504700 	ldmdbmi	r0, {r8, r9, sl, lr}^
    4c8c:	49505f4f 	ldmdbmi	r0, {r0, r1, r2, r3, r6, r8, r9, sl, fp, ip, lr}^
    4c90:	20325f4e 	eorscs	r5, r2, lr, asr #30
    4c94:	69752828 	ldmdbvs	r5!, {r3, r5, fp, sp}^
    4c98:	3631746e 	ldrtcc	r7, [r1], -lr, ror #8
    4c9c:	3029745f 	eorcc	r7, r9, pc, asr r4
    4ca0:	30303078 	eorscc	r3, r0, r8, ror r0
    4ca4:	5f002934 	svcpl	0x00002934
    4ca8:	544c465f 	strbpl	r4, [ip], #-1631	; 0xfffff9a1
    4cac:	4441525f 	strbmi	r5, [r1], #-607	; 0xfffffda1
    4cb0:	5f5f5849 	svcpl	0x005f5849
    4cb4:	5f003220 	svcpl	0x00003220
    4cb8:	544c465f 	strbpl	r4, [ip], #-1631	; 0xfffff9a1
    4cbc:	485f3233 	ldmdami	pc, {r0, r1, r4, r5, r9, ip, sp}^	; <UNPREDICTABLE>
    4cc0:	495f5341 	ldmdbmi	pc, {r0, r6, r8, r9, ip, lr}^	; <UNPREDICTABLE>
    4cc4:	4e49464e 	cdpmi	6, 4, cr4, cr9, cr14, {2}
    4cc8:	5f595449 	svcpl	0x00595449
    4ccc:	0031205f 	eorseq	r2, r1, pc, asr r0
    4cd0:	36544e49 	ldrbcc	r4, [r4], -r9, asr #28
    4cd4:	414d5f34 	cmpmi	sp, r4, lsr pc
    4cd8:	5f282058 	svcpl	0x00282058
    4cdc:	544e495f 	strbpl	r4, [lr], #-2399	; 0xfffff6a1
    4ce0:	4d5f3436 	cfldrdmi	mvd3, [pc, #-216]	; 4c10 <_Min_Stack_Size+0x4810>
    4ce4:	5f5f5841 	svcpl	0x005f5841
    4ce8:	5f5f0029 	svcpl	0x005f0029
    4cec:	4343414c 	movtmi	r4, #12620	; 0x314c
    4cf0:	455f4d55 	ldrbmi	r4, [pc, #-3413]	; 3fa3 <_Min_Stack_Size+0x3ba3>
    4cf4:	4c495350 	mcrrmi	3, 5, r5, r9, cr0
    4cf8:	5f5f4e4f 	svcpl	0x005f4e4f
    4cfc:	31783020 	cmncc	r8, r0, lsr #32
    4d00:	31332d50 	teqcc	r3, r0, asr sp
    4d04:	5f004b4c 	svcpl	0x00004b4c
    4d08:	6863775f 	stmdavs	r3!, {r0, r1, r2, r3, r4, r6, r8, r9, sl, ip, sp, lr}^
    4d0c:	745f7261 	ldrbvc	r7, [pc], #-609	; 4d14 <_Min_Stack_Size+0x4914>
    4d10:	00205f5f 	eoreq	r5, r0, pc, asr pc
    4d14:	444c5f5f 	strbmi	r5, [ip], #-3935	; 0xfffff0a1
    4d18:	485f4c42 	ldmdami	pc, {r1, r6, sl, fp, lr}^	; <UNPREDICTABLE>
    4d1c:	515f5341 	cmppl	pc, r1, asr #6
    4d20:	54454955 	strbpl	r4, [r5], #-2389	; 0xfffff6ab
    4d24:	4e414e5f 	mcrmi	14, 2, r4, cr1, cr15, {2}
    4d28:	31205f5f 			; <UNDEFINED> instruction: 0x31205f5f
    4d2c:	6e5f5f00 	cdpvs	15, 5, cr5, cr15, cr0, {0}
    4d30:	5f646565 	svcpl	0x00646565
    4d34:	4c4c554e 	cfstr64mi	mvdx5, [ip], {78}	; 0x4e
    4d38:	4c5f5f00 	mrrcmi	15, 0, r5, pc, cr0	; <UNPREDICTABLE>
    4d3c:	5f474e4f 	svcpl	0x00474e4f
    4d40:	474e4f4c 	strbmi	r4, [lr, -ip, asr #30]
    4d44:	4449575f 	strbmi	r5, [r9], #-1887	; 0xfffff8a1
    4d48:	5f5f4854 	svcpl	0x005f4854
    4d4c:	00343620 	eorseq	r3, r4, r0, lsr #12
    4d50:	49545845 	ldmdbmi	r4, {r0, r2, r6, fp, ip, lr}^
    4d54:	52495f32 	subpl	r5, r9, #50, 30	; 0xc8
    4d58:	00382051 	eorseq	r2, r8, r1, asr r0
    4d5c:	544e4957 	strbpl	r4, [lr], #-2391	; 0xfffff6a9
    4d60:	58414d5f 	stmdapl	r1, {r0, r1, r2, r3, r4, r6, r8, sl, fp, lr}^
    4d64:	5f5f2820 	svcpl	0x005f2820
    4d68:	544e4957 	strbpl	r4, [lr], #-2391	; 0xfffff6a9
    4d6c:	58414d5f 	stmdapl	r1, {r0, r1, r2, r3, r4, r6, r8, sl, fp, lr}^
    4d70:	00295f5f 	eoreq	r5, r9, pc, asr pc
    4d74:	4f495047 	svcmi	0x00495047
    4d78:	4e49505f 	mcrmi	0, 2, r5, cr9, cr15, {2}
    4d7c:	2030315f 	eorscs	r3, r0, pc, asr r1
    4d80:	69752828 	ldmdbvs	r5!, {r3, r5, fp, sp}^
    4d84:	3631746e 	ldrtcc	r7, [r1], -lr, ror #8
    4d88:	3029745f 	eorcc	r7, r9, pc, asr r4
    4d8c:	30343078 	eorscc	r3, r4, r8, ror r0
    4d90:	5f002930 	svcpl	0x00002930
    4d94:	4e49555f 	mcrmi	5, 2, r5, cr9, cr15, {2}
    4d98:	41465f54 	cmpmi	r6, r4, asr pc
    4d9c:	34365453 	ldrtcc	r5, [r6], #-1107	; 0xfffffbad
    4da0:	58414d5f 	stmdapl	r1, {r0, r1, r2, r3, r4, r6, r8, sl, fp, lr}^
    4da4:	30205f5f 	eorcc	r5, r0, pc, asr pc
    4da8:	66666678 			; <UNDEFINED> instruction: 0x66666678
    4dac:	66666666 	strbtvs	r6, [r6], -r6, ror #12
    4db0:	66666666 	strbtvs	r6, [r6], -r6, ror #12
    4db4:	66666666 	strbtvs	r6, [r6], -r6, ror #12
    4db8:	4c4c5566 	cfstr64mi	mvdx5, [ip], {102}	; 0x66
    4dbc:	54584500 	ldrbpl	r4, [r8], #-1280	; 0xfffffb00
    4dc0:	33203349 			; <UNDEFINED> instruction: 0x33203349
    4dc4:	415f5f00 	cmpmi	pc, r0, lsl #30
    4dc8:	465f4d52 			; <UNDEFINED> instruction: 0x465f4d52
    4dcc:	5f5f0050 	svcpl	0x005f0050
    4dd0:	495f4148 	ldmdbmi	pc, {r3, r6, r8, lr}^	; <UNPREDICTABLE>
    4dd4:	5f544942 	svcpl	0x00544942
    4dd8:	0038205f 	eorseq	r2, r8, pc, asr r0
    4ddc:	52415f5f 	subpl	r5, r1, #380	; 0x17c
    4de0:	45465f4d 	strbmi	r5, [r6, #-3917]	; 0xfffff0b3
    4de4:	52555441 	subspl	r5, r5, #1090519040	; 0x41000000
    4de8:	53445f45 	movtpl	r5, #20293	; 0x4f45
    4dec:	5f5f0050 	svcpl	0x005f0050
    4df0:	50544e49 	subspl	r4, r4, r9, asr #28
    4df4:	575f5254 			; <UNDEFINED> instruction: 0x575f5254
    4df8:	48544449 	ldmdami	r4, {r0, r3, r6, sl, lr}^
    4dfc:	33205f5f 			; <UNDEFINED> instruction: 0x33205f5f
    4e00:	5f5f0032 	svcpl	0x005f0032
    4e04:	5f434347 	svcpl	0x00434347
    4e08:	4d4f5441 	cfstrdmi	mvd5, [pc, #-260]	; 4d0c <_Min_Stack_Size+0x490c>
    4e0c:	4c5f4349 	mrrcmi	3, 4, r4, pc, cr9	; <UNPREDICTABLE>
    4e10:	474e4f4c 	strbmi	r4, [lr, -ip, asr #30]
    4e14:	434f4c5f 	movtmi	r4, #64607	; 0xfc5f
    4e18:	52465f4b 	subpl	r5, r6, #300	; 0x12c
    4e1c:	31204545 			; <UNDEFINED> instruction: 0x31204545
    4e20:	54584500 	ldrbpl	r4, [r8], #-1280	; 0xfffffb00
    4e24:	6e495f49 	cdpvs	15, 4, cr5, cr9, cr9, {2}
    4e28:	4c747570 	cfldr64mi	mvdx7, [r4], #-448	; 0xfffffe40
    4e2c:	4e656e69 	cdpmi	14, 6, cr6, cr5, cr9, {3}
    4e30:	65626d75 	strbvs	r6, [r2, #-3445]!	; 0xfffff28b
    4e34:	5f5f0072 	svcpl	0x005f0072
    4e38:	33544c46 	cmpcc	r4, #17920	; 0x4600
    4e3c:	4d5f5832 	ldclmi	8, cr5, [pc, #-200]	; 4d7c <_Min_Stack_Size+0x497c>
    4e40:	5f5f4e49 	svcpl	0x005f4e49
    4e44:	322e3220 	eorcc	r3, lr, #32, 4
    4e48:	37303532 			; <UNDEFINED> instruction: 0x37303532
    4e4c:	38353833 	ldmdacc	r5!, {r0, r1, r4, r5, fp, ip, sp}
    4e50:	32373035 	eorscc	r3, r7, #53	; 0x35
    4e54:	65343130 	ldrvs	r3, [r4, #-304]!	; 0xfffffed0
    4e58:	3830332d 	ldmdacc	r0!, {r0, r2, r3, r5, r8, r9, ip, sp}
    4e5c:	78323346 	ldmdavc	r2!, {r1, r2, r6, r8, r9, ip, sp}
    4e60:	45525f00 	ldrbmi	r5, [r2, #-3840]	; 0xfffff100
    4e64:	5f544e45 	svcpl	0x00544e45
    4e68:	444e4152 	strbmi	r4, [lr], #-338	; 0xfffffeae
    4e6c:	4d5f3834 	ldclmi	8, cr3, [pc, #-208]	; 4da4 <_Min_Stack_Size+0x49a4>
    4e70:	28544c55 	ldmdacs	r4, {r0, r2, r4, r6, sl, fp, lr}^
    4e74:	29727470 	ldmdbcs	r2!, {r4, r5, r6, sl, ip, sp, lr}^
    4e78:	70282820 	eorvc	r2, r8, r0, lsr #16
    4e7c:	2d297274 	sfmcs	f7, 4, [r9, #-464]!	; 0xfffffe30
    4e80:	34725f3e 	ldrbtcc	r5, [r2], #-3902	; 0xfffff0c2
    4e84:	5f3e2d38 	svcpl	0x003e2d38
    4e88:	746c756d 	strbtvc	r7, [ip], #-1389	; 0xfffffa93
    4e8c:	5f5f0029 	svcpl	0x005f0029
    4e90:	36544c46 	ldrbcc	r4, [r4], -r6, asr #24
    4e94:	414d5f34 	cmpmi	sp, r4, lsr pc
    4e98:	58455f58 	stmdapl	r5, {r3, r4, r6, r8, r9, sl, fp, ip, lr}^
    4e9c:	205f5f50 	subscs	r5, pc, r0, asr pc	; <UNPREDICTABLE>
    4ea0:	34323031 	ldrtcc	r3, [r2], #-49	; 0xffffffcf
    4ea4:	725f5f00 	subsvc	r5, pc, #0, 30
    4ea8:	72757465 	rsbsvc	r7, r5, #1694498816	; 0x65000000
    4eac:	745f736e 	ldrbvc	r7, [pc], #-878	; 4eb4 <_Min_Stack_Size+0x4ab4>
    4eb0:	65636977 	strbvs	r6, [r3, #-2423]!	; 0xfffff689
    4eb4:	615f5f20 	cmpvs	pc, r0, lsr #30
    4eb8:	69727474 	ldmdbvs	r2!, {r2, r4, r5, r6, sl, ip, sp, lr}^
    4ebc:	65747562 	ldrbvs	r7, [r4, #-1378]!	; 0xfffffa9e
    4ec0:	28285f5f 	stmdacs	r8!, {r0, r1, r2, r3, r4, r6, r8, r9, sl, fp, ip, lr}
    4ec4:	65725f5f 	ldrbvs	r5, [r2, #-3935]!	; 0xfffff0a1
    4ec8:	6e727574 	mrcvs	5, 3, r7, cr2, cr4, {3}
    4ecc:	77745f73 			; <UNDEFINED> instruction: 0x77745f73
    4ed0:	5f656369 	svcpl	0x00656369
    4ed4:	0029295f 	eoreq	r2, r9, pc, asr r9
    4ed8:	43575f5f 	cmpmi	r7, #380	; 0x17c
    4edc:	5f524148 	svcpl	0x00524148
    4ee0:	45002054 	strmi	r2, [r0, #-84]	; 0xffffffac
    4ee4:	30495458 	subcc	r5, r9, r8, asr r4
    4ee8:	20304150 	eorscs	r4, r0, r0, asr r1
    4eec:	54584528 	ldrbpl	r4, [r8], #-1320	; 0xfffffad8
    4ef0:	50475f49 	subpl	r5, r7, r9, asr #30
    4ef4:	4d5f4f49 	ldclmi	15, cr4, [pc, #-292]	; 4dd8 <_Min_Stack_Size+0x49d8>
    4ef8:	69707061 	ldmdbvs	r0!, {r0, r5, r6, ip, sp, lr}^
    4efc:	745f676e 	ldrbvc	r6, [pc], #-1902	; 4f04 <_Min_Stack_Size+0x4b04>
    4f00:	58457b29 	stmdapl	r5, {r0, r3, r5, r8, r9, fp, ip, sp, lr}^
    4f04:	2c304954 			; <UNDEFINED> instruction: 0x2c304954
    4f08:	49504720 	ldmdbmi	r0, {r5, r8, r9, sl, lr}^
    4f0c:	202c414f 	eorcs	r4, ip, pc, asr #2
    4f10:	4f495047 	svcmi	0x00495047
    4f14:	4e49505f 	mcrmi	0, 2, r5, cr9, cr15, {2}
    4f18:	202c305f 	eorcs	r3, ip, pc, asr r0
    4f1c:	49545845 	ldmdbmi	r4, {r0, r2, r6, fp, ip, lr}^
    4f20:	52495f30 	subpl	r5, r9, #48, 30	; 0xc0
    4f24:	007d2051 	rsbseq	r2, sp, r1, asr r0
    4f28:	435f424d 	cmpmi	pc, #-805306364	; 0xd0000004
    4f2c:	4d5f5255 	lfmmi	f5, 2, [pc, #-340]	; 4de0 <_Min_Stack_Size+0x49e0>
    4f30:	5f205841 	svcpl	0x00205841
    4f34:	636f6c5f 	cmnvs	pc, #24320	; 0x5f00
    4f38:	5f656c61 	svcpl	0x00656c61
    4f3c:	635f626d 	cmpvs	pc, #-805306362	; 0xd0000006
    4f40:	6d5f7275 	lfmvs	f7, 2, [pc, #-468]	; 4d74 <_Min_Stack_Size+0x4974>
    4f44:	29287861 	stmdbcs	r8!, {r0, r5, r6, fp, ip, sp, lr}
    4f48:	465f5f00 	ldrbmi	r5, [pc], -r0, lsl #30
    4f4c:	3436544c 	ldrtcc	r5, [r6], #-1100	; 0xfffffbb4
    4f50:	4e494d5f 	mcrmi	13, 2, r4, cr9, cr15, {2}
    4f54:	32205f5f 	eorcc	r5, r0, #380	; 0x17c
    4f58:	3532322e 	ldrcc	r3, [r2, #-558]!	; 0xfffffdd2
    4f5c:	38333730 	ldmdacc	r3!, {r4, r5, r8, r9, sl, ip, sp}
    4f60:	30353835 	eorscc	r3, r5, r5, lsr r8
    4f64:	31303237 	teqcc	r0, r7, lsr r2
    4f68:	332d6534 			; <UNDEFINED> instruction: 0x332d6534
    4f6c:	36463830 			; <UNDEFINED> instruction: 0x36463830
    4f70:	5f5f0034 	svcpl	0x005f0034
    4f74:	746e695f 	strbtvc	r6, [lr], #-2399	; 0xfffff6a1
    4f78:	745f3233 	ldrbvc	r3, [pc], #-563	; 4f80 <_Min_Stack_Size+0x4b80>
    4f7c:	6665645f 			; <UNDEFINED> instruction: 0x6665645f
    4f80:	64656e69 	strbtvs	r6, [r5], #-3689	; 0xfffff197
    4f84:	5f003120 	svcpl	0x00003120
    4f88:	6d6d6167 	stfvse	f6, [sp, #-412]!	; 0xfffffe64
    4f8c:	69735f61 	ldmdbvs	r3!, {r0, r5, r6, r8, r9, sl, fp, ip, lr}^
    4f90:	61676e67 	cmnvs	r7, r7, ror #28
    4f94:	5041006d 	subpl	r0, r1, sp, rrx
    4f98:	53523242 	cmppl	r2, #536870916	; 0x20000004
    4f9c:	5f005254 	svcpl	0x00005254
    4fa0:	544c465f 	strbpl	r4, [ip], #-1631	; 0xfffff9a1
    4fa4:	4e494d5f 	mcrmi	13, 2, r4, cr9, cr15, {2}
    4fa8:	5058455f 	subspl	r4, r8, pc, asr r5
    4fac:	28205f5f 	stmdacs	r0!, {r0, r1, r2, r3, r4, r6, r8, r9, sl, fp, ip, lr}
    4fb0:	3532312d 	ldrcc	r3, [r2, #-301]!	; 0xfffffed3
    4fb4:	5f5f0029 	svcpl	0x005f0029
    4fb8:	544e4957 	strbpl	r4, [lr], #-2391	; 0xfffff6a9
    4fbc:	4449575f 	strbmi	r5, [r9], #-1887	; 0xfffff8a1
    4fc0:	5f5f4854 	svcpl	0x005f4854
    4fc4:	00323320 	eorseq	r3, r2, r0, lsr #6
    4fc8:	4e495f5f 	mcrmi	15, 2, r5, cr9, cr15, {2}
    4fcc:	5f343654 	svcpl	0x00343654
    4fd0:	45505954 	ldrbmi	r5, [r0, #-2388]	; 0xfffff6ac
    4fd4:	6c205f5f 	stcvs	15, cr5, [r0], #-380	; 0xfffffe84
    4fd8:	20676e6f 	rsbcs	r6, r7, pc, ror #28
    4fdc:	676e6f6c 	strbvs	r6, [lr, -ip, ror #30]!
    4fe0:	746e6920 	strbtvc	r6, [lr], #-2336	; 0xfffff6e0
    4fe4:	4c5f5f00 	mrrcmi	15, 0, r5, pc, cr0	; <UNPREDICTABLE>
    4fe8:	43415246 	movtmi	r5, #4678	; 0x1246
    4fec:	42465f54 	submi	r5, r6, #84, 30	; 0x150
    4ff0:	5f5f5449 	svcpl	0x005f5449
    4ff4:	00313320 	eorseq	r3, r1, r0, lsr #6
    4ff8:	48435f5f 	stmdami	r3, {r0, r1, r2, r3, r4, r6, r8, r9, sl, fp, ip, lr}^
    4ffc:	425f5241 	subsmi	r5, pc, #268435460	; 0x10000004
    5000:	5f5f5449 	svcpl	0x005f5449
    5004:	45003820 	strmi	r3, [r0, #-2080]	; 0xfffff7e0
    5008:	5f495458 	svcpl	0x00495458
    500c:	004e4950 	subeq	r4, lr, r0, asr r9
    5010:	4349564e 	movtmi	r5, #38478	; 0x964e
    5014:	5152495f 	cmppl	r2, pc, asr r9
    5018:	58455f36 	stmdapl	r5, {r1, r2, r4, r5, r8, r9, sl, fp, ip, lr}^
    501c:	5f314954 	svcpl	0x00314954
    5020:	42414e45 	submi	r4, r1, #1104	; 0x450
    5024:	2820454c 	stmdacs	r0!, {r2, r3, r6, r8, sl, lr}
    5028:	4349564e 	movtmi	r5, #38478	; 0x964e
    502c:	4553495f 	ldrbmi	r4, [r3, #-2399]	; 0xfffff6a1
    5030:	7c203052 	stcvc	0, cr3, [r0], #-328	; 0xfffffeb8
    5034:	3128203d 			; <UNDEFINED> instruction: 0x3128203d
    5038:	29373c3c 	ldmdbcs	r7!, {r2, r3, r4, r5, sl, fp, ip, sp}
    503c:	5f5f0029 	svcpl	0x005f0029
    5040:	5f445342 	svcpl	0x00445342
    5044:	49534956 	ldmdbmi	r3, {r1, r2, r4, r6, r8, fp, lr}^
    5048:	20454c42 	subcs	r4, r5, r2, asr #24
    504c:	4e490031 	mcrmi	0, 2, r0, cr9, cr1, {1}
    5050:	454c5f54 	strbmi	r5, [ip, #-3924]	; 0xfffff0ac
    5054:	31545341 	cmpcc	r4, r1, asr #6
    5058:	494d5f36 	stmdbmi	sp, {r1, r2, r4, r5, r8, r9, sl, fp, ip, lr}^
    505c:	2d28204e 	stccs	0, cr2, [r8, #-312]!	; 0xfffffec8
    5060:	4e495f5f 	mcrmi	15, 2, r5, cr9, cr15, {2}
    5064:	454c5f54 	strbmi	r5, [ip, #-3924]	; 0xfffff0ac
    5068:	31545341 	cmpcc	r4, r1, asr #6
    506c:	414d5f36 	cmpmi	sp, r6, lsr pc
    5070:	205f5f58 	subscs	r5, pc, r8, asr pc	; <UNPREDICTABLE>
    5074:	2931202d 	ldmdbcs	r1!, {r0, r2, r3, r5, sp}
    5078:	755f5f00 	ldrbvc	r5, [pc, #-3840]	; 4180 <_Min_Stack_Size+0x3d80>
    507c:	6573756e 	ldrbvs	r7, [r3, #-1390]!	; 0xfffffa92
    5080:	5f5f2064 	svcpl	0x005f2064
    5084:	72747461 	rsbsvc	r7, r4, #1627389952	; 0x61000000
    5088:	74756269 	ldrbtvc	r6, [r5], #-617	; 0xfffffd97
    508c:	285f5f65 	ldmdacs	pc, {r0, r2, r5, r6, r8, r9, sl, fp, ip, lr}^	; <UNPREDICTABLE>
    5090:	755f5f28 	ldrbvc	r5, [pc, #-3880]	; 4170 <_Min_Stack_Size+0x3d70>
    5094:	6573756e 	ldrbvs	r7, [r3, #-1390]!	; 0xfffffa92
    5098:	295f5f64 	ldmdbcs	pc, {r2, r5, r6, r8, r9, sl, fp, ip, lr}^	; <UNPREDICTABLE>
    509c:	5f5f0029 	svcpl	0x005f0029
    50a0:	33544c46 	cmpcc	r4, #17920	; 0x4600
    50a4:	4d5f5832 	ldclmi	8, cr5, [pc, #-200]	; 4fe4 <_Min_Stack_Size+0x4be4>
    50a8:	5f544e41 	svcpl	0x00544e41
    50ac:	5f474944 	svcpl	0x00474944
    50b0:	3335205f 	teqcc	r5, #95	; 0x5f
    50b4:	72665f00 	rsbvc	r5, r6, #0, 30
    50b8:	696c6565 	stmdbvs	ip!, {r0, r2, r5, r6, r8, sl, sp, lr}^
    50bc:	5f007473 	svcpl	0x00007473
    50c0:	5246555f 	subpl	r5, r6, #398458880	; 0x17c00000
    50c4:	5f544341 	svcpl	0x00544341
    50c8:	5f58414d 	svcpl	0x0058414d
    50cc:	5830205f 	ldmdapl	r0!, {r0, r1, r2, r3, r4, r6, sp}
    50d0:	46464646 	strbmi	r4, [r6], -r6, asr #12
    50d4:	36312d50 			; <UNDEFINED> instruction: 0x36312d50
    50d8:	5f005255 	svcpl	0x00005255
    50dc:	6e695f5f 	mcrvs	15, 3, r5, cr9, cr15, {2}
    50e0:	656c5f74 	strbvs	r5, [ip, #-3956]!	; 0xfffff08c
    50e4:	36747361 	ldrbtcc	r7, [r4], -r1, ror #6
    50e8:	5f745f34 	svcpl	0x00745f34
    50ec:	69666564 	stmdbvs	r6!, {r2, r5, r6, r8, sl, sp, lr}^
    50f0:	2064656e 	rsbcs	r6, r4, lr, ror #10
    50f4:	575f0031 	smmlarpl	pc, r1, r0, r0	; <UNPREDICTABLE>
    50f8:	5f544e41 	svcpl	0x00544e41
    50fc:	4e454552 	mcrmi	5, 2, r4, cr5, cr2, {2}
    5100:	4d535f54 	ldclmi	15, cr5, [r3, #-336]	; 0xfffffeb0
    5104:	204c4c41 	subcs	r4, ip, r1, asr #24
    5108:	675f0031 	smmlarvs	pc, r1, r0, r0	; <UNPREDICTABLE>
    510c:	0065756c 	rsbeq	r7, r5, ip, ror #10
    5110:	73626d5f 	cmnvc	r2, #6080	; 0x17c0
    5114:	65746174 	ldrbvs	r6, [r4, #-372]!	; 0xfffffe8c
    5118:	5f00745f 	svcpl	0x0000745f
    511c:	6e676973 			; <UNDEFINED> instruction: 0x6e676973
    5120:	535f5f00 	cmppl	pc, #0, 30
    5124:	43415246 	movtmi	r5, #4678	; 0x1246
    5128:	42495f54 	submi	r5, r9, #84, 30	; 0x150
    512c:	5f5f5449 	svcpl	0x005f5449
    5130:	5f003020 	svcpl	0x00003020
    5134:	49465441 	stmdbmi	r6, {r0, r6, sl, ip, lr}^
    5138:	535f454c 	cmppl	pc, #76, 10	; 0x13000000
    513c:	4352554f 	cmpmi	r2, #331350016	; 0x13c00000
    5140:	00312045 	eorseq	r2, r1, r5, asr #32
    5144:	54535f5f 	ldrbpl	r5, [r3], #-3935	; 0xfffff0a1
    5148:	544e4944 	strbpl	r4, [lr], #-2372	; 0xfffff6bc
    514c:	5058455f 	subspl	r4, r8, pc, asr r5
    5150:	20297828 	eorcs	r7, r9, r8, lsr #16
    5154:	23205f5f 			; <UNDEFINED> instruction: 0x23205f5f
    5158:	23207823 			; <UNDEFINED> instruction: 0x23207823
    515c:	005f5f23 	subseq	r5, pc, r3, lsr #30
    5160:	58455f5f 	stmdapl	r5, {r0, r1, r2, r3, r4, r6, r8, r9, sl, fp, ip, lr}^
    5164:	29782850 	ldmdbcs	r8!, {r4, r6, fp, sp}^
    5168:	205f5f20 	subscs	r5, pc, r0, lsr #30
    516c:	20782323 	rsbscs	r2, r8, r3, lsr #6
    5170:	5f5f2323 	svcpl	0x005f2323
    5174:	425f5f00 	subsmi	r5, pc, #0, 30
    5178:	5f455459 	svcpl	0x00455459
    517c:	4544524f 	strbmi	r5, [r4, #-591]	; 0xfffffdb1
    5180:	205f5f52 	subscs	r5, pc, r2, asr pc	; <UNPREDICTABLE>
    5184:	524f5f5f 	subpl	r5, pc, #380	; 0x17c
    5188:	5f524544 	svcpl	0x00524544
    518c:	5454494c 	ldrbpl	r4, [r4], #-2380	; 0xfffff6b4
    5190:	455f454c 	ldrbmi	r4, [pc, #-1356]	; 4c4c <_Min_Stack_Size+0x484c>
    5194:	4149444e 	cmpmi	r9, lr, asr #8
    5198:	005f5f4e 	subseq	r5, pc, lr, asr #30
    519c:	4c465f5f 	mcrrmi	15, 5, r5, r6, cr15
    51a0:	5f323354 	svcpl	0x00323354
    51a4:	49535045 	ldmdbmi	r3, {r0, r2, r6, ip, lr}^
    51a8:	5f4e4f4c 	svcpl	0x004e4f4c
    51ac:	2e31205f 	mrccs	0, 1, r2, cr1, cr15, {2}
    51b0:	30323931 	eorscc	r3, r2, r1, lsr r9
    51b4:	39383239 	ldmdbcc	r8!, {r0, r3, r4, r5, r9, ip, sp}
    51b8:	37303535 			; <UNDEFINED> instruction: 0x37303535
    51bc:	35323138 	ldrcc	r3, [r2, #-312]!	; 0xfffffec8
    51c0:	46372d65 	ldrtmi	r2, [r7], -r5, ror #26
    51c4:	5f003233 	svcpl	0x00003233
    51c8:	4d52415f 	ldfmie	f4, [r2, #-380]	; 0xfffffe84
    51cc:	4f454e5f 	svcmi	0x00454e5f
    51d0:	50465f4e 	subpl	r5, r6, lr, asr #30
    51d4:	4f4e5f00 	svcmi	0x004e5f00
    51d8:	4f524854 	svcmi	0x00524854
    51dc:	5f002057 	svcpl	0x00002057
    51e0:	464c4c5f 			; <UNDEFINED> instruction: 0x464c4c5f
    51e4:	54434152 	strbpl	r4, [r3], #-338	; 0xfffffeae
    51e8:	58414d5f 	stmdapl	r1, {r0, r1, r2, r3, r4, r6, r8, sl, fp, lr}^
    51ec:	30205f5f 	eorcc	r5, r0, pc, asr pc
    51f0:	46463758 			; <UNDEFINED> instruction: 0x46463758
    51f4:	46464646 	strbmi	r4, [r6], -r6, asr #12
    51f8:	46464646 	strbmi	r4, [r6], -r6, asr #12
    51fc:	46464646 	strbmi	r4, [r6], -r6, asr #12
    5200:	362d5046 	strtcc	r5, [sp], -r6, asr #32
    5204:	524c4c33 	subpl	r4, ip, #13056	; 0x3300
    5208:	4e415f00 	cdpmi	15, 4, cr5, cr1, cr0, {0}
    520c:	45444953 	strbmi	r4, [r4, #-2387]	; 0xfffff6ad
    5210:	485f4c43 	ldmdami	pc, {r0, r1, r6, sl, fp, lr}^	; <UNPREDICTABLE>
    5214:	4500205f 	strmi	r2, [r0, #-95]	; 0xffffffa1
    5218:	31495458 	cmpcc	r9, r8, asr r4
    521c:	52495f30 	subpl	r5, r9, #48, 30	; 0xc0
    5220:	30342051 	eorscc	r2, r4, r1, asr r0
    5224:	54584500 	ldrbpl	r4, [r8], #-1280	; 0xfffffb00
    5228:	43503449 	cmpmi	r0, #1224736768	; 0x49000000
    522c:	45282034 	strmi	r2, [r8, #-52]!	; 0xffffffcc
    5230:	5f495458 	svcpl	0x00495458
    5234:	4f495047 	svcmi	0x00495047
    5238:	70614d5f 	rsbvc	r4, r1, pc, asr sp
    523c:	676e6970 			; <UNDEFINED> instruction: 0x676e6970
    5240:	7b29745f 	blvc	a623c4 <_Min_Stack_Size+0xa61fc4>
    5244:	49545845 	ldmdbmi	r4, {r0, r2, r6, fp, ip, lr}^
    5248:	47202c34 			; <UNDEFINED> instruction: 0x47202c34
    524c:	434f4950 	movtmi	r4, #63824	; 0xf950
    5250:	5047202c 	subpl	r2, r7, ip, lsr #32
    5254:	505f4f49 	subspl	r4, pc, r9, asr #30
    5258:	345f4e49 	ldrbcc	r4, [pc], #-3657	; 5260 <_Min_Stack_Size+0x4e60>
    525c:	5845202c 	stmdapl	r5, {r2, r3, r5, sp}^
    5260:	5f344954 	svcpl	0x00344954
    5264:	20515249 	subscs	r5, r1, r9, asr #4
    5268:	5f5f007d 	svcpl	0x005f007d
    526c:	49534f50 	ldmdbmi	r3, {r4, r6, r8, r9, sl, fp, lr}^
    5270:	49565f58 	ldmdbmi	r6, {r3, r4, r6, r8, r9, sl, fp, ip, lr}^
    5274:	4c424953 	mcrrmi	9, 5, r4, r2, cr3	; <UNPREDICTABLE>
    5278:	30322045 	eorscc	r2, r2, r5, asr #32
    527c:	39303830 	ldmdbcc	r0!, {r4, r5, fp, ip, sp}
    5280:	54584500 	ldrbpl	r4, [r8], #-1280	; 0xfffffb00
    5284:	5f343149 	svcpl	0x00343149
    5288:	20515249 	subscs	r5, r1, r9, asr #4
    528c:	45003034 	strmi	r3, [r0, #-52]	; 0xffffffcc
    5290:	31495458 	cmpcc	r9, r8, asr r4
    5294:	5f003120 	svcpl	0x00003120
    5298:	5246555f 	subpl	r5, r6, #398458880	; 0x17c00000
    529c:	5f544341 	svcpl	0x00544341
    52a0:	54494246 	strbpl	r4, [r9], #-582	; 0xfffffdba
    52a4:	31205f5f 			; <UNDEFINED> instruction: 0x31205f5f
    52a8:	5f5f0036 	svcpl	0x005f0036
    52ac:	5f514455 	svcpl	0x00514455
    52b0:	54494246 	strbpl	r4, [r9], #-582	; 0xfffffdba
    52b4:	36205f5f 	qsaxcc	r5, r0, pc	; <UNPREDICTABLE>
    52b8:	5f5f0034 	svcpl	0x005f0034
    52bc:	43554e47 	cmpmi	r5, #1136	; 0x470
    52c0:	454b494c 	strbmi	r4, [fp, #-2380]	; 0xfffff6b4
    52c4:	4955425f 	ldmdbmi	r5, {r0, r1, r2, r3, r4, r6, r9, lr}^
    52c8:	4e49544c 	cdpmi	4, 4, cr5, cr9, cr12, {2}
    52cc:	4d454d5f 	stclmi	13, cr4, [r5, #-380]	; 0xfffffe84
    52d0:	20595043 	subscs	r5, r9, r3, asr #32
    52d4:	5f5f0031 	svcpl	0x005f0031
    52d8:	4c42444c 	cfstrdmi	mvd4, [r2], {76}	; 0x4c
    52dc:	58414d5f 	stmdapl	r1, {r0, r1, r2, r3, r4, r6, r8, sl, fp, lr}^
    52e0:	5f30315f 	svcpl	0x0030315f
    52e4:	5f505845 	svcpl	0x00505845
    52e8:	3033205f 	eorscc	r2, r3, pc, asr r0
    52ec:	5f5f0038 	svcpl	0x005f0038
    52f0:	665f6673 			; <UNDEFINED> instruction: 0x665f6673
    52f4:	5f656b61 	svcpl	0x00656b61
    52f8:	6f647473 	svcvs	0x00647473
    52fc:	5f007475 	svcpl	0x00007475
    5300:	4c42445f 	cfstrdmi	mvd4, [r2], {95}	; 0x5f
    5304:	4e45445f 	mcrmi	4, 2, r4, cr5, cr15, {2}
    5308:	5f4d524f 	svcpl	0x004d524f
    530c:	5f4e494d 	svcpl	0x004e494d
    5310:	2828205f 	stmdacs	r8!, {r0, r1, r2, r3, r4, r6, sp}
    5314:	62756f64 	rsbsvs	r6, r5, #100, 30	; 0x190
    5318:	3429656c 	strtcc	r6, [r9], #-1388	; 0xfffffa94
    531c:	3034392e 	eorscc	r3, r4, lr, lsr #18
    5320:	34363536 	ldrtcc	r3, [r6], #-1334	; 0xfffffaca
    5324:	31343835 	teqcc	r4, r5, lsr r8
    5328:	35363432 	ldrcc	r3, [r6, #-1074]!	; 0xfffffbce
    532c:	332d6534 			; <UNDEFINED> instruction: 0x332d6534
    5330:	294c3432 	stmdbcs	ip, {r1, r4, r5, sl, ip, sp}^
    5334:	6c665f00 	stclvs	15, cr5, [r6], #-0
    5338:	32736761 	rsbscc	r6, r3, #25427968	; 0x1840000
    533c:	495f5f00 	ldmdbmi	pc, {r8, r9, sl, fp, ip, lr}^	; <UNPREDICTABLE>
    5340:	465f544e 	ldrbmi	r5, [pc], -lr, asr #8
    5344:	33545341 	cmpcc	r4, #67108865	; 0x4000001
    5348:	59545f32 	ldmdbpl	r4, {r1, r4, r5, r8, r9, sl, fp, ip, lr}^
    534c:	5f5f4550 	svcpl	0x005f4550
    5350:	746e6920 	strbtvc	r6, [lr], #-2336	; 0xfffff6e0
    5354:	49555f00 	ldmdbmi	r5, {r8, r9, sl, fp, ip, lr}^
    5358:	3436544e 	ldrtcc	r5, [r6], #-1102	; 0xfffffbb2
    535c:	445f545f 	ldrbmi	r5, [pc], #-1119	; 5364 <_Min_Stack_Size+0x4f64>
    5360:	414c4345 	cmpmi	ip, r5, asr #6
    5364:	20444552 	subcs	r4, r4, r2, asr r5
    5368:	4d545300 	ldclmi	3, cr5, [r4, #-0]
    536c:	31463233 	cmpcc	r6, r3, lsr r2
    5370:	36433330 			; <UNDEFINED> instruction: 0x36433330
    5374:	31207854 			; <UNDEFINED> instruction: 0x31207854
    5378:	6d655f00 	stclvs	15, cr5, [r5, #-0]
    537c:	65677265 	strbvs	r7, [r7, #-613]!	; 0xfffffd9b
    5380:	0079636e 	rsbseq	r6, r9, lr, ror #6
    5384:	49545845 	ldmdbmi	r4, {r0, r2, r6, fp, ip, lr}^
    5388:	00362036 	eorseq	r2, r6, r6, lsr r0
    538c:	49545845 	ldmdbmi	r4, {r0, r2, r6, fp, ip, lr}^
    5390:	36435036 			; <UNDEFINED> instruction: 0x36435036
    5394:	58452820 	stmdapl	r5, {r5, fp, sp}^
    5398:	475f4954 			; <UNDEFINED> instruction: 0x475f4954
    539c:	5f4f4950 	svcpl	0x004f4950
    53a0:	7070614d 	rsbsvc	r6, r0, sp, asr #2
    53a4:	5f676e69 	svcpl	0x00676e69
    53a8:	457b2974 	ldrbmi	r2, [fp, #-2420]!	; 0xfffff68c
    53ac:	36495458 			; <UNDEFINED> instruction: 0x36495458
    53b0:	5047202c 	subpl	r2, r7, ip, lsr #32
    53b4:	2c434f49 	mcrrcs	15, 4, r4, r3, cr9
    53b8:	49504720 	ldmdbmi	r0, {r5, r8, r9, sl, lr}^
    53bc:	49505f4f 	ldmdbmi	r0, {r0, r1, r2, r3, r6, r8, r9, sl, fp, ip, lr}^
    53c0:	2c365f4e 	ldccs	15, cr5, [r6], #-312	; 0xfffffec8
    53c4:	54584520 	ldrbpl	r4, [r8], #-1312	; 0xfffffae0
    53c8:	495f3649 	ldmdbmi	pc, {r0, r3, r6, r9, sl, ip, sp}^	; <UNPREDICTABLE>
    53cc:	7d205152 	stfvcs	f5, [r0, #-328]!	; 0xfffffeb8
    53d0:	4e5f5f00 	cdpmi	15, 5, cr5, cr15, cr0, {0}
    53d4:	494c5745 	stmdbmi	ip, {r0, r2, r6, r8, r9, sl, ip, lr}^
    53d8:	494d5f42 	stmdbmi	sp, {r1, r6, r8, r9, sl, fp, ip, lr}^
    53dc:	5f524f4e 	svcpl	0x00524f4e
    53e0:	0030205f 	eorseq	r2, r0, pc, asr r0
    53e4:	454c5f5f 	strbmi	r5, [ip, #-3935]	; 0xfffff0a1
    53e8:	38545341 	ldmdacc	r4, {r0, r6, r8, r9, ip, lr}^
    53ec:	68682220 	stmdavs	r8!, {r5, r9, sp}^
    53f0:	58450022 	stmdapl	r5, {r1, r5}^
    53f4:	5f354954 	svcpl	0x00354954
    53f8:	20515249 	subscs	r5, r1, r9, asr #4
    53fc:	5f003332 	svcpl	0x00003332
    5400:	455a4953 	ldrbmi	r4, [sl, #-2387]	; 0xfffff6ad
    5404:	00205f54 	eoreq	r5, r0, r4, asr pc
    5408:	4c465f5f 	mcrrmi	15, 5, r5, r6, cr15
    540c:	5f343654 	svcpl	0x00343654
    5410:	5f534148 	svcpl	0x00534148
    5414:	45495551 	strbmi	r5, [r9, #-1361]	; 0xfffffaaf
    5418:	414e5f54 	cmpmi	lr, r4, asr pc
    541c:	205f5f4e 	subscs	r5, pc, lr, asr #30
    5420:	49550031 	ldmdbmi	r5, {r0, r4, r5}^
    5424:	3233544e 	eorscc	r5, r3, #1308622848	; 0x4e000000
    5428:	7828435f 	stmdavc	r8!, {r0, r1, r2, r3, r4, r6, r8, r9, lr}
    542c:	5f5f2029 	svcpl	0x005f2029
    5430:	544e4955 	strbpl	r4, [lr], #-2389	; 0xfffff6ab
    5434:	435f3233 	cmpmi	pc, #805306371	; 0x30000003
    5438:	00297828 	eoreq	r7, r9, r8, lsr #16
    543c:	53555f5f 	cmppl	r5, #380	; 0x17c
    5440:	55434341 	strbpl	r4, [r3, #-833]	; 0xfffffcbf
    5444:	42495f4d 	submi	r5, r9, #308	; 0x134
    5448:	5f5f5449 	svcpl	0x005f5449
    544c:	5f003820 	svcpl	0x00003820
    5450:	4144555f 	cmpmi	r4, pc, asr r5
    5454:	4942465f 	stmdbmi	r2, {r0, r1, r2, r3, r4, r6, r9, sl, lr}^
    5458:	205f5f54 	subscs	r5, pc, r4, asr pc	; <UNPREDICTABLE>
    545c:	5f003233 	svcpl	0x00003233
    5460:	544c465f 	strbpl	r4, [ip], #-1631	; 0xfffff9a1
    5464:	485f3436 	ldmdami	pc, {r1, r2, r4, r5, sl, ip, sp}^	; <UNPREDICTABLE>
    5468:	445f5341 	ldrbmi	r5, [pc], #-833	; 5470 <_Min_Stack_Size+0x5070>
    546c:	524f4e45 	subpl	r4, pc, #1104	; 0x450
    5470:	205f5f4d 	subscs	r5, pc, sp, asr #30
    5474:	5f5f0031 	svcpl	0x005f0031
    5478:	5f544c46 	svcpl	0x00544c46
    547c:	5f474944 	svcpl	0x00474944
    5480:	0036205f 	eorseq	r2, r6, pc, asr r0
    5484:	49555f5f 	ldmdbmi	r5, {r0, r1, r2, r3, r4, r6, r8, r9, sl, fp, ip, lr}^
    5488:	414d544e 	cmpmi	sp, lr, asr #8
    548c:	59545f58 	ldmdbpl	r4, {r3, r4, r6, r8, r9, sl, fp, ip, lr}^
    5490:	5f5f4550 	svcpl	0x005f4550
    5494:	6e6f6c20 	cdpvs	12, 6, cr6, cr15, cr0, {1}
    5498:	6f6c2067 	svcvs	0x006c2067
    549c:	7520676e 	strvc	r6, [r0, #-1902]!	; 0xfffff892
    54a0:	6769736e 	strbvs	r7, [r9, -lr, ror #6]!
    54a4:	2064656e 	rsbcs	r6, r4, lr, ror #10
    54a8:	00746e69 	rsbseq	r6, r4, r9, ror #28
    54ac:	4843575f 	stmdami	r3, {r0, r1, r2, r3, r4, r6, r8, r9, sl, ip, lr}^
    54b0:	545f5241 	ldrbpl	r5, [pc], #-577	; 54b8 <_Min_Stack_Size+0x50b8>
    54b4:	4345445f 	movtmi	r4, #21599	; 0x545f
    54b8:	4552414c 	ldrbmi	r4, [r2, #-332]	; 0xfffffeb4
    54bc:	49002044 	stmdbmi	r0, {r2, r6, sp}
    54c0:	465f544e 	ldrbmi	r5, [pc], -lr, asr #8
    54c4:	31545341 	cmpcc	r4, r1, asr #6
    54c8:	414d5f36 	cmpmi	sp, r6, lsr pc
    54cc:	5f282058 	svcpl	0x00282058
    54d0:	544e495f 	strbpl	r4, [lr], #-2399	; 0xfffff6a1
    54d4:	5341465f 	movtpl	r4, #5727	; 0x165f
    54d8:	5f363154 	svcpl	0x00363154
    54dc:	5f58414d 	svcpl	0x0058414d
    54e0:	4500295f 	strmi	r2, [r0, #-2399]	; 0xfffff6a1
    54e4:	31495458 	cmpcc	r9, r8, asr r4
    54e8:	31425032 	cmpcc	r2, r2, lsr r0
    54ec:	45282032 	strmi	r2, [r8, #-50]!	; 0xffffffce
    54f0:	5f495458 	svcpl	0x00495458
    54f4:	4f495047 	svcmi	0x00495047
    54f8:	70614d5f 	rsbvc	r4, r1, pc, asr sp
    54fc:	676e6970 			; <UNDEFINED> instruction: 0x676e6970
    5500:	7b29745f 	blvc	a62684 <_Min_Stack_Size+0xa62284>
    5504:	49545845 	ldmdbmi	r4, {r0, r2, r6, fp, ip, lr}^
    5508:	202c3231 	eorcs	r3, ip, r1, lsr r2
    550c:	4f495047 	svcmi	0x00495047
    5510:	47202c42 	strmi	r2, [r0, -r2, asr #24]!
    5514:	5f4f4950 	svcpl	0x004f4950
    5518:	5f4e4950 	svcpl	0x004e4950
    551c:	202c3231 	eorcs	r3, ip, r1, lsr r2
    5520:	49545845 	ldmdbmi	r4, {r0, r2, r6, fp, ip, lr}^
    5524:	495f3231 	ldmdbmi	pc, {r0, r4, r5, r9, ip, sp}^	; <UNPREDICTABLE>
    5528:	7d205152 	stfvcs	f5, [r0, #-328]!	; 0xfffffeb8
    552c:	59535f00 	ldmdbpl	r3, {r8, r9, sl, fp, ip, lr}^
    5530:	45525f53 	ldrbmi	r5, [r2, #-3923]	; 0xfffff0ad
    5534:	5f544e45 	svcpl	0x00544e45
    5538:	00205f48 	eoreq	r5, r0, r8, asr #30
    553c:	4c465f5f 	mcrrmi	15, 5, r5, r6, cr15
    5540:	56455f54 			; <UNDEFINED> instruction: 0x56455f54
    5544:	4d5f4c41 	ldclmi	12, cr4, [pc, #-260]	; 5448 <_Min_Stack_Size+0x5048>
    5548:	4f485445 	svcmi	0x00485445
    554c:	205f5f44 	subscs	r5, pc, r4, asr #30
    5550:	5f5f0030 	svcpl	0x005f0030
    5554:	5f746e69 	svcpl	0x00746e69
    5558:	74736166 	ldrbtvc	r6, [r3], #-358	; 0xfffffe9a
    555c:	745f3631 	ldrbvc	r3, [pc], #-1585	; 5564 <_Min_Stack_Size+0x5164>
    5560:	6665645f 			; <UNDEFINED> instruction: 0x6665645f
    5564:	64656e69 	strbtvs	r6, [r5], #-3689	; 0xfffff197
    5568:	5f003120 	svcpl	0x00003120
    556c:	4843535f 	stmdami	r3, {r0, r1, r2, r3, r4, r6, r8, r9, ip, lr}^
    5570:	4d5f5241 	lfmmi	f5, 2, [pc, #-260]	; 5474 <_Min_Stack_Size+0x5074>
    5574:	5f5f5841 	svcpl	0x005f5841
    5578:	37783020 	ldrbcc	r3, [r8, -r0, lsr #32]!
    557c:	5f5f0066 	svcpl	0x005f0066
    5580:	5f544e49 	svcpl	0x00544e49
    5584:	54534146 	ldrbpl	r4, [r3], #-326	; 0xfffffeba
    5588:	49575f38 	ldmdbmi	r7, {r3, r4, r5, r8, r9, sl, fp, ip, lr}^
    558c:	5f485444 	svcpl	0x00485444
    5590:	3233205f 	eorscc	r2, r3, #95	; 0x5f
    5594:	535f5f00 	cmppl	pc, #0, 30
    5598:	5f434454 	svcpl	0x00434454
    559c:	5f465455 	svcpl	0x00465455
    55a0:	5f5f3631 	svcpl	0x005f3631
    55a4:	5f003120 	svcpl	0x00003120
    55a8:	444e4152 	strbmi	r4, [lr], #-338	; 0xfffffeae
    55ac:	4d5f3834 	ldclmi	8, cr3, [pc, #-208]	; 54e4 <_Min_Stack_Size+0x50e4>
    55b0:	5f544c55 	svcpl	0x00544c55
    55b4:	30282032 	eorcc	r2, r8, r2, lsr r0
    55b8:	30303078 	eorscc	r3, r0, r8, ror r0
    55bc:	47002935 	smladxmi	r0, r5, r9, r2
    55c0:	444f4950 	strbmi	r4, [pc], #-2384	; 55c8 <_Min_Stack_Size+0x51c8>
    55c4:	47282820 	strmi	r2, [r8, -r0, lsr #16]!
    55c8:	5f4f4950 	svcpl	0x004f4950
    55cc:	65707954 	ldrbvs	r7, [r0, #-2388]!	; 0xfffff6ac
    55d0:	2a666544 	bcs	199eae8 <_Min_Stack_Size+0x199e6e8>
    55d4:	49504729 	ldmdbmi	r0, {r0, r3, r5, r8, r9, sl, lr}^
    55d8:	425f444f 	subsmi	r4, pc, #1325400064	; 0x4f000000
    55dc:	29455341 	stmdbcs	r5, {r0, r6, r8, r9, ip, lr}^
    55e0:	45525f00 	ldrbmi	r5, [r2, #-3840]	; 0xfffff100
    55e4:	5f544e45 	svcpl	0x00544e45
    55e8:	43454843 	movtmi	r4, #22595	; 0x5843
    55ec:	494d5f4b 	stmdbmi	sp, {r0, r1, r3, r6, r8, r9, sl, fp, ip, lr}^
    55f0:	76284353 			; <UNDEFINED> instruction: 0x76284353
    55f4:	20297261 	eorcs	r7, r9, r1, ror #4
    55f8:	4545525f 	strbmi	r5, [r5, #-607]	; 0xfffffda1
    55fc:	435f544e 	cmpmi	pc, #1308622848	; 0x4e000000
    5600:	4b434548 	blmi	10d6b28 <_Min_Stack_Size+0x10d6728>
    5604:	72617628 	rsbvc	r7, r1, #40, 12	; 0x2800000
    5608:	6d5f202c 	ldclvs	0, cr2, [pc, #-176]	; 5560 <_Min_Stack_Size+0x5160>
    560c:	2c637369 	stclcs	3, cr7, [r3], #-420	; 0xfffffe5c
    5610:	72747320 	rsbsvc	r7, r4, #32, 6	; 0x80000000
    5614:	20746375 	rsbscs	r6, r4, r5, ror r3
    5618:	73696d5f 	cmnvc	r9, #6080	; 0x17c0
    561c:	65725f63 	ldrbvs	r5, [r2, #-3939]!	; 0xfffff09d
    5620:	20746e65 	rsbscs	r6, r4, r5, ror #28
    5624:	73202c2a 			; <UNDEFINED> instruction: 0x73202c2a
    5628:	6f657a69 	svcvs	0x00657a69
    562c:	282a2066 	stmdacs	sl!, {r1, r2, r5, r6, sp}
    5630:	72617628 	rsbvc	r7, r1, #40, 12	; 0x2800000
    5634:	5f3e2d29 	svcpl	0x003e2d29
    5638:	6373696d 	cmnvs	r3, #1785856	; 0x1b4000
    563c:	5f202c29 	svcpl	0x00202c29
    5640:	4e454552 	mcrmi	5, 2, r4, cr5, cr2, {2}
    5644:	4e495f54 	mcrmi	15, 2, r5, cr9, cr4, {2}
    5648:	4d5f5449 	cfldrdmi	mvd5, [pc, #-292]	; 552c <_Min_Stack_Size+0x512c>
    564c:	28435349 	stmdacs	r3, {r0, r3, r6, r8, r9, ip, lr}^
    5650:	29726176 	ldmdbcs	r2!, {r1, r2, r4, r5, r6, r8, sp, lr}^
    5654:	545f0029 	ldrbpl	r0, [pc], #-41	; 565c <_Min_Stack_Size+0x525c>
    5658:	5254505f 	subspl	r5, r4, #95	; 0x5f
    565c:	46464944 	strbmi	r4, [r6], -r4, asr #18
    5660:	5f5f0020 	svcpl	0x005f0020
    5664:	5f515155 	svcpl	0x00515155
    5668:	54494246 	strbpl	r4, [r9], #-582	; 0xfffffdba
    566c:	38205f5f 	stmdacc	r0!, {r0, r1, r2, r3, r4, r6, r8, r9, sl, fp, ip, lr}
    5670:	63775f00 	cmnvs	r7, #0, 30
    5674:	6d6f7472 	cfstrdvs	mvd7, [pc, #-456]!	; 54b4 <_Min_Stack_Size+0x50b4>
    5678:	74735f62 	ldrbtvc	r5, [r3], #-3938	; 0xfffff09e
    567c:	00657461 	rsbeq	r7, r5, r1, ror #8
    5680:	49545845 	ldmdbmi	r4, {r0, r2, r6, fp, ip, lr}^
    5684:	38415038 	stmdacc	r1, {r3, r4, r5, ip, lr}^
    5688:	58452820 	stmdapl	r5, {r5, fp, sp}^
    568c:	475f4954 			; <UNDEFINED> instruction: 0x475f4954
    5690:	5f4f4950 	svcpl	0x004f4950
    5694:	7070614d 	rsbsvc	r6, r0, sp, asr #2
    5698:	5f676e69 	svcpl	0x00676e69
    569c:	457b2974 	ldrbmi	r2, [fp, #-2420]!	; 0xfffff68c
    56a0:	38495458 	stmdacc	r9, {r3, r4, r6, sl, ip, lr}^
    56a4:	5047202c 	subpl	r2, r7, ip, lsr #32
    56a8:	2c414f49 	mcrrcs	15, 4, r4, r1, cr9
    56ac:	49504720 	ldmdbmi	r0, {r5, r8, r9, sl, lr}^
    56b0:	49505f4f 	ldmdbmi	r0, {r0, r1, r2, r3, r6, r8, r9, sl, fp, ip, lr}^
    56b4:	2c385f4e 	ldccs	15, cr5, [r8], #-312	; 0xfffffec8
    56b8:	54584520 	ldrbpl	r4, [r8], #-1312	; 0xfffffae0
    56bc:	495f3849 	ldmdbmi	pc, {r0, r3, r6, fp, ip, sp}^	; <UNPREDICTABLE>
    56c0:	7d205152 	stfvcs	f5, [r0, #-328]!	; 0xfffffeb8
    56c4:	575f5f00 	ldrbpl	r5, [pc, -r0, lsl #30]
    56c8:	5f544e49 	svcpl	0x00544e49
    56cc:	45505954 	ldrbmi	r5, [r0, #-2388]	; 0xfffff6ac
    56d0:	75205f5f 	strvc	r5, [r0, #-3935]!	; 0xfffff0a1
    56d4:	6769736e 	strbvs	r7, [r9, -lr, ror #6]!
    56d8:	2064656e 	rsbcs	r6, r4, lr, ror #10
    56dc:	00746e69 	rsbseq	r6, r4, r9, ror #28
    56e0:	20746e69 	rsbscs	r6, r4, r9, ror #28
    56e4:	5f00322b 	svcpl	0x0000322b
    56e8:	4345445f 	movtmi	r4, #21599	; 0x545f
    56ec:	4d5f3436 	cfldrdmi	mvd3, [pc, #-216]	; 561c <_Min_Stack_Size+0x521c>
    56f0:	455f4e49 	ldrbmi	r4, [pc, #-3657]	; 48af <_Min_Stack_Size+0x44af>
    56f4:	5f5f5058 	svcpl	0x005f5058
    56f8:	332d2820 			; <UNDEFINED> instruction: 0x332d2820
    56fc:	00293238 	eoreq	r3, r9, r8, lsr r2
    5700:	41555f5f 	cmpmi	r5, pc, asr pc
    5704:	4d554343 	ldclmi	3, cr4, [r5, #-268]	; 0xfffffef4
    5708:	58414d5f 	stmdapl	r1, {r0, r1, r2, r3, r4, r6, r8, sl, fp, lr}^
    570c:	30205f5f 	eorcc	r5, r0, pc, asr pc
    5710:	46464658 			; <UNDEFINED> instruction: 0x46464658
    5714:	46464646 	strbmi	r4, [r6], -r6, asr #12
    5718:	312d5046 			; <UNDEFINED> instruction: 0x312d5046
    571c:	004b5536 	subeq	r5, fp, r6, lsr r5
    5720:	4545525f 	strbmi	r5, [r5, #-607]	; 0xfffffda1
    5724:	575f544e 	ldrbpl	r5, [pc, -lr, asr #8]
    5728:	4d4f5443 	cfstrdmi	mvd5, [pc, #-268]	; 5624 <_Min_Stack_Size+0x5224>
    572c:	54535f42 	ldrbpl	r5, [r3], #-3906	; 0xfffff0be
    5730:	28455441 	stmdacs	r5, {r0, r6, sl, ip, lr}^
    5734:	29727470 	ldmdbcs	r2!, {r4, r5, r6, sl, ip, sp, lr}^
    5738:	70282820 	eorvc	r2, r8, r0, lsr #16
    573c:	2d297274 	sfmcs	f7, 4, [r9, #-464]!	; 0xfffffe30
    5740:	696d5f3e 	stmdbvs	sp!, {r1, r2, r3, r4, r5, r8, r9, sl, fp, ip, lr}^
    5744:	3e2d6373 	mcrcc	3, 1, r6, cr13, cr3, {3}
    5748:	7463775f 	strbtvc	r7, [r3], #-1887	; 0xfffff8a1
    574c:	5f626d6f 	svcpl	0x00626d6f
    5750:	74617473 	strbtvc	r7, [r1], #-1139	; 0xfffffb8d
    5754:	5f002965 	svcpl	0x00002965
    5758:	5f6d745f 	svcpl	0x006d745f
    575c:	7961646d 	stmdbvc	r1!, {r0, r2, r3, r5, r6, sl, sp, lr}^
    5760:	61686300 	cmnvs	r8, r0, lsl #6
    5764:	302b2072 	eorcc	r2, fp, r2, ror r0
    5768:	6c6c6100 	stfvse	f6, [ip], #-0
    576c:	0061636f 	rsbeq	r6, r1, pc, ror #6
    5770:	464c5f5f 			; <UNDEFINED> instruction: 0x464c5f5f
    5774:	54434152 	strbpl	r4, [r3], #-338	; 0xfffffeae
    5778:	58414d5f 	stmdapl	r1, {r0, r1, r2, r3, r4, r6, r8, sl, fp, lr}^
    577c:	30205f5f 	eorcc	r5, r0, pc, asr pc
    5780:	46463758 			; <UNDEFINED> instruction: 0x46463758
    5784:	46464646 	strbmi	r4, [r6], -r6, asr #12
    5788:	332d5046 			; <UNDEFINED> instruction: 0x332d5046
    578c:	00524c31 	subseq	r4, r2, r1, lsr ip
    5790:	49535f5f 	ldmdbmi	r3, {r0, r1, r2, r3, r4, r6, r8, r9, sl, fp, ip, lr}^
    5794:	464f455a 			; <UNDEFINED> instruction: 0x464f455a
    5798:	5254505f 	subspl	r5, r4, #95	; 0x5f
    579c:	46464944 	strbmi	r4, [r6], -r4, asr #18
    57a0:	5f5f545f 	svcpl	0x005f545f
    57a4:	45003420 	strmi	r3, [r0, #-1056]	; 0xfffffbe0
    57a8:	31495458 	cmpcc	r9, r8, asr r4
    57ac:	31312031 	teqcc	r1, r1, lsr r0
    57b0:	575f5f00 	ldrbpl	r5, [pc, -r0, lsl #30]
    57b4:	52414843 	subpl	r4, r1, #4390912	; 0x430000
    57b8:	5f5f545f 	svcpl	0x005f545f
    57bc:	58450020 	stmdapl	r5, {r5}^
    57c0:	34314954 	ldrtcc	r4, [r1], #-2388	; 0xfffff6ac
    57c4:	34314150 	ldrtcc	r4, [r1], #-336	; 0xfffffeb0
    57c8:	58452820 	stmdapl	r5, {r5, fp, sp}^
    57cc:	475f4954 			; <UNDEFINED> instruction: 0x475f4954
    57d0:	5f4f4950 	svcpl	0x004f4950
    57d4:	7070614d 	rsbsvc	r6, r0, sp, asr #2
    57d8:	5f676e69 	svcpl	0x00676e69
    57dc:	457b2974 	ldrbmi	r2, [fp, #-2420]!	; 0xfffff68c
    57e0:	31495458 	cmpcc	r9, r8, asr r4
    57e4:	47202c34 			; <UNDEFINED> instruction: 0x47202c34
    57e8:	414f4950 	cmpmi	pc, r0, asr r9	; <UNPREDICTABLE>
    57ec:	5047202c 	subpl	r2, r7, ip, lsr #32
    57f0:	505f4f49 	subspl	r4, pc, r9, asr #30
    57f4:	315f4e49 	cmpcc	pc, r9, asr #28
    57f8:	45202c34 	strmi	r2, [r0, #-3124]!	; 0xfffff3cc
    57fc:	31495458 	cmpcc	r9, r8, asr r4
    5800:	52495f34 	subpl	r5, r9, #52, 30	; 0xd0
    5804:	007d2051 	rsbseq	r2, sp, r1, asr r0
    5808:	695f5f5f 	ldmdbvs	pc, {r0, r1, r2, r3, r4, r6, r8, r9, sl, fp, ip, lr}^	; <UNPREDICTABLE>
    580c:	6c5f746e 	cfldrdvs	mvd7, [pc], {110}	; 0x6e
    5810:	74736165 	ldrbtvc	r6, [r3], #-357	; 0xfffffe9b
    5814:	5f745f38 	svcpl	0x00745f38
    5818:	69666564 	stmdbvs	r6!, {r2, r5, r6, r8, sl, sp, lr}^
    581c:	2064656e 	rsbcs	r6, r4, lr, ror #10
    5820:	5f5f0031 	svcpl	0x005f0031
    5824:	5f4d5241 	svcpl	0x004d5241
    5828:	54414546 	strbpl	r4, [r1], #-1350	; 0xfffffaba
    582c:	5f455255 	svcpl	0x00455255
    5830:	56494449 	strbpl	r4, [r9], -r9, asr #8
    5834:	5f003120 	svcpl	0x00003120
    5838:	66756275 			; <UNDEFINED> instruction: 0x66756275
    583c:	465f5f00 	ldrbmi	r5, [pc], -r0, lsl #30
    5840:	54414f4c 	strbpl	r4, [r1], #-3916	; 0xfffff0b4
    5844:	524f575f 	subpl	r5, pc, #24903680	; 0x17c0000
    5848:	524f5f44 	subpl	r5, pc, #68, 30	; 0x110
    584c:	5f524544 	svcpl	0x00524544
    5850:	5f5f205f 	svcpl	0x005f205f
    5854:	4544524f 	strbmi	r5, [r4, #-591]	; 0xfffffdb1
    5858:	494c5f52 	stmdbmi	ip, {r1, r4, r6, r8, r9, sl, fp, ip, lr}^
    585c:	454c5454 	strbmi	r5, [ip, #-1108]	; 0xfffffbac
    5860:	444e455f 	strbmi	r4, [lr], #-1375	; 0xfffffaa1
    5864:	5f4e4149 	svcpl	0x004e4149
    5868:	4e49005f 	mcrmi	0, 2, r0, cr9, cr15, {2}
    586c:	58414d54 	stmdapl	r1, {r2, r4, r6, r8, sl, fp, lr}^
    5870:	4e494d5f 	mcrmi	13, 2, r4, cr9, cr15, {2}
    5874:	492d2820 	pushmi	{r5, fp, sp}
    5878:	414d544e 	cmpmi	sp, lr, asr #8
    587c:	414d5f58 	cmpmi	sp, r8, asr pc
    5880:	202d2058 	eorcs	r2, sp, r8, asr r0
    5884:	5f002931 	svcpl	0x00002931
    5888:	5f434347 	svcpl	0x00434347
    588c:	41484357 	cmpmi	r8, r7, asr r3
    5890:	20545f52 	subscs	r5, r4, r2, asr pc
    5894:	755f5f00 	ldrbvc	r5, [pc, #-3840]	; 499c <_Min_Stack_Size+0x459c>
    5898:	636f6c6e 	cmnvs	pc, #28160	; 0x6e00
    589c:	2e28736b 	cdpcs	3, 2, cr7, cr8, cr11, {3}
    58a0:	20292e2e 	eorcs	r2, r9, lr, lsr #28
    58a4:	6f6c5f5f 	svcvs	0x006c5f5f
    58a8:	615f6b63 	cmpvs	pc, r3, ror #22
    58ac:	746f6e6e 	strbtvc	r6, [pc], #-3694	; 58b4 <_Min_Stack_Size+0x54b4>
    58b0:	28657461 	stmdacs	r5!, {r0, r5, r6, sl, ip, sp, lr}^
    58b4:	6f6c6e75 	svcvs	0x006c6e75
    58b8:	665f6b63 	ldrbvs	r6, [pc], -r3, ror #22
    58bc:	74636e75 	strbtvc	r6, [r3], #-3701	; 0xfffff18b
    58c0:	286e6f69 	stmdacs	lr!, {r0, r3, r5, r6, r8, r9, sl, fp, sp, lr}^
    58c4:	41565f5f 	cmpmi	r6, pc, asr pc
    58c8:	4752415f 			; <UNDEFINED> instruction: 0x4752415f
    58cc:	295f5f53 	ldmdbcs	pc, {r0, r1, r4, r6, r8, r9, sl, fp, ip, lr}^	; <UNPREDICTABLE>
    58d0:	5f5f0029 	svcpl	0x005f0029
    58d4:	4f505845 	svcmi	0x00505845
    58d8:	00205452 	eoreq	r5, r0, r2, asr r4
    58dc:	7463775f 	strbtvc	r7, [r3], #-1887	; 0xfffff8a1
    58e0:	5f626d6f 	svcpl	0x00626d6f
    58e4:	74617473 	strbtvc	r7, [r1], #-1139	; 0xfffffb8d
    58e8:	5f5f0065 	svcpl	0x005f0065
    58ec:	4f53424f 	svcmi	0x0053424f
    58f0:	4554454c 	ldrbmi	r4, [r4, #-1356]	; 0xfffffab4
    58f4:	54414d5f 	strbpl	r4, [r1], #-3423	; 0xfffff2a1
    58f8:	45445f48 	strbmi	r5, [r4, #-3912]	; 0xfffff0b8
    58fc:	4c554146 	ldfmie	f4, [r5], {70}	; 0x46
    5900:	00312054 	eorseq	r2, r1, r4, asr r0
    5904:	73626d5f 	cmnvc	r2, #6080	; 0x17c0
    5908:	65746174 	ldrbvs	r6, [r4, #-372]!	; 0xfffffe8c
    590c:	535f5f00 	cmppl	pc, #0, 30
    5910:	49534343 	ldmdbmi	r3, {r0, r1, r6, r8, r9, lr}^
    5914:	29732844 	ldmdbcs	r3!, {r2, r6, fp, sp}^
    5918:	72747320 	rsbsvc	r7, r4, #32, 6	; 0x80000000
    591c:	20746375 	rsbscs	r6, r4, r5, ror r3
    5920:	61685f5f 	cmnvs	r8, pc, asr pc
    5924:	5f006b63 	svcpl	0x00006b63
    5928:	5248535f 	subpl	r5, r8, #2080374785	; 0x7c000001
    592c:	49575f54 	ldmdbmi	r7, {r2, r4, r6, r8, r9, sl, fp, ip, lr}^
    5930:	5f485444 	svcpl	0x00485444
    5934:	3631205f 			; <UNDEFINED> instruction: 0x3631205f
    5938:	4f5f5f00 	svcmi	0x005f5f00
    593c:	52454452 	subpl	r4, r5, #1375731712	; 0x52000000
    5940:	5044505f 	subpl	r5, r4, pc, asr r0
    5944:	444e455f 	strbmi	r4, [lr], #-1375	; 0xfffffaa1
    5948:	5f4e4149 	svcpl	0x004e4149
    594c:	3433205f 	ldrtcc	r2, [r3], #-95	; 0xffffffa1
    5950:	5f003231 	svcpl	0x00003231
    5954:	646e6172 	strbtvs	r6, [lr], #-370	; 0xfffffe8e
    5958:	78656e5f 	stmdavc	r5!, {r0, r1, r2, r3, r4, r6, r9, sl, fp, sp, lr}^
    595c:	5f5f0074 	svcpl	0x005f0074
    5960:	31434544 	cmpcc	r3, r4, asr #10
    5964:	4d5f3832 	ldclmi	8, cr3, [pc, #-200]	; 58a4 <_Min_Stack_Size+0x54a4>
    5968:	455f5841 	ldrbmi	r5, [pc, #-2113]	; 512f <_Min_Stack_Size+0x4d2f>
    596c:	5f5f5058 	svcpl	0x005f5058
    5970:	34313620 	ldrtcc	r3, [r1], #-1568	; 0xfffff9e0
    5974:	665f0035 			; <UNDEFINED> instruction: 0x665f0035
    5978:	7367616c 	cmnvc	r7, #108, 2
    597c:	495f5f00 	ldmdbmi	pc, {r8, r9, sl, fp, ip, lr}^	; <UNPREDICTABLE>
    5980:	524f504d 	subpl	r5, pc, #77	; 0x4d
    5984:	5f002054 	svcpl	0x00002054
    5988:	444e4152 	strbmi	r4, [lr], #-338	; 0xfffffeae
    598c:	535f3834 	cmppl	pc, #52, 16	; 0x340000
    5990:	5f444545 	svcpl	0x00444545
    5994:	30282032 	eorcc	r2, r8, r2, lsr r0
    5998:	33323178 	teqcc	r2, #120, 2
    599c:	5f002934 	svcpl	0x00002934
    59a0:	44525450 	ldrbmi	r5, [r2], #-1104	; 0xfffffbb0
    59a4:	5f464649 	svcpl	0x00464649
    59a8:	45445f54 	strbmi	r5, [r4, #-3924]	; 0xfffff0ac
    59ac:	52414c43 	subpl	r4, r1, #17152	; 0x4300
    59b0:	00204445 	eoreq	r4, r0, r5, asr #8
    59b4:	53555f5f 	cmppl	r5, #380	; 0x17c
    59b8:	42465f41 	submi	r5, r6, #260	; 0x104
    59bc:	5f5f5449 	svcpl	0x005f5449
    59c0:	00363120 	eorseq	r3, r6, r0, lsr #2
    59c4:	4545525f 	strbmi	r5, [r5, #-607]	; 0xfffffda1
    59c8:	415f544e 	cmpmi	pc, lr, asr #8
    59cc:	49544353 	ldmdbmi	r4, {r0, r1, r4, r6, r8, r9, lr}^
    59d0:	425f454d 	subsmi	r4, pc, #322961408	; 0x13400000
    59d4:	70284655 	eorvc	r4, r8, r5, asr r6
    59d8:	20297274 	eorcs	r7, r9, r4, ror r2
    59dc:	74702828 	ldrbtvc	r2, [r0], #-2088	; 0xfffff7d8
    59e0:	3e2d2972 			; <UNDEFINED> instruction: 0x3e2d2972
    59e4:	6373615f 	cmnvs	r3, #-1073741801	; 0xc0000017
    59e8:	656d6974 	strbvs	r6, [sp, #-2420]!	; 0xfffff68c
    59ec:	6675625f 			; <UNDEFINED> instruction: 0x6675625f
    59f0:	5f5f0029 	svcpl	0x005f0029
    59f4:	45454549 	strbmi	r4, [r5, #-1353]	; 0xfffffab7
    59f8:	54494c5f 	strbpl	r4, [r9], #-3167	; 0xfffff3a1
    59fc:	5f454c54 	svcpl	0x00454c54
    5a00:	49444e45 	stmdbmi	r4, {r0, r2, r6, r9, sl, fp, lr}^
    5a04:	00204e41 	eoreq	r4, r0, r1, asr #28
    5a08:	444c5f5f 	strbmi	r5, [ip], #-3935	; 0xfffff0a1
    5a0c:	4d5f4c42 	ldclmi	12, cr4, [pc, #-264]	; 590c <_Min_Stack_Size+0x550c>
    5a10:	315f4e49 	cmpcc	pc, r9, asr #28
    5a14:	58455f30 	stmdapl	r5, {r4, r5, r8, r9, sl, fp, ip, lr}^
    5a18:	205f5f50 	subscs	r5, pc, r0, asr pc	; <UNPREDICTABLE>
    5a1c:	30332d28 	eorscc	r2, r3, r8, lsr #26
    5a20:	5f002937 	svcpl	0x00002937
    5a24:	544c465f 	strbpl	r4, [ip], #-1631	; 0xfffff9a1
    5a28:	5341485f 	movtpl	r4, #6239	; 0x185f
    5a2c:	4955515f 	ldmdbmi	r5, {r0, r1, r2, r3, r4, r6, r8, ip, lr}^
    5a30:	4e5f5445 	cdpmi	4, 5, cr5, cr15, cr5, {2}
    5a34:	5f5f4e41 	svcpl	0x005f4e41
    5a38:	5f003120 	svcpl	0x00003120
    5a3c:	4343475f 	movtmi	r4, #14175	; 0x375f
    5a40:	4f54415f 	svcmi	0x0054415f
    5a44:	5f43494d 	svcpl	0x0043494d
    5a48:	52414843 	subpl	r4, r1, #4390912	; 0x430000
    5a4c:	434f4c5f 	movtmi	r4, #64607	; 0xfc5f
    5a50:	52465f4b 	subpl	r5, r6, #300	; 0x12c
    5a54:	32204545 	eorcc	r4, r0, #289406976	; 0x11400000
    5a58:	54584500 	ldrbpl	r4, [r8], #-1280	; 0xfffffb00
    5a5c:	20353149 	eorscs	r3, r5, r9, asr #2
    5a60:	47003531 	smladxmi	r0, r1, r5, r3
    5a64:	5f4f4950 	svcpl	0x004f4950
    5a68:	5f4e4950 	svcpl	0x004e4950
    5a6c:	28203431 	stmdacs	r0!, {r0, r4, r5, sl, ip, sp}
    5a70:	6e697528 	cdpvs	5, 6, cr7, cr9, cr8, {1}
    5a74:	5f363174 	svcpl	0x00363174
    5a78:	78302974 	ldmdavc	r0!, {r2, r4, r5, r6, r8, fp, sp}
    5a7c:	30303034 	eorscc	r3, r0, r4, lsr r0
    5a80:	5f5f0029 	svcpl	0x005f0029
    5a84:	4152464c 	cmpmi	r2, ip, asr #12
    5a88:	455f5443 	ldrbmi	r5, [pc, #-1091]	; 564d <_Min_Stack_Size+0x524d>
    5a8c:	4c495350 	mcrrmi	3, 5, r5, r9, cr0
    5a90:	5f5f4e4f 	svcpl	0x005f4e4f
    5a94:	31783020 	cmncc	r8, r0, lsr #32
    5a98:	31332d50 	teqcc	r3, r0, asr sp
    5a9c:	5f00524c 	svcpl	0x0000524c
    5aa0:	6572705f 	ldrbvs	r7, [r2, #-95]!	; 0xffffffa1
    5aa4:	74636964 	strbtvc	r6, [r3], #-2404	; 0xfffff69c
    5aa8:	6c61665f 	stclvs	6, cr6, [r1], #-380	; 0xfffffe84
    5aac:	65286573 	strvs	r6, [r8, #-1395]!	; 0xfffffa8d
    5ab0:	20297078 	eorcs	r7, r9, r8, ror r0
    5ab4:	75625f5f 	strbvc	r5, [r2, #-3935]!	; 0xfffff0a1
    5ab8:	69746c69 	ldmdbvs	r4!, {r0, r3, r5, r6, sl, fp, sp, lr}^
    5abc:	78655f6e 	stmdavc	r5!, {r1, r2, r3, r5, r6, r8, r9, sl, fp, ip, lr}^
    5ac0:	74636570 	strbtvc	r6, [r3], #-1392	; 0xfffffa90
    5ac4:	78652828 	stmdavc	r5!, {r3, r5, fp, sp}^
    5ac8:	202c2970 	eorcs	r2, ip, r0, ror r9
    5acc:	5f002930 	svcpl	0x00002930
    5ad0:	49474542 	stmdbmi	r7, {r1, r6, r8, sl, lr}^
    5ad4:	54535f4e 	ldrbpl	r5, [r3], #-3918	; 0xfffff0b2
    5ad8:	20435f44 	subcs	r5, r3, r4, asr #30
    5adc:	45525f00 	ldrbmi	r5, [r2, #-3840]	; 0xfffff100
    5ae0:	5f544e45 	svcpl	0x00544e45
    5ae4:	43454843 	movtmi	r4, #22595	; 0x5843
    5ae8:	53415f4b 	movtpl	r5, #8011	; 0x1f4b
    5aec:	4d495443 	cfstrdmi	mvd5, [r9, #-268]	; 0xfffffef4
    5af0:	55425f45 	strbpl	r5, [r2, #-3909]	; 0xfffff0bb
    5af4:	61762846 	cmnvs	r6, r6, asr #16
    5af8:	5f202972 	svcpl	0x00202972
    5afc:	4e454552 	mcrmi	5, 2, r4, cr5, cr2, {2}
    5b00:	48435f54 	stmdami	r3, {r2, r4, r6, r8, r9, sl, fp, ip, lr}^
    5b04:	284b4345 	stmdacs	fp, {r0, r2, r6, r8, r9, lr}^
    5b08:	2c726176 	ldfcse	f6, [r2], #-472	; 0xfffffe28
    5b0c:	73615f20 	cmnvc	r1, #32, 30	; 0x80
    5b10:	6d697463 	cfstrdvs	mvd7, [r9, #-396]!	; 0xfffffe74
    5b14:	75625f65 	strbvc	r5, [r2, #-3941]!	; 0xfffff09b
    5b18:	63202c66 			; <UNDEFINED> instruction: 0x63202c66
    5b1c:	20726168 	rsbscs	r6, r2, r8, ror #2
    5b20:	5f202c2a 	svcpl	0x00202c2a
    5b24:	4e454552 	mcrmi	5, 2, r4, cr5, cr2, {2}
    5b28:	53415f54 	movtpl	r5, #8020	; 0x1f54
    5b2c:	4d495443 	cfstrdmi	mvd5, [r9, #-268]	; 0xfffffef4
    5b30:	49535f45 	ldmdbmi	r3, {r0, r2, r6, r8, r9, sl, fp, ip, lr}^
    5b34:	202c455a 	eorcs	r4, ip, sl, asr r5
    5b38:	736d656d 	cmnvc	sp, #457179136	; 0x1b400000
    5b3c:	28287465 	stmdacs	r8!, {r0, r2, r5, r6, sl, ip, sp, lr}
    5b40:	29726176 	ldmdbcs	r2!, {r1, r2, r4, r5, r6, r8, sp, lr}^
    5b44:	615f3e2d 	cmpvs	pc, sp, lsr #28
    5b48:	69746373 	ldmdbvs	r4!, {r0, r1, r4, r5, r6, r8, r9, sp, lr}^
    5b4c:	625f656d 	subsvs	r6, pc, #457179136	; 0x1b400000
    5b50:	202c6675 	eorcs	r6, ip, r5, ror r6
    5b54:	5f202c30 	svcpl	0x00202c30
    5b58:	4e454552 	mcrmi	5, 2, r4, cr5, cr2, {2}
    5b5c:	53415f54 	movtpl	r5, #8020	; 0x1f54
    5b60:	4d495443 	cfstrdmi	mvd5, [r9, #-268]	; 0xfffffef4
    5b64:	49535f45 	ldmdbmi	r3, {r0, r2, r6, r8, r9, sl, fp, ip, lr}^
    5b68:	2929455a 	stmdbcs	r9!, {r1, r3, r4, r6, r8, sl, lr}
    5b6c:	54584500 	ldrbpl	r4, [r8], #-1280	; 0xfffffb00
    5b70:	42503549 	subsmi	r3, r0, #306184192	; 0x12400000
    5b74:	45282035 	strmi	r2, [r8, #-53]!	; 0xffffffcb
    5b78:	5f495458 	svcpl	0x00495458
    5b7c:	4f495047 	svcmi	0x00495047
    5b80:	70614d5f 	rsbvc	r4, r1, pc, asr sp
    5b84:	676e6970 			; <UNDEFINED> instruction: 0x676e6970
    5b88:	7b29745f 	blvc	a62d0c <_Min_Stack_Size+0xa6290c>
    5b8c:	49545845 	ldmdbmi	r4, {r0, r2, r6, fp, ip, lr}^
    5b90:	47202c35 			; <UNDEFINED> instruction: 0x47202c35
    5b94:	424f4950 	submi	r4, pc, #80, 18	; 0x140000
    5b98:	5047202c 	subpl	r2, r7, ip, lsr #32
    5b9c:	505f4f49 	subspl	r4, pc, r9, asr #30
    5ba0:	355f4e49 	ldrbcc	r4, [pc, #-3657]	; 4d5f <_Min_Stack_Size+0x495f>
    5ba4:	5845202c 	stmdapl	r5, {r2, r3, r5, sp}^
    5ba8:	5f354954 	svcpl	0x00354954
    5bac:	20515249 	subscs	r5, r1, r9, asr #4
    5bb0:	5f5f007d 	svcpl	0x005f007d
    5bb4:	5f4d5241 	svcpl	0x004d5241
    5bb8:	455a4953 	ldrbmi	r4, [sl, #-2387]	; 0xfffff6ad
    5bbc:	4d5f464f 	ldclmi	6, cr4, [pc, #-316]	; 5a88 <_Min_Stack_Size+0x5688>
    5bc0:	4d494e49 	stclmi	14, cr4, [r9, #-292]	; 0xfffffedc
    5bc4:	455f4c41 	ldrbmi	r4, [pc, #-3137]	; 4f8b <_Min_Stack_Size+0x4b8b>
    5bc8:	204d554e 	subcs	r5, sp, lr, asr #10
    5bcc:	5f5f0031 	svcpl	0x005f0031
    5bd0:	5f6d7261 	svcpl	0x006d7261
    5bd4:	0031205f 	eorseq	r2, r1, pc, asr r0
    5bd8:	4545525f 	strbmi	r5, [r5, #-607]	; 0xfffffda1
    5bdc:	535f544e 	cmppl	pc, #1308622848	; 0x4e000000
    5be0:	4c4c414d 	stfmie	f4, [ip], {77}	; 0x4d
    5be4:	4548435f 	strbmi	r4, [r8, #-863]	; 0xfffffca1
    5be8:	495f4b43 	ldmdbmi	pc, {r0, r1, r6, r8, r9, fp, lr}^	; <UNPREDICTABLE>
    5bec:	2854494e 	ldmdacs	r4, {r1, r2, r3, r6, r8, fp, lr}^
    5bf0:	29727470 	ldmdbcs	r2!, {r4, r5, r6, sl, ip, sp, lr}^
    5bf4:	206f6420 	rsbcs	r6, pc, r0, lsr #8
    5bf8:	6669207b 			; <UNDEFINED> instruction: 0x6669207b
    5bfc:	70282820 	eorvc	r2, r8, r0, lsr #16
    5c00:	20297274 	eorcs	r7, r9, r4, ror r2
    5c04:	21202626 			; <UNDEFINED> instruction: 0x21202626
    5c08:	72747028 	rsbsvc	r7, r4, #40	; 0x28
    5c0c:	5f3e2d29 	svcpl	0x003e2d29
    5c10:	6964735f 	stmdbvs	r4!, {r0, r1, r2, r3, r4, r6, r8, r9, ip, sp, lr}^
    5c14:	696e6964 	stmdbvs	lr!, {r2, r5, r6, r8, fp, sp, lr}^
    5c18:	5f202974 	svcpl	0x00202974
    5c1c:	6e69735f 	mcrvs	3, 3, r7, cr9, cr15, {2}
    5c20:	28207469 	stmdacs	r0!, {r0, r3, r5, r6, sl, ip, sp, lr}
    5c24:	29727470 	ldmdbcs	r2!, {r4, r5, r6, sl, ip, sp, lr}^
    5c28:	207d203b 	rsbscs	r2, sp, fp, lsr r0
    5c2c:	6c696877 	stclvs	8, cr6, [r9], #-476	; 0xfffffe24
    5c30:	30282065 	eorcc	r2, r8, r5, rrx
    5c34:	5f5f0029 	svcpl	0x005f0029
    5c38:	33544c46 	cmpcc	r4, #17920	; 0x4600
    5c3c:	494d5f32 	stmdbmi	sp, {r1, r4, r5, r8, r9, sl, fp, ip, lr}^
    5c40:	30315f4e 	eorscc	r5, r1, lr, asr #30
    5c44:	5058455f 	subspl	r4, r8, pc, asr r5
    5c48:	28205f5f 	stmdacs	r0!, {r0, r1, r2, r3, r4, r6, r8, r9, sl, fp, ip, lr}
    5c4c:	2937332d 	ldmdbcs	r7!, {r0, r2, r3, r5, r8, r9, ip, sp}
    5c50:	635f5f00 	cmpvs	pc, #0, 30
    5c54:	746e756f 	strbtvc	r7, [lr], #-1391	; 0xfffffa91
    5c58:	6c5f5f00 	mrrcvs	15, 0, r5, pc, cr0	; <UNPREDICTABLE>
    5c5c:	5f6b636f 	svcpl	0x006b636f
    5c60:	5f797274 	svcpl	0x00797274
    5c64:	75716361 	ldrbvc	r6, [r1, #-865]!	; 0xfffffc9f
    5c68:	28657269 	stmdacs	r5!, {r0, r3, r5, r6, r9, ip, sp, lr}^
    5c6c:	6b636f6c 	blvs	18e1a24 <_Min_Stack_Size+0x18e1624>
    5c70:	28282029 	stmdacs	r8!, {r0, r3, r5, sp}
    5c74:	64696f76 	strbtvs	r6, [r9], #-3958	; 0xfffff08a
    5c78:	29302029 	ldmdbcs	r0!, {r0, r3, r5, sp}
    5c7c:	495f5f00 	ldmdbmi	pc, {r8, r9, sl, fp, ip, lr}^	; <UNPREDICTABLE>
    5c80:	435f4f53 	cmpmi	pc, #332	; 0x14c
    5c84:	5349565f 	movtpl	r5, #38495	; 0x965f
    5c88:	454c4249 	strbmi	r4, [ip, #-585]	; 0xfffffdb7
    5c8c:	31303220 	teqcc	r0, r0, lsr #4
    5c90:	5f5f0031 	svcpl	0x005f0031
    5c94:	5f4d5241 	svcpl	0x004d5241
    5c98:	36315046 	ldrtcc	r5, [r1], -r6, asr #32
    5c9c:	524f465f 	subpl	r4, pc, #99614720	; 0x5f00000
    5ca0:	5f54414d 	svcpl	0x0054414d
    5ca4:	45544c41 	ldrbmi	r4, [r4, #-3137]	; 0xfffff3bf
    5ca8:	54414e52 	strbpl	r4, [r1], #-3666	; 0xfffff1ae
    5cac:	00455649 	subeq	r5, r5, r9, asr #12
    5cb0:	49545845 	ldmdbmi	r4, {r0, r2, r6, fp, ip, lr}^
    5cb4:	38445038 	stmdacc	r4, {r3, r4, r5, ip, lr}^
    5cb8:	58452820 	stmdapl	r5, {r5, fp, sp}^
    5cbc:	475f4954 			; <UNDEFINED> instruction: 0x475f4954
    5cc0:	5f4f4950 	svcpl	0x004f4950
    5cc4:	7070614d 	rsbsvc	r6, r0, sp, asr #2
    5cc8:	5f676e69 	svcpl	0x00676e69
    5ccc:	457b2974 	ldrbmi	r2, [fp, #-2420]!	; 0xfffff68c
    5cd0:	38495458 	stmdacc	r9, {r3, r4, r6, sl, ip, lr}^
    5cd4:	5047202c 	subpl	r2, r7, ip, lsr #32
    5cd8:	2c444f49 	mcrrcs	15, 4, r4, r4, cr9
    5cdc:	49504720 	ldmdbmi	r0, {r5, r8, r9, sl, lr}^
    5ce0:	49505f4f 	ldmdbmi	r0, {r0, r1, r2, r3, r6, r8, r9, sl, fp, ip, lr}^
    5ce4:	2c385f4e 	ldccs	15, cr5, [r8], #-312	; 0xfffffec8
    5ce8:	54584520 	ldrbpl	r4, [r8], #-1312	; 0xfffffae0
    5cec:	495f3849 	ldmdbmi	pc, {r0, r3, r6, fp, ip, sp}^	; <UNPREDICTABLE>
    5cf0:	7d205152 	stfvcs	f5, [r0, #-328]!	; 0xfffffeb8
    5cf4:	445f5f00 	ldrbmi	r5, [pc], #-3840	; 5cfc <_Min_Stack_Size+0x58fc>
    5cf8:	32334345 	eorscc	r4, r3, #335544321	; 0x14000001
    5cfc:	4e414d5f 	mcrmi	13, 2, r4, cr1, cr15, {2}
    5d00:	49445f54 	stmdbmi	r4, {r2, r4, r6, r8, r9, sl, fp, ip, lr}^
    5d04:	205f5f47 	subscs	r5, pc, r7, asr #30
    5d08:	4e490037 	mcrmi	0, 2, r0, cr9, cr7, {1}
    5d0c:	41465f54 	cmpmi	r6, r4, asr pc
    5d10:	34365453 	ldrtcc	r5, [r6], #-1107	; 0xfffffbad
    5d14:	4e494d5f 	mcrmi	13, 2, r4, cr9, cr15, {2}
    5d18:	5f2d2820 	svcpl	0x002d2820
    5d1c:	544e495f 	strbpl	r4, [lr], #-2399	; 0xfffff6a1
    5d20:	5341465f 	movtpl	r4, #5727	; 0x165f
    5d24:	5f343654 	svcpl	0x00343654
    5d28:	5f58414d 	svcpl	0x0058414d
    5d2c:	202d205f 	eorcs	r2, sp, pc, asr r0
    5d30:	5f002931 	svcpl	0x00002931
    5d34:	4843414d 	stmdami	r3, {r0, r2, r3, r6, r8, lr}^
    5d38:	5f454e49 	svcpl	0x00454e49
    5d3c:	4645445f 			; <UNDEFINED> instruction: 0x4645445f
    5d40:	544c5541 	strbpl	r5, [ip], #-1345	; 0xfffffabf
    5d44:	5059545f 	subspl	r5, r9, pc, asr r4
    5d48:	485f5345 	ldmdami	pc, {r0, r2, r6, r8, r9, ip, lr}^	; <UNPREDICTABLE>
    5d4c:	5f5f0020 	svcpl	0x005f0020
    5d50:	47474942 	strbmi	r4, [r7, -r2, asr #18]
    5d54:	5f545345 	svcpl	0x00545345
    5d58:	47494c41 	strbmi	r4, [r9, -r1, asr #24]
    5d5c:	4e454d4e 	cdpmi	13, 4, cr4, cr5, cr14, {2}
    5d60:	205f5f54 	subscs	r5, pc, r4, asr pc	; <UNPREDICTABLE>
    5d64:	5f5f0038 	svcpl	0x005f0038
    5d68:	5f736168 	svcpl	0x00736168
    5d6c:	74616566 	strbtvc	r6, [r1], #-1382	; 0xfffffa9a
    5d70:	28657275 	stmdacs	r5!, {r0, r2, r4, r5, r6, r9, ip, sp, lr}^
    5d74:	30202978 	eorcc	r2, r0, r8, ror r9
    5d78:	43475f00 	movtmi	r5, #32512	; 0x7f00
    5d7c:	54505f43 	ldrbpl	r5, [r0], #-3907	; 0xfffff0bd
    5d80:	46494452 			; <UNDEFINED> instruction: 0x46494452
    5d84:	20545f46 	subscs	r5, r4, r6, asr #30
    5d88:	475f5f00 	ldrbmi	r5, [pc, -r0, lsl #30]
    5d8c:	4c43554e 	cfstr64mi	mvdx5, [r3], {78}	; 0x4e
    5d90:	5f454b49 	svcpl	0x00454b49
    5d94:	4c495542 	cfstr64mi	mvdx5, [r9], {66}	; 0x42
    5d98:	5f4e4954 	svcpl	0x004e4954
    5d9c:	5458454e 	ldrbpl	r4, [r8], #-1358	; 0xfffffab2
    5da0:	4752415f 			; <UNDEFINED> instruction: 0x4752415f
    5da4:	5f003120 	svcpl	0x00003120
    5da8:	5f41545f 	svcpl	0x0041545f
    5dac:	54494249 	strbpl	r4, [r9], #-585	; 0xfffffdb7
    5db0:	36205f5f 	qsaxcc	r5, r0, pc	; <UNPREDICTABLE>
    5db4:	50470034 	subpl	r0, r7, r4, lsr r0
    5db8:	5f444f49 	svcpl	0x00444f49
    5dbc:	45534142 	ldrbmi	r4, [r3, #-322]	; 0xfffffebe
    5dc0:	34783020 	ldrbtcc	r3, [r8], #-32	; 0xffffffe0
    5dc4:	31313030 	teqcc	r1, r0, lsr r0
    5dc8:	55303034 	ldrpl	r3, [r0, #-52]!	; 0xffffffcc
    5dcc:	5453004c 	ldrbpl	r0, [r3], #-76	; 0xffffffb4
    5dd0:	2032334d 	eorscs	r3, r2, sp, asr #6
    5dd4:	5f5f0031 	svcpl	0x005f0031
    5dd8:	444e4152 	strbmi	r4, [lr], #-338	; 0xfffffeae
    5ddc:	58414d5f 	stmdapl	r1, {r0, r1, r2, r3, r4, r6, r8, sl, fp, lr}^
    5de0:	37783020 	ldrbcc	r3, [r8, -r0, lsr #32]!
    5de4:	66666666 	strbtvs	r6, [r6], -r6, ror #12
    5de8:	00666666 	rsbeq	r6, r6, r6, ror #12
    5dec:	4f4c5f5f 	svcmi	0x004c5f5f
    5df0:	495f4b43 	ldmdbmi	pc, {r0, r1, r6, r8, r9, fp, lr}^	; <UNPREDICTABLE>
    5df4:	2854494e 	ldmdacs	r4, {r1, r2, r3, r6, r8, fp, lr}^
    5df8:	73616c63 	cmnvc	r1, #25344	; 0x6300
    5dfc:	6f6c2c73 	svcvs	0x006c2c73
    5e00:	20296b63 	eorcs	r6, r9, r3, ror #22
    5e04:	74617473 	strbtvc	r7, [r1], #-1139	; 0xfffffb8d
    5e08:	69206369 	stmdbvs	r0!, {r0, r3, r5, r6, r8, r9, sp, lr}
    5e0c:	6c20746e 	cfstrsvs	mvf7, [r0], #-440	; 0xfffffe48
    5e10:	206b636f 	rsbcs	r6, fp, pc, ror #6
    5e14:	3b30203d 	blcc	c0df10 <_Min_Stack_Size+0xc0db10>
    5e18:	54584500 	ldrbpl	r4, [r8], #-1280	; 0xfffffb00
    5e1c:	34203449 	strtcc	r3, [r0], #-1097	; 0xfffffbb7
    5e20:	745f5f00 	ldrbvc	r5, [pc], #-3840	; 5e28 <_Min_Stack_Size+0x5a28>
    5e24:	64775f6d 	ldrbtvs	r5, [r7], #-3949	; 0xfffff093
    5e28:	5f007961 	svcpl	0x00007961
    5e2c:	4d52415f 	ldfmie	f4, [r2, #-380]	; 0xfffffe84
    5e30:	4145465f 	cmpmi	r5, pc, asr r6
    5e34:	45525554 	ldrbmi	r5, [r2, #-1364]	; 0xfffffaac
    5e38:	4452515f 	ldrbmi	r5, [r2], #-351	; 0xfffffea1
    5e3c:	5f00584d 	svcpl	0x0000584d
    5e40:	45564148 	ldrbmi	r4, [r6, #-328]	; 0xfffffeb8
    5e44:	5f43435f 	svcpl	0x0043435f
    5e48:	49484e49 	stmdbmi	r8, {r0, r3, r6, r9, sl, fp, lr}^
    5e4c:	5f544942 	svcpl	0x00544942
    5e50:	504f4f4c 	subpl	r4, pc, ip, asr #30
    5e54:	5f4f545f 	svcpl	0x004f545f
    5e58:	4342494c 	movtmi	r4, #10572	; 0x294c
    5e5c:	204c4c41 	subcs	r4, ip, r1, asr #24
    5e60:	5f5f0031 	svcpl	0x005f0031
    5e64:	5f4d5241 	svcpl	0x004d5241
    5e68:	48435241 	stmdami	r3, {r0, r6, r9, ip, lr}^
    5e6c:	4153495f 	cmpmi	r3, pc, asr r9
    5e70:	5548545f 	strbpl	r5, [r8, #-1119]	; 0xfffffba1
    5e74:	3220424d 	eorcc	r4, r0, #-805306364	; 0xd0000004
    5e78:	49464100 	stmdbmi	r6, {r8, lr}^
    5e7c:	4c435f4f 	mcrrmi	15, 4, r5, r3, cr15
    5e80:	4e455f4b 	cdpmi	15, 4, cr5, cr5, cr11, {2}
    5e84:	28202928 	stmdacs	r0!, {r3, r5, r8, fp, sp}
    5e88:	2d434352 	stclcs	3, cr4, [r3, #-328]	; 0xfffffeb8
    5e8c:	4250413e 	subsmi	r4, r0, #-2147483633	; 0x8000000f
    5e90:	524e4532 	subpl	r4, lr, #209715200	; 0xc800000
    5e94:	203d7c20 	eorscs	r7, sp, r0, lsr #24
    5e98:	3c3c3128 	ldfccs	f3, [ip], #-160	; 0xffffff60
    5e9c:	00292930 	eoreq	r2, r9, r0, lsr r9
    5ea0:	4f4c5f5f 	svcmi	0x004c5f5f
    5ea4:	4c5f474e 	mrrcmi	7, 4, r4, pc, cr14	; <UNPREDICTABLE>
    5ea8:	5f474e4f 	svcpl	0x00474e4f
    5eac:	5f58414d 	svcpl	0x0058414d
    5eb0:	7830205f 	ldmdavc	r0!, {r0, r1, r2, r3, r4, r6, sp}
    5eb4:	66666637 			; <UNDEFINED> instruction: 0x66666637
    5eb8:	66666666 	strbtvs	r6, [r6], -r6, ror #12
    5ebc:	66666666 	strbtvs	r6, [r6], -r6, ror #12
    5ec0:	66666666 	strbtvs	r6, [r6], -r6, ror #12
    5ec4:	52004c4c 	andpl	r4, r0, #76, 24	; 0x4c00
    5ec8:	475f4343 	ldrbmi	r4, [pc, -r3, asr #6]
    5ecc:	444f4950 	strbmi	r4, [pc], #-2384	; 5ed4 <_Min_Stack_Size+0x5ad4>
    5ed0:	4b4c435f 	blmi	1316c54 <_Min_Stack_Size+0x1316854>
    5ed4:	284e455f 	stmdacs	lr, {r0, r1, r2, r3, r4, r6, r8, sl, lr}^
    5ed8:	52282029 	eorpl	r2, r8, #41	; 0x29
    5edc:	3e2d4343 	cdpcc	3, 2, cr4, cr13, cr3, {2}
    5ee0:	32425041 	subcc	r5, r2, #65	; 0x41
    5ee4:	20524e45 	subscs	r4, r2, r5, asr #28
    5ee8:	28203d7c 	stmdacs	r0!, {r2, r3, r4, r5, r6, r8, sl, fp, ip, sp}
    5eec:	353c3c31 	ldrcc	r3, [ip, #-3121]!	; 0xfffff3cf
    5ef0:	5f002929 	svcpl	0x00002929
    5ef4:	736f6c63 	cmnvc	pc, #25344	; 0x6300
    5ef8:	5f5f0065 	svcpl	0x005f0065
    5efc:	5f677261 	svcpl	0x00677261
    5f00:	65707974 	ldrbvs	r7, [r0, #-2420]!	; 0xfffff68c
    5f04:	6761745f 			; <UNDEFINED> instruction: 0x6761745f
    5f08:	67726128 	ldrbvs	r6, [r2, -r8, lsr #2]!
    5f0c:	6e696b5f 	vmovvs.8	d9[6], r6
    5f10:	72612c64 	rsbvc	r2, r1, #100, 24	; 0x6400
    5f14:	64695f67 	strbtvs	r5, [r9], #-3943	; 0xfffff099
    5f18:	79742c78 	ldmdbvc	r4!, {r3, r4, r5, r6, sl, fp, sp}^
    5f1c:	745f6570 	ldrbvc	r6, [pc], #-1392	; 5f24 <_Min_Stack_Size+0x5b24>
    5f20:	695f6761 	ldmdbvs	pc, {r0, r5, r6, r8, r9, sl, sp, lr}^	; <UNPREDICTABLE>
    5f24:	20297864 	eorcs	r7, r9, r4, ror #16
    5f28:	55504300 	ldrbpl	r4, [r0, #-768]	; 0xfffffd00
    5f2c:	5350495f 	cmppl	r0, #1556480	; 0x17c000
    5f30:	65725f52 	ldrbvs	r5, [r2, #-3922]!	; 0xfffff0ae
    5f34:	74736967 	ldrbtvc	r6, [r3], #-2407	; 0xfffff699
    5f38:	5f007265 	svcpl	0x00007265
    5f3c:	5254535f 	subspl	r5, r4, #2080374785	; 0x7c000001
    5f40:	28474e49 	stmdacs	r7, {r0, r3, r6, r9, sl, fp, lr}^
    5f44:	23202978 			; <UNDEFINED> instruction: 0x23202978
    5f48:	5f5f0078 	svcpl	0x005f0078
    5f4c:	795f6d74 	ldmdbvc	pc, {r2, r4, r5, r6, r8, sl, fp, sp, lr}^	; <UNPREDICTABLE>
    5f50:	00796164 	rsbseq	r6, r9, r4, ror #2
    5f54:	726f6873 	rsbvc	r6, pc, #7536640	; 0x730000
    5f58:	525f0074 	subspl	r0, pc, #116	; 0x74
    5f5c:	544e4545 	strbpl	r4, [lr], #-1349	; 0xfffffabb
    5f60:	494e495f 	stmdbmi	lr, {r0, r1, r2, r3, r4, r6, r8, fp, lr}^
    5f64:	54505f54 	ldrbpl	r5, [r0], #-3924	; 0xfffff0ac
    5f68:	61762852 	cmnvs	r6, r2, asr r8
    5f6c:	7b202972 	blvc	81053c <_Min_Stack_Size+0x81013c>
    5f70:	6d656d20 	stclvs	13, cr6, [r5, #-128]!	; 0xffffff80
    5f74:	28746573 	ldmdacs	r4!, {r0, r1, r4, r5, r6, r8, sl, sp, lr}^
    5f78:	72617628 	rsbvc	r7, r1, #40, 12	; 0x2800000
    5f7c:	30202c29 	eorcc	r2, r0, r9, lsr #24
    5f80:	6973202c 	ldmdbvs	r3!, {r2, r3, r5, sp}^
    5f84:	666f657a 			; <UNDEFINED> instruction: 0x666f657a
    5f88:	76282a28 	strtvc	r2, [r8], -r8, lsr #20
    5f8c:	29297261 	stmdbcs	r9!, {r0, r5, r6, r9, ip, sp, lr}
    5f90:	5f203b29 	svcpl	0x00203b29
    5f94:	4e454552 	mcrmi	5, 2, r4, cr5, cr2, {2}
    5f98:	4e495f54 	mcrmi	15, 2, r5, cr9, cr4, {2}
    5f9c:	505f5449 	subspl	r5, pc, r9, asr #8
    5fa0:	5a5f5254 	bpl	17da8f8 <_Min_Stack_Size+0x17da4f8>
    5fa4:	454f5245 	strbmi	r5, [pc, #-581]	; 5d67 <_Min_Stack_Size+0x5967>
    5fa8:	61762844 	cmnvs	r6, r4, asr #16
    5fac:	203b2972 	eorscs	r2, fp, r2, ror r9
    5fb0:	5f5f007d 	svcpl	0x005f007d
    5fb4:	59504f43 	ldmdbpl	r0, {r0, r1, r6, r8, r9, sl, fp, lr}^
    5fb8:	48474952 	stmdami	r7, {r1, r4, r6, r8, fp, lr}^
    5fbc:	29732854 	ldmdbcs	r3!, {r2, r4, r6, fp, sp}^
    5fc0:	72747320 	rsbsvc	r7, r4, #32, 6	; 0x80000000
    5fc4:	20746375 	rsbscs	r6, r4, r5, ror r3
    5fc8:	61685f5f 	cmnvs	r8, pc, asr pc
    5fcc:	5f006b63 	svcpl	0x00006b63
    5fd0:	5246555f 	subpl	r5, r6, #398458880	; 0x17c00000
    5fd4:	5f544341 	svcpl	0x00544341
    5fd8:	54494249 	strbpl	r4, [r9], #-585	; 0xfffffdb7
    5fdc:	30205f5f 	eorcc	r5, r0, pc, asr pc
    5fe0:	415f5f00 	cmpmi	pc, r0, lsl #30
    5fe4:	335f4d52 	cmpcc	pc, #5248	; 0x1480
    5fe8:	54494232 	strbpl	r4, [r9], #-562	; 0xfffffdce
    5fec:	4154535f 	cmpmi	r4, pc, asr r3
    5ff0:	31204554 			; <UNDEFINED> instruction: 0x31204554
    5ff4:	495f5f00 	ldmdbmi	pc, {r8, r9, sl, fp, ip, lr}^	; <UNPREDICTABLE>
    5ff8:	5f38544e 	svcpl	0x0038544e
    5ffc:	29632843 	stmdbcs	r3!, {r0, r1, r6, fp, sp}^
    6000:	5f006320 	svcpl	0x00006320
    6004:	52464c5f 	subpl	r4, r6, #24320	; 0x5f00
    6008:	5f544341 	svcpl	0x00544341
    600c:	54494249 	strbpl	r4, [r9], #-585	; 0xfffffdb7
    6010:	30205f5f 	eorcc	r5, r0, pc, asr pc
    6014:	54535f00 	ldrbpl	r5, [r3], #-3840	; 0xfffff100
    6018:	46454444 	strbmi	r4, [r5], -r4, asr #8
    601c:	205f485f 	subscs	r4, pc, pc, asr r8	; <UNPREDICTABLE>
    6020:	49504700 	ldmdbmi	r0, {r8, r9, sl, lr}^
    6024:	50535f4f 	subspl	r5, r3, pc, asr #30
    6028:	5f444545 	svcpl	0x00444545
    602c:	204d3031 	subcs	r3, sp, r1, lsr r0
    6030:	30307830 	eorscc	r7, r0, r0, lsr r8
    6034:	30303030 	eorscc	r3, r0, r0, lsr r0
    6038:	00753130 	rsbseq	r3, r5, r0, lsr r1
    603c:	42445f5f 	submi	r5, r4, #380	; 0x17c
    6040:	494d5f4c 	stmdbmi	sp, {r2, r3, r6, r8, r9, sl, fp, ip, lr}^
    6044:	58455f4e 	stmdapl	r5, {r1, r2, r3, r6, r8, r9, sl, fp, ip, lr}^
    6048:	205f5f50 	subscs	r5, pc, r0, asr pc	; <UNPREDICTABLE>
    604c:	30312d28 	eorscc	r2, r1, r8, lsr #26
    6050:	00293132 	eoreq	r3, r9, r2, lsr r1
    6054:	49535f5f 	ldmdbmi	r3, {r0, r1, r2, r3, r4, r6, r8, r9, sl, fp, ip, lr}^
    6058:	545f455a 	ldrbpl	r4, [pc], #-1370	; 6060 <_Min_Stack_Size+0x5c60>
    605c:	6c610020 	stclvs	0, cr0, [r1], #-128	; 0xffffff80
    6060:	61636f6c 	cmnvs	r3, ip, ror #30
    6064:	7a697328 	bvc	1a62d0c <_Min_Stack_Size+0x1a6290c>
    6068:	5f202965 	svcpl	0x00202965
    606c:	6975625f 	ldmdbvs	r5!, {r0, r1, r2, r3, r4, r6, r9, sp, lr}^
    6070:	6e69746c 	cdpvs	4, 6, cr7, cr9, cr12, {3}
    6074:	6c6c615f 	stfvse	f6, [ip], #-380	; 0xfffffe84
    6078:	2861636f 	stmdacs	r1!, {r0, r1, r2, r3, r5, r6, r8, r9, sp, lr}^
    607c:	657a6973 	ldrbvs	r6, [sl, #-2419]!	; 0xfffff68d
    6080:	735f0029 	cmpvc	pc, #41	; 0x29
    6084:	00646565 	rsbeq	r6, r4, r5, ror #10
    6088:	72705f5f 	rsbsvc	r5, r0, #380	; 0x17c
    608c:	66746e69 	ldrbtvs	r6, [r4], -r9, ror #28
    6090:	6b696c30 	blvs	1a61158 <_Min_Stack_Size+0x1a60d58>
    6094:	6d662865 	stclvs	8, cr2, [r6, #-404]!	; 0xfffffe6c
    6098:	67726174 			; <UNDEFINED> instruction: 0x67726174
    609c:	7269662c 	rsbvc	r6, r9, #44, 12	; 0x2c00000
    60a0:	61767473 	cmnvs	r6, r3, ror r4
    60a4:	67726172 			; <UNDEFINED> instruction: 0x67726172
    60a8:	45002029 	strmi	r2, [r0, #-41]	; 0xffffffd7
    60ac:	31495458 	cmpcc	r9, r8, asr r4
    60b0:	31435032 	cmpcc	r3, r2, lsr r0
    60b4:	45282032 	strmi	r2, [r8, #-50]!	; 0xffffffce
    60b8:	5f495458 	svcpl	0x00495458
    60bc:	4f495047 	svcmi	0x00495047
    60c0:	70614d5f 	rsbvc	r4, r1, pc, asr sp
    60c4:	676e6970 			; <UNDEFINED> instruction: 0x676e6970
    60c8:	7b29745f 	blvc	a6324c <_Min_Stack_Size+0xa62e4c>
    60cc:	49545845 	ldmdbmi	r4, {r0, r2, r6, fp, ip, lr}^
    60d0:	202c3231 	eorcs	r3, ip, r1, lsr r2
    60d4:	4f495047 	svcmi	0x00495047
    60d8:	47202c43 	strmi	r2, [r0, -r3, asr #24]!
    60dc:	5f4f4950 	svcpl	0x004f4950
    60e0:	5f4e4950 	svcpl	0x004e4950
    60e4:	202c3231 	eorcs	r3, ip, r1, lsr r2
    60e8:	49545845 	ldmdbmi	r4, {r0, r2, r6, fp, ip, lr}^
    60ec:	495f3231 	ldmdbmi	pc, {r0, r4, r5, r9, ip, sp}^	; <UNPREDICTABLE>
    60f0:	7d205152 	stfvcs	f5, [r0, #-328]!	; 0xfffffeb8
    60f4:	465f5f00 	ldrbmi	r5, [pc], -r0, lsl #30
    60f8:	3233544c 	eorscc	r5, r3, #76, 8	; 0x4c000000
    60fc:	4749445f 	smlsldmi	r4, r9, pc, r4	; <UNPREDICTABLE>
    6100:	36205f5f 	qsaxcc	r5, r0, pc	; <UNPREDICTABLE>
    6104:	65735f00 	ldrbvs	r5, [r3, #-3840]!	; 0xfffff100
    6108:	5f006b65 	svcpl	0x00006b65
    610c:	6165645f 	cmnvs	r5, pc, asr r4
    6110:	5f203264 	svcpl	0x00203264
    6114:	7474615f 	ldrbtvc	r6, [r4], #-351	; 0xfffffea1
    6118:	75626972 	strbvc	r6, [r2, #-2418]!	; 0xfffff68e
    611c:	5f5f6574 	svcpl	0x005f6574
    6120:	5f5f2828 	svcpl	0x005f2828
    6124:	65726f6e 	ldrbvs	r6, [r2, #-3950]!	; 0xfffff092
    6128:	6e727574 	mrcvs	5, 3, r7, cr2, cr4, {3}
    612c:	29295f5f 	stmdbcs	r9!, {r0, r1, r2, r3, r4, r6, r8, r9, sl, fp, ip, lr}
    6130:	4c5f5f00 	mrrcmi	15, 0, r5, pc, cr0	; <UNPREDICTABLE>
    6134:	54534145 	ldrbpl	r4, [r3], #-325	; 0xfffffebb
    6138:	22203436 	eorcs	r3, r0, #905969664	; 0x36000000
    613c:	00226c6c 	eoreq	r6, r2, ip, ror #24
    6140:	4f495047 	svcmi	0x00495047
    6144:	444f4d5f 	strbmi	r4, [pc], #-3423	; 614c <_Min_Stack_Size+0x5d4c>
    6148:	554f5f45 	strbpl	r5, [pc, #-3909]	; 520b <_Min_Stack_Size+0x4e0b>
    614c:	54555054 	ldrbpl	r5, [r5], #-84	; 0xffffffac
    6150:	5f46415f 	svcpl	0x0046415f
    6154:	3020444f 	eorcc	r4, r0, pc, asr #8
    6158:	30303078 	eorscc	r3, r0, r8, ror r0
    615c:	30303030 	eorscc	r3, r0, r0, lsr r0
    6160:	5f007537 	svcpl	0x00007537
    6164:	6d6f635f 	stclvs	3, cr6, [pc, #-380]!	; 5ff0 <_Min_Stack_Size+0x5bf0>
    6168:	5f726170 	svcpl	0x00726170
    616c:	745f6e66 	ldrbvc	r6, [pc], #-3686	; 6174 <_Min_Stack_Size+0x5d74>
    6170:	6665645f 			; <UNDEFINED> instruction: 0x6665645f
    6174:	64656e69 	strbtvs	r6, [r5], #-3689	; 0xfffff197
    6178:	58450020 	stmdapl	r5, {r5}^
    617c:	50354954 	eorspl	r4, r5, r4, asr r9
    6180:	28203541 	stmdacs	r0!, {r0, r6, r8, sl, ip, sp}
    6184:	49545845 	ldmdbmi	r4, {r0, r2, r6, fp, ip, lr}^
    6188:	4950475f 	ldmdbmi	r0, {r0, r1, r2, r3, r4, r6, r8, r9, sl, lr}^
    618c:	614d5f4f 	cmpvs	sp, pc, asr #30
    6190:	6e697070 	mcrvs	0, 3, r7, cr9, cr0, {3}
    6194:	29745f67 	ldmdbcs	r4!, {r0, r1, r2, r5, r6, r8, r9, sl, fp, ip, lr}^
    6198:	5458457b 	ldrbpl	r4, [r8], #-1403	; 0xfffffa85
    619c:	202c3549 	eorcs	r3, ip, r9, asr #10
    61a0:	4f495047 	svcmi	0x00495047
    61a4:	47202c41 	strmi	r2, [r0, -r1, asr #24]!
    61a8:	5f4f4950 	svcpl	0x004f4950
    61ac:	5f4e4950 	svcpl	0x004e4950
    61b0:	45202c35 	strmi	r2, [r0, #-3125]!	; 0xfffff3cb
    61b4:	35495458 	strbcc	r5, [r9, #-1112]	; 0xfffffba8
    61b8:	5152495f 	cmppl	r2, pc, asr r9
    61bc:	55007d20 	strpl	r7, [r0, #-3360]	; 0xfffff2e0
    61c0:	4d544e49 	ldclmi	14, cr4, [r4, #-292]	; 0xfffffedc
    61c4:	435f5841 	cmpmi	pc, #4259840	; 0x410000
    61c8:	20297828 	eorcs	r7, r9, r8, lsr #16
    61cc:	49555f5f 	ldmdbmi	r5, {r0, r1, r2, r3, r4, r6, r8, r9, sl, fp, ip, lr}^
    61d0:	414d544e 	cmpmi	sp, lr, asr #8
    61d4:	28435f58 	stmdacs	r3, {r3, r4, r6, r8, r9, sl, fp, ip, lr}^
    61d8:	4e002978 			; <UNDEFINED> instruction: 0x4e002978
    61dc:	5f434956 	svcpl	0x00434956
    61e0:	36515249 	ldrbcc	r5, [r1], -r9, asr #4
    61e4:	5458455f 	ldrbpl	r4, [r8], #-1375	; 0xfffffaa1
    61e8:	455f3249 	ldrbmi	r3, [pc, #-585]	; 5fa7 <_Min_Stack_Size+0x5ba7>
    61ec:	4c42414e 	stfmie	f4, [r2], {78}	; 0x4e
    61f0:	4e282045 	cdpmi	0, 2, cr2, cr8, cr5, {2}
    61f4:	5f434956 	svcpl	0x00434956
    61f8:	52455349 	subpl	r5, r5, #603979777	; 0x24000001
    61fc:	3d7c2030 	ldclcc	0, cr2, [ip, #-192]!	; 0xffffff40
    6200:	3c312820 	ldccc	8, cr2, [r1], #-128	; 0xffffff80
    6204:	2929383c 	stmdbcs	r9!, {r2, r3, r4, r5, fp, ip, sp}
    6208:	455f5f00 	ldrbmi	r5, [pc, #-3840]	; 5310 <_Min_Stack_Size+0x4f10>
    620c:	5f005058 	svcpl	0x00005058
    6210:	736f7066 	cmnvc	pc, #102	; 0x66
    6214:	5f00745f 	svcpl	0x0000745f
    6218:	42444c5f 	submi	r4, r4, #24320	; 0x5f00
    621c:	41485f4c 	cmpmi	r8, ip, asr #30
    6220:	45445f53 	strbmi	r5, [r4, #-3923]	; 0xfffff0ad
    6224:	4d524f4e 	ldclmi	15, cr4, [r2, #-312]	; 0xfffffec8
    6228:	31205f5f 			; <UNDEFINED> instruction: 0x31205f5f
    622c:	775f5f00 	ldrbvc	r5, [pc, -r0, lsl #30]
    6230:	00626863 	rsbeq	r6, r2, r3, ror #16
    6234:	43475f5f 	movtmi	r5, #32607	; 0x7f5f
    6238:	41485f43 	cmpmi	r8, r3, asr #30
    623c:	535f4556 	cmppl	pc, #360710144	; 0x15800000
    6240:	5f434e59 	svcpl	0x00434e59
    6244:	504d4f43 	subpl	r4, sp, r3, asr #30
    6248:	5f455241 	svcpl	0x00455241
    624c:	5f444e41 	svcpl	0x00444e41
    6250:	50415753 	subpl	r5, r1, r3, asr r7
    6254:	3120345f 			; <UNDEFINED> instruction: 0x3120345f
    6258:	49504700 	ldmdbmi	r0, {r8, r9, sl, lr}^
    625c:	2820424f 	stmdacs	r0!, {r0, r1, r2, r3, r6, r9, lr}
    6260:	49504728 	ldmdbmi	r0, {r3, r5, r8, r9, sl, lr}^
    6264:	79545f4f 	ldmdbvc	r4, {r0, r1, r2, r3, r6, r8, r9, sl, fp, ip, lr}^
    6268:	65446570 	strbvs	r6, [r4, #-1392]	; 0xfffffa90
    626c:	47292a66 	strmi	r2, [r9, -r6, ror #20]!
    6270:	424f4950 	submi	r4, pc, #80, 18	; 0x140000
    6274:	5341425f 	movtpl	r4, #4703	; 0x125f
    6278:	41002945 	tstmi	r0, r5, asr #18
    627c:	52314250 	eorspl	r4, r1, #80, 4
    6280:	00525453 	subseq	r5, r2, r3, asr r4
    6284:	43415f5f 	movtmi	r5, #8031	; 0x1f5f
    6288:	5f4d5543 	svcpl	0x004d5543
    628c:	5f4e494d 	svcpl	0x004e494d
    6290:	2d28205f 	stccs	0, cr2, [r8, #-380]!	; 0xfffffe84
    6294:	50315830 	eorspl	r5, r1, r0, lsr r8
    6298:	2d4b3531 	cfstr64cs	mvdx3, [fp, #-196]	; 0xffffff3c
    629c:	50315830 	eorspl	r5, r1, r0, lsr r8
    62a0:	294b3531 	stmdbcs	fp, {r0, r4, r5, r8, sl, ip, sp}^
    62a4:	475f5f00 	ldrbmi	r5, [pc, -r0, lsl #30]
    62a8:	5f43554e 	svcpl	0x0043554e
    62ac:	4c5f4156 	ldfmie	f4, [pc], {86}	; 0x56
    62b0:	5f545349 	svcpl	0x00545349
    62b4:	504d4f43 	subpl	r4, sp, r3, asr #30
    62b8:	42495441 	submi	r5, r9, #1090519040	; 0x41000000
    62bc:	54494c49 	strbpl	r4, [r9], #-3145	; 0xfffff3b7
    62c0:	00312059 	eorseq	r2, r1, r9, asr r0
    62c4:	52415f5f 	subpl	r5, r1, #380	; 0x17c
    62c8:	45465f4d 	strbmi	r5, [r6, #-3917]	; 0xfffff0b3
    62cc:	52555441 	subspl	r5, r5, #1090519040	; 0x41000000
    62d0:	52435f45 	subpl	r5, r3, #276	; 0x114
    62d4:	4f545059 	svcmi	0x00545059
    62d8:	535f5f00 	cmppl	pc, #0, 30
    62dc:	4f455a49 	svcmi	0x00455a49
    62e0:	43575f46 	cmpmi	r7, #280	; 0x118
    62e4:	5f524148 	svcpl	0x00524148
    62e8:	205f5f54 	subscs	r5, pc, r4, asr pc	; <UNPREDICTABLE>
    62ec:	50410034 	subpl	r0, r1, r4, lsr r0
    62f0:	4e453142 	dvfmism	f3, f5, f2
    62f4:	6d5f0052 	ldclvs	0, cr0, [pc, #-328]	; 61b4 <_Min_Stack_Size+0x5db4>
    62f8:	776f7462 	strbvc	r7, [pc, -r2, ror #8]!
    62fc:	74735f63 	ldrbtvc	r5, [r3], #-3939	; 0xfffff09d
    6300:	00657461 	rsbeq	r7, r5, r1, ror #8
    6304:	4f495047 	svcmi	0x00495047
    6308:	28282045 	stmdacs	r8!, {r0, r2, r6, sp}
    630c:	4f495047 	svcmi	0x00495047
    6310:	7079545f 	rsbsvc	r5, r9, pc, asr r4
    6314:	66654465 	strbtvs	r4, [r5], -r5, ror #8
    6318:	5047292a 	subpl	r2, r7, sl, lsr #18
    631c:	5f454f49 	svcpl	0x00454f49
    6320:	45534142 	ldrbmi	r4, [r3, #-322]	; 0xfffffebe
    6324:	5f5f0029 	svcpl	0x005f0029
    6328:	544e4955 	strbpl	r4, [lr], #-2389	; 0xfffff6ab
    632c:	41454c5f 	cmpmi	r5, pc, asr ip
    6330:	34365453 	ldrtcc	r5, [r6], #-1107	; 0xfffffbad
    6334:	58414d5f 	stmdapl	r1, {r0, r1, r2, r3, r4, r6, r8, sl, fp, lr}^
    6338:	30205f5f 	eorcc	r5, r0, pc, asr pc
    633c:	66666678 			; <UNDEFINED> instruction: 0x66666678
    6340:	66666666 	strbtvs	r6, [r6], -r6, ror #12
    6344:	66666666 	strbtvs	r6, [r6], -r6, ror #12
    6348:	66666666 	strbtvs	r6, [r6], -r6, ror #12
    634c:	4c4c5566 	cfstr64mi	mvdx5, [ip], {102}	; 0x66
    6350:	465f5f00 	ldrbmi	r5, [pc], -r0, lsl #30
    6354:	54434152 	strbpl	r4, [r3], #-338	; 0xfffffeae
    6358:	4942495f 	stmdbmi	r2, {r0, r1, r2, r3, r4, r6, r8, fp, lr}^
    635c:	205f5f54 	subscs	r5, pc, r4, asr pc	; <UNPREDICTABLE>
    6360:	58450030 	stmdapl	r5, {r4, r5}^
    6364:	31314954 	teqcc	r1, r4, asr r9
    6368:	5152495f 	cmppl	r2, pc, asr r9
    636c:	00303420 	eorseq	r3, r0, r0, lsr #8
    6370:	4e495f5f 	mcrmi	15, 2, r5, cr9, cr15, {2}
    6374:	49575f54 	ldmdbmi	r7, {r2, r4, r6, r8, r9, sl, fp, ip, lr}^
    6378:	5f485444 	svcpl	0x00485444
    637c:	3233205f 	eorscc	r2, r3, #95	; 0x5f
    6380:	4e5f5f00 	cdpmi	15, 5, cr5, cr15, cr0, {0}
    6384:	494c5745 	stmdbmi	ip, {r0, r2, r6, r8, r9, sl, ip, lr}^
    6388:	41505f42 	cmpmi	r0, r2, asr #30
    638c:	4c484354 	mcrrmi	3, 5, r4, r8, cr4
    6390:	4c455645 	mcrrmi	6, 4, r5, r5, cr5
    6394:	30205f5f 	eorcc	r5, r0, pc, asr pc
    6398:	4f5f5f00 	svcmi	0x005f5f00
    639c:	52454452 	subpl	r4, r5, #1375731712	; 0x52000000
    63a0:	54494c5f 	strbpl	r4, [r9], #-3167	; 0xfffff3a1
    63a4:	5f454c54 	svcpl	0x00454c54
    63a8:	49444e45 	stmdbmi	r4, {r0, r2, r6, r9, sl, fp, lr}^
    63ac:	5f5f4e41 	svcpl	0x005f4e41
    63b0:	33323120 	teqcc	r2, #32, 2
    63b4:	5f5f0034 	svcpl	0x005f0034
    63b8:	657a6973 	ldrbvs	r6, [sl, #-2419]!	; 0xfffff68d
    63bc:	5f00745f 	svcpl	0x0000745f
    63c0:	5f43435f 	svcpl	0x0043435f
    63c4:	50505553 	subspl	r5, r0, r3, asr r5
    63c8:	5354524f 	cmppl	r4, #-268435452	; 0xf0000004
    63cc:	4c4e495f 	mcrrmi	9, 5, r4, lr, cr15	; <UNPREDICTABLE>
    63d0:	20454e49 	subcs	r4, r5, r9, asr #28
    63d4:	5f5f0031 	svcpl	0x005f0031
    63d8:	53544f44 	cmppl	r4, #68, 30	; 0x110
    63dc:	2e202c20 	cdpcs	12, 2, cr2, cr0, cr0, {1}
    63e0:	5f002e2e 	svcpl	0x00002e2e
    63e4:	4345445f 	movtmi	r4, #21599	; 0x545f
    63e8:	4d5f3436 	cfldrdmi	mvd3, [pc, #-216]	; 6318 <_Min_Stack_Size+0x5f18>
    63ec:	5f544e41 	svcpl	0x00544e41
    63f0:	5f474944 	svcpl	0x00474944
    63f4:	3631205f 			; <UNDEFINED> instruction: 0x3631205f
    63f8:	45525f00 	ldrbmi	r5, [r2, #-3840]	; 0xfffff100
    63fc:	5f544e45 	svcpl	0x00544e45
    6400:	44544547 	ldrbmi	r4, [r4], #-1351	; 0xfffffab9
    6404:	5f455441 	svcpl	0x00455441
    6408:	5f525245 	svcpl	0x00525245
    640c:	74702850 	ldrbtvc	r2, [r0], #-2128	; 0xfffff7b0
    6410:	28202972 	stmdacs	r0!, {r1, r4, r5, r6, r8, fp, sp}
    6414:	70282826 	eorvc	r2, r8, r6, lsr #16
    6418:	2d297274 	sfmcs	f7, 4, [r9, #-464]!	; 0xfffffe30
    641c:	696d5f3e 	stmdbvs	sp!, {r1, r2, r3, r4, r5, r8, r9, sl, fp, ip, lr}^
    6420:	3e2d6373 	mcrcc	3, 1, r6, cr13, cr3, {3}
    6424:	7465675f 	strbtvc	r6, [r5], #-1887	; 0xfffff8a1
    6428:	65746164 	ldrbvs	r6, [r4, #-356]!	; 0xfffffe9c
    642c:	7272655f 	rsbsvc	r6, r2, #398458880	; 0x17c00000
    6430:	5f002929 	svcpl	0x00002929
    6434:	544c465f 	strbpl	r4, [ip], #-1631	; 0xfffff9a1
    6438:	4e494d5f 	mcrmi	13, 2, r4, cr9, cr15, {2}
    643c:	5f30315f 	svcpl	0x0030315f
    6440:	5f505845 	svcpl	0x00505845
    6444:	2d28205f 	stccs	0, cr2, [r8, #-380]!	; 0xfffffe84
    6448:	00293733 	eoreq	r3, r9, r3, lsr r7
    644c:	49545845 	ldmdbmi	r4, {r0, r2, r6, fp, ip, lr}^
    6450:	32435032 	subcc	r5, r3, #50	; 0x32
    6454:	58452820 	stmdapl	r5, {r5, fp, sp}^
    6458:	475f4954 			; <UNDEFINED> instruction: 0x475f4954
    645c:	5f4f4950 	svcpl	0x004f4950
    6460:	7070614d 	rsbsvc	r6, r0, sp, asr #2
    6464:	5f676e69 	svcpl	0x00676e69
    6468:	457b2974 	ldrbmi	r2, [fp, #-2420]!	; 0xfffff68c
    646c:	32495458 	subcc	r5, r9, #88, 8	; 0x58000000
    6470:	5047202c 	subpl	r2, r7, ip, lsr #32
    6474:	2c434f49 	mcrrcs	15, 4, r4, r3, cr9
    6478:	49504720 	ldmdbmi	r0, {r5, r8, r9, sl, lr}^
    647c:	49505f4f 	ldmdbmi	r0, {r0, r1, r2, r3, r6, r8, r9, sl, fp, ip, lr}^
    6480:	2c325f4e 	ldccs	15, cr5, [r2], #-312	; 0xfffffec8
    6484:	54584520 	ldrbpl	r4, [r8], #-1312	; 0xfffffae0
    6488:	495f3249 	ldmdbmi	pc, {r0, r3, r6, r9, ip, sp}^	; <UNPREDICTABLE>
    648c:	7d205152 	stfvcs	f5, [r0, #-328]!	; 0xfffffeb8
    6490:	555f5f00 	ldrbpl	r5, [pc, #-3840]	; 5598 <_Min_Stack_Size+0x5198>
    6494:	4343414c 	movtmi	r4, #12620	; 0x314c
    6498:	495f4d55 	ldmdbmi	pc, {r0, r2, r4, r6, r8, sl, fp, lr}^	; <UNPREDICTABLE>
    649c:	5f544942 	svcpl	0x00544942
    64a0:	3233205f 	eorscc	r2, r3, #95	; 0x5f
    64a4:	535f5f00 	cmppl	pc, #0, 30
    64a8:	5f545248 	svcpl	0x00545248
    64ac:	5f58414d 	svcpl	0x0058414d
    64b0:	7830205f 	ldmdavc	r0!, {r0, r1, r2, r3, r4, r6, sp}
    64b4:	66666637 			; <UNDEFINED> instruction: 0x66666637
    64b8:	4e495500 	cdpmi	5, 4, cr5, cr9, cr0, {0}
    64bc:	41465f54 	cmpmi	r6, r4, asr pc
    64c0:	5f385453 	svcpl	0x00385453
    64c4:	2058414d 	subscs	r4, r8, sp, asr #2
    64c8:	555f5f28 	ldrbpl	r5, [pc, #-3880]	; 55a8 <_Min_Stack_Size+0x51a8>
    64cc:	5f544e49 	svcpl	0x00544e49
    64d0:	54534146 	ldrbpl	r4, [r3], #-326	; 0xfffffeba
    64d4:	414d5f38 	cmpmi	sp, r8, lsr pc
    64d8:	295f5f58 	ldmdbcs	pc, {r3, r4, r6, r8, r9, sl, fp, ip, lr}^	; <UNPREDICTABLE>
    64dc:	555f5f00 	ldrbpl	r5, [pc, #-3840]	; 55e4 <_Min_Stack_Size+0x51e4>
    64e0:	43414c4c 	movtmi	r4, #7244	; 0x1c4c
    64e4:	5f4d5543 	svcpl	0x004d5543
    64e8:	49535045 	ldmdbmi	r3, {r0, r2, r6, ip, lr}^
    64ec:	5f4e4f4c 	svcpl	0x004e4f4c
    64f0:	7830205f 	ldmdavc	r0!, {r0, r1, r2, r3, r4, r6, sp}
    64f4:	332d5031 			; <UNDEFINED> instruction: 0x332d5031
    64f8:	4c4c5532 	cfstr64mi	mvdx5, [ip], {50}	; 0x32
    64fc:	535f004b 	cmppl	pc, #75	; 0x4b
    6500:	5f455a49 	svcpl	0x00455a49
    6504:	45445f54 	strbmi	r5, [r4, #-3924]	; 0xfffff0ac
    6508:	454e4946 	strbmi	r4, [lr, #-2374]	; 0xfffff6ba
    650c:	5f002044 	svcpl	0x00002044
    6510:	5f51445f 	svcpl	0x0051445f
    6514:	54494246 	strbpl	r4, [r9], #-582	; 0xfffffdba
    6518:	36205f5f 	qsaxcc	r5, r0, pc	; <UNPREDICTABLE>
    651c:	58450033 	stmdapl	r5, {r0, r1, r4, r5}^
    6520:	50384954 	eorspl	r4, r8, r4, asr r9
    6524:	28203842 	stmdacs	r0!, {r1, r6, fp, ip, sp}
    6528:	49545845 	ldmdbmi	r4, {r0, r2, r6, fp, ip, lr}^
    652c:	4950475f 	ldmdbmi	r0, {r0, r1, r2, r3, r4, r6, r8, r9, sl, lr}^
    6530:	614d5f4f 	cmpvs	sp, pc, asr #30
    6534:	6e697070 	mcrvs	0, 3, r7, cr9, cr0, {3}
    6538:	29745f67 	ldmdbcs	r4!, {r0, r1, r2, r5, r6, r8, r9, sl, fp, ip, lr}^
    653c:	5458457b 	ldrbpl	r4, [r8], #-1403	; 0xfffffa85
    6540:	202c3849 	eorcs	r3, ip, r9, asr #16
    6544:	4f495047 	svcmi	0x00495047
    6548:	47202c42 	strmi	r2, [r0, -r2, asr #24]!
    654c:	5f4f4950 	svcpl	0x004f4950
    6550:	5f4e4950 	svcpl	0x004e4950
    6554:	45202c38 	strmi	r2, [r0, #-3128]!	; 0xfffff3c8
    6558:	38495458 	stmdacc	r9, {r3, r4, r6, sl, ip, lr}^
    655c:	5152495f 	cmppl	r2, pc, asr r9
    6560:	5f007d20 	svcpl	0x00007d20
    6564:	554e475f 	strbpl	r4, [lr, #-1887]	; 0xfffff8a1
    6568:	5349565f 	movtpl	r5, #38495	; 0x965f
    656c:	454c4249 	strbmi	r4, [ip, #-585]	; 0xfffffdb7
    6570:	47003020 	strmi	r3, [r0, -r0, lsr #32]
    6574:	424f4950 	submi	r4, pc, #80, 18	; 0x140000
    6578:	5341425f 	movtpl	r4, #4703	; 0x125f
    657c:	78302045 	ldmdavc	r0!, {r0, r2, r6, sp}
    6580:	31303034 	teqcc	r0, r4, lsr r0
    6584:	30304330 	eorscc	r4, r0, r0, lsr r3
    6588:	5f004c55 	svcpl	0x00004c55
    658c:	5254505f 	subspl	r5, r4, #95	; 0x5f
    6590:	46464944 	strbmi	r4, [r6], -r4, asr #18
    6594:	0020545f 	eoreq	r5, r0, pc, asr r4
    6598:	48555f5f 	ldmdami	r5, {r0, r1, r2, r3, r4, r6, r8, r9, sl, fp, ip, lr}^
    659c:	42495f51 	submi	r5, r9, #324	; 0x144
    65a0:	5f5f5449 	svcpl	0x005f5449
    65a4:	47003020 	strmi	r3, [r0, -r0, lsr #32]
    65a8:	5f4f4950 	svcpl	0x004f4950
    65ac:	5f4e4950 	svcpl	0x004e4950
    65b0:	28282035 	stmdacs	r8!, {r0, r2, r4, r5, sp}
    65b4:	746e6975 	strbtvc	r6, [lr], #-2421	; 0xfffff68b
    65b8:	745f3631 	ldrbvc	r3, [pc], #-1585	; 65c0 <_Min_Stack_Size+0x61c0>
    65bc:	30783029 	rsbscc	r3, r8, r9, lsr #32
    65c0:	29303230 	ldmdbcs	r0!, {r4, r5, r9, ip, sp}
    65c4:	73645f00 	cmnvc	r4, #0, 30
    65c8:	61685f6f 	cmnvs	r8, pc, ror #30
    65cc:	656c646e 	strbvs	r6, [ip, #-1134]!	; 0xfffffb92
    65d0:	495f5f00 	ldmdbmi	pc, {r8, r9, sl, fp, ip, lr}^	; <UNPREDICTABLE>
    65d4:	465f544e 	ldrbmi	r5, [pc], -lr, asr #8
    65d8:	31545341 	cmpcc	r4, r1, asr #6
    65dc:	59545f36 	ldmdbpl	r4, {r1, r2, r4, r5, r8, r9, sl, fp, ip, lr}^
    65e0:	5f5f4550 	svcpl	0x005f4550
    65e4:	746e6920 	strbtvc	r6, [lr], #-2336	; 0xfffff6e0
    65e8:	49555f00 	ldmdbmi	r5, {r8, r9, sl, fp, ip, lr}^
    65ec:	414d544e 	cmpmi	sp, lr, asr #8
    65f0:	5f545f58 	svcpl	0x00545f58
    65f4:	4c434544 	cfstr64mi	mvdx4, [r3], {68}	; 0x44
    65f8:	44455241 	strbmi	r5, [r5], #-577	; 0xfffffdbf
    65fc:	5f5f0020 	svcpl	0x005f0020
    6600:	43434153 	movtmi	r4, #12627	; 0x3153
    6604:	4d5f4d55 	ldclmi	13, cr4, [pc, #-340]	; 64b8 <_Min_Stack_Size+0x60b8>
    6608:	5f5f4e49 	svcpl	0x005f4e49
    660c:	302d2820 	eorcc	r2, sp, r0, lsr #16
    6610:	37503158 			; <UNDEFINED> instruction: 0x37503158
    6614:	302d4b48 	eorcc	r4, sp, r8, asr #22
    6618:	37503158 			; <UNDEFINED> instruction: 0x37503158
    661c:	00294b48 	eoreq	r4, r9, r8, asr #22
    6620:	6e61725f 	mcrvs	2, 3, r7, cr1, cr15, {2}
    6624:	00383464 	eorseq	r3, r8, r4, ror #8
    6628:	49555f5f 	ldmdbmi	r5, {r0, r1, r2, r3, r4, r6, r8, r9, sl, fp, ip, lr}^
    662c:	4c5f544e 	cfldrdmi	mvd5, [pc], {78}	; 0x4e
    6630:	54534145 	ldrbpl	r4, [r3], #-325	; 0xfffffebb
    6634:	545f3631 	ldrbpl	r3, [pc], #-1585	; 663c <_Min_Stack_Size+0x623c>
    6638:	5f455059 	svcpl	0x00455059
    663c:	6873205f 	ldmdavs	r3!, {r0, r1, r2, r3, r4, r6, sp}^
    6640:	2074726f 	rsbscs	r7, r4, pc, ror #4
    6644:	69736e75 	ldmdbvs	r3!, {r0, r2, r4, r5, r6, r9, sl, fp, sp, lr}^
    6648:	64656e67 	strbtvs	r6, [r5], #-3687	; 0xfffff199
    664c:	746e6920 	strbtvc	r6, [lr], #-2336	; 0xfffff6e0
    6650:	415f5f00 	cmpmi	pc, r0, lsl #30
    6654:	465f4d52 			; <UNDEFINED> instruction: 0x465f4d52
    6658:	55544145 	ldrbpl	r4, [r4, #-325]	; 0xfffffebb
    665c:	465f4552 			; <UNDEFINED> instruction: 0x465f4552
    6660:	5f00414d 	svcpl	0x0000414d
    6664:	43414c5f 	movtmi	r4, #7263	; 0x1c5f
    6668:	5f4d5543 	svcpl	0x004d5543
    666c:	5f58414d 	svcpl	0x0058414d
    6670:	5830205f 	ldmdapl	r0!, {r0, r1, r2, r3, r4, r6, sp}
    6674:	46464637 			; <UNDEFINED> instruction: 0x46464637
    6678:	46464646 	strbmi	r4, [r6], -r6, asr #12
    667c:	46464646 	strbmi	r4, [r6], -r6, asr #12
    6680:	46464646 	strbmi	r4, [r6], -r6, asr #12
    6684:	31332d50 	teqcc	r3, r0, asr sp
    6688:	5f004b4c 	svcpl	0x00004b4c
    668c:	4148435f 	cmpmi	r8, pc, asr r3
    6690:	5f363152 	svcpl	0x00363152
    6694:	45505954 	ldrbmi	r5, [r0, #-2388]	; 0xfffff6ac
    6698:	73205f5f 			; <UNDEFINED> instruction: 0x73205f5f
    669c:	74726f68 	ldrbtvc	r6, [r2], #-3944	; 0xfffff098
    66a0:	736e7520 	cmnvc	lr, #32, 10	; 0x8000000
    66a4:	656e6769 	strbvs	r6, [lr, #-1897]!	; 0xfffff897
    66a8:	6e692064 	cdpvs	0, 6, cr2, cr9, cr4, {3}
    66ac:	50470074 	subpl	r0, r7, r4, ror r0
    66b0:	505f4f49 	subspl	r4, pc, r9, asr #30
    66b4:	0074726f 	rsbseq	r7, r4, pc, ror #4
    66b8:	4f495047 	svcmi	0x00495047
    66bc:	4e49505f 	mcrmi	0, 2, r5, cr9, cr15, {2}
    66c0:	2820365f 	stmdacs	r0!, {r0, r1, r2, r3, r4, r6, r9, sl, ip, sp}
    66c4:	6e697528 	cdpvs	5, 6, cr7, cr9, cr8, {1}
    66c8:	5f363174 	svcpl	0x00363174
    66cc:	78302974 	ldmdavc	r0!, {r2, r4, r5, r6, r8, fp, sp}
    66d0:	30343030 	eorscc	r3, r4, r0, lsr r0
    66d4:	5f5f0029 	svcpl	0x005f0029
    66d8:	33544c46 	cmpcc	r4, #17920	; 0x4600
    66dc:	445f5832 	ldrbmi	r5, [pc], #-2098	; 66e4 <_Min_Stack_Size+0x62e4>
    66e0:	5f5f4749 	svcpl	0x005f4749
    66e4:	00353120 	eorseq	r3, r5, r0, lsr #2
    66e8:	69735f5f 	ldmdbvs	r3!, {r0, r1, r2, r3, r4, r6, r8, r9, sl, fp, ip, lr}^
    66ec:	64656e67 	strbtvs	r6, [r5], #-3687	; 0xfffff199
    66f0:	67697320 	strbvs	r7, [r9, -r0, lsr #6]!
    66f4:	0064656e 	rsbeq	r6, r4, lr, ror #10
    66f8:	5f515249 	svcpl	0x00515249
    66fc:	5f004e45 	svcpl	0x00004e45
    6700:	5154555f 	cmppl	r4, pc, asr r5
    6704:	4942465f 	stmdbmi	r2, {r0, r1, r2, r3, r4, r6, r9, sl, lr}^
    6708:	205f5f54 	subscs	r5, pc, r4, asr pc	; <UNPREDICTABLE>
    670c:	00383231 	eorseq	r3, r8, r1, lsr r2
    6710:	4f495047 	svcmi	0x00495047
    6714:	28282043 	stmdacs	r8!, {r0, r1, r6, sp}
    6718:	4f495047 	svcmi	0x00495047
    671c:	7079545f 	rsbsvc	r5, r9, pc, asr r4
    6720:	66654465 	strbtvs	r4, [r5], -r5, ror #8
    6724:	5047292a 	subpl	r2, r7, sl, lsr #18
    6728:	5f434f49 	svcpl	0x00434f49
    672c:	45534142 	ldrbmi	r4, [r3, #-322]	; 0xfffffebe
    6730:	58450029 	stmdapl	r5, {r0, r3, r5}^
    6734:	50304954 	eorspl	r4, r0, r4, asr r9
    6738:	28203044 	stmdacs	r0!, {r2, r6, ip, sp}
    673c:	49545845 	ldmdbmi	r4, {r0, r2, r6, fp, ip, lr}^
    6740:	4950475f 	ldmdbmi	r0, {r0, r1, r2, r3, r4, r6, r8, r9, sl, lr}^
    6744:	614d5f4f 	cmpvs	sp, pc, asr #30
    6748:	6e697070 	mcrvs	0, 3, r7, cr9, cr0, {3}
    674c:	29745f67 	ldmdbcs	r4!, {r0, r1, r2, r5, r6, r8, r9, sl, fp, ip, lr}^
    6750:	5458457b 	ldrbpl	r4, [r8], #-1403	; 0xfffffa85
    6754:	202c3049 	eorcs	r3, ip, r9, asr #32
    6758:	4f495047 	svcmi	0x00495047
    675c:	47202c44 	strmi	r2, [r0, -r4, asr #24]!
    6760:	5f4f4950 	svcpl	0x004f4950
    6764:	5f4e4950 	svcpl	0x004e4950
    6768:	45202c30 	strmi	r2, [r0, #-3120]!	; 0xfffff3d0
    676c:	30495458 	subcc	r5, r9, r8, asr r4
    6770:	5152495f 	cmppl	r2, pc, asr r9
    6774:	5f007d20 	svcpl	0x00007d20
    6778:	4e49465f 	mcrmi	6, 2, r4, cr9, cr15, {2}
    677c:	5f455449 	svcpl	0x00455449
    6780:	4854414d 	ldmdami	r4, {r0, r2, r3, r6, r8, lr}^
    6784:	4c4e4f5f 	mcrrmi	15, 5, r4, lr, cr15
    6788:	205f5f59 	subscs	r5, pc, r9, asr pc	; <UNPREDICTABLE>
    678c:	5f5f0030 	svcpl	0x005f0030
    6790:	5f544e49 	svcpl	0x00544e49
    6794:	54534146 	ldrbpl	r4, [r3], #-326	; 0xfffffeba
    6798:	4d5f3631 	ldclmi	6, cr3, [pc, #-196]	; 66dc <_Min_Stack_Size+0x62dc>
    679c:	5f5f5841 	svcpl	0x005f5841
    67a0:	37783020 	ldrbcc	r3, [r8, -r0, lsr #32]!
    67a4:	66666666 	strbtvs	r6, [r6], -r6, ror #12
    67a8:	00666666 	rsbeq	r6, r6, r6, ror #12
    67ac:	61685f5f 	cmnvs	r8, pc, asr pc
    67b0:	6c5f6576 	cfldr64vs	mvdx6, [pc], {118}	; 0x76
    67b4:	6c676e6f 	stclvs	14, cr6, [r7], #-444	; 0xfffffe44
    67b8:	36676e6f 	strbtcc	r6, [r7], -pc, ror #28
    67bc:	00312034 	eorseq	r2, r1, r4, lsr r0
    67c0:	4f494641 	svcmi	0x00494641
    67c4:	41282820 			; <UNDEFINED> instruction: 0x41282820
    67c8:	5f4f4946 	svcpl	0x004f4946
    67cc:	65707954 	ldrbvs	r7, [r0, #-2388]!	; 0xfffff6ac
    67d0:	2a666544 	bcs	199fce8 <_Min_Stack_Size+0x199f8e8>
    67d4:	49464129 	stmdbmi	r6, {r0, r3, r5, r8, lr}^
    67d8:	41425f4f 	cmpmi	r2, pc, asr #30
    67dc:	00294553 	eoreq	r4, r9, r3, asr r5
    67e0:	6b6c625f 	blvs	1b1f164 <_Min_Stack_Size+0x1b1ed64>
    67e4:	657a6973 	ldrbvs	r6, [sl, #-2419]!	; 0xfffff68d
    67e8:	49555f00 	ldmdbmi	r5, {r8, r9, sl, fp, ip, lr}^
    67ec:	5f38544e 	svcpl	0x0038544e
    67f0:	45445f54 	strbmi	r5, [r4, #-3924]	; 0xfffff0ac
    67f4:	52414c43 	subpl	r4, r1, #17152	; 0x4300
    67f8:	00204445 	eoreq	r4, r0, r5, asr #8
    67fc:	4f495047 	svcmi	0x00495047
    6800:	4e49505f 	mcrmi	0, 2, r5, cr9, cr15, {2}
    6804:	49555f00 	ldmdbmi	r5, {r8, r9, sl, fp, ip, lr}^
    6808:	5450544e 	ldrbpl	r5, [r0], #-1102	; 0xfffffbb2
    680c:	5f545f52 	svcpl	0x00545f52
    6810:	4c434544 	cfstr64mi	mvdx4, [r3], {68}	; 0x44
    6814:	44455241 	strbmi	r5, [r5], #-577	; 0xfffffdbf
    6818:	58450020 	stmdapl	r5, {r5}^
    681c:	35314954 	ldrcc	r4, [r1, #-2388]!	; 0xfffff6ac
    6820:	5152495f 	cmppl	r2, pc, asr r9
    6824:	00303420 	eorseq	r3, r0, r0, lsr #8
    6828:	4843575f 	stmdami	r3, {r0, r1, r2, r3, r4, r6, r8, r9, sl, ip, lr}^
    682c:	545f5241 	ldrbpl	r5, [pc], #-577	; 6834 <_Min_Stack_Size+0x6434>
    6830:	4645445f 			; <UNDEFINED> instruction: 0x4645445f
    6834:	44454e49 	strbmi	r4, [r5], #-3657	; 0xfffff1b7
    6838:	625f0020 	subsvs	r0, pc, #32
    683c:	00657361 	rsbeq	r7, r5, r1, ror #6
    6840:	4c555f5f 	mrrcmi	15, 5, r5, r5, cr15	; <UNPREDICTABLE>
    6844:	55434341 	strbpl	r4, [r3, #-833]	; 0xfffffcbf
    6848:	414d5f4d 	cmpmi	sp, sp, asr #30
    684c:	205f5f58 	subscs	r5, pc, r8, asr pc	; <UNPREDICTABLE>
    6850:	46465830 			; <UNDEFINED> instruction: 0x46465830
    6854:	46464646 	strbmi	r4, [r6], -r6, asr #12
    6858:	46464646 	strbmi	r4, [r6], -r6, asr #12
    685c:	46464646 	strbmi	r4, [r6], -r6, asr #12
    6860:	2d504646 	ldclcs	6, cr4, [r0, #-280]	; 0xfffffee8
    6864:	4c553233 	lfmmi	f3, 2, [r5], {51}	; 0x33
    6868:	5f5f004b 	svcpl	0x005f004b
    686c:	6c797274 	lfmvs	f7, 2, [r9], #-464	; 0xfffffe30
    6870:	736b636f 	cmnvc	fp, #-1140850687	; 0xbc000001
    6874:	6378655f 	cmnvs	r8, #398458880	; 0x17c00000
    6878:	6973756c 	ldmdbvs	r3!, {r2, r3, r5, r6, r8, sl, ip, sp, lr}^
    687c:	2e286576 	mcrcs	5, 1, r6, cr8, cr6, {3}
    6880:	20292e2e 	eorcs	r2, r9, lr, lsr #28
    6884:	6f6c5f5f 	svcvs	0x006c5f5f
    6888:	615f6b63 	cmpvs	pc, r3, ror #22
    688c:	746f6e6e 	strbtvc	r6, [pc], #-3694	; 6894 <_Min_Stack_Size+0x6494>
    6890:	28657461 	stmdacs	r5!, {r0, r5, r6, sl, ip, sp, lr}^
    6894:	6c637865 	stclvs	8, cr7, [r3], #-404	; 0xfffffe6c
    6898:	76697375 			; <UNDEFINED> instruction: 0x76697375
    689c:	72745f65 	rsbsvc	r5, r4, #404	; 0x194
    68a0:	636f6c79 	cmnvs	pc, #30976	; 0x7900
    68a4:	75665f6b 	strbvc	r5, [r6, #-3947]!	; 0xfffff095
    68a8:	6974636e 	ldmdbvs	r4!, {r1, r2, r3, r5, r6, r8, r9, sp, lr}^
    68ac:	5f286e6f 	svcpl	0x00286e6f
    68b0:	5f41565f 	svcpl	0x0041565f
    68b4:	53475241 	movtpl	r5, #29249	; 0x7241
    68b8:	29295f5f 	stmdbcs	r9!, {r0, r1, r2, r3, r4, r6, r8, r9, sl, fp, ip, lr}
    68bc:	45525f00 	ldrbmi	r5, [r2, #-3840]	; 0xfffff100
    68c0:	5f544e45 	svcpl	0x00544e45
    68c4:	444e4152 	strbmi	r4, [lr], #-338	; 0xfffffeae
    68c8:	58454e5f 	stmdapl	r5, {r0, r1, r2, r3, r4, r6, r9, sl, fp, lr}^
    68cc:	74702854 	ldrbtvc	r2, [r0], #-2132	; 0xfffff7ac
    68d0:	28202972 	stmdacs	r0!, {r1, r4, r5, r6, r8, fp, sp}
    68d4:	72747028 	rsbsvc	r7, r4, #40	; 0x28
    68d8:	5f3e2d29 	svcpl	0x003e2d29
    68dc:	2d383472 	cfldrscs	mvf3, [r8, #-456]!	; 0xfffffe38
    68e0:	61725f3e 	cmnvs	r2, lr, lsr pc
    68e4:	6e5f646e 	cdpvs	4, 5, cr6, cr15, cr14, {3}
    68e8:	29747865 	ldmdbcs	r4!, {r0, r2, r5, r6, fp, ip, sp, lr}^
    68ec:	54584500 	ldrbpl	r4, [r8], #-1280	; 0xfffffb00
    68f0:	495f3049 	ldmdbmi	pc, {r0, r3, r6, ip, sp}^	; <UNPREDICTABLE>
    68f4:	36205152 			; <UNDEFINED> instruction: 0x36205152
    68f8:	555f5f00 	ldrbpl	r5, [pc, #-3840]	; 5a00 <_Min_Stack_Size+0x5600>
    68fc:	4152464c 	cmpmi	r2, ip, asr #12
    6900:	4d5f5443 	cfldrdmi	mvd5, [pc, #-268]	; 67fc <_Min_Stack_Size+0x63fc>
    6904:	5f5f4e49 	svcpl	0x005f4e49
    6908:	302e3020 	eorcc	r3, lr, r0, lsr #32
    690c:	00524c55 	subseq	r4, r2, r5, asr ip
    6910:	7274735f 	rsbsvc	r7, r4, #2080374785	; 0x7c000001
    6914:	5f6b6f74 	svcpl	0x006b6f74
    6918:	7473616c 	ldrbtvc	r6, [r3], #-364	; 0xfffffe94
    691c:	445f5f00 	ldrbmi	r5, [pc], #-3840	; 6924 <_Min_Stack_Size+0x6524>
    6920:	42495f51 	submi	r5, r9, #324	; 0x144
    6924:	5f5f5449 	svcpl	0x005f5449
    6928:	45003020 	strmi	r3, [r0, #-32]	; 0xffffffe0
    692c:	31495458 	cmpcc	r9, r8, asr r4
    6930:	31425031 	cmpcc	r2, r1, lsr r0
    6934:	45282031 	strmi	r2, [r8, #-49]!	; 0xffffffcf
    6938:	5f495458 	svcpl	0x00495458
    693c:	4f495047 	svcmi	0x00495047
    6940:	70614d5f 	rsbvc	r4, r1, pc, asr sp
    6944:	676e6970 			; <UNDEFINED> instruction: 0x676e6970
    6948:	7b29745f 	blvc	a63acc <_Min_Stack_Size+0xa636cc>
    694c:	49545845 	ldmdbmi	r4, {r0, r2, r6, fp, ip, lr}^
    6950:	202c3131 	eorcs	r3, ip, r1, lsr r1
    6954:	4f495047 	svcmi	0x00495047
    6958:	47202c42 	strmi	r2, [r0, -r2, asr #24]!
    695c:	5f4f4950 	svcpl	0x004f4950
    6960:	5f4e4950 	svcpl	0x004e4950
    6964:	202c3131 	eorcs	r3, ip, r1, lsr r1
    6968:	49545845 	ldmdbmi	r4, {r0, r2, r6, fp, ip, lr}^
    696c:	495f3131 	ldmdbmi	pc, {r0, r4, r5, r8, ip, sp}^	; <UNPREDICTABLE>
    6970:	7d205152 	stfvcs	f5, [r0, #-328]!	; 0xfffffeb8
    6974:	495f5f00 	ldmdbmi	pc, {r8, r9, sl, fp, ip, lr}^	; <UNPREDICTABLE>
    6978:	3233544e 	eorscc	r5, r3, #1308622848	; 0x4e000000
    697c:	5059545f 	subspl	r5, r9, pc, asr r4
    6980:	205f5f45 	subscs	r5, pc, r5, asr #30
    6984:	676e6f6c 	strbvs	r6, [lr, -ip, ror #30]!
    6988:	746e6920 	strbtvc	r6, [lr], #-2336	; 0xfffff6e0
    698c:	615f5f00 	cmpvs	pc, r0, lsl #30
    6990:	7961776c 	stmdbvc	r1!, {r2, r3, r5, r6, r8, r9, sl, ip, sp, lr}^
    6994:	6e695f73 	mcrvs	15, 3, r5, cr9, cr3, {3}
    6998:	656e696c 	strbvs	r6, [lr, #-2412]!	; 0xfffff694
    699c:	695f5f20 	ldmdbvs	pc, {r5, r8, r9, sl, fp, ip, lr}^	; <UNPREDICTABLE>
    69a0:	6e696c6e 	cdpvs	12, 6, cr6, cr9, cr14, {3}
    69a4:	205f5f65 	subscs	r5, pc, r5, ror #30
    69a8:	74615f5f 	strbtvc	r5, [r1], #-3935	; 0xfffff0a1
    69ac:	62697274 	rsbvs	r7, r9, #116, 4	; 0x40000007
    69b0:	5f657475 	svcpl	0x00657475
    69b4:	5f28285f 	svcpl	0x0028285f
    69b8:	776c615f 			; <UNDEFINED> instruction: 0x776c615f
    69bc:	5f737961 	svcpl	0x00737961
    69c0:	696c6e69 	stmdbvs	ip!, {r0, r3, r5, r6, r9, sl, fp, sp, lr}^
    69c4:	5f5f656e 	svcpl	0x005f656e
    69c8:	5f002929 	svcpl	0x00002929
    69cc:	7472626d 	ldrbtvc	r6, [r2], #-621	; 0xfffffd93
    69d0:	5f63776f 	svcpl	0x0063776f
    69d4:	74617473 	strbtvc	r7, [r1], #-1139	; 0xfffffb8d
    69d8:	5f5f0065 	svcpl	0x005f0065
    69dc:	746e6f63 	strbtvc	r6, [lr], #-3939	; 0xfffff09d
    69e0:	656e6961 	strbvs	r6, [lr, #-2401]!	; 0xfffff69f
    69e4:	28666f72 	stmdacs	r6!, {r1, r4, r5, r6, r8, r9, sl, fp, sp, lr}^
    69e8:	2c732c78 	ldclcs	12, cr2, [r3], #-480	; 0xfffffe20
    69ec:	2820296d 	stmdacs	r0!, {r0, r2, r3, r5, r6, r8, fp, sp}
    69f0:	6f63207b 	svcvs	0x0063207b
    69f4:	2074736e 	rsbscs	r7, r4, lr, ror #6
    69f8:	616c6f76 	smcvs	50934	; 0xc6f6
    69fc:	656c6974 	strbvs	r6, [ip, #-2420]!	; 0xfffff68c
    6a00:	745f5f20 	ldrbvc	r5, [pc], #-3872	; 6a08 <_Min_Stack_Size+0x6608>
    6a04:	6f657079 	svcvs	0x00657079
    6a08:	28282866 	stmdacs	r8!, {r1, r2, r5, r6, fp, sp}
    6a0c:	292a2073 	stmdbcs	sl!, {r0, r1, r4, r5, r6, sp}
    6a10:	3e2d2930 			; <UNDEFINED> instruction: 0x3e2d2930
    6a14:	2a20296d 	bcs	810fd0 <_Min_Stack_Size+0x810bd0>
    6a18:	20785f5f 	rsbscs	r5, r8, pc, asr pc
    6a1c:	7828203d 	stmdavc	r8!, {r0, r2, r3, r4, r5, sp}
    6a20:	5f203b29 	svcpl	0x00203b29
    6a24:	5145445f 	cmppl	r5, pc, asr r4
    6a28:	494c4155 	stmdbmi	ip, {r0, r2, r4, r6, r8, lr}^
    6a2c:	73285946 			; <UNDEFINED> instruction: 0x73285946
    6a30:	202c2a20 	eorcs	r2, ip, r0, lsr #20
    6a34:	6e6f6328 	cdpvs	3, 6, cr6, cr15, cr8, {1}
    6a38:	76207473 			; <UNDEFINED> instruction: 0x76207473
    6a3c:	74616c6f 	strbtvc	r6, [r1], #-3183	; 0xfffff391
    6a40:	20656c69 	rsbcs	r6, r5, r9, ror #24
    6a44:	72616863 	rsbvc	r6, r1, #6488064	; 0x630000
    6a48:	5f292a20 	svcpl	0x00292a20
    6a4c:	2d20785f 	stccs	8, cr7, [r0, #-380]!	; 0xfffffe84
    6a50:	6f5f5f20 	svcvs	0x005f5f20
    6a54:	65736666 	ldrbvs	r6, [r3, #-1638]!	; 0xfffff99a
    6a58:	28666f74 	stmdacs	r6!, {r2, r4, r5, r6, r8, r9, sl, fp, sp, lr}^
    6a5c:	6d202c73 	stcvs	12, cr2, [r0, #-460]!	; 0xfffffe34
    6a60:	7d3b2929 			; <UNDEFINED> instruction: 0x7d3b2929
    6a64:	555f0029 	ldrbpl	r0, [pc, #-41]	; 6a43 <_Min_Stack_Size+0x6643>
    6a68:	33544e49 	cmpcc	r4, #1168	; 0x490
    6a6c:	5f545f32 	svcpl	0x00545f32
    6a70:	4c434544 	cfstr64mi	mvdx4, [r3], {68}	; 0x44
    6a74:	44455241 	strbmi	r5, [r5], #-577	; 0xfffffdbf
    6a78:	425f0020 	subsmi	r0, pc, #32
    6a7c:	535f4453 	cmppl	pc, #1392508928	; 0x53000000
    6a80:	5f455a49 	svcpl	0x00455a49
    6a84:	00205f54 	eoreq	r5, r0, r4, asr pc
    6a88:	6f6e5f5f 	svcvs	0x006e5f5f
    6a8c:	636f6c5f 	cmnvs	pc, #24320	; 0x5f00
    6a90:	6e615f6b 	cdpvs	15, 6, cr5, cr1, cr11, {3}
    6a94:	73796c61 	cmnvc	r9, #24832	; 0x6100
    6a98:	5f207369 	svcpl	0x00207369
    6a9c:	636f6c5f 	cmnvs	pc, #24320	; 0x5f00
    6aa0:	6e615f6b 	cdpvs	15, 6, cr5, cr1, cr11, {3}
    6aa4:	61746f6e 	cmnvs	r4, lr, ror #30
    6aa8:	6e286574 	mcrvs	5, 1, r6, cr8, cr4, {3}
    6aac:	68745f6f 	ldmdavs	r4!, {r0, r1, r2, r3, r5, r6, r8, r9, sl, fp, ip, lr}^
    6ab0:	64616572 	strbtvs	r6, [r1], #-1394	; 0xfffffa8e
    6ab4:	6661735f 			; <UNDEFINED> instruction: 0x6661735f
    6ab8:	5f797465 	svcpl	0x00797465
    6abc:	6c616e61 	stclvs	14, cr6, [r1], #-388	; 0xfffffe7c
    6ac0:	73697379 	cmnvc	r9, #-469762047	; 0xe4000001
    6ac4:	665f0029 	ldrbvs	r0, [pc], -r9, lsr #32
    6ac8:	6b636f6c 	blvs	18e2880 <_Min_Stack_Size+0x18e2480>
    6acc:	4500745f 	strmi	r7, [r0, #-1119]	; 0xfffffba1
    6ad0:	5f495458 	svcpl	0x00495458
    6ad4:	67697254 			; <UNDEFINED> instruction: 0x67697254
    6ad8:	5f726567 	svcpl	0x00726567
    6adc:	69736952 	ldmdbvs	r3!, {r1, r4, r6, r8, fp, sp, lr}^
    6ae0:	6e41676e 	cdpvs	7, 4, cr6, cr1, cr14, {3}
    6ae4:	6c614664 	stclvs	6, cr4, [r1], #-400	; 0xfffffe70
    6ae8:	676e696c 	strbvs	r6, [lr, -ip, ror #18]!
    6aec:	5f003220 	svcpl	0x00003220
    6af0:	4c49465f 	mcrrmi	6, 5, r4, r9, cr15
    6af4:	525f0045 	subspl	r0, pc, #69	; 0x45
    6af8:	544e4545 	strbpl	r4, [lr], #-1349	; 0xfffffabb
    6afc:	5f504d5f 	svcpl	0x00504d5f
    6b00:	45455246 	strbmi	r5, [r5, #-582]	; 0xfffffdba
    6b04:	5453494c 	ldrbpl	r4, [r3], #-2380	; 0xfffff6b4
    6b08:	72747028 	rsbsvc	r7, r4, #40	; 0x28
    6b0c:	28282029 	stmdacs	r8!, {r0, r3, r5, sp}
    6b10:	29727470 	ldmdbcs	r2!, {r4, r5, r6, sl, ip, sp, lr}^
    6b14:	6d5f3e2d 	ldclvs	14, cr3, [pc, #-180]	; 6a68 <_Min_Stack_Size+0x6668>
    6b18:	5f3e2d70 	svcpl	0x003e2d70
    6b1c:	65657266 	strbvs	r7, [r5, #-614]!	; 0xfffffd9a
    6b20:	7473696c 	ldrbtvc	r6, [r3], #-2412	; 0xfffff694
    6b24:	545f0029 	ldrbpl	r0, [pc], #-41	; 6b2c <_Min_Stack_Size+0x672c>
    6b28:	5f454d49 	svcpl	0x00454d49
    6b2c:	5f205f54 	svcpl	0x00205f54
    6b30:	746e695f 	strbtvc	r6, [lr], #-2399	; 0xfffff6a1
    6b34:	61656c5f 	cmnvs	r5, pc, asr ip
    6b38:	34367473 	ldrtcc	r7, [r6], #-1139	; 0xfffffb8d
    6b3c:	5f00745f 	svcpl	0x0000745f
    6b40:	434f4c43 	movtmi	r4, #64579	; 0xfc43
    6b44:	5f44494b 	svcpl	0x0044494b
    6b48:	75205f54 	strvc	r5, [r0, #-3924]!	; 0xfffff0ac
    6b4c:	6769736e 	strbvs	r7, [r9, -lr, ror #6]!
    6b50:	2064656e 	rsbcs	r6, r4, lr, ror #10
    6b54:	676e6f6c 	strbvs	r6, [lr, -ip, ror #30]!
    6b58:	4e495500 	cdpmi	5, 4, cr5, cr9, cr0, {0}
    6b5c:	5f363154 	svcpl	0x00363154
    6b60:	29782843 	ldmdbcs	r8!, {r0, r1, r6, fp, sp}^
    6b64:	555f5f20 	ldrbpl	r5, [pc, #-3872]	; 5c4c <_Min_Stack_Size+0x584c>
    6b68:	31544e49 	cmpcc	r4, r9, asr #28
    6b6c:	28435f36 	stmdacs	r3, {r1, r2, r4, r5, r8, r9, sl, fp, ip, lr}^
    6b70:	5f002978 	svcpl	0x00002978
    6b74:	5154555f 	cmppl	r4, pc, asr r5
    6b78:	4942495f 	stmdbmi	r2, {r0, r1, r2, r3, r4, r6, r8, fp, lr}^
    6b7c:	205f5f54 	subscs	r5, pc, r4, asr pc	; <UNPREDICTABLE>
    6b80:	58450030 	stmdapl	r5, {r4, r5}^
    6b84:	20324954 	eorscs	r4, r2, r4, asr r9
    6b88:	5f5f0032 	svcpl	0x005f0032
    6b8c:	465f4153 			; <UNDEFINED> instruction: 0x465f4153
    6b90:	5f544942 	svcpl	0x00544942
    6b94:	3531205f 	ldrcc	r2, [r1, #-95]!	; 0xffffffa1
    6b98:	495f5f00 	ldmdbmi	pc, {r8, r9, sl, fp, ip, lr}^	; <UNPREDICTABLE>
    6b9c:	575f544e 	ldrbpl	r5, [pc, -lr, asr #8]
    6ba0:	52414843 	subpl	r4, r1, #4390912	; 0x430000
    6ba4:	485f545f 	ldmdami	pc, {r0, r1, r2, r3, r4, r6, sl, ip, lr}^	; <UNPREDICTABLE>
    6ba8:	5f5f0020 	svcpl	0x005f0020
    6bac:	33544c46 	cmpcc	r4, #17920	; 0x4600
    6bb0:	4d5f5832 	ldclmi	8, cr5, [pc, #-200]	; 6af0 <_Min_Stack_Size+0x66f0>
    6bb4:	5f5f5841 	svcpl	0x005f5841
    6bb8:	372e3120 	strcc	r3, [lr, -r0, lsr #2]!
    6bbc:	39363739 	ldmdbcc	r6!, {r0, r3, r4, r5, r8, r9, sl, ip, sp}
    6bc0:	34333133 	ldrtcc	r3, [r3], #-307	; 0xfffffecd
    6bc4:	33323638 	teqcc	r2, #56, 12	; 0x3800000
    6bc8:	65373531 	ldrvs	r3, [r7, #-1329]!	; 0xfffffacf
    6bcc:	3830332b 	ldmdacc	r0!, {r0, r1, r3, r5, r8, r9, ip, sp}
    6bd0:	78323346 	ldmdavc	r2!, {r1, r2, r6, r8, r9, ip, sp}
    6bd4:	48435700 	stmdami	r3, {r8, r9, sl, ip, lr}^
    6bd8:	4d5f5241 	lfmmi	f5, 2, [pc, #-260]	; 6adc <_Min_Stack_Size+0x66dc>
    6bdc:	28205841 	stmdacs	r0!, {r0, r6, fp, ip, lr}
    6be0:	43575f5f 	cmpmi	r7, #380	; 0x17c
    6be4:	5f524148 	svcpl	0x00524148
    6be8:	5f58414d 	svcpl	0x0058414d
    6bec:	5f00295f 	svcpl	0x0000295f
    6bf0:	544c465f 	strbpl	r4, [ip], #-1631	; 0xfffff9a1
    6bf4:	4d5f3233 	lfmmi	f3, 2, [pc, #-204]	; 6b30 <_Min_Stack_Size+0x6730>
    6bf8:	5f5f4e49 	svcpl	0x005f4e49
    6bfc:	312e3120 			; <UNDEFINED> instruction: 0x312e3120
    6c00:	39343537 	ldmdbcc	r4!, {r0, r1, r2, r4, r5, r8, sl, ip, sp}
    6c04:	30353334 	eorscc	r3, r5, r4, lsr r3
    6c08:	32323238 	eorscc	r3, r2, #56, 4	; 0x80000003
    6c0c:	65353738 	ldrvs	r3, [r5, #-1848]!	; 0xfffff8c8
    6c10:	4638332d 	ldrtmi	r3, [r8], -sp, lsr #6
    6c14:	5f003233 	svcpl	0x00003233
    6c18:	00383472 	eorseq	r3, r8, r2, ror r4
    6c1c:	41555f5f 	cmpmi	r5, pc, asr pc
    6c20:	4d554343 	ldclmi	3, cr4, [r5, #-268]	; 0xfffffef4
    6c24:	4942495f 	stmdbmi	r2, {r0, r1, r2, r3, r4, r6, r8, fp, lr}^
    6c28:	205f5f54 	subscs	r5, pc, r4, asr pc	; <UNPREDICTABLE>
    6c2c:	5f003631 	svcpl	0x00003631
    6c30:	464c455f 			; <UNDEFINED> instruction: 0x464c455f
    6c34:	31205f5f 			; <UNDEFINED> instruction: 0x31205f5f
    6c38:	544e4900 	strbpl	r4, [lr], #-2304	; 0xfffff700
    6c3c:	4d5f3233 	lfmmi	f3, 2, [pc, #-204]	; 6b78 <_Min_Stack_Size+0x6778>
    6c40:	28204e49 	stmdacs	r0!, {r0, r3, r6, r9, sl, fp, lr}
    6c44:	495f5f2d 	ldmdbmi	pc, {r0, r2, r3, r5, r8, r9, sl, fp, ip, lr}^	; <UNPREDICTABLE>
    6c48:	3233544e 	eorscc	r5, r3, #1308622848	; 0x4e000000
    6c4c:	58414d5f 	stmdapl	r1, {r0, r1, r2, r3, r4, r6, r8, sl, fp, lr}^
    6c50:	2d205f5f 	stccs	15, cr5, [r0, #-380]!	; 0xfffffe84
    6c54:	00293120 	eoreq	r3, r9, r0, lsr #2
    6c58:	48545f5f 	ldmdami	r4, {r0, r1, r2, r3, r4, r6, r8, r9, sl, fp, ip, lr}^
    6c5c:	45424d55 	strbmi	r4, [r2, #-3413]	; 0xfffff2ab
    6c60:	205f5f4c 	subscs	r5, pc, ip, asr #30
    6c64:	49550031 	ldmdbmi	r5, {r0, r4, r5}^
    6c68:	5f38544e 	svcpl	0x0038544e
    6c6c:	29782843 	ldmdbcs	r8!, {r0, r1, r6, fp, sp}^
    6c70:	555f5f20 	ldrbpl	r5, [pc, #-3872]	; 5d58 <_Min_Stack_Size+0x5958>
    6c74:	38544e49 	ldmdacc	r4, {r0, r3, r6, r9, sl, fp, lr}^
    6c78:	7828435f 	stmdavc	r8!, {r0, r1, r2, r3, r4, r6, r8, r9, lr}
    6c7c:	495f0029 	ldmdbmi	pc, {r0, r3, r5}^	; <UNPREDICTABLE>
    6c80:	5f38544e 	svcpl	0x0038544e
    6c84:	45445f54 	strbmi	r5, [r4, #-3924]	; 0xfffff0ac
    6c88:	52414c43 	subpl	r4, r1, #17152	; 0x4300
    6c8c:	00204445 	eoreq	r4, r0, r5, asr #8
    6c90:	51515f5f 	cmppl	r1, pc, asr pc
    6c94:	4942495f 	stmdbmi	r2, {r0, r1, r2, r3, r4, r6, r8, fp, lr}^
    6c98:	205f5f54 	subscs	r5, pc, r4, asr pc	; <UNPREDICTABLE>
    6c9c:	5f5f0030 	svcpl	0x005f0030
    6ca0:	6e656572 	mcrvs	5, 3, r6, cr5, cr2, {3}
    6ca4:	73615f74 	cmnvc	r1, #116, 30	; 0x1d0
    6ca8:	74726573 	ldrbtvc	r6, [r2], #-1395	; 0xfffffa8d
    6cac:	20297828 	eorcs	r7, r9, r8, lsr #16
    6cb0:	6f762828 	svcvs	0x00762828
    6cb4:	30296469 	eorcc	r6, r9, r9, ror #8
    6cb8:	49550029 	ldmdbmi	r5, {r0, r3, r5}^
    6cbc:	3436544e 	ldrtcc	r5, [r6], #-1102	; 0xfffffbb2
    6cc0:	7828435f 	stmdavc	r8!, {r0, r1, r2, r3, r4, r6, r8, r9, lr}
    6cc4:	5f5f2029 	svcpl	0x005f2029
    6cc8:	544e4955 	strbpl	r4, [lr], #-2389	; 0xfffff6ab
    6ccc:	435f3436 	cmpmi	pc, #905969664	; 0x36000000
    6cd0:	00297828 	eoreq	r7, r9, r8, lsr #16
    6cd4:	4c4c5f5f 	mcrrmi	15, 5, r5, ip, cr15
    6cd8:	55434341 	strbpl	r4, [r3, #-833]	; 0xfffffcbf
    6cdc:	42465f4d 	submi	r5, r6, #308	; 0x134
    6ce0:	5f5f5449 	svcpl	0x005f5449
    6ce4:	00313320 	eorseq	r3, r1, r0, lsr #6
    6ce8:	7461645f 	strbtvc	r6, [r1], #-1119	; 0xfffffba1
    6cec:	49550061 	ldmdbmi	r5, {r0, r5, r6}^
    6cf0:	3631544e 	ldrtcc	r5, [r1], -lr, asr #8
    6cf4:	58414d5f 	stmdapl	r1, {r0, r1, r2, r3, r4, r6, r8, sl, fp, lr}^
    6cf8:	5f5f2820 	svcpl	0x005f2820
    6cfc:	544e4955 	strbpl	r4, [lr], #-2389	; 0xfffff6ab
    6d00:	4d5f3631 	ldclmi	6, cr3, [pc, #-196]	; 6c44 <_Min_Stack_Size+0x6844>
    6d04:	5f5f5841 	svcpl	0x005f5841
    6d08:	5f5f0029 	svcpl	0x005f0029
    6d0c:	33544c46 	cmpcc	r4, #17920	; 0x4600
    6d10:	4d5f5832 	ldclmi	8, cr5, [pc, #-200]	; 6c50 <_Min_Stack_Size+0x6850>
    6d14:	315f4e49 	cmpcc	pc, r9, asr #28
    6d18:	58455f30 	stmdapl	r5, {r4, r5, r8, r9, sl, fp, ip, lr}^
    6d1c:	205f5f50 	subscs	r5, pc, r0, asr pc	; <UNPREDICTABLE>
    6d20:	30332d28 	eorscc	r2, r3, r8, lsr #26
    6d24:	55002937 	strpl	r2, [r0, #-2359]	; 0xfffff6c9
    6d28:	5f544e49 	svcpl	0x00544e49
    6d2c:	5341454c 	movtpl	r4, #5452	; 0x154c
    6d30:	4d5f3854 	ldclmi	8, cr3, [pc, #-336]	; 6be8 <_Min_Stack_Size+0x67e8>
    6d34:	28205841 	stmdacs	r0!, {r0, r6, fp, ip, lr}
    6d38:	49555f5f 	ldmdbmi	r5, {r0, r1, r2, r3, r4, r6, r8, r9, sl, fp, ip, lr}^
    6d3c:	4c5f544e 	cfldrdmi	mvd5, [pc], {78}	; 0x4e
    6d40:	54534145 	ldrbpl	r4, [r3], #-325	; 0xfffffebb
    6d44:	414d5f38 	cmpmi	sp, r8, lsr pc
    6d48:	295f5f58 	ldmdbcs	pc, {r3, r4, r6, r8, r9, sl, fp, ip, lr}^	; <UNPREDICTABLE>
    6d4c:	555f5f00 	ldrbpl	r5, [pc, #-3840]	; 5e54 <_Min_Stack_Size+0x5a54>
    6d50:	495f5153 	ldmdbmi	pc, {r0, r1, r4, r6, r8, ip, lr}^	; <UNPREDICTABLE>
    6d54:	5f544942 	svcpl	0x00544942
    6d58:	0030205f 	eorseq	r2, r0, pc, asr r0
    6d5c:	4e475f5f 	mcrmi	15, 2, r5, cr7, cr15, {2}
    6d60:	4d5f4355 	ldclmi	3, cr4, [pc, #-340]	; 6c14 <_Min_Stack_Size+0x6814>
    6d64:	524f4e49 	subpl	r4, pc, #1168	; 0x490
    6d68:	33205f5f 			; <UNDEFINED> instruction: 0x33205f5f
    6d6c:	6c5f5f00 	mrrcvs	15, 0, r5, pc, cr0	; <UNPREDICTABLE>
    6d70:	5f6b636f 	svcpl	0x006b636f
    6d74:	656c6572 	strbvs	r6, [ip, #-1394]!	; 0xfffffa8e
    6d78:	5f657361 	svcpl	0x00657361
    6d7c:	75636572 	strbvc	r6, [r3, #-1394]!	; 0xfffffa8e
    6d80:	76697372 			; <UNDEFINED> instruction: 0x76697372
    6d84:	6f6c2865 	svcvs	0x006c2865
    6d88:	20296b63 	eorcs	r6, r9, r3, ror #22
    6d8c:	6f762828 	svcvs	0x00762828
    6d90:	20296469 	eorcs	r6, r9, r9, ror #8
    6d94:	5f002930 	svcpl	0x00002930
    6d98:	4e49555f 	mcrmi	5, 2, r5, cr9, cr15, {2}
    6d9c:	454c5f54 	strbmi	r5, [ip, #-3924]	; 0xfffff0ac
    6da0:	33545341 	cmpcc	r4, #67108865	; 0x4000001
    6da4:	59545f32 	ldmdbpl	r4, {r1, r4, r5, r8, r9, sl, fp, ip, lr}^
    6da8:	5f5f4550 	svcpl	0x005f4550
    6dac:	6e6f6c20 	cdpvs	12, 6, cr6, cr15, cr0, {1}
    6db0:	6e752067 	cdpvs	0, 7, cr2, cr5, cr7, {3}
    6db4:	6e676973 			; <UNDEFINED> instruction: 0x6e676973
    6db8:	69206465 	stmdbvs	r0!, {r0, r2, r5, r6, sl, sp, lr}
    6dbc:	5f00746e 	svcpl	0x0000746e
    6dc0:	33544e49 	cmpcc	r4, #1168	; 0x490
    6dc4:	5f545f32 	svcpl	0x00545f32
    6dc8:	4c434544 	cfstr64mi	mvdx4, [r3], {68}	; 0x44
    6dcc:	44455241 	strbmi	r5, [r5], #-577	; 0xfffffdbf
    6dd0:	5f5f0020 	svcpl	0x005f0020
    6dd4:	5f4d5241 	svcpl	0x004d5241
    6dd8:	54414546 	strbpl	r4, [r1], #-1350	; 0xfffffaba
    6ddc:	5f455255 	svcpl	0x00455255
    6de0:	454d554e 	strbmi	r5, [sp, #-1358]	; 0xfffffab2
    6de4:	5f434952 	svcpl	0x00434952
    6de8:	4d58414d 	ldfmie	f4, [r8, #-308]	; 0xfffffecc
    6dec:	5f004e49 	svcpl	0x00004e49
    6df0:	444e4152 	strbmi	r4, [lr], #-338	; 0xfffffeae
    6df4:	4d5f3834 	ldclmi	8, cr3, [pc, #-208]	; 6d2c <_Min_Stack_Size+0x692c>
    6df8:	5f544c55 	svcpl	0x00544c55
    6dfc:	30282031 	eorcc	r2, r8, r1, lsr r0
    6e00:	65656478 	strbvs	r6, [r5, #-1144]!	; 0xfffffb88
    6e04:	5f002963 	svcpl	0x00002963
    6e08:	544e495f 	strbpl	r4, [lr], #-2399	; 0xfffff6a1
    6e0c:	5f58414d 	svcpl	0x0058414d
    6e10:	45505954 	ldrbmi	r5, [r0, #-2388]	; 0xfffff6ac
    6e14:	6c205f5f 	stcvs	15, cr5, [r0], #-380	; 0xfffffe84
    6e18:	20676e6f 	rsbcs	r6, r7, pc, ror #28
    6e1c:	676e6f6c 	strbvs	r6, [lr, -ip, ror #30]!
    6e20:	746e6920 	strbtvc	r6, [lr], #-2336	; 0xfffff6e0
    6e24:	4e495500 	cdpmi	5, 4, cr5, cr9, cr0, {0}
    6e28:	41465f54 	cmpmi	r6, r4, asr pc
    6e2c:	32335453 	eorscc	r5, r3, #1392508928	; 0x53000000
    6e30:	58414d5f 	stmdapl	r1, {r0, r1, r2, r3, r4, r6, r8, sl, fp, lr}^
    6e34:	5f5f2820 	svcpl	0x005f2820
    6e38:	544e4955 	strbpl	r4, [lr], #-2389	; 0xfffff6ab
    6e3c:	5341465f 	movtpl	r4, #5727	; 0x165f
    6e40:	5f323354 	svcpl	0x00323354
    6e44:	5f58414d 	svcpl	0x0058414d
    6e48:	5f00295f 	svcpl	0x0000295f
    6e4c:	4343475f 	movtmi	r4, #14175	; 0x375f
    6e50:	4f54415f 	svcmi	0x0054415f
    6e54:	5f43494d 	svcpl	0x0043494d
    6e58:	5f544e49 	svcpl	0x00544e49
    6e5c:	4b434f4c 	blmi	10dab94 <_Min_Stack_Size+0x10da794>
    6e60:	4552465f 	ldrbmi	r4, [r2, #-1631]	; 0xfffff9a1
    6e64:	00322045 	eorseq	r2, r2, r5, asr #32
    6e68:	4e41525f 	mcrmi	2, 2, r5, cr1, cr15, {2}
    6e6c:	5f383444 	svcpl	0x00383444
    6e70:	44454553 	strbmi	r4, [r5], #-1363	; 0xfffffaad
    6e74:	2820305f 	stmdacs	r0!, {r0, r1, r2, r3, r4, r6, ip, sp}
    6e78:	33337830 	teqcc	r3, #48, 16	; 0x300000
    6e7c:	00296530 	eoreq	r6, r9, r0, lsr r5
    6e80:	4349564e 	movtmi	r5, #38478	; 0x964e
    6e84:	4553495f 	ldrbmi	r4, [r3, #-2399]	; 0xfffff6a1
    6e88:	2a203252 	bcs	8137d8 <_Min_Stack_Size+0x8133d8>
    6e8c:	6c6f7628 	stclvs	6, cr7, [pc], #-160	; 6df4 <_Min_Stack_Size+0x69f4>
    6e90:	6c697461 	cfstrdvs	mvd7, [r9], #-388	; 0xfffffe7c
    6e94:	69752065 	ldmdbvs	r5!, {r0, r2, r5, r6, sp}^
    6e98:	3233746e 	eorscc	r7, r3, #1845493760	; 0x6e000000
    6e9c:	2a20745f 	bcs	824020 <_Min_Stack_Size+0x823c20>
    6ea0:	564e2829 	strbpl	r2, [lr], -r9, lsr #16
    6ea4:	425f4349 	subsmi	r4, pc, #603979777	; 0x24000001
    6ea8:	20455341 	subcs	r5, r5, r1, asr #6
    6eac:	7830202b 	ldmdavc	r0!, {r0, r1, r3, r5, sp}
    6eb0:	29383030 	ldmdbcs	r8!, {r4, r5, ip, sp}
    6eb4:	54584500 	ldrbpl	r4, [r8], #-1280	; 0xfffffb00
    6eb8:	50323149 	eorspl	r3, r2, r9, asr #2
    6ebc:	20323144 	eorscs	r3, r2, r4, asr #2
    6ec0:	54584528 	ldrbpl	r4, [r8], #-1320	; 0xfffffad8
    6ec4:	50475f49 	subpl	r5, r7, r9, asr #30
    6ec8:	4d5f4f49 	ldclmi	15, cr4, [pc, #-292]	; 6dac <_Min_Stack_Size+0x69ac>
    6ecc:	69707061 	ldmdbvs	r0!, {r0, r5, r6, ip, sp, lr}^
    6ed0:	745f676e 	ldrbvc	r6, [pc], #-1902	; 6ed8 <_Min_Stack_Size+0x6ad8>
    6ed4:	58457b29 	stmdapl	r5, {r0, r3, r5, r8, r9, fp, ip, sp, lr}^
    6ed8:	32314954 	eorscc	r4, r1, #84, 18	; 0x150000
    6edc:	5047202c 	subpl	r2, r7, ip, lsr #32
    6ee0:	2c444f49 	mcrrcs	15, 4, r4, r4, cr9
    6ee4:	49504720 	ldmdbmi	r0, {r5, r8, r9, sl, lr}^
    6ee8:	49505f4f 	ldmdbmi	r0, {r0, r1, r2, r3, r6, r8, r9, sl, fp, ip, lr}^
    6eec:	32315f4e 	eorscc	r5, r1, #312	; 0x138
    6ef0:	5845202c 	stmdapl	r5, {r2, r3, r5, sp}^
    6ef4:	32314954 	eorscc	r4, r1, #84, 18	; 0x150000
    6ef8:	5152495f 	cmppl	r2, pc, asr r9
    6efc:	5f007d20 	svcpl	0x00007d20
    6f00:	5f434347 	svcpl	0x00434347
    6f04:	5f58414d 	svcpl	0x0058414d
    6f08:	47494c41 	strbmi	r4, [r9, -r1, asr #24]
    6f0c:	20545f4e 	subscs	r5, r4, lr, asr #30
    6f10:	4c5f5f00 	mrrcmi	15, 0, r5, pc, cr0	; <UNPREDICTABLE>
    6f14:	20676e6f 	rsbcs	r6, r7, pc, ror #28
    6f18:	676e6f6c 	strbvs	r6, [lr, -ip, ror #30]!
    6f1c:	415f5f00 	cmpmi	pc, r0, lsl #30
    6f20:	465f4d52 			; <UNDEFINED> instruction: 0x465f4d52
    6f24:	55544145 	ldrbpl	r4, [r4, #-325]	; 0xfffffebb
    6f28:	465f4552 			; <UNDEFINED> instruction: 0x465f4552
    6f2c:	5f363150 	svcpl	0x00363150
    6f30:	4c414353 	mcrrmi	3, 5, r4, r1, cr3
    6f34:	415f5241 	cmpmi	pc, r1, asr #4
    6f38:	48544952 	ldmdami	r4, {r1, r4, r6, r8, fp, lr}^
    6f3c:	4954454d 	ldmdbmi	r4, {r0, r2, r3, r6, r8, sl, lr}^
    6f40:	5f5f0043 	svcpl	0x005f0043
    6f44:	43415355 	movtmi	r5, #4949	; 0x1355
    6f48:	5f4d5543 	svcpl	0x004d5543
    6f4c:	49535045 	ldmdbmi	r3, {r0, r2, r6, ip, lr}^
    6f50:	5f4e4f4c 	svcpl	0x004e4f4c
    6f54:	7830205f 	ldmdavc	r0!, {r0, r1, r2, r3, r4, r6, sp}
    6f58:	382d5031 	stmdacc	sp!, {r0, r4, r5, ip, lr}
    6f5c:	004b4855 	subeq	r4, fp, r5, asr r8
    6f60:	42445f5f 	submi	r5, r4, #380	; 0x17c
    6f64:	41485f4c 	cmpmi	r8, ip, asr #30
    6f68:	55515f53 	ldrbpl	r5, [r1, #-3923]	; 0xfffff0ad
    6f6c:	5f544549 	svcpl	0x00544549
    6f70:	5f4e414e 	svcpl	0x004e414e
    6f74:	0031205f 	eorseq	r2, r1, pc, asr r0
    6f78:	4f495047 	svcmi	0x00495047
    6f7c:	41425f43 	cmpmi	r2, r3, asr #30
    6f80:	30204553 	eorcc	r4, r0, r3, asr r5
    6f84:	30303478 	eorscc	r3, r0, r8, ror r4
    6f88:	30303131 	eorscc	r3, r0, r1, lsr r1
    6f8c:	004c5530 	subeq	r5, ip, r0, lsr r5
    6f90:	4f495047 	svcmi	0x00495047
    6f94:	4e49505f 	mcrmi	0, 2, r5, cr9, cr15, {2}
    6f98:	2820375f 	stmdacs	r0!, {r0, r1, r2, r3, r4, r6, r8, r9, sl, ip, sp}
    6f9c:	6e697528 	cdpvs	5, 6, cr7, cr9, cr8, {1}
    6fa0:	5f363174 	svcpl	0x00363174
    6fa4:	78302974 	ldmdavc	r0!, {r2, r4, r5, r6, r8, fp, sp}
    6fa8:	30383030 	eorscc	r3, r8, r0, lsr r0
    6fac:	4e490029 	cdpmi	0, 4, cr0, cr9, cr9, {1}
    6fb0:	5f323354 	svcpl	0x00323354
    6fb4:	29782843 	ldmdbcs	r8!, {r0, r1, r6, fp, sp}^
    6fb8:	495f5f20 	ldmdbmi	pc, {r5, r8, r9, sl, fp, ip, lr}^	; <UNPREDICTABLE>
    6fbc:	3233544e 	eorscc	r5, r3, #1308622848	; 0x4e000000
    6fc0:	7828435f 	stmdavc	r8!, {r0, r1, r2, r3, r4, r6, r8, r9, lr}
    6fc4:	5f5f0029 	svcpl	0x005f0029
    6fc8:	76727470 			; <UNDEFINED> instruction: 0x76727470
    6fcc:	65756c61 	ldrbvs	r6, [r5, #-3169]!	; 0xfffff39f
    6fd0:	4e5f0020 	cdpmi	0, 5, cr0, cr15, cr0, {1}
    6fd4:	4c4e494f 	mcrrmi	9, 4, r4, lr, cr15	; <UNPREDICTABLE>
    6fd8:	5f454e49 	svcpl	0x00454e49
    6fdc:	54415453 	strbpl	r5, [r1], #-1107	; 0xfffffbad
    6fe0:	5f204349 	svcpl	0x00204349
    6fe4:	4e494f4e 	cdpmi	15, 4, cr4, cr9, cr14, {2}
    6fe8:	454e494c 	strbmi	r4, [lr, #-2380]	; 0xfffff6b4
    6fec:	61747320 	cmnvs	r4, r0, lsr #6
    6ff0:	00636974 	rsbeq	r6, r3, r4, ror r9
    6ff4:	43414d5f 	movtmi	r4, #7519	; 0x1d5f
    6ff8:	454e4948 	strbmi	r4, [lr, #-2376]	; 0xfffff6b8
    6ffc:	59545f5f 	ldmdbpl	r4, {r0, r1, r2, r3, r4, r6, r8, r9, sl, fp, ip, lr}^
    7000:	5f534550 	svcpl	0x00534550
    7004:	5f002048 	svcpl	0x00002048
    7008:	6e6f635f 	mcrvs	3, 3, r6, cr15, cr15, {2}
    700c:	63207473 			; <UNDEFINED> instruction: 0x63207473
    7010:	74736e6f 	ldrbtvc	r6, [r3], #-3695	; 0xfffff191
    7014:	4e495500 	cdpmi	5, 4, cr5, cr9, cr0, {0}
    7018:	454c5f54 	strbmi	r5, [ip, #-3924]	; 0xfffff0ac
    701c:	33545341 	cmpcc	r4, #67108865	; 0x4000001
    7020:	414d5f32 	cmpmi	sp, r2, lsr pc
    7024:	5f282058 	svcpl	0x00282058
    7028:	4e49555f 	mcrmi	5, 2, r5, cr9, cr15, {2}
    702c:	454c5f54 	strbmi	r5, [ip, #-3924]	; 0xfffff0ac
    7030:	33545341 	cmpcc	r4, #67108865	; 0x4000001
    7034:	414d5f32 	cmpmi	sp, r2, lsr pc
    7038:	295f5f58 	ldmdbcs	pc, {r3, r4, r6, r8, r9, sl, fp, ip, lr}^	; <UNPREDICTABLE>
    703c:	49504700 	ldmdbmi	r0, {r8, r9, sl, lr}^
    7040:	425f414f 	subsmi	r4, pc, #-1073741805	; 0xc0000013
    7044:	20455341 	subcs	r5, r5, r1, asr #6
    7048:	30347830 	eorscc	r7, r4, r0, lsr r8
    704c:	38303130 	ldmdacc	r0!, {r4, r5, r8, ip, sp}
    7050:	4c553030 	mrrcmi	0, 3, r3, r5, cr0
    7054:	535f5f00 	cmppl	pc, #0, 30
    7058:	55434341 	strbpl	r4, [r3, #-833]	; 0xfffffcbf
    705c:	414d5f4d 	cmpmi	sp, sp, asr #30
    7060:	205f5f58 	subscs	r5, pc, r8, asr pc	; <UNPREDICTABLE>
    7064:	46375830 			; <UNDEFINED> instruction: 0x46375830
    7068:	2d504646 	ldclcs	6, cr4, [r0, #-280]	; 0xfffffee8
    706c:	004b4837 	subeq	r4, fp, r7, lsr r8
    7070:	4e495f5f 	mcrmi	15, 2, r5, cr9, cr15, {2}
    7074:	52545054 	subspl	r5, r4, #84	; 0x54
    7078:	5059545f 	subspl	r5, r9, pc, asr r4
    707c:	205f5f45 	subscs	r5, pc, r5, asr #30
    7080:	00746e69 	rsbseq	r6, r4, r9, ror #28
    7084:	49545845 	ldmdbmi	r4, {r0, r2, r6, fp, ip, lr}^
    7088:	52495f38 	subpl	r5, r9, #56, 30	; 0xe0
    708c:	33322051 	teqcc	r2, #81	; 0x51
    7090:	555f5f00 	ldrbpl	r5, [pc, #-3840]	; 6198 <_Min_Stack_Size+0x5d98>
    7094:	50544e49 	subspl	r4, r4, r9, asr #28
    7098:	545f5254 	ldrbpl	r5, [pc], #-596	; 70a0 <_Min_Stack_Size+0x6ca0>
    709c:	5f455059 	svcpl	0x00455059
    70a0:	6e75205f 	mrcvs	0, 3, r2, cr5, cr15, {2}
    70a4:	6e676973 			; <UNDEFINED> instruction: 0x6e676973
    70a8:	69206465 	stmdbvs	r0!, {r0, r2, r5, r6, sl, sp, lr}
    70ac:	5f00746e 	svcpl	0x0000746e
    70b0:	4745525f 	smlsldmi	r5, r5, pc, r2	; <UNPREDICTABLE>
    70b4:	45545349 	ldrbmi	r5, [r4, #-841]	; 0xfffffcb7
    70b8:	52505f52 	subspl	r5, r0, #328	; 0x148
    70bc:	58494645 	stmdapl	r9, {r0, r2, r6, r9, sl, lr}^
    70c0:	00205f5f 	eoreq	r5, r0, pc, asr pc
    70c4:	4c465f5f 	mcrrmi	15, 5, r5, r6, cr15
    70c8:	5f323354 	svcpl	0x00323354
    70cc:	5f58414d 	svcpl	0x0058414d
    70d0:	2e33205f 	mrccs	0, 1, r2, cr3, cr15, {2}
    70d4:	38323034 	ldmdacc	r2!, {r2, r4, r5, ip, sp}
    70d8:	36343332 			; <UNDEFINED> instruction: 0x36343332
    70dc:	35383336 	ldrcc	r3, [r8, #-822]!	; 0xfffffcca
    70e0:	36383832 			; <UNDEFINED> instruction: 0x36383832
    70e4:	38332b65 	ldmdacc	r3!, {r0, r2, r5, r6, r8, r9, fp, sp}
    70e8:	00323346 	eorseq	r3, r2, r6, asr #6
    70ec:	42445f5f 	submi	r5, r4, #380	; 0x17c
    70f0:	49445f4c 	stmdbmi	r4, {r2, r3, r6, r8, r9, sl, fp, ip, lr}^
    70f4:	205f5f47 	subscs	r5, pc, r7, asr #30
    70f8:	5f003531 	svcpl	0x00003531
    70fc:	464c555f 			; <UNDEFINED> instruction: 0x464c555f
    7100:	54434152 	strbpl	r4, [r3], #-338	; 0xfffffeae
    7104:	5350455f 	cmppl	r0, #398458880	; 0x17c00000
    7108:	4e4f4c49 	cdpmi	12, 4, cr4, cr15, cr9, {2}
    710c:	30205f5f 	eorcc	r5, r0, pc, asr pc
    7110:	2d503178 	ldfcse	f3, [r0, #-480]	; 0xfffffe20
    7114:	4c553233 	lfmmi	f3, 2, [r5], {51}	; 0x33
    7118:	5f5f0052 	svcpl	0x005f0052
    711c:	49534352 	ldmdbmi	r3, {r1, r4, r6, r8, r9, lr}^
    7120:	29732844 	ldmdbcs	r3!, {r2, r6, fp, sp}^
    7124:	72747320 	rsbsvc	r7, r4, #32, 6	; 0x80000000
    7128:	20746375 	rsbscs	r6, r4, r5, ror r3
    712c:	61685f5f 	cmnvs	r8, pc, asr pc
    7130:	47006b63 	strmi	r6, [r0, -r3, ror #22]
    7134:	5f4f4950 	svcpl	0x004f4950
    7138:	45444f4d 	strbmi	r4, [r4, #-3917]	; 0xfffff0b3
    713c:	54554f5f 	ldrbpl	r4, [r5], #-3935	; 0xfffff0a1
    7140:	5f545550 	svcpl	0x00545550
    7144:	30205050 	eorcc	r5, r0, r0, asr r0
    7148:	30303078 	eorscc	r3, r0, r8, ror r0
    714c:	30303030 	eorscc	r3, r0, r0, lsr r0
    7150:	5f007534 	svcpl	0x00007534
    7154:	4e454552 	mcrmi	5, 2, r4, cr5, cr2, {2}
    7158:	364c5f54 			; <UNDEFINED> instruction: 0x364c5f54
    715c:	425f4134 	subsmi	r4, pc, #52, 2
    7160:	70284655 	eorvc	r4, r8, r5, asr r6
    7164:	20297274 	eorcs	r7, r9, r4, ror r2
    7168:	74702828 	ldrbtvc	r2, [r0], #-2088	; 0xfffff7d8
    716c:	3e2d2972 			; <UNDEFINED> instruction: 0x3e2d2972
    7170:	73696d5f 	cmnvc	r9, #6080	; 0x17c0
    7174:	5f3e2d63 	svcpl	0x003e2d63
    7178:	6134366c 	teqvs	r4, ip, ror #12
    717c:	6675625f 			; <UNDEFINED> instruction: 0x6675625f
    7180:	5f5f0029 	svcpl	0x005f0029
    7184:	455a4953 	ldrbmi	r4, [sl, #-2387]	; 0xfffff6ad
    7188:	535f464f 	cmppl	pc, #82837504	; 0x4f00000
    718c:	5f455a49 	svcpl	0x00455a49
    7190:	205f5f54 	subscs	r5, pc, r4, asr pc	; <UNPREDICTABLE>
    7194:	5f5f0034 	svcpl	0x005f0034
    7198:	6b636f6c 	blvs	18e2f50 <_Min_Stack_Size+0x18e2b50>
    719c:	6f6c635f 	svcvs	0x006c635f
    71a0:	725f6573 	subsvc	r6, pc, #482344960	; 0x1cc00000
    71a4:	72756365 	rsbsvc	r6, r5, #-1811939327	; 0x94000001
    71a8:	65766973 	ldrbvs	r6, [r6, #-2419]!	; 0xfffff68d
    71ac:	636f6c28 	cmnvs	pc, #40, 24	; 0x2800
    71b0:	2820296b 	stmdacs	r0!, {r0, r1, r3, r5, r6, r8, fp, sp}
    71b4:	696f7628 	stmdbvs	pc!, {r3, r5, r9, sl, ip, sp, lr}^	; <UNPREDICTABLE>
    71b8:	30202964 	eorcc	r2, r0, r4, ror #18
    71bc:	58450029 	stmdapl	r5, {r0, r3, r5}^
    71c0:	435f4954 	cmpmi	pc, #84, 18	; 0x150000
    71c4:	5f004746 	svcpl	0x00004746
    71c8:	4345445f 	movtmi	r4, #21599	; 0x545f
    71cc:	5f383231 	svcpl	0x00383231
    71d0:	5f4e494d 	svcpl	0x004e494d
    71d4:	4531205f 	ldrmi	r2, [r1, #-95]!	; 0xffffffa1
    71d8:	3431362d 	ldrtcc	r3, [r1], #-1581	; 0xfffff9d3
    71dc:	004c4433 	subeq	r4, ip, r3, lsr r4
    71e0:	4e495f5f 	mcrmi	15, 2, r5, cr9, cr15, {2}
    71e4:	5f343654 	svcpl	0x00343654
    71e8:	29632843 	stmdbcs	r3!, {r0, r1, r6, fp, sp}^
    71ec:	23206320 			; <UNDEFINED> instruction: 0x23206320
    71f0:	4c4c2023 	mcrrmi	0, 2, r2, ip, cr3
    71f4:	56414800 	strbpl	r4, [r1], -r0, lsl #16
    71f8:	4e495f45 	cdpmi	15, 4, cr5, cr9, cr5, {2}
    71fc:	49465449 	stmdbmi	r6, {r0, r3, r6, sl, ip, lr}^
    7200:	415f494e 	cmpmi	pc, lr, asr #18
    7204:	59415252 	stmdbpl	r1, {r1, r4, r6, r9, ip, lr}^
    7208:	5f003120 	svcpl	0x00003120
    720c:	636f6c5f 	cmnvs	pc, #24320	; 0x5f00
    7210:	6c62616b 	stfvse	f6, [r2], #-428	; 0xfffffe54
    7214:	5f5f2065 	svcpl	0x005f2065
    7218:	6b636f6c 	blvs	18e2fd0 <_Min_Stack_Size+0x18e2bd0>
    721c:	6e6e615f 	mcrvs	1, 3, r6, cr14, cr15, {2}
    7220:	7461746f 	strbtvc	r7, [r1], #-1135	; 0xfffffb91
    7224:	6f6c2865 	svcvs	0x006c2865
    7228:	62616b63 	rsbvs	r6, r1, #101376	; 0x18c00
    722c:	0029656c 	eoreq	r6, r9, ip, ror #10
    7230:	4e455f5f 	mcrmi	15, 2, r5, cr5, cr15, {2}
    7234:	45445f44 	strbmi	r5, [r4, #-3908]	; 0xfffff0bc
    7238:	20534c43 	subscs	r4, r3, r3, asr #24
    723c:	41525300 	cmpmi	r2, r0, lsl #6
    7240:	454d5f4d 	strbmi	r5, [sp, #-3917]	; 0xfffff0b3
    7244:	59524f4d 	ldmdbpl	r2, {r0, r2, r3, r6, r8, r9, sl, fp, lr}^
    7248:	5341425f 	movtpl	r4, #4703	; 0x125f
    724c:	78302045 	ldmdavc	r0!, {r0, r2, r6, sp}
    7250:	30303032 	eorscc	r3, r0, r2, lsr r0
    7254:	30303030 	eorscc	r3, r0, r0, lsr r0
    7258:	47004c55 	smlsdmi	r0, r5, ip, r4
    725c:	5f4f4950 	svcpl	0x004f4950
    7260:	534e4950 	movtpl	r4, #59728	; 0xe950
    7264:	53414d5f 	movtpl	r4, #7519	; 0x1d5f
    7268:	7830204b 	ldmdavc	r0!, {r0, r1, r3, r6, sp}
    726c:	30303030 	eorscc	r3, r0, r0, lsr r0
    7270:	46464646 	strbmi	r4, [r6], -r6, asr #12
    7274:	5f5f0075 	svcpl	0x005f0075
    7278:	4c42444c 	cfstrdmi	mvd4, [r2], {76}	; 0x4c
    727c:	4e494d5f 	mcrmi	13, 2, r4, cr9, cr15, {2}
    7280:	32205f5f 	eorcc	r5, r0, #380	; 0x17c
    7284:	3532322e 	ldrcc	r3, [r2, #-558]!	; 0xfffffdd2
    7288:	38333730 	ldmdacc	r3!, {r4, r5, r8, r9, sl, ip, sp}
    728c:	30353835 	eorscc	r3, r5, r5, lsr r8
    7290:	31303237 	teqcc	r0, r7, lsr r2
    7294:	332d6534 			; <UNDEFINED> instruction: 0x332d6534
    7298:	004c3830 	subeq	r3, ip, r0, lsr r8
    729c:	43415f5f 	movtmi	r5, #8031	; 0x1f5f
    72a0:	5f4d5543 	svcpl	0x004d5543
    72a4:	54494249 	strbpl	r4, [r9], #-585	; 0xfffffdb7
    72a8:	31205f5f 			; <UNDEFINED> instruction: 0x31205f5f
    72ac:	43520036 	cmpmi	r2, #54	; 0x36
    72b0:	79545f43 	ldmdbvc	r4, {r0, r1, r6, r8, r9, sl, fp, ip, lr}^
    72b4:	65446570 	strbvs	r6, [r4, #-1392]	; 0xfffffa90
    72b8:	6e750066 	cdpvs	0, 7, cr0, cr5, cr6, {3}
    72bc:	6e676973 			; <UNDEFINED> instruction: 0x6e676973
    72c0:	41006465 	tstmi	r0, r5, ror #8
    72c4:	5f4f4946 	svcpl	0x004f4946
    72c8:	45534142 	ldrbmi	r4, [r3, #-322]	; 0xfffffebe
    72cc:	34783020 	ldrbtcc	r3, [r8], #-32	; 0xffffffe0
    72d0:	30313030 	eorscc	r3, r1, r0, lsr r0
    72d4:	55303030 	ldrpl	r3, [r0, #-48]!	; 0xffffffd0
    72d8:	6d5f004c 	ldclvs	0, cr0, [pc, #-304]	; 71b0 <_Min_Stack_Size+0x6db0>
    72dc:	6e656c62 	cdpvs	12, 6, cr6, cr5, cr2, {3}
    72e0:	6174735f 	cmnvs	r4, pc, asr r3
    72e4:	5f006574 	svcpl	0x00006574
    72e8:	7361685f 	cmnvc	r1, #6225920	; 0x5f0000
    72ec:	6975625f 	ldmdbvs	r5!, {r0, r1, r2, r3, r4, r6, r9, sp, lr}^
    72f0:	6e69746c 	cdpvs	4, 6, cr7, cr9, cr12, {3}
    72f4:	20297828 	eorcs	r7, r9, r8, lsr #16
    72f8:	5f5f0030 	svcpl	0x005f0030
    72fc:	675f7470 			; <UNDEFINED> instruction: 0x675f7470
    7300:	64726175 	ldrbtvs	r6, [r2], #-373	; 0xfffffe8b
    7304:	625f6465 	subsvs	r6, pc, #1694498816	; 0x65000000
    7308:	29782879 	ldmdbcs	r8!, {r0, r3, r4, r5, r6, fp, sp}^
    730c:	6c5f5f20 	mrrcvs	15, 2, r5, pc, cr0	; <UNPREDICTABLE>
    7310:	5f6b636f 	svcpl	0x006b636f
    7314:	6f6e6e61 	svcvs	0x006e6e61
    7318:	65746174 	ldrbvs	r6, [r4, #-372]!	; 0xfffffe8c
    731c:	5f747028 	svcpl	0x00747028
    7320:	72617567 	rsbvc	r7, r1, #432013312	; 0x19c00000
    7324:	5f646564 	svcpl	0x00646564
    7328:	78287962 	stmdavc	r8!, {r1, r5, r6, r8, fp, ip, sp, lr}
    732c:	5f002929 	svcpl	0x00002929
    7330:	6175675f 	cmnvs	r5, pc, asr r7
    7334:	64656472 	strbtvs	r6, [r5], #-1138	; 0xfffffb8e
    7338:	2879625f 	ldmdacs	r9!, {r0, r1, r2, r3, r4, r6, r9, sp, lr}^
    733c:	5f202978 	svcpl	0x00202978
    7340:	636f6c5f 	cmnvs	pc, #24320	; 0x5f00
    7344:	6e615f6b 	cdpvs	15, 6, cr5, cr1, cr11, {3}
    7348:	61746f6e 	cmnvs	r4, lr, ror #30
    734c:	67286574 			; <UNDEFINED> instruction: 0x67286574
    7350:	64726175 	ldrbtvs	r6, [r2], #-373	; 0xfffffe8b
    7354:	625f6465 	subsvs	r6, pc, #1694498816	; 0x65000000
    7358:	29782879 	ldmdbcs	r8!, {r0, r3, r4, r5, r6, fp, sp}^
    735c:	58450029 	stmdapl	r5, {r0, r3, r5}^
    7360:	32314954 	eorscc	r4, r1, #84, 18	; 0x150000
    7364:	5152495f 	cmppl	r2, pc, asr r9
    7368:	00303420 	eorseq	r3, r0, r0, lsr #8
    736c:	4e475f5f 	mcrmi	15, 2, r5, cr7, cr15, {2}
    7370:	494c4355 	stmdbmi	ip, {r0, r2, r4, r6, r8, r9, lr}^
    7374:	5f5f454b 	svcpl	0x005f454b
    7378:	46464f5f 			; <UNDEFINED> instruction: 0x46464f5f
    737c:	4f544553 	svcmi	0x00544553
    7380:	00312046 	eorseq	r2, r1, r6, asr #32
    7384:	49555f5f 	ldmdbmi	r5, {r0, r1, r2, r3, r4, r6, r8, r9, sl, fp, ip, lr}^
    7388:	3631544e 	ldrtcc	r5, [r1], -lr, asr #8
    738c:	6328435f 			; <UNDEFINED> instruction: 0x6328435f
    7390:	00632029 	rsbeq	r2, r3, r9, lsr #32
    7394:	79735f5f 	ldmdbvc	r3!, {r0, r1, r2, r3, r4, r6, r8, r9, sl, fp, ip, lr}^
    7398:	6f635f6d 	svcvs	0x00635f6d
    739c:	7461706d 	strbtvc	r7, [r1], #-109	; 0xffffff93
    73a0:	6d797328 	ldclvs	3, cr7, [r9, #-160]!	; 0xffffff60
    73a4:	706d692c 	rsbvc	r6, sp, ip, lsr #18
    73a8:	65762c6c 	ldrbvs	r2, [r6, #-3180]!	; 0xfffff394
    73ac:	29646972 	stmdbcs	r4!, {r1, r4, r5, r6, r8, fp, sp, lr}^
    73b0:	615f5f20 	cmpvs	pc, r0, lsr #30
    73b4:	5f5f6d73 	svcpl	0x005f6d73
    73b8:	732e2228 			; <UNDEFINED> instruction: 0x732e2228
    73bc:	65766d79 	ldrbvs	r6, [r6, #-3449]!	; 0xfffff287
    73c0:	20222072 	eorcs	r2, r2, r2, ror r0
    73c4:	706d6923 	rsbvc	r6, sp, r3, lsr #18
    73c8:	2c22206c 	stccs	0, cr2, [r2], #-432	; 0xfffffe50
    73cc:	23202220 			; <UNDEFINED> instruction: 0x23202220
    73d0:	206d7973 	rsbcs	r7, sp, r3, ror r9
    73d4:	20224022 	eorcs	r4, r2, r2, lsr #32
    73d8:	72657623 	rsbvc	r7, r5, #36700160	; 0x2300000
    73dc:	00296469 	eoreq	r6, r9, r9, ror #8
    73e0:	43435f5f 	movtmi	r5, #16223	; 0x3f5f
    73e4:	5055535f 	subspl	r5, r5, pc, asr r3
    73e8:	54524f50 	ldrbpl	r4, [r2], #-3920	; 0xfffff0b0
    73ec:	5f5f5f53 	svcpl	0x005f5f53
    73f0:	494c4e49 	stmdbmi	ip, {r0, r3, r6, r9, sl, fp, lr}^
    73f4:	5f5f454e 	svcpl	0x005f454e
    73f8:	5f003120 	svcpl	0x00003120
    73fc:	4144555f 	cmpmi	r4, pc, asr r5
    7400:	4942495f 	stmdbmi	r2, {r0, r1, r2, r3, r4, r6, r8, fp, lr}^
    7404:	205f5f54 	subscs	r5, pc, r4, asr pc	; <UNPREDICTABLE>
    7408:	5f003233 	svcpl	0x00003233
    740c:	41454c5f 	cmpmi	r5, pc, asr ip
    7410:	36315453 			; <UNDEFINED> instruction: 0x36315453
    7414:	22682220 	rsbcs	r2, r8, #32, 4
    7418:	705f5f00 	subsvc	r5, pc, r0, lsl #30
    741c:	746e6972 	strbtvc	r6, [lr], #-2418	; 0xfffff68e
    7420:	6b696c66 	blvs	1a625c0 <_Min_Stack_Size+0x1a621c0>
    7424:	6d662865 	stclvs	8, cr2, [r6, #-404]!	; 0xfffffe6c
    7428:	67726174 			; <UNDEFINED> instruction: 0x67726174
    742c:	7269662c 	rsbvc	r6, r9, #44, 12	; 0x2c00000
    7430:	61767473 	cmnvs	r6, r3, ror r4
    7434:	67726172 			; <UNDEFINED> instruction: 0x67726172
    7438:	5f5f2029 	svcpl	0x005f2029
    743c:	72747461 	rsbsvc	r7, r4, #1627389952	; 0x61000000
    7440:	74756269 	ldrbtvc	r6, [r5], #-617	; 0xfffffd97
    7444:	285f5f65 	ldmdacs	pc, {r0, r2, r5, r6, r8, r9, sl, fp, ip, lr}^	; <UNPREDICTABLE>
    7448:	665f5f28 	ldrbvs	r5, [pc], -r8, lsr #30
    744c:	616d726f 	cmnvs	sp, pc, ror #4
    7450:	205f5f74 	subscs	r5, pc, r4, ror pc	; <UNPREDICTABLE>
    7454:	705f5f28 	subsvc	r5, pc, r8, lsr #30
    7458:	746e6972 	strbtvc	r6, [lr], #-2418	; 0xfffff68e
    745c:	2c5f5f66 	mrrccs	15, 6, r5, pc, cr6	; <UNPREDICTABLE>
    7460:	746d6620 	strbtvc	r6, [sp], #-1568	; 0xfffff9e0
    7464:	2c677261 	sfmcs	f7, 2, [r7], #-388	; 0xfffffe7c
    7468:	72696620 	rsbvc	r6, r9, #32, 12	; 0x2000000
    746c:	61767473 	cmnvs	r6, r3, ror r4
    7470:	67726172 			; <UNDEFINED> instruction: 0x67726172
    7474:	00292929 	eoreq	r2, r9, r9, lsr #18
    7478:	4f4e5f5f 	svcmi	0x004e5f5f
    747c:	4c4e495f 	mcrrmi	9, 5, r4, lr, cr15	; <UNPREDICTABLE>
    7480:	5f454e49 	svcpl	0x00454e49
    7484:	0031205f 	eorseq	r2, r1, pc, asr r0
    7488:	61665f5f 	cmnvs	r6, pc, asr pc
    748c:	61637473 	smcvs	14147	; 0x3743
    7490:	5f206c6c 	svcpl	0x00206c6c
    7494:	7474615f 	ldrbtvc	r6, [r4], #-351	; 0xfffffea1
    7498:	75626972 	strbvc	r6, [r2, #-2418]!	; 0xfffff68e
    749c:	5f5f6574 	svcpl	0x005f6574
    74a0:	5f5f2828 	svcpl	0x005f2828
    74a4:	74736166 	ldrbtvc	r6, [r3], #-358	; 0xfffffe9a
    74a8:	6c6c6163 	stfvse	f6, [ip], #-396	; 0xfffffe74
    74ac:	29295f5f 	stmdbcs	r9!, {r0, r1, r2, r3, r4, r6, r8, r9, sl, fp, ip, lr}
    74b0:	544e4900 	strbpl	r4, [lr], #-2304	; 0xfffff700
    74b4:	4d5f3436 	cfldrdmi	mvd3, [pc, #-216]	; 73e4 <_Min_Stack_Size+0x6fe4>
    74b8:	28204e49 	stmdacs	r0!, {r0, r3, r6, r9, sl, fp, lr}
    74bc:	495f5f2d 	ldmdbmi	pc, {r0, r2, r3, r5, r8, r9, sl, fp, ip, lr}^	; <UNPREDICTABLE>
    74c0:	3436544e 	ldrtcc	r5, [r6], #-1102	; 0xfffffbb2
    74c4:	58414d5f 	stmdapl	r1, {r0, r1, r2, r3, r4, r6, r8, sl, fp, lr}^
    74c8:	2d205f5f 	stccs	15, cr5, [r0, #-380]!	; 0xfffffe84
    74cc:	00293120 	eoreq	r3, r9, r0, lsr #2
    74d0:	6f6c5f5f 	svcvs	0x006c5f5f
    74d4:	615f6b63 	cmpvs	pc, r3, ror #22
    74d8:	746f6e6e 	strbtvc	r6, [pc], #-3694	; 74e0 <_Min_Stack_Size+0x70e0>
    74dc:	28657461 	stmdacs	r5!, {r0, r5, r6, sl, ip, sp, lr}^
    74e0:	00202978 	eoreq	r2, r0, r8, ror r9
    74e4:	54494c5f 	strbpl	r4, [r9], #-3167	; 0xfffff3a1
    74e8:	58455f45 	stmdapl	r5, {r0, r2, r6, r8, r9, sl, fp, ip, lr}^
    74ec:	31205449 			; <UNDEFINED> instruction: 0x31205449
    74f0:	415f5f00 	cmpmi	pc, r0, lsl #30
    74f4:	494d4f54 	stmdbmi	sp, {r2, r4, r6, r8, r9, sl, fp, lr}^
    74f8:	45525f43 	ldrbmi	r5, [r2, #-3907]	; 0xfffff0bd
    74fc:	4558414c 	ldrbmi	r4, [r8, #-332]	; 0xfffffeb4
    7500:	00302044 	eorseq	r2, r0, r4, asr #32
    7504:	5454415f 	ldrbpl	r4, [r4], #-351	; 0xfffffea1
    7508:	55424952 	strbpl	r4, [r2, #-2386]	; 0xfffff6ae
    750c:	61284554 			; <UNDEFINED> instruction: 0x61284554
    7510:	73727474 	cmnvc	r2, #116, 8	; 0x74000000
    7514:	5f5f2029 	svcpl	0x005f2029
    7518:	72747461 	rsbsvc	r7, r4, #1627389952	; 0x61000000
    751c:	74756269 	ldrbtvc	r6, [r5], #-617	; 0xfffffd97
    7520:	205f5f65 	subscs	r5, pc, r5, ror #30
    7524:	74746128 	ldrbtvc	r6, [r4], #-296	; 0xfffffed8
    7528:	00297372 	eoreq	r7, r9, r2, ror r3
    752c:	41465f5f 	cmpmi	r6, pc, asr pc
    7530:	20385453 	eorscs	r5, r8, r3, asr r4
    7534:	49564e00 	ldmdbmi	r6, {r9, sl, fp, lr}^
    7538:	43495f43 	movtmi	r5, #40771	; 0x9f43
    753c:	20325245 	eorscs	r5, r2, r5, asr #4
    7540:	6f76282a 	svcvs	0x0076282a
    7544:	6974616c 	ldmdbvs	r4!, {r2, r3, r5, r6, r8, sp, lr}^
    7548:	7520656c 	strvc	r6, [r0, #-1388]!	; 0xfffffa94
    754c:	33746e69 	cmncc	r4, #1680	; 0x690
    7550:	20745f32 	rsbscs	r5, r4, r2, lsr pc
    7554:	4e28292a 	vmulmi.f16	s4, s16, s21	; <UNPREDICTABLE>
    7558:	5f434956 	svcpl	0x00434956
    755c:	45534142 	ldrbmi	r4, [r3, #-322]	; 0xfffffebe
    7560:	30202b20 	eorcc	r2, r0, r0, lsr #22
    7564:	38383078 	ldmdacc	r8!, {r3, r4, r5, r6, ip, sp}
    7568:	5f5f0029 	svcpl	0x005f0029
    756c:	52545441 	subspl	r5, r4, #1090519040	; 0x41000000
    7570:	54554249 	ldrbpl	r4, [r5], #-585	; 0xfffffdb7
    7574:	4d495f45 	stclmi	15, cr5, [r9, #-276]	; 0xfffffeec
    7578:	45525550 	ldrbmi	r5, [r2, #-1360]	; 0xfffffab0
    757c:	5254505f 	subspl	r5, r4, #95	; 0x5f
    7580:	00205f5f 	eoreq	r5, r0, pc, asr pc
    7584:	5f555043 	svcpl	0x00555043
    7588:	746e6f43 	strbtvc	r6, [lr], #-3907	; 0xfffff0bd
    758c:	5f6c6f72 	svcpl	0x006c6f72
    7590:	69676572 	stmdbvs	r7!, {r1, r4, r5, r6, r8, sl, sp, lr}^
    7594:	72657473 	rsbvc	r7, r5, #1929379840	; 0x73000000
    7598:	535f5f00 	cmppl	pc, #0, 30
    759c:	415f4749 	cmpmi	pc, r9, asr #14
    75a0:	494d4f54 	stmdbmi	sp, {r2, r4, r6, r8, r9, sl, fp, lr}^
    75a4:	414d5f43 	cmpmi	sp, r3, asr #30
    75a8:	205f5f58 	subscs	r5, pc, r8, asr pc	; <UNPREDICTABLE>
    75ac:	66377830 			; <UNDEFINED> instruction: 0x66377830
    75b0:	66666666 	strbtvs	r6, [r6], -r6, ror #12
    75b4:	46006666 	strmi	r6, [r0], -r6, ror #12
    75b8:	4853414c 	ldmdami	r3, {r2, r3, r6, r8, lr}^
    75bc:	4d454d5f 	stclmi	13, cr4, [r5, #-380]	; 0xfffffe84
    75c0:	5f59524f 	svcpl	0x0059524f
    75c4:	45534142 	ldrbmi	r4, [r3, #-322]	; 0xfffffebe
    75c8:	30783020 	rsbscc	r3, r8, r0, lsr #32
    75cc:	30303038 	eorscc	r3, r0, r8, lsr r0
    75d0:	55303030 	ldrpl	r3, [r0, #-48]!	; 0xffffffd0
    75d4:	5f5f004c 	svcpl	0x005f004c
    75d8:	36544c46 	ldrbcc	r4, [r4], -r6, asr #24
    75dc:	414d5f34 	cmpmi	sp, r4, lsr pc
    75e0:	445f544e 	ldrbmi	r5, [pc], #-1102	; 75e8 <_Min_Stack_Size+0x71e8>
    75e4:	5f5f4749 	svcpl	0x005f4749
    75e8:	00333520 	eorseq	r3, r3, r0, lsr #10
    75ec:	4545525f 	strbmi	r5, [r5, #-607]	; 0xfffffda1
    75f0:	435f544e 	cmpmi	pc, #1308622848	; 0x4e000000
    75f4:	4b434548 	blmi	10d8b1c <_Min_Stack_Size+0x10d871c>
    75f8:	4e41525f 	mcrmi	2, 2, r5, cr1, cr15, {2}
    75fc:	28383444 	ldmdacs	r8!, {r2, r6, sl, ip, sp}
    7600:	29726176 	ldmdbcs	r2!, {r1, r2, r4, r5, r6, r8, sp, lr}^
    7604:	45525f20 	ldrbmi	r5, [r2, #-3872]	; 0xfffff0e0
    7608:	5f544e45 	svcpl	0x00544e45
    760c:	43454843 	movtmi	r4, #22595	; 0x5843
    7610:	6176284b 	cmnvs	r6, fp, asr #16
    7614:	5f202c72 	svcpl	0x00202c72
    7618:	2c383472 	cfldrscs	mvf3, [r8], #-456	; 0xfffffe38
    761c:	72747320 	rsbsvc	r7, r4, #32, 6	; 0x80000000
    7620:	20746375 	rsbscs	r6, r4, r5, ror r3
    7624:	6e61725f 	mcrvs	2, 3, r7, cr1, cr15, {2}
    7628:	20383464 	eorscs	r3, r8, r4, ror #8
    762c:	73202c2a 			; <UNDEFINED> instruction: 0x73202c2a
    7630:	6f657a69 	svcvs	0x00657a69
    7634:	282a2066 	stmdacs	sl!, {r1, r2, r5, r6, sp}
    7638:	72617628 	rsbvc	r7, r1, #40, 12	; 0x2800000
    763c:	5f3e2d29 	svcpl	0x003e2d29
    7640:	29383472 	ldmdbcs	r8!, {r1, r4, r5, r6, sl, ip, sp}
    7644:	525f202c 	subspl	r2, pc, #44	; 0x2c
    7648:	544e4545 	strbpl	r4, [lr], #-1349	; 0xfffffabb
    764c:	494e495f 	stmdbmi	lr, {r0, r1, r2, r3, r4, r6, r8, fp, lr}^
    7650:	41525f54 	cmpmi	r2, r4, asr pc
    7654:	3834444e 	ldmdacc	r4!, {r1, r2, r3, r6, sl, lr}
    7658:	61762828 	cmnvs	r6, r8, lsr #16
    765c:	29292972 	stmdbcs	r9!, {r1, r4, r5, r6, r8, fp, sp}
    7660:	54584500 	ldrbpl	r4, [r8], #-1280	; 0xfffffb00
    7664:	41503749 	cmpmi	r0, r9, asr #14
    7668:	45282037 	strmi	r2, [r8, #-55]!	; 0xffffffc9
    766c:	5f495458 	svcpl	0x00495458
    7670:	4f495047 	svcmi	0x00495047
    7674:	70614d5f 	rsbvc	r4, r1, pc, asr sp
    7678:	676e6970 			; <UNDEFINED> instruction: 0x676e6970
    767c:	7b29745f 	blvc	a64800 <_Min_Stack_Size+0xa64400>
    7680:	49545845 	ldmdbmi	r4, {r0, r2, r6, fp, ip, lr}^
    7684:	47202c37 			; <UNDEFINED> instruction: 0x47202c37
    7688:	414f4950 	cmpmi	pc, r0, asr r9	; <UNPREDICTABLE>
    768c:	5047202c 	subpl	r2, r7, ip, lsr #32
    7690:	505f4f49 	subspl	r4, pc, r9, asr #30
    7694:	375f4e49 	ldrbcc	r4, [pc, -r9, asr #28]
    7698:	5845202c 	stmdapl	r5, {r2, r3, r5, sp}^
    769c:	5f374954 	svcpl	0x00374954
    76a0:	20515249 	subscs	r5, r1, r9, asr #4
    76a4:	5845007d 	stmdapl	r5, {r0, r2, r3, r4, r5, r6}^
    76a8:	5f374954 	svcpl	0x00374954
    76ac:	20515249 	subscs	r5, r1, r9, asr #4
    76b0:	5f003332 	svcpl	0x00003332
    76b4:	6e61725f 	mcrvs	2, 3, r7, cr1, cr15, {2}
    76b8:	666f6567 	strbtvs	r6, [pc], -r7, ror #10
    76bc:	70797428 	rsbsvc	r7, r9, r8, lsr #8
    76c0:	74732c65 	ldrbtvc	r2, [r3], #-3173	; 0xfffff39b
    76c4:	2c747261 	lfmcs	f7, 2, [r4], #-388	; 0xfffffe7c
    76c8:	29646e65 	stmdbcs	r4!, {r0, r2, r5, r6, r9, sl, fp, sp, lr}^
    76cc:	5f5f2820 	svcpl	0x005f2820
    76d0:	7366666f 	cmnvc	r6, #116391936	; 0x6f00000
    76d4:	666f7465 	strbtvs	r7, [pc], -r5, ror #8
    76d8:	70797428 	rsbsvc	r7, r9, r8, lsr #8
    76dc:	65202c65 	strvs	r2, [r0, #-3173]!	; 0xfffff39b
    76e0:	2029646e 	eorcs	r6, r9, lr, ror #8
    76e4:	5f5f202d 	svcpl	0x005f202d
    76e8:	7366666f 	cmnvc	r6, #116391936	; 0x6f00000
    76ec:	666f7465 	strbtvs	r7, [pc], -r5, ror #8
    76f0:	70797428 	rsbsvc	r7, r9, r8, lsr #8
    76f4:	73202c65 			; <UNDEFINED> instruction: 0x73202c65
    76f8:	74726174 	ldrbtvc	r6, [r2], #-372	; 0xfffffe8c
    76fc:	73002929 	movwvc	r2, #2345	; 0x929
    7700:	706f6275 	rsbvc	r6, pc, r5, ror r2	; <UNPREDICTABLE>
    7704:	67726174 			; <UNDEFINED> instruction: 0x67726174
    7708:	54584500 	ldrbpl	r4, [r8], #-1280	; 0xfffffb00
    770c:	42503149 	subsmi	r3, r0, #1073741842	; 0x40000012
    7710:	45282031 	strmi	r2, [r8, #-49]!	; 0xffffffcf
    7714:	5f495458 	svcpl	0x00495458
    7718:	4f495047 	svcmi	0x00495047
    771c:	70614d5f 	rsbvc	r4, r1, pc, asr sp
    7720:	676e6970 			; <UNDEFINED> instruction: 0x676e6970
    7724:	7b29745f 	blvc	a648a8 <_Min_Stack_Size+0xa644a8>
    7728:	49545845 	ldmdbmi	r4, {r0, r2, r6, fp, ip, lr}^
    772c:	47202c31 			; <UNDEFINED> instruction: 0x47202c31
    7730:	424f4950 	submi	r4, pc, #80, 18	; 0x140000
    7734:	5047202c 	subpl	r2, r7, ip, lsr #32
    7738:	505f4f49 	subspl	r4, pc, r9, asr #30
    773c:	315f4e49 	cmpcc	pc, r9, asr #28
    7740:	5845202c 	stmdapl	r5, {r2, r3, r5, sp}^
    7744:	5f314954 	svcpl	0x00314954
    7748:	20515249 	subscs	r5, r1, r9, asr #4
    774c:	5f5f007d 	svcpl	0x005f007d
    7750:	53455355 	movtpl	r5, #21333	; 0x5355
    7754:	494e495f 	stmdbmi	lr, {r0, r1, r2, r3, r4, r6, r8, fp, lr}^
    7758:	4e494654 	mcrmi	6, 2, r4, cr9, cr4, {2}
    775c:	205f5f49 	subscs	r5, pc, r9, asr #30
    7760:	5f5f0031 	svcpl	0x005f0031
    7764:	6b636f6c 	blvs	18e351c <_Min_Stack_Size+0x18e311c>
    7768:	696e695f 	stmdbvs	lr!, {r0, r1, r2, r3, r4, r6, r8, fp, sp, lr}^
    776c:	6f6c2874 	svcvs	0x006c2874
    7770:	20296b63 	eorcs	r6, r9, r3, ror #22
    7774:	6f762828 	svcvs	0x00762828
    7778:	20296469 	eorcs	r6, r9, r9, ror #8
    777c:	5f002930 	svcpl	0x00002930
    7780:	4345445f 	movtmi	r4, #21599	; 0x545f
    7784:	4d5f3436 	cfldrdmi	mvd3, [pc, #-216]	; 76b4 <_Min_Stack_Size+0x72b4>
    7788:	5f5f4e49 	svcpl	0x005f4e49
    778c:	2d453120 	stfcse	f3, [r5, #-128]	; 0xffffff80
    7790:	44333833 	ldrtmi	r3, [r3], #-2099	; 0xfffff7cd
    7794:	5f5f0044 	svcpl	0x005f0044
    7798:	6465656e 	strbtvs	r6, [r5], #-1390	; 0xfffffa92
    779c:	7274705f 	rsbsvc	r7, r4, #95	; 0x5f
    77a0:	66666964 	strbtvs	r6, [r6], -r4, ror #18
    77a4:	5f00745f 	svcpl	0x0000745f
    77a8:	464c555f 			; <UNDEFINED> instruction: 0x464c555f
    77ac:	54434152 	strbpl	r4, [r3], #-338	; 0xfffffeae
    77b0:	58414d5f 	stmdapl	r1, {r0, r1, r2, r3, r4, r6, r8, sl, fp, lr}^
    77b4:	30205f5f 	eorcc	r5, r0, pc, asr pc
    77b8:	46464658 			; <UNDEFINED> instruction: 0x46464658
    77bc:	46464646 	strbmi	r4, [r6], -r6, asr #12
    77c0:	332d5046 			; <UNDEFINED> instruction: 0x332d5046
    77c4:	524c5532 	subpl	r5, ip, #209715200	; 0xc800000
    77c8:	445f5f00 	ldrbmi	r5, [pc], #-3840	; 77d0 <_Min_Stack_Size+0x73d0>
    77cc:	445f4c42 	ldrbmi	r4, [pc], #-3138	; 77d4 <_Min_Stack_Size+0x73d4>
    77d0:	4d494345 	stclmi	3, cr4, [r9, #-276]	; 0xfffffeec
    77d4:	445f4c41 	ldrbmi	r4, [pc], #-3137	; 77dc <_Min_Stack_Size+0x73dc>
    77d8:	5f5f4749 	svcpl	0x005f4749
    77dc:	00373120 	eorseq	r3, r7, r0, lsr #2
    77e0:	78616d5f 	stmdavc	r1!, {r0, r1, r2, r3, r4, r6, r8, sl, fp, sp, lr}^
    77e4:	00736477 	rsbseq	r6, r3, r7, ror r4
    77e8:	61685f5f 	cmnvs	r8, pc, asr pc
    77ec:	6c5f6576 	cfldr64vs	mvdx6, [pc], {118}	; 0x76
    77f0:	33676e6f 	cmncc	r7, #1776	; 0x6f0
    77f4:	00312032 	eorseq	r2, r1, r2, lsr r0
    77f8:	5f544e49 	svcpl	0x00544e49
    77fc:	5341454c 	movtpl	r4, #5452	; 0x154c
    7800:	4d5f3854 	ldclmi	8, cr3, [pc, #-336]	; 76b8 <_Min_Stack_Size+0x72b8>
    7804:	28204e49 	stmdacs	r0!, {r0, r3, r6, r9, sl, fp, lr}
    7808:	495f5f2d 	ldmdbmi	pc, {r0, r2, r3, r5, r8, r9, sl, fp, ip, lr}^	; <UNPREDICTABLE>
    780c:	4c5f544e 	cfldrdmi	mvd5, [pc], {78}	; 0x4e
    7810:	54534145 	ldrbpl	r4, [r3], #-325	; 0xfffffebb
    7814:	414d5f38 	cmpmi	sp, r8, lsr pc
    7818:	205f5f58 	subscs	r5, pc, r8, asr pc	; <UNPREDICTABLE>
    781c:	2931202d 	ldmdbcs	r1!, {r0, r2, r3, r5, sp}
    7820:	4c475f00 	mcrrmi	15, 0, r5, r7, cr0
    7824:	4c41424f 	sfmmi	f4, 2, [r1], {79}	; 0x4f
    7828:	4545525f 	strbmi	r5, [r5, #-607]	; 0xfffffda1
    782c:	5f20544e 	svcpl	0x0020544e
    7830:	626f6c67 	rsbvs	r6, pc, #26368	; 0x6700
    7834:	695f6c61 	ldmdbvs	pc, {r0, r5, r6, sl, fp, sp, lr}^	; <UNPREDICTABLE>
    7838:	7275706d 	rsbsvc	r7, r5, #109	; 0x6d
    783c:	74705f65 	ldrbtvc	r5, [r0], #-3941	; 0xfffff09b
    7840:	4e5f0072 	mrcmi	0, 2, r0, cr15, cr2, {3}
    7844:	204c4c55 	subcs	r4, ip, r5, asr ip
    7848:	5f5f0030 	svcpl	0x005f0030
    784c:	78656c66 	stmdavc	r5!, {r1, r2, r5, r6, sl, fp, sp, lr}^
    7850:	20727261 	rsbscs	r7, r2, r1, ror #4
    7854:	005d305b 	subseq	r3, sp, fp, asr r0
    7858:	6d745f5f 	ldclvs	15, cr5, [r4, #-380]!	; 0xfffffe84
    785c:	6165795f 	cmnvs	r5, pc, asr r9
    7860:	48410072 	stmdami	r1, {r1, r4, r5, r6}^
    7864:	524e4542 	subpl	r4, lr, #276824064	; 0x10800000
    7868:	45525f00 	ldrbmi	r5, [r2, #-3840]	; 0xfffff100
    786c:	5f544e45 	svcpl	0x00544e45
    7870:	54494e49 	strbpl	r4, [r9], #-3657	; 0xfffff1b7
    7874:	5254505f 	subspl	r5, r4, #95	; 0x5f
    7878:	52455a5f 	subpl	r5, r5, #389120	; 0x5f000
    787c:	2844454f 	stmdacs	r4, {r0, r1, r2, r3, r6, r8, sl, lr}^
    7880:	29726176 	ldmdbcs	r2!, {r1, r2, r4, r5, r6, r8, sp, lr}^
    7884:	28207b20 	stmdacs	r0!, {r5, r8, r9, fp, ip, sp, lr}
    7888:	29726176 	ldmdbcs	r2!, {r1, r2, r4, r5, r6, r8, sp, lr}^
    788c:	735f3e2d 	cmpvc	pc, #720	; 0x2d0
    7890:	6e696474 	mcrvs	4, 3, r6, cr9, cr4, {3}
    7894:	28203d20 	stmdacs	r0!, {r5, r8, sl, fp, ip, sp}
    7898:	49465f5f 	stmdbmi	r6, {r0, r1, r2, r3, r4, r6, r8, r9, sl, fp, ip, lr}^
    789c:	2a20454c 	bcs	818dd4 <_Min_Stack_Size+0x8189d4>
    78a0:	5f5f2629 	svcpl	0x005f2629
    78a4:	665f6673 			; <UNDEFINED> instruction: 0x665f6673
    78a8:	5f656b61 	svcpl	0x00656b61
    78ac:	69647473 	stmdbvs	r4!, {r0, r1, r4, r5, r6, sl, ip, sp, lr}^
    78b0:	28203b6e 	stmdacs	r0!, {r1, r2, r3, r5, r6, r8, r9, fp, ip, sp}
    78b4:	29726176 	ldmdbcs	r2!, {r1, r2, r4, r5, r6, r8, sp, lr}^
    78b8:	735f3e2d 	cmpvc	pc, #720	; 0x2d0
    78bc:	756f6474 	strbvc	r6, [pc, #-1140]!	; 7450 <_Min_Stack_Size+0x7050>
    78c0:	203d2074 	eorscs	r2, sp, r4, ror r0
    78c4:	465f5f28 	ldrbmi	r5, [pc], -r8, lsr #30
    78c8:	20454c49 	subcs	r4, r5, r9, asr #24
    78cc:	5f26292a 	svcpl	0x0026292a
    78d0:	5f66735f 	svcpl	0x0066735f
    78d4:	656b6166 	strbvs	r6, [fp, #-358]!	; 0xfffffe9a
    78d8:	6474735f 	ldrbtvs	r7, [r4], #-863	; 0xfffffca1
    78dc:	3b74756f 	blcc	1d24ea0 <_Min_Stack_Size+0x1d24aa0>
    78e0:	61762820 	cmnvs	r6, r0, lsr #16
    78e4:	3e2d2972 			; <UNDEFINED> instruction: 0x3e2d2972
    78e8:	6474735f 	ldrbtvs	r7, [r4], #-863	; 0xfffffca1
    78ec:	20727265 	rsbscs	r7, r2, r5, ror #4
    78f0:	5f28203d 	svcpl	0x0028203d
    78f4:	4c49465f 	mcrrmi	6, 5, r4, r9, cr15
    78f8:	292a2045 	stmdbcs	sl!, {r0, r2, r6, sp}
    78fc:	735f5f26 	cmpvc	pc, #38, 30	; 0x98
    7900:	61665f66 	cmnvs	r6, r6, ror #30
    7904:	735f656b 	cmpvc	pc, #448790528	; 0x1ac00000
    7908:	72656474 	rsbvc	r6, r5, #116, 8	; 0x74000000
    790c:	7d203b72 	vstmdbvc	r0!, {d3-<overflow reg d59>}
    7910:	495f5f00 	ldmdbmi	pc, {r8, r9, sl, fp, ip, lr}^	; <UNPREDICTABLE>
    7914:	3631544e 	ldrtcc	r5, [r1], -lr, asr #8
    7918:	58414d5f 	stmdapl	r1, {r0, r1, r2, r3, r4, r6, r8, sl, fp, lr}^
    791c:	30205f5f 	eorcc	r5, r0, pc, asr pc
    7920:	66663778 			; <UNDEFINED> instruction: 0x66663778
    7924:	5f5f0066 	svcpl	0x005f0066
    7928:	5f535953 	svcpl	0x00535953
    792c:	464e4f43 	strbmi	r4, [lr], -r3, asr #30
    7930:	485f4749 	ldmdami	pc, {r0, r3, r6, r8, r9, sl, lr}^	; <UNPREDICTABLE>
    7934:	00205f5f 	eoreq	r5, r0, pc, asr pc
    7938:	45445f5f 	strbmi	r5, [r4, #-3935]	; 0xfffff0a1
    793c:	414c4f56 	cmpmi	ip, r6, asr pc
    7940:	454c4954 	strbmi	r4, [ip, #-2388]	; 0xfffff6ac
    7944:	70797428 	rsbsvc	r7, r9, r8, lsr #8
    7948:	61762c65 	cmnvs	r6, r5, ror #24
    794c:	28202972 	stmdacs	r0!, {r1, r4, r5, r6, r8, fp, sp}
    7950:	70797428 	rsbsvc	r7, r9, r8, lsr #8
    7954:	5f282965 	svcpl	0x00282965
    7958:	6e69755f 	mcrvs	5, 3, r7, cr9, cr15, {2}
    795c:	72747074 	rsbsvc	r7, r4, #116	; 0x74
    7960:	2829745f 	stmdacs	r9!, {r0, r1, r2, r3, r4, r6, sl, ip, sp, lr}
    7964:	616c6f76 	smcvs	50934	; 0xc6f6
    7968:	656c6974 	strbvs	r6, [ip, #-2420]!	; 0xfffff68c
    796c:	696f7620 	stmdbvs	pc!, {r5, r9, sl, ip, sp, lr}^	; <UNPREDICTABLE>
    7970:	292a2064 	stmdbcs	sl!, {r2, r5, r6, sp}
    7974:	72617628 	rsbvc	r7, r1, #40, 12	; 0x2800000
    7978:	47002929 	strmi	r2, [r0, -r9, lsr #18]
    797c:	5f4f4950 	svcpl	0x004f4950
    7980:	5f4e4950 	svcpl	0x004e4950
    7984:	28203531 	stmdacs	r0!, {r0, r4, r5, r8, sl, ip, sp}
    7988:	6e697528 	cdpvs	5, 6, cr7, cr9, cr8, {1}
    798c:	5f363174 	svcpl	0x00363174
    7990:	78302974 	ldmdavc	r0!, {r2, r4, r5, r6, r8, fp, sp}
    7994:	30303038 	eorscc	r3, r0, r8, lsr r0
    7998:	5f5f0029 	svcpl	0x005f0029
    799c:	5f505353 	svcpl	0x00505353
    79a0:	54524f46 	ldrbpl	r4, [r2], #-3910	; 0xfffff0ba
    79a4:	5f594649 	svcpl	0x00594649
    79a8:	4556454c 	ldrbmi	r4, [r6, #-1356]	; 0xfffffab4
    79ac:	0030204c 	eorseq	r2, r0, ip, asr #32
    79b0:	4e475f5f 	mcrmi	15, 2, r5, cr7, cr15, {2}
    79b4:	494c4355 	stmdbmi	ip, {r0, r2, r4, r6, r8, r9, lr}^
    79b8:	425f454b 	subsmi	r4, pc, #314572800	; 0x12c00000
    79bc:	544c4955 	strbpl	r4, [ip], #-2389	; 0xfffff6ab
    79c0:	535f4e49 	cmppl	pc, #1168	; 0x490
    79c4:	52414454 	subpl	r4, r1, #84, 8	; 0x54000000
    79c8:	00312047 	eorseq	r2, r1, r7, asr #32
    79cc:	65725f5f 	ldrbvs	r5, [r2, #-3935]!	; 0xfffff0a1
    79d0:	746c7573 	strbtvc	r7, [ip], #-1395	; 0xfffffa8d
    79d4:	6573755f 	ldrbvs	r7, [r3, #-1375]!	; 0xfffffaa1
    79d8:	6568635f 	strbvs	r6, [r8, #-863]!	; 0xfffffca1
    79dc:	5f206b63 	svcpl	0x00206b63
    79e0:	7474615f 	ldrbtvc	r6, [r4], #-351	; 0xfffffea1
    79e4:	75626972 	strbvc	r6, [r2, #-2418]!	; 0xfffff68e
    79e8:	5f5f6574 	svcpl	0x005f6574
    79ec:	5f5f2828 	svcpl	0x005f2828
    79f0:	6e726177 	mrcvs	1, 3, r6, cr2, cr7, {3}
    79f4:	756e755f 	strbvc	r7, [lr, #-1375]!	; 0xfffffaa1
    79f8:	5f646573 	svcpl	0x00646573
    79fc:	75736572 	ldrbvc	r6, [r3, #-1394]!	; 0xfffffa8e
    7a00:	5f5f746c 	svcpl	0x005f746c
    7a04:	5f002929 	svcpl	0x00002929
    7a08:	4953585f 	ldmdbmi	r3, {r0, r1, r2, r3, r4, r6, fp, ip, lr}^
    7a0c:	5349565f 	movtpl	r5, #38495	; 0x965f
    7a10:	454c4249 	strbmi	r4, [ip, #-585]	; 0xfffffdb7
    7a14:	5f003020 	svcpl	0x00003020
    7a18:	4c445453 	cfstrdmi	mvd5, [r4], {83}	; 0x53
    7a1c:	485f4249 	ldmdami	pc, {r0, r3, r6, r9, lr}^	; <UNPREDICTABLE>
    7a20:	4e00205f 	mcrmi	0, 0, r2, cr0, cr15, {2}
    7a24:	5f434956 	svcpl	0x00434956
    7a28:	36515249 	ldrbcc	r5, [r1], -r9, asr #4
    7a2c:	5458455f 	ldrbpl	r4, [r8], #-1375	; 0xfffffaa1
    7a30:	455f3449 	ldrbmi	r3, [pc, #-1097]	; 75ef <_Min_Stack_Size+0x71ef>
    7a34:	4c42414e 	stfmie	f4, [r2], {78}	; 0x4e
    7a38:	4e282045 	cdpmi	0, 2, cr2, cr8, cr5, {2}
    7a3c:	5f434956 	svcpl	0x00434956
    7a40:	52455349 	subpl	r5, r5, #603979777	; 0x24000001
    7a44:	3d7c2030 	ldclcc	0, cr2, [ip, #-192]!	; 0xffffff40
    7a48:	3c312820 	ldccc	8, cr2, [r1], #-128	; 0xffffff80
    7a4c:	2930313c 	ldmdbcs	r0!, {r2, r3, r4, r5, r8, ip, sp}
    7a50:	58450029 	stmdapl	r5, {r0, r3, r5}^
    7a54:	20374954 	eorscs	r4, r7, r4, asr r9
    7a58:	53420037 	movtpl	r0, #8247	; 0x2037
    7a5c:	5f005252 	svcpl	0x00005252
    7a60:	4343475f 	movtmi	r4, #14175	; 0x375f
    7a64:	4f54415f 	svcmi	0x0054415f
    7a68:	5f43494d 	svcpl	0x0043494d
    7a6c:	54534554 	ldrbpl	r4, [r3], #-1364	; 0xfffffaac
    7a70:	444e415f 	strbmi	r4, [lr], #-351	; 0xfffffea1
    7a74:	5445535f 	strbpl	r5, [r5], #-863	; 0xfffffca1
    7a78:	5552545f 	ldrbpl	r5, [r2, #-1119]	; 0xfffffba1
    7a7c:	4c415645 	mcrrmi	6, 4, r5, r1, cr5
    7a80:	5f003120 	svcpl	0x00003120
    7a84:	5341465f 	movtpl	r4, #5727	; 0x165f
    7a88:	20323354 	eorscs	r3, r2, r4, asr r3
    7a8c:	535f5f00 	cmppl	pc, #0, 30
    7a90:	415f4749 	cmpmi	pc, r9, asr #14
    7a94:	494d4f54 	stmdbmi	sp, {r2, r4, r6, r8, r9, sl, fp, lr}^
    7a98:	49575f43 	ldmdbmi	r7, {r0, r1, r6, r8, r9, sl, fp, ip, lr}^
    7a9c:	5f485444 	svcpl	0x00485444
    7aa0:	3233205f 	eorscc	r2, r3, #95	; 0x5f
    7aa4:	465f5f00 	ldrbmi	r5, [pc], -r0, lsl #30
    7aa8:	3436544c 	ldrtcc	r5, [r6], #-1100	; 0xfffffbb4
    7aac:	5350455f 	cmppl	r0, #398458880	; 0x17c00000
    7ab0:	4e4f4c49 	cdpmi	12, 4, cr4, cr15, cr9, {2}
    7ab4:	32205f5f 	eorcc	r5, r0, #380	; 0x17c
    7ab8:	3032322e 	eorscc	r3, r2, lr, lsr #4
    7abc:	30363434 	eorscc	r3, r6, r4, lsr r4
    7ac0:	35323934 	ldrcc	r3, [r2, #-2356]!	; 0xfffff6cc
    7ac4:	33313330 	teqcc	r1, #48, 6	; 0xc0000000
    7ac8:	312d6531 			; <UNDEFINED> instruction: 0x312d6531
    7acc:	34364636 	ldrtcc	r4, [r6], #-1590	; 0xfffff9ca
    7ad0:	45525f00 	ldrbmi	r5, [r2, #-3840]	; 0xfffff100
    7ad4:	5f544e45 	svcpl	0x00544e45
    7ad8:	54494e49 	strbpl	r4, [r9], #-3657	; 0xfffff1b7
    7adc:	4554415f 	ldrbmi	r4, [r4, #-351]	; 0xfffffea1
    7ae0:	20544958 	subscs	r4, r4, r8, asr r9
    7ae4:	475f5f00 	ldrbmi	r5, [pc, -r0, lsl #30]
    7ae8:	5f43554e 	svcpl	0x0043554e
    7aec:	52455250 	subpl	r5, r5, #80, 4
    7af0:	5f5f5145 	svcpl	0x005f5145
    7af4:	2c616d28 	stclcs	13, cr6, [r1], #-160	; 0xffffff60
    7af8:	2029696d 	eorcs	r6, r9, sp, ror #18
    7afc:	4e475f5f 	mcrmi	15, 2, r5, cr7, cr15, {2}
    7b00:	505f4355 	subspl	r4, pc, r5, asr r3	; <UNPREDICTABLE>
    7b04:	45524552 	ldrbmi	r4, [r2, #-1362]	; 0xfffffaae
    7b08:	616d2851 	cmnvs	sp, r1, asr r8
    7b0c:	696d202c 	stmdbvs	sp!, {r2, r3, r5, sp}^
    7b10:	5f5f0029 	svcpl	0x005f0029
    7b14:	5f415455 	svcpl	0x00415455
    7b18:	54494249 	strbpl	r4, [r9], #-585	; 0xfffffdb7
    7b1c:	36205f5f 	qsaxcc	r5, r0, pc	; <UNPREDICTABLE>
    7b20:	5f5f0034 	svcpl	0x005f0034
    7b24:	414c4c55 	cmpmi	ip, r5, asr ip
    7b28:	4d554343 	ldclmi	3, cr4, [r5, #-268]	; 0xfffffef4
    7b2c:	4942495f 	stmdbmi	r2, {r0, r1, r2, r3, r4, r6, r8, fp, lr}^
    7b30:	205f5f54 	subscs	r5, pc, r4, asr pc	; <UNPREDICTABLE>
    7b34:	5f003233 	svcpl	0x00003233
    7b38:	7274735f 	rsbsvc	r7, r4, #2080374785	; 0x7c000001
    7b3c:	5f676e6f 	svcpl	0x00676e6f
    7b40:	65666572 	strbvs	r6, [r6, #-1394]!	; 0xfffffa8e
    7b44:	636e6572 	cmnvs	lr, #478150656	; 0x1c800000
    7b48:	79732865 	ldmdbvc	r3!, {r0, r2, r5, r6, fp, sp}^
    7b4c:	6c612c6d 	stclvs	12, cr2, [r1], #-436	; 0xfffffe4c
    7b50:	73736169 	cmnvc	r3, #1073741850	; 0x4000001a
    7b54:	20296d79 	eorcs	r6, r9, r9, ror sp
    7b58:	65747865 	ldrbvs	r7, [r4, #-2149]!	; 0xfffff79b
    7b5c:	5f206e72 	svcpl	0x00206e72
    7b60:	7079745f 	rsbsvc	r7, r9, pc, asr r4
    7b64:	20666f65 	rsbcs	r6, r6, r5, ror #30
    7b68:	6d797328 	ldclvs	3, cr7, [r9, #-160]!	; 0xffffff60
    7b6c:	6c612029 	stclvs	0, cr2, [r1], #-164	; 0xffffff5c
    7b70:	73736169 	cmnvc	r3, #1073741850	; 0x4000001a
    7b74:	5f206d79 	svcpl	0x00206d79
    7b78:	7474615f 	ldrbtvc	r6, [r4], #-351	; 0xfffffea1
    7b7c:	75626972 	strbvc	r6, [r2, #-2418]!	; 0xfffff68e
    7b80:	5f5f6574 	svcpl	0x005f6574
    7b84:	5f282820 	svcpl	0x00282820
    7b88:	696c615f 	stmdbvs	ip!, {r0, r1, r2, r3, r4, r6, r8, sp, lr}^
    7b8c:	5f5f7361 	svcpl	0x005f7361
    7b90:	73232820 			; <UNDEFINED> instruction: 0x73232820
    7b94:	29296d79 	stmdbcs	r9!, {r0, r3, r4, r5, r6, r8, sl, fp, sp, lr}
    7b98:	50470029 	subpl	r0, r7, r9, lsr #32
    7b9c:	545f4f49 	ldrbpl	r4, [pc], #-3913	; 7ba4 <_Min_Stack_Size+0x77a4>
    7ba0:	44657079 	strbtmi	r7, [r5], #-121	; 0xffffff87
    7ba4:	5f006665 	svcpl	0x00006665
    7ba8:	4c4c555f 	cfstr64mi	mvdx5, [ip], {95}	; 0x5f
    7bac:	43415246 	movtmi	r5, #4678	; 0x1246
    7bb0:	50455f54 	subpl	r5, r5, r4, asr pc
    7bb4:	4f4c4953 	svcmi	0x004c4953
    7bb8:	205f5f4e 	subscs	r5, pc, lr, asr #30
    7bbc:	50317830 	eorspl	r7, r1, r0, lsr r8
    7bc0:	5534362d 	ldrpl	r3, [r4, #-1581]!	; 0xfffff9d3
    7bc4:	00524c4c 	subseq	r4, r2, ip, asr #24
    7bc8:	4d49545f 	cfstrdmi	mvd5, [r9, #-380]	; 0xfffffe84
    7bcc:	545f5245 	ldrbpl	r5, [pc], #-581	; 7bd4 <_Min_Stack_Size+0x77d4>
    7bd0:	6e75205f 	mrcvs	0, 3, r2, cr5, cr15, {2}
    7bd4:	6e676973 			; <UNDEFINED> instruction: 0x6e676973
    7bd8:	6c206465 	cfstrsvs	mvf6, [r0], #-404	; 0xfffffe6c
    7bdc:	00676e6f 	rsbeq	r6, r7, pc, ror #28
    7be0:	66626c5f 			; <UNDEFINED> instruction: 0x66626c5f
    7be4:	657a6973 	ldrbvs	r6, [sl, #-2419]!	; 0xfffff68d
    7be8:	54584500 	ldrbpl	r4, [r8], #-1280	; 0xfffffb00
    7bec:	44503549 	ldrbmi	r3, [r0], #-1353	; 0xfffffab7
    7bf0:	45282035 	strmi	r2, [r8, #-53]!	; 0xffffffcb
    7bf4:	5f495458 	svcpl	0x00495458
    7bf8:	4f495047 	svcmi	0x00495047
    7bfc:	70614d5f 	rsbvc	r4, r1, pc, asr sp
    7c00:	676e6970 			; <UNDEFINED> instruction: 0x676e6970
    7c04:	7b29745f 	blvc	a64d88 <_Min_Stack_Size+0xa64988>
    7c08:	49545845 	ldmdbmi	r4, {r0, r2, r6, fp, ip, lr}^
    7c0c:	47202c35 			; <UNDEFINED> instruction: 0x47202c35
    7c10:	444f4950 	strbmi	r4, [pc], #-2384	; 7c18 <_Min_Stack_Size+0x7818>
    7c14:	5047202c 	subpl	r2, r7, ip, lsr #32
    7c18:	505f4f49 	subspl	r4, pc, r9, asr #30
    7c1c:	355f4e49 	ldrbcc	r4, [pc, #-3657]	; 6ddb <_Min_Stack_Size+0x69db>
    7c20:	5845202c 	stmdapl	r5, {r2, r3, r5, sp}^
    7c24:	5f354954 	svcpl	0x00354954
    7c28:	20515249 	subscs	r5, r1, r9, asr #4
    7c2c:	415f007d 	cmpmi	pc, sp, ror r0	; <UNPREDICTABLE>
    7c30:	49584554 	ldmdbmi	r8, {r2, r4, r6, r8, sl, lr}^
    7c34:	49535f54 	ldmdbmi	r3, {r2, r4, r6, r8, r9, sl, fp, ip, lr}^
    7c38:	3320455a 			; <UNDEFINED> instruction: 0x3320455a
    7c3c:	5f5f0032 	svcpl	0x005f0032
    7c40:	455a4953 	ldrbmi	r4, [sl, #-2387]	; 0xfffff6ad
    7c44:	575f464f 	ldrbpl	r4, [pc, -pc, asr #12]
    7c48:	5f544e49 	svcpl	0x00544e49
    7c4c:	205f5f54 	subscs	r5, pc, r4, asr pc	; <UNPREDICTABLE>
    7c50:	695f0034 	ldmdbvs	pc, {r2, r4, r5}^	; <UNPREDICTABLE>
    7c54:	5f00646e 	svcpl	0x0000646e
    7c58:	4d52415f 	ldfmie	f4, [r2, #-380]	; 0xfffffe84
    7c5c:	4145465f 	cmpmi	r5, pc, asr r6
    7c60:	45525554 	ldrbmi	r5, [r2, #-1364]	; 0xfffffaac
    7c64:	414e555f 	cmpmi	lr, pc, asr r5
    7c68:	4e47494c 	vmlsmi.f16	s9, s14, s24	; <UNPREDICTABLE>
    7c6c:	31204445 			; <UNDEFINED> instruction: 0x31204445
    7c70:	535f5f00 	cmppl	pc, #0, 30
    7c74:	5f434454 	svcpl	0x00434454
    7c78:	0031205f 	eorseq	r2, r1, pc, asr r0
    7c7c:	444c5f5f 	strbmi	r5, [ip], #-3935	; 0xfffff0a1
    7c80:	445f4c42 	ldrbmi	r4, [pc], #-3138	; 7c88 <_Min_Stack_Size+0x7888>
    7c84:	4d494345 	stclmi	3, cr4, [r9, #-276]	; 0xfffffeec
    7c88:	445f4c41 	ldrbmi	r4, [pc], #-3137	; 7c90 <_Min_Stack_Size+0x7890>
    7c8c:	5f5f4749 	svcpl	0x005f4749
    7c90:	00373120 	eorseq	r3, r7, r0, lsr #2
    7c94:	4e475f5f 	mcrmi	15, 2, r5, cr7, cr15, {2}
    7c98:	494c4355 	stmdbmi	ip, {r0, r2, r4, r6, r8, r9, lr}^
    7c9c:	415f454b 	cmpmi	pc, fp, asr #10
    7ca0:	33204d53 			; <UNDEFINED> instruction: 0x33204d53
    7ca4:	4c5f5f00 	mrrcmi	15, 0, r5, pc, cr0	; <UNPREDICTABLE>
    7ca8:	55434341 	strbpl	r4, [r3, #-833]	; 0xfffffcbf
    7cac:	494d5f4d 	stmdbmi	sp, {r0, r2, r3, r6, r8, r9, sl, fp, ip, lr}^
    7cb0:	205f5f4e 	subscs	r5, pc, lr, asr #30
    7cb4:	58302d28 	ldmdapl	r0!, {r3, r5, r8, sl, fp, sp}
    7cb8:	31335031 	teqcc	r3, r1, lsr r0
    7cbc:	302d4b4c 	eorcc	r4, sp, ip, asr #22
    7cc0:	33503158 	cmpcc	r0, #88, 2
    7cc4:	294b4c31 	stmdbcs	fp, {r0, r4, r5, sl, fp, lr}^
    7cc8:	495f5f00 	ldmdbmi	pc, {r8, r9, sl, fp, ip, lr}^	; <UNPREDICTABLE>
    7ccc:	465f544e 	ldrbmi	r5, [pc], -lr, asr #8
    7cd0:	38545341 	ldmdacc	r4, {r0, r6, r8, r9, ip, lr}^
    7cd4:	58414d5f 	stmdapl	r1, {r0, r1, r2, r3, r4, r6, r8, sl, fp, lr}^
    7cd8:	30205f5f 	eorcc	r5, r0, pc, asr pc
    7cdc:	66663778 			; <UNDEFINED> instruction: 0x66663778
    7ce0:	66666666 	strbtvs	r6, [r6], -r6, ror #12
    7ce4:	5f5f0066 	svcpl	0x005f0066
    7ce8:	33544c46 	cmpcc	r4, #17920	; 0x4600
    7cec:	41485f32 	cmpmi	r8, r2, lsr pc
    7cf0:	45445f53 	strbmi	r5, [r4, #-3923]	; 0xfffff0ad
    7cf4:	4d524f4e 	ldclmi	15, cr4, [r2, #-312]	; 0xfffffec8
    7cf8:	31205f5f 			; <UNDEFINED> instruction: 0x31205f5f
    7cfc:	735f5f00 	cmpvc	pc, #0, 30
    7d00:	666e6163 	strbtvs	r6, [lr], -r3, ror #2
    7d04:	656b696c 	strbvs	r6, [fp, #-2412]!	; 0xfffff694
    7d08:	746d6628 	strbtvc	r6, [sp], #-1576	; 0xfffff9d8
    7d0c:	2c677261 	sfmcs	f7, 2, [r7], #-388	; 0xfffffe7c
    7d10:	73726966 	cmnvc	r2, #1671168	; 0x198000
    7d14:	72617674 	rsbvc	r7, r1, #116, 12	; 0x7400000
    7d18:	29677261 	stmdbcs	r7!, {r0, r5, r6, r9, ip, sp, lr}^
    7d1c:	615f5f20 	cmpvs	pc, r0, lsr #30
    7d20:	69727474 	ldmdbvs	r2!, {r2, r4, r5, r6, sl, ip, sp, lr}^
    7d24:	65747562 	ldrbvs	r7, [r4, #-1378]!	; 0xfffffa9e
    7d28:	28285f5f 	stmdacs	r8!, {r0, r1, r2, r3, r4, r6, r8, r9, sl, fp, ip, lr}
    7d2c:	6f665f5f 	svcvs	0x00665f5f
    7d30:	74616d72 	strbtvc	r6, [r1], #-3442	; 0xfffff28e
    7d34:	28205f5f 	stmdacs	r0!, {r0, r1, r2, r3, r4, r6, r8, r9, sl, fp, ip, lr}
    7d38:	63735f5f 	cmnvs	r3, #380	; 0x17c
    7d3c:	5f666e61 	svcpl	0x00666e61
    7d40:	66202c5f 			; <UNDEFINED> instruction: 0x66202c5f
    7d44:	7261746d 	rsbvc	r7, r1, #1828716544	; 0x6d000000
    7d48:	66202c67 	strtvs	r2, [r0], -r7, ror #24
    7d4c:	74737269 	ldrbtvc	r7, [r3], #-617	; 0xfffffd97
    7d50:	61726176 	cmnvs	r2, r6, ror r1
    7d54:	29296772 	stmdbcs	r9!, {r1, r4, r5, r6, r8, r9, sl, sp, lr}
    7d58:	525f0029 	subspl	r0, pc, #41	; 0x29
    7d5c:	544e4545 	strbpl	r4, [lr], #-1349	; 0xfffffabb
    7d60:	414d535f 	cmpmi	sp, pc, asr r3
    7d64:	00204c4c 	eoreq	r4, r0, ip, asr #24
    7d68:	4f495047 	svcmi	0x00495047
    7d6c:	444f4d5f 	strbmi	r4, [pc], #-3423	; 7d74 <_Min_Stack_Size+0x7974>
    7d70:	554f5f45 	strbpl	r5, [pc, #-3909]	; 6e33 <_Min_Stack_Size+0x6a33>
    7d74:	54555054 	ldrbpl	r5, [r5], #-84	; 0xffffffac
    7d78:	5f46415f 	svcpl	0x0046415f
    7d7c:	30205050 	eorcc	r5, r0, r0, asr r0
    7d80:	30303078 	eorscc	r3, r0, r8, ror r0
    7d84:	30303030 	eorscc	r3, r0, r0, lsr r0
    7d88:	5f007536 	svcpl	0x00007536
    7d8c:	4c4c555f 	cfstr64mi	mvdx5, [ip], {95}	; 0x5f
    7d90:	55434341 	strbpl	r4, [r3, #-833]	; 0xfffffcbf
    7d94:	494d5f4d 	stmdbmi	sp, {r0, r2, r3, r6, r8, r9, sl, fp, ip, lr}^
    7d98:	205f5f4e 	subscs	r5, pc, lr, asr #30
    7d9c:	55302e30 	ldrpl	r2, [r0, #-3632]!	; 0xfffff1d0
    7da0:	004b4c4c 	subeq	r4, fp, ip, asr #24
    7da4:	5359535f 	cmppl	r9, #2080374785	; 0x7c000001
    7da8:	59545f5f 	ldmdbpl	r4, {r0, r1, r2, r3, r4, r6, r8, r9, sl, fp, ip, lr}^
    7dac:	5f534550 	svcpl	0x00534550
    7db0:	5f002048 	svcpl	0x00002048
    7db4:	544e495f 	strbpl	r4, [lr], #-2399	; 0xfffff6a1
    7db8:	5341465f 	movtpl	r4, #5727	; 0x165f
    7dbc:	5f323354 	svcpl	0x00323354
    7dc0:	54444957 	strbpl	r4, [r4], #-2391	; 0xfffff6a9
    7dc4:	205f5f48 	subscs	r5, pc, r8, asr #30
    7dc8:	5f003233 	svcpl	0x00003233
    7dcc:	444e4152 	strbmi	r4, [lr], #-338	; 0xfffffeae
    7dd0:	4d5f3834 	ldclmi	8, cr3, [pc, #-208]	; 7d08 <_Min_Stack_Size+0x7908>
    7dd4:	5f544c55 	svcpl	0x00544c55
    7dd8:	30282030 	eorcc	r2, r8, r0, lsr r0
    7ddc:	36366578 			; <UNDEFINED> instruction: 0x36366578
    7de0:	5f002964 	svcpl	0x00002964
    7de4:	635f7369 	cmpvs	pc, #-1543503871	; 0xa4000001
    7de8:	5f006178 	svcpl	0x00006178
    7dec:	554e475f 	strbpl	r4, [lr, #-1887]	; 0xfffff8a1
    7df0:	4b494c43 	blmi	125af04 <_Min_Stack_Size+0x125ab04>
    7df4:	55425f45 	strbpl	r5, [r2, #-3909]	; 0xfffff0bb
    7df8:	49544c49 	ldmdbmi	r4, {r0, r3, r6, sl, fp, lr}^
    7dfc:	41565f4e 	cmpmi	r6, lr, asr #30
    7e00:	53494c41 	movtpl	r4, #40001	; 0x9c41
    7e04:	00312054 	eorseq	r2, r1, r4, asr r0
    7e08:	57454e5f 	smlsldpl	r4, r5, pc, lr	; <UNPREDICTABLE>
    7e0c:	5f42494c 	svcpl	0x0042494c
    7e10:	4f4c4c41 	svcmi	0x004c4c41
    7e14:	485f4143 	ldmdami	pc, {r0, r1, r6, r8, lr}^	; <UNPREDICTABLE>
    7e18:	5f5f0020 	svcpl	0x005f0020
    7e1c:	33544e49 	cmpcc	r4, #1168	; 0x490
    7e20:	6c222032 	stcvs	0, cr2, [r2], #-200	; 0xffffff38
    7e24:	5f5f0022 	svcpl	0x005f0022
    7e28:	5f4d5241 	svcpl	0x004d5241
    7e2c:	5f4d5341 	svcpl	0x004d5341
    7e30:	544e5953 	strbpl	r5, [lr], #-2387	; 0xfffff6ad
    7e34:	555f5841 	ldrbpl	r5, [pc, #-2113]	; 75fb <_Min_Stack_Size+0x71fb>
    7e38:	4946494e 	stmdbmi	r6, {r1, r2, r3, r6, r8, fp, lr}^
    7e3c:	5f5f4445 	svcpl	0x005f4445
    7e40:	73003120 	movwvc	r3, #288	; 0x120
    7e44:	6f747274 	svcvs	0x00747274
    7e48:	73206664 			; <UNDEFINED> instruction: 0x73206664
    7e4c:	6f747274 	svcvs	0x00747274
    7e50:	5f5f0066 	svcpl	0x005f0066
    7e54:	544e4955 	strbpl	r4, [lr], #-2389	; 0xfffff6ab
    7e58:	545f3233 	ldrbpl	r3, [pc], #-563	; 7e60 <_Min_Stack_Size+0x7a60>
    7e5c:	5f455059 	svcpl	0x00455059
    7e60:	6f6c205f 	svcvs	0x006c205f
    7e64:	7520676e 	strvc	r6, [r0, #-1902]!	; 0xfffff892
    7e68:	6769736e 	strbvs	r7, [r9, -lr, ror #6]!
    7e6c:	2064656e 	rsbcs	r6, r4, lr, ror #10
    7e70:	00746e69 	rsbseq	r6, r4, r9, ror #28
    7e74:	4e475f5f 	mcrmi	15, 2, r5, cr7, cr15, {2}
    7e78:	494c4355 	stmdbmi	ip, {r0, r2, r4, r6, r8, r9, lr}^
    7e7c:	4d5f454b 	cfldr64mi	mvdx4, [pc, #-300]	; 7d58 <_Min_Stack_Size+0x7958>
    7e80:	5f485441 	svcpl	0x00485441
    7e84:	4c495542 	cfstr64mi	mvdx5, [r9], {66}	; 0x42
    7e88:	5f4e4954 	svcpl	0x004e4954
    7e8c:	534e4f43 	movtpl	r4, #61251	; 0xef43
    7e90:	544e4154 	strbpl	r4, [lr], #-340	; 0xfffffeac
    7e94:	45002053 	strmi	r2, [r0, #-83]	; 0xffffffad
    7e98:	31495458 	cmpcc	r9, r8, asr r4
    7e9c:	20314150 	eorscs	r4, r1, r0, asr r1
    7ea0:	54584528 	ldrbpl	r4, [r8], #-1320	; 0xfffffad8
    7ea4:	50475f49 	subpl	r5, r7, r9, asr #30
    7ea8:	4d5f4f49 	ldclmi	15, cr4, [pc, #-292]	; 7d8c <_Min_Stack_Size+0x798c>
    7eac:	69707061 	ldmdbvs	r0!, {r0, r5, r6, ip, sp, lr}^
    7eb0:	745f676e 	ldrbvc	r6, [pc], #-1902	; 7eb8 <_Min_Stack_Size+0x7ab8>
    7eb4:	58457b29 	stmdapl	r5, {r0, r3, r5, r8, r9, fp, ip, sp, lr}^
    7eb8:	2c314954 			; <UNDEFINED> instruction: 0x2c314954
    7ebc:	49504720 	ldmdbmi	r0, {r5, r8, r9, sl, lr}^
    7ec0:	202c414f 	eorcs	r4, ip, pc, asr #2
    7ec4:	4f495047 	svcmi	0x00495047
    7ec8:	4e49505f 	mcrmi	0, 2, r5, cr9, cr15, {2}
    7ecc:	202c315f 	eorcs	r3, ip, pc, asr r1
    7ed0:	49545845 	ldmdbmi	r4, {r0, r2, r6, fp, ip, lr}^
    7ed4:	52495f31 	subpl	r5, r9, #49, 30	; 0xc4
    7ed8:	007d2051 	rsbseq	r2, sp, r1, asr r0
    7edc:	68745f5f 	ldmdavs	r4!, {r0, r1, r2, r3, r4, r6, r8, r9, sl, fp, ip, lr}^
    7ee0:	32626d75 	rsbcc	r6, r2, #7488	; 0x1d40
    7ee4:	31205f5f 			; <UNDEFINED> instruction: 0x31205f5f
    7ee8:	706d5f00 	rsbvc	r5, sp, r0, lsl #30
    7eec:	00636572 	rsbeq	r6, r3, r2, ror r5
    7ef0:	4645445f 			; <UNDEFINED> instruction: 0x4645445f
    7ef4:	544c5541 	strbpl	r5, [ip], #-1345	; 0xfffffabf
    7ef8:	554f535f 	strbpl	r5, [pc, #-863]	; 7ba1 <_Min_Stack_Size+0x77a1>
    7efc:	00454352 	subeq	r4, r5, r2, asr r3
    7f00:	726f6873 	rsbvc	r6, pc, #7536640	; 0x730000
    7f04:	312b2074 			; <UNDEFINED> instruction: 0x312b2074
    7f08:	43475f00 	movtmi	r5, #32512	; 0x7f00
    7f0c:	49535f43 	ldmdbmi	r3, {r0, r1, r6, r8, r9, sl, fp, ip, lr}^
    7f10:	545f455a 	ldrbpl	r4, [pc], #-1370	; 7f18 <_Min_Stack_Size+0x7b18>
    7f14:	6d5f0020 	ldclvs	0, cr0, [pc, #-128]	; 7e9c <_Min_Stack_Size+0x7a9c>
    7f18:	00637369 	rsbeq	r7, r3, r9, ror #6
    7f1c:	4c555f5f 	mrrcmi	15, 5, r5, r5, cr15	; <UNPREDICTABLE>
    7f20:	4152464c 	cmpmi	r2, ip, asr #12
    7f24:	4d5f5443 	cfldrdmi	mvd5, [pc, #-268]	; 7e20 <_Min_Stack_Size+0x7a20>
    7f28:	5f5f4e49 	svcpl	0x005f4e49
    7f2c:	302e3020 	eorcc	r3, lr, r0, lsr #32
    7f30:	524c4c55 	subpl	r4, ip, #21760	; 0x5500
    7f34:	5f545f00 	svcpl	0x00545f00
    7f38:	41484357 	cmpmi	r8, r7, asr r3
    7f3c:	00205f52 	eoreq	r5, r0, r2, asr pc
    7f40:	636f6c5f 	cmnvs	pc, #24320	; 0x5f00
    7f44:	00656c61 	rsbeq	r6, r5, r1, ror #24
    7f48:	4c555f5f 	mrrcmi	15, 5, r5, r5, cr15	; <UNPREDICTABLE>
    7f4c:	00676e6f 	rsbeq	r6, r7, pc, ror #28
    7f50:	52415f5f 	subpl	r5, r1, #380	; 0x17c
    7f54:	50465f4d 	subpl	r5, r6, sp, asr #30
    7f58:	415f3631 	cmpmi	pc, r1, lsr r6	; <UNPREDICTABLE>
    7f5c:	00534752 	subseq	r4, r3, r2, asr r7
    7f60:	6f6c5f5f 	svcvs	0x006c5f5f
    7f64:	725f6b63 	subsvc	r6, pc, #101376	; 0x18c00
    7f68:	61656c65 	cmnvs	r5, r5, ror #24
    7f6c:	6c286573 	cfstr32vs	mvfx6, [r8], #-460	; 0xfffffe34
    7f70:	296b636f 	stmdbcs	fp!, {r0, r1, r2, r3, r5, r6, r8, r9, sp, lr}^
    7f74:	76282820 	strtvc	r2, [r8], -r0, lsr #16
    7f78:	2964696f 	stmdbcs	r4!, {r0, r1, r2, r3, r5, r6, r8, fp, sp, lr}^
    7f7c:	00293020 	eoreq	r3, r9, r0, lsr #32
    7f80:	49535f5f 	ldmdbmi	r3, {r0, r1, r2, r3, r4, r6, r8, r9, sl, fp, ip, lr}^
    7f84:	464f455a 			; <UNDEFINED> instruction: 0x464f455a
    7f88:	544e495f 	strbpl	r4, [lr], #-2399	; 0xfffff6a1
    7f8c:	34205f5f 	strtcc	r5, [r0], #-3935	; 0xfffff0a1
    7f90:	53425f00 	movtpl	r5, #12032	; 0x2f00
    7f94:	43575f44 	cmpmi	r7, #68, 30	; 0x110
    7f98:	5f524148 	svcpl	0x00524148
    7f9c:	5f005f54 	svcpl	0x00005f54
    7fa0:	464c4c5f 			; <UNDEFINED> instruction: 0x464c4c5f
    7fa4:	54434152 	strbpl	r4, [r3], #-338	; 0xfffffeae
    7fa8:	4942495f 	stmdbmi	r2, {r0, r1, r2, r3, r4, r6, r8, fp, lr}^
    7fac:	205f5f54 	subscs	r5, pc, r4, asr pc	; <UNPREDICTABLE>
    7fb0:	5f5f0030 	svcpl	0x005f0030
    7fb4:	535f4343 	cmppl	pc, #201326593	; 0xc000001
    7fb8:	4f505055 	svcmi	0x00505055
    7fbc:	5f535452 	svcpl	0x00535452
    7fc0:	41524156 	cmpmi	r2, r6, asr r1
    7fc4:	5f434944 	svcpl	0x00434944
    7fc8:	20585858 	subscs	r5, r8, r8, asr r8
    7fcc:	58450031 	stmdapl	r5, {r0, r4, r5}^
    7fd0:	50394954 	eorspl	r4, r9, r4, asr r9
    7fd4:	28203941 	stmdacs	r0!, {r0, r6, r8, fp, ip, sp}
    7fd8:	49545845 	ldmdbmi	r4, {r0, r2, r6, fp, ip, lr}^
    7fdc:	4950475f 	ldmdbmi	r0, {r0, r1, r2, r3, r4, r6, r8, r9, sl, lr}^
    7fe0:	614d5f4f 	cmpvs	sp, pc, asr #30
    7fe4:	6e697070 	mcrvs	0, 3, r7, cr9, cr0, {3}
    7fe8:	29745f67 	ldmdbcs	r4!, {r0, r1, r2, r5, r6, r8, r9, sl, fp, ip, lr}^
    7fec:	5458457b 	ldrbpl	r4, [r8], #-1403	; 0xfffffa85
    7ff0:	202c3949 	eorcs	r3, ip, r9, asr #18
    7ff4:	4f495047 	svcmi	0x00495047
    7ff8:	47202c41 	strmi	r2, [r0, -r1, asr #24]!
    7ffc:	5f4f4950 	svcpl	0x004f4950
    8000:	5f4e4950 	svcpl	0x004e4950
    8004:	45202c39 	strmi	r2, [r0, #-3129]!	; 0xfffff3c7
    8008:	39495458 	stmdbcc	r9, {r3, r4, r6, sl, ip, lr}^
    800c:	5152495f 	cmppl	r2, pc, asr r9
    8010:	5f007d20 	svcpl	0x00007d20
    8014:	657a6973 	ldrbvs	r6, [sl, #-2419]!	; 0xfffff68d
    8018:	59535f00 	ldmdbpl	r3, {r8, r9, sl, fp, ip, lr}^
    801c:	495f5f53 	ldmdbmi	pc, {r0, r1, r4, r6, r8, r9, sl, fp, ip, lr}^	; <UNPREDICTABLE>
    8020:	5553544e 	ldrbpl	r5, [r3, #-1102]	; 0xfffffbb2
    8024:	20485f50 	subcs	r5, r8, r0, asr pc
    8028:	535f5f00 	cmppl	pc, #0, 30
    802c:	55434341 	strbpl	r4, [r3, #-833]	; 0xfffffcbf
    8030:	50455f4d 	subpl	r5, r5, sp, asr #30
    8034:	4f4c4953 	svcmi	0x004c4953
    8038:	205f5f4e 	subscs	r5, pc, lr, asr #30
    803c:	50317830 	eorspl	r7, r1, r0, lsr r8
    8040:	4b48372d 	blmi	1215cfc <_Min_Stack_Size+0x12158fc>
    8044:	65725f00 	ldrbvs	r5, [r2, #-3840]!	; 0xfffff100
    8048:	746c7573 	strbtvc	r7, [ip], #-1395	; 0xfffffa8d
    804c:	544e4900 	strbpl	r4, [lr], #-2304	; 0xfffff700
    8050:	5341465f 	movtpl	r4, #5727	; 0x165f
    8054:	5f343654 	svcpl	0x00343654
    8058:	2058414d 	subscs	r4, r8, sp, asr #2
    805c:	495f5f28 	ldmdbmi	pc, {r3, r5, r8, r9, sl, fp, ip, lr}^	; <UNPREDICTABLE>
    8060:	465f544e 	ldrbmi	r5, [pc], -lr, asr #8
    8064:	36545341 	ldrbcc	r5, [r4], -r1, asr #6
    8068:	414d5f34 	cmpmi	sp, r4, lsr pc
    806c:	295f5f58 	ldmdbcs	pc, {r3, r4, r6, r8, r9, sl, fp, ip, lr}^	; <UNPREDICTABLE>
    8070:	4f505f00 	svcmi	0x00505f00
    8074:	5f584953 	svcpl	0x00584953
    8078:	52554f53 	subspl	r4, r5, #332	; 0x14c
    807c:	31204543 			; <UNDEFINED> instruction: 0x31204543
    8080:	49504700 	ldmdbmi	r0, {r8, r9, sl, lr}^
    8084:	4f4d5f4f 	svcmi	0x004d5f4f
    8088:	415f4544 	cmpmi	pc, r4, asr #10
    808c:	4e495f46 	cdpmi	15, 4, cr5, cr9, cr6, {2}
    8090:	20545550 	subscs	r5, r4, r0, asr r5
    8094:	30307830 	eorscc	r7, r0, r0, lsr r8
    8098:	30303030 	eorscc	r3, r0, r0, lsr r0
    809c:	00753830 	rsbseq	r3, r5, r0, lsr r8
    80a0:	49555f5f 	ldmdbmi	r5, {r0, r1, r2, r3, r4, r6, r8, r9, sl, fp, ip, lr}^
    80a4:	465f544e 	ldrbmi	r5, [pc], -lr, asr #8
    80a8:	31545341 	cmpcc	r4, r1, asr #6
    80ac:	59545f36 	ldmdbpl	r4, {r1, r2, r4, r5, r8, r9, sl, fp, ip, lr}^
    80b0:	5f5f4550 	svcpl	0x005f4550
    80b4:	736e7520 	cmnvc	lr, #32, 10	; 0x8000000
    80b8:	656e6769 	strbvs	r6, [lr, #-1897]!	; 0xfffff897
    80bc:	6e692064 	cdpvs	0, 6, cr2, cr9, cr4, {3}
    80c0:	5f5f0074 	svcpl	0x005f0074
    80c4:	5f414855 	svcpl	0x00414855
    80c8:	54494249 	strbpl	r4, [r9], #-585	; 0xfffffdb7
    80cc:	38205f5f 	stmdacc	r0!, {r0, r1, r2, r3, r4, r6, r8, r9, sl, fp, ip, lr}
    80d0:	6e5f5f00 	cdpvs	15, 5, cr5, cr15, cr0, {0}
    80d4:	5f646565 	svcpl	0x00646565
    80d8:	746e6977 	strbtvc	r6, [lr], #-2423	; 0xfffff689
    80dc:	0020745f 	eoreq	r7, r0, pc, asr r4
    80e0:	43415f5f 	movtmi	r5, #8031	; 0x1f5f
    80e4:	5f4d5543 	svcpl	0x004d5543
    80e8:	49535045 	ldmdbmi	r3, {r0, r2, r6, ip, lr}^
    80ec:	5f4e4f4c 	svcpl	0x004e4f4c
    80f0:	7830205f 	ldmdavc	r0!, {r0, r1, r2, r3, r4, r6, sp}
    80f4:	312d5031 			; <UNDEFINED> instruction: 0x312d5031
    80f8:	5f004b35 	svcpl	0x00004b35
    80fc:	414c555f 	cmpmi	ip, pc, asr r5
    8100:	4d554343 	ldclmi	3, cr4, [r5, #-268]	; 0xfffffef4
    8104:	5350455f 	cmppl	r0, #398458880	; 0x17c00000
    8108:	4e4f4c49 	cdpmi	12, 4, cr4, cr15, cr9, {2}
    810c:	30205f5f 	eorcc	r5, r0, pc, asr pc
    8110:	2d503178 	ldfcse	f3, [r0, #-480]	; 0xfffffe20
    8114:	4c553233 	lfmmi	f3, 2, [r5], {51}	; 0x33
    8118:	5f5f004b 	svcpl	0x005f004b
    811c:	4c42444c 	cfstrdmi	mvd4, [r2], {76}	; 0x4c
    8120:	4749445f 	smlsldmi	r4, r9, pc, r4	; <UNPREDICTABLE>
    8124:	31205f5f 			; <UNDEFINED> instruction: 0x31205f5f
    8128:	58450035 	stmdapl	r5, {r0, r2, r4, r5}^
    812c:	50354954 	eorspl	r4, r5, r4, asr r9
    8130:	28203543 	stmdacs	r0!, {r0, r1, r6, r8, sl, ip, sp}
    8134:	49545845 	ldmdbmi	r4, {r0, r2, r6, fp, ip, lr}^
    8138:	4950475f 	ldmdbmi	r0, {r0, r1, r2, r3, r4, r6, r8, r9, sl, lr}^
    813c:	614d5f4f 	cmpvs	sp, pc, asr #30
    8140:	6e697070 	mcrvs	0, 3, r7, cr9, cr0, {3}
    8144:	29745f67 	ldmdbcs	r4!, {r0, r1, r2, r5, r6, r8, r9, sl, fp, ip, lr}^
    8148:	5458457b 	ldrbpl	r4, [r8], #-1403	; 0xfffffa85
    814c:	202c3549 	eorcs	r3, ip, r9, asr #10
    8150:	4f495047 	svcmi	0x00495047
    8154:	47202c43 	strmi	r2, [r0, -r3, asr #24]!
    8158:	5f4f4950 	svcpl	0x004f4950
    815c:	5f4e4950 	svcpl	0x004e4950
    8160:	45202c35 	strmi	r2, [r0, #-3125]!	; 0xfffff3cb
    8164:	35495458 	strbcc	r5, [r9, #-1112]	; 0xfffffba8
    8168:	5152495f 	cmppl	r2, pc, asr r9
    816c:	5f007d20 	svcpl	0x00007d20
    8170:	4c42445f 	cfstrdmi	mvd4, [r2], {95}	; 0x5f
    8174:	4e494d5f 	mcrmi	13, 2, r4, cr9, cr15, {2}
    8178:	28205f5f 	stmdacs	r0!, {r0, r1, r2, r3, r4, r6, r8, r9, sl, fp, ip, lr}
    817c:	756f6428 	strbvc	r6, [pc, #-1064]!	; 7d5c <_Min_Stack_Size+0x795c>
    8180:	29656c62 	stmdbcs	r5!, {r1, r5, r6, sl, fp, sp, lr}^
    8184:	32322e32 	eorscc	r2, r2, #800	; 0x320
    8188:	33373035 	teqcc	r7, #53	; 0x35
    818c:	35383538 	ldrcc	r3, [r8, #-1336]!	; 0xfffffac8
    8190:	30323730 	eorscc	r3, r2, r0, lsr r7
    8194:	2d653431 	cfstrdcs	mvd3, [r5, #-196]!	; 0xffffff3c
    8198:	4c383033 	ldcmi	0, cr3, [r8], #-204	; 0xffffff34
    819c:	5f5f0029 	svcpl	0x005f0029
    81a0:	455a4953 	ldrbmi	r4, [sl, #-2387]	; 0xfffff6ad
    81a4:	4449575f 	strbmi	r5, [r9], #-1887	; 0xfffff8a1
    81a8:	5f5f4854 	svcpl	0x005f4854
    81ac:	00323320 	eorseq	r3, r2, r0, lsr #6
    81b0:	4545525f 	strbmi	r5, [r5, #-607]	; 0xfffffda1
    81b4:	4d5f544e 	cfldrdmi	mvd5, [pc, #-312]	; 8084 <_Min_Stack_Size+0x7c84>
    81b8:	45525f50 	ldrbmi	r5, [r2, #-3920]	; 0xfffff0b0
    81bc:	544c5553 	strbpl	r5, [ip], #-1363	; 0xfffffaad
    81c0:	72747028 	rsbsvc	r7, r4, #40	; 0x28
    81c4:	28282029 	stmdacs	r8!, {r0, r3, r5, sp}
    81c8:	29727470 	ldmdbcs	r2!, {r4, r5, r6, sl, ip, sp, lr}^
    81cc:	6d5f3e2d 	ldclvs	14, cr3, [pc, #-180]	; 8120 <_Min_Stack_Size+0x7d20>
    81d0:	5f3e2d70 	svcpl	0x003e2d70
    81d4:	75736572 	ldrbvc	r6, [r3, #-1394]!	; 0xfffffa8e
    81d8:	0029746c 	eoreq	r7, r9, ip, ror #8
    81dc:	49545845 	ldmdbmi	r4, {r0, r2, r6, fp, ip, lr}^
    81e0:	34425034 	strbcc	r5, [r2], #-52	; 0xffffffcc
    81e4:	58452820 	stmdapl	r5, {r5, fp, sp}^
    81e8:	475f4954 			; <UNDEFINED> instruction: 0x475f4954
    81ec:	5f4f4950 	svcpl	0x004f4950
    81f0:	7070614d 	rsbsvc	r6, r0, sp, asr #2
    81f4:	5f676e69 	svcpl	0x00676e69
    81f8:	457b2974 	ldrbmi	r2, [fp, #-2420]!	; 0xfffff68c
    81fc:	34495458 	strbcc	r5, [r9], #-1112	; 0xfffffba8
    8200:	5047202c 	subpl	r2, r7, ip, lsr #32
    8204:	2c424f49 	mcrrcs	15, 4, r4, r2, cr9
    8208:	49504720 	ldmdbmi	r0, {r5, r8, r9, sl, lr}^
    820c:	49505f4f 	ldmdbmi	r0, {r0, r1, r2, r3, r6, r8, r9, sl, fp, ip, lr}^
    8210:	2c345f4e 	ldccs	15, cr5, [r4], #-312	; 0xfffffec8
    8214:	54584520 	ldrbpl	r4, [r8], #-1312	; 0xfffffae0
    8218:	495f3449 	ldmdbmi	pc, {r0, r3, r6, sl, ip, sp}^	; <UNPREDICTABLE>
    821c:	7d205152 	stfvcs	f5, [r0, #-328]!	; 0xfffffeb8
    8220:	575f5f00 	ldrbpl	r5, [pc, -r0, lsl #30]
    8224:	5f544e49 	svcpl	0x00544e49
    8228:	5f4e494d 	svcpl	0x004e494d
    822c:	5530205f 	ldrpl	r2, [r0, #-95]!	; 0xffffffa1
    8230:	54584500 	ldrbpl	r4, [r8], #-1280	; 0xfffffb00
    8234:	50303149 	eorspl	r3, r0, r9, asr #2
    8238:	20303141 	eorscs	r3, r0, r1, asr #2
    823c:	54584528 	ldrbpl	r4, [r8], #-1320	; 0xfffffad8
    8240:	50475f49 	subpl	r5, r7, r9, asr #30
    8244:	4d5f4f49 	ldclmi	15, cr4, [pc, #-292]	; 8128 <_Min_Stack_Size+0x7d28>
    8248:	69707061 	ldmdbvs	r0!, {r0, r5, r6, ip, sp, lr}^
    824c:	745f676e 	ldrbvc	r6, [pc], #-1902	; 8254 <_Min_Stack_Size+0x7e54>
    8250:	58457b29 	stmdapl	r5, {r0, r3, r5, r8, r9, fp, ip, sp, lr}^
    8254:	30314954 	eorscc	r4, r1, r4, asr r9
    8258:	5047202c 	subpl	r2, r7, ip, lsr #32
    825c:	2c414f49 	mcrrcs	15, 4, r4, r1, cr9
    8260:	49504720 	ldmdbmi	r0, {r5, r8, r9, sl, lr}^
    8264:	49505f4f 	ldmdbmi	r0, {r0, r1, r2, r3, r6, r8, r9, sl, fp, ip, lr}^
    8268:	30315f4e 	eorscc	r5, r1, lr, asr #30
    826c:	5845202c 	stmdapl	r5, {r2, r3, r5, sp}^
    8270:	30314954 	eorscc	r4, r1, r4, asr r9
    8274:	5152495f 	cmppl	r2, pc, asr r9
    8278:	5f007d20 	svcpl	0x00007d20
    827c:	5f66666f 	svcpl	0x0066666f
    8280:	5f5f0074 	svcpl	0x005f0074
    8284:	36544c46 	ldrbcc	r4, [r4], -r6, asr #24
    8288:	49445f34 	stmdbmi	r4, {r2, r4, r5, r8, r9, sl, fp, ip, lr}^
    828c:	205f5f47 	subscs	r5, pc, r7, asr #30
    8290:	5f003531 	svcpl	0x00003531
    8294:	4345445f 	movtmi	r4, #21599	; 0x545f
    8298:	455f3436 	ldrbmi	r3, [pc, #-1078]	; 7e6a <_Min_Stack_Size+0x7a6a>
    829c:	4c495350 	mcrrmi	3, 5, r5, r9, cr0
    82a0:	5f5f4e4f 	svcpl	0x005f4e4f
    82a4:	2d453120 	stfcse	f3, [r5, #-128]	; 0xffffff80
    82a8:	44443531 	strbmi	r3, [r4], #-1329	; 0xfffffacf
    82ac:	575f5f00 	ldrbpl	r5, [pc, -r0, lsl #30]
    82b0:	5f544e49 	svcpl	0x00544e49
    82b4:	5f58414d 	svcpl	0x0058414d
    82b8:	7830205f 	ldmdavc	r0!, {r0, r1, r2, r3, r4, r6, sp}
    82bc:	66666666 	strbtvs	r6, [r6], -r6, ror #12
    82c0:	66666666 	strbtvs	r6, [r6], -r6, ror #12
    82c4:	564e0055 			; <UNDEFINED> instruction: 0x564e0055
    82c8:	495f4349 	ldmdbmi	pc, {r0, r3, r6, r8, r9, lr}^	; <UNPREDICTABLE>
    82cc:	5f365152 	svcpl	0x00365152
    82d0:	49545845 	ldmdbmi	r4, {r0, r2, r6, fp, ip, lr}^
    82d4:	49445f30 	stmdbmi	r4, {r4, r5, r8, r9, sl, fp, ip, lr}^
    82d8:	4c424153 	stfmie	f4, [r2], {83}	; 0x53
    82dc:	4e282045 	cdpmi	0, 2, cr2, cr8, cr5, {2}
    82e0:	5f434956 	svcpl	0x00434956
    82e4:	52454349 	subpl	r4, r5, #603979777	; 0x24000001
    82e8:	3d7c2030 	ldclcc	0, cr2, [ip, #-192]!	; 0xffffff40
    82ec:	3c312820 	ldccc	8, cr2, [r1], #-128	; 0xffffff80
    82f0:	2929363c 	stmdbcs	r9!, {r2, r3, r4, r5, r9, sl, ip, sp}
    82f4:	495f5f00 	ldmdbmi	pc, {r8, r9, sl, fp, ip, lr}^	; <UNPREDICTABLE>
    82f8:	4c5f544e 	cfldrdmi	mvd5, [pc], {78}	; 0x4e
    82fc:	54534145 	ldrbpl	r4, [r3], #-325	; 0xfffffebb
    8300:	49575f38 	ldmdbmi	r7, {r3, r4, r5, r8, r9, sl, fp, ip, lr}^
    8304:	5f485444 	svcpl	0x00485444
    8308:	0038205f 	eorseq	r2, r8, pc, asr r0
    830c:	4545525f 	strbmi	r5, [r5, #-607]	; 0xfffffda1
    8310:	4d5f544e 	cfldrdmi	mvd5, [pc, #-312]	; 81e0 <_Min_Stack_Size+0x7de0>
    8314:	45525f50 	ldrbmi	r5, [r2, #-3920]	; 0xfffff0b0
    8318:	544c5553 	strbpl	r5, [ip], #-1363	; 0xfffffaad
    831c:	70284b5f 	eorvc	r4, r8, pc, asr fp
    8320:	20297274 	eorcs	r7, r9, r4, ror r2
    8324:	74702828 	ldrbtvc	r2, [r0], #-2088	; 0xfffff7d8
    8328:	3e2d2972 			; <UNDEFINED> instruction: 0x3e2d2972
    832c:	2d706d5f 	ldclcs	13, cr6, [r0, #-380]!	; 0xfffffe84
    8330:	65725f3e 	ldrbvs	r5, [r2, #-3902]!	; 0xfffff0c2
    8334:	746c7573 	strbtvc	r7, [ip], #-1395	; 0xfffffa8d
    8338:	00296b5f 	eoreq	r6, r9, pc, asr fp
    833c:	6f6c5f5f 	svcvs	0x006c5f5f
    8340:	645f676e 	ldrbvs	r6, [pc], #-1902	; 8348 <_Min_Stack_Size+0x7f48>
    8344:	6c62756f 	cfstr64vs	mvdx7, [r2], #-444	; 0xfffffe44
    8348:	20745f65 	rsbscs	r5, r4, r5, ror #30
    834c:	676e6f6c 	strbvs	r6, [lr, -ip, ror #30]!
    8350:	756f6420 	strbvc	r6, [pc, #-1056]!	; 7f38 <_Min_Stack_Size+0x7b38>
    8354:	00656c62 	rsbeq	r6, r5, r2, ror #24
    8358:	4e495f5f 	mcrmi	15, 2, r5, cr9, cr15, {2}
    835c:	454c5f54 	strbmi	r5, [ip, #-3924]	; 0xfffff0ac
    8360:	31545341 	cmpcc	r4, r1, asr #6
    8364:	59545f36 	ldmdbpl	r4, {r1, r2, r4, r5, r8, r9, sl, fp, ip, lr}^
    8368:	5f5f4550 	svcpl	0x005f4550
    836c:	6f687320 	svcvs	0x00687320
    8370:	69207472 	stmdbvs	r0!, {r1, r4, r5, r6, sl, ip, sp, lr}
    8374:	5f00746e 	svcpl	0x0000746e
    8378:	00646461 	rsbeq	r6, r4, r1, ror #8
    837c:	51515f5f 	cmppl	r1, pc, asr pc
    8380:	4942465f 	stmdbmi	r2, {r0, r1, r2, r3, r4, r6, r9, sl, lr}^
    8384:	205f5f54 	subscs	r5, pc, r4, asr pc	; <UNPREDICTABLE>
    8388:	5f5f0037 	svcpl	0x005f0037
    838c:	5f4c4244 	svcpl	0x004c4244
    8390:	5f58414d 	svcpl	0x0058414d
    8394:	2828205f 	stmdacs	r8!, {r0, r1, r2, r3, r4, r6, sp}
    8398:	62756f64 	rsbsvs	r6, r5, #100, 30	; 0x190
    839c:	3129656c 			; <UNDEFINED> instruction: 0x3129656c
    83a0:	3739372e 	ldrcc	r3, [r9, -lr, lsr #14]!
    83a4:	31333936 	teqcc	r3, r6, lsr r9
    83a8:	36383433 			; <UNDEFINED> instruction: 0x36383433
    83ac:	35313332 	ldrcc	r3, [r1, #-818]!	; 0xfffffcce
    83b0:	332b6537 			; <UNDEFINED> instruction: 0x332b6537
    83b4:	294c3830 	stmdbcs	ip, {r4, r5, fp, ip, sp}^
    83b8:	4c5f5f00 	mrrcmi	15, 0, r5, pc, cr0	; <UNPREDICTABLE>
    83bc:	4152464c 	cmpmi	r2, ip, asr #12
    83c0:	465f5443 	ldrbmi	r5, [pc], -r3, asr #8
    83c4:	5f544942 	svcpl	0x00544942
    83c8:	3336205f 	teqcc	r6, #95	; 0x5f
    83cc:	745f5f00 	ldrbvc	r5, [pc], #-3840	; 83d4 <_Min_Stack_Size+0x7fd4>
    83d0:	6f685f6d 	svcvs	0x00685f6d
    83d4:	5f007275 	svcpl	0x00007275
    83d8:	7568745f 	strbvc	r7, [r8, #-1119]!	; 0xfffffba1
    83dc:	5f5f626d 	svcpl	0x005f626d
    83e0:	5f003120 	svcpl	0x00003120
    83e4:	4946735f 	stmdbmi	r6, {r0, r1, r2, r3, r4, r6, r8, r9, ip, sp, lr}^
    83e8:	5f00454c 	svcpl	0x0000454c
    83ec:	4d52415f 	ldfmie	f4, [r2, #-380]	; 0xfffffe84
    83f0:	5f5f4c45 	svcpl	0x005f4c45
    83f4:	5f003120 	svcpl	0x00003120
    83f8:	4d544e49 	ldclmi	14, cr4, [r4, #-292]	; 0xfffffedc
    83fc:	545f5841 	ldrbpl	r5, [pc], #-2113	; 8404 <_Min_Stack_Size+0x8004>
    8400:	4345445f 	movtmi	r4, #21599	; 0x545f
    8404:	4552414c 	ldrbmi	r4, [r2, #-332]	; 0xfffffeb4
    8408:	5f002044 	svcpl	0x00002044
    840c:	726f665f 	rsbvc	r6, pc, #99614720	; 0x5f00000
    8410:	5f74616d 	svcpl	0x0074616d
    8414:	28677261 	stmdacs	r7!, {r0, r5, r6, r9, ip, sp, lr}^
    8418:	61746d66 	cmnvs	r4, r6, ror #26
    841c:	20296772 	eorcs	r6, r9, r2, ror r7
    8420:	74615f5f 	strbtvc	r5, [r1], #-3935	; 0xfffff0a1
    8424:	62697274 	rsbvs	r7, r9, #116, 4	; 0x40000007
    8428:	5f657475 	svcpl	0x00657475
    842c:	5f28285f 	svcpl	0x0028285f
    8430:	726f665f 	rsbvc	r6, pc, #99614720	; 0x5f00000
    8434:	5f74616d 	svcpl	0x0074616d
    8438:	5f677261 	svcpl	0x00677261
    843c:	6628205f 			; <UNDEFINED> instruction: 0x6628205f
    8440:	7261746d 	rsbvc	r7, r1, #1828716544	; 0x6d000000
    8444:	29292967 	stmdbcs	r9!, {r0, r1, r2, r5, r6, r8, fp, sp}
    8448:	635f5f00 	cmpvs	pc, #0, 30
    844c:	69706d6f 	ldmdbvs	r0!, {r0, r1, r2, r3, r5, r6, r8, sl, fp, sp, lr}^
    8450:	5f72656c 	svcpl	0x0072656c
    8454:	626d656d 	rsbvs	r6, sp, #457179136	; 0x1b400000
    8458:	29287261 	stmdbcs	r8!, {r0, r5, r6, r9, ip, sp, lr}
    845c:	615f5f20 	cmpvs	pc, r0, lsr #30
    8460:	5f206d73 	svcpl	0x00206d73
    8464:	6c6f765f 	stclvs	6, cr7, [pc], #-380	; 82f0 <_Min_Stack_Size+0x7ef0>
    8468:	6c697461 	cfstrdvs	mvd7, [r9], #-388	; 0xfffffe7c
    846c:	20222865 	eorcs	r2, r2, r5, ror #16
    8470:	203a2022 	eorscs	r2, sl, r2, lsr #32
    8474:	203a203a 	eorscs	r2, sl, sl, lsr r0
    8478:	6d656d22 	stclvs	13, cr6, [r5, #-136]!	; 0xffffff78
    847c:	2279726f 	rsbscs	r7, r9, #-268435450	; 0xf0000006
    8480:	5f5f0029 	svcpl	0x005f0029
    8484:	465f5148 	ldrbmi	r5, [pc], -r8, asr #2
    8488:	5f544942 	svcpl	0x00544942
    848c:	3531205f 	ldrcc	r2, [r1, #-95]!	; 0xffffffa1
    8490:	645f5f00 	ldrbvs	r5, [pc], #-3840	; 8498 <_Min_Stack_Size+0x8098>
    8494:	74617461 	strbtvc	r7, [r1], #-1121	; 0xfffffb9f
    8498:	5f657079 	svcpl	0x00657079
    849c:	65707974 	ldrbvs	r7, [r0, #-2420]!	; 0xfffff68c
    84a0:	6761745f 			; <UNDEFINED> instruction: 0x6761745f
    84a4:	6e696b28 	vmulvs.f64	d22, d9, d24
    84a8:	79742c64 	ldmdbvc	r4!, {r2, r5, r6, sl, fp, sp}^
    84ac:	20296570 	eorcs	r6, r9, r0, ror r5
    84b0:	6c5f5f00 	mrrcvs	15, 0, r5, pc, cr0	; <UNPREDICTABLE>
    84b4:	5f6b636f 	svcpl	0x006b636f
    84b8:	5f797274 	svcpl	0x00797274
    84bc:	75716361 	ldrbvc	r6, [r1, #-865]!	; 0xfffffc9f
    84c0:	5f657269 	svcpl	0x00657269
    84c4:	75636572 	strbvc	r6, [r3, #-1394]!	; 0xfffffa8e
    84c8:	76697372 			; <UNDEFINED> instruction: 0x76697372
    84cc:	6f6c2865 	svcvs	0x006c2865
    84d0:	20296b63 	eorcs	r6, r9, r3, ror #22
    84d4:	6f762828 	svcvs	0x00762828
    84d8:	20296469 	eorcs	r6, r9, r9, ror #8
    84dc:	5f002930 	svcpl	0x00002930
    84e0:	5a49535f 	bpl	125d264 <_Min_Stack_Size+0x125ce64>
    84e4:	414d5f45 	cmpmi	sp, r5, asr #30
    84e8:	205f5f58 	subscs	r5, pc, r8, asr pc	; <UNPREDICTABLE>
    84ec:	66667830 			; <UNDEFINED> instruction: 0x66667830
    84f0:	66666666 	strbtvs	r6, [r6], -r6, ror #12
    84f4:	00556666 	subseq	r6, r5, r6, ror #12
    84f8:	4f495047 	svcmi	0x00495047
    84fc:	4e49505f 	mcrmi	0, 2, r5, cr9, cr15, {2}
    8500:	5345525f 	movtpl	r5, #21087	; 0x525f
    8504:	30205445 	eorcc	r5, r0, r5, asr #8
    8508:	626d5f00 	rsbvs	r5, sp, #0, 30
    850c:	6f747273 	svcvs	0x00747273
    8510:	5f736377 	svcpl	0x00736377
    8514:	74617473 	strbtvc	r7, [r1], #-1139	; 0xfffffb8d
    8518:	5f5f0065 	svcpl	0x005f0065
    851c:	36544e49 	ldrbcc	r4, [r4], -r9, asr #28
    8520:	6c222034 	stcvs	0, cr2, [r2], #-208	; 0xffffff30
    8524:	5500226c 	strpl	r2, [r0, #-620]	; 0xfffffd94
    8528:	38544e49 	ldmdacc	r4, {r0, r3, r6, r9, sl, fp, lr}^
    852c:	58414d5f 	stmdapl	r1, {r0, r1, r2, r3, r4, r6, r8, sl, fp, lr}^
    8530:	5f5f2820 	svcpl	0x005f2820
    8534:	544e4955 	strbpl	r4, [lr], #-2389	; 0xfffff6ab
    8538:	414d5f38 	cmpmi	sp, r8, lsr pc
    853c:	295f5f58 	ldmdbcs	pc, {r3, r4, r6, r8, r9, sl, fp, ip, lr}^	; <UNPREDICTABLE>
    8540:	4c5f5f00 	mrrcmi	15, 0, r5, pc, cr0	; <UNPREDICTABLE>
    8544:	5f474e4f 	svcpl	0x00474e4f
    8548:	5f58414d 	svcpl	0x0058414d
    854c:	7830205f 	ldmdavc	r0!, {r0, r1, r2, r3, r4, r6, sp}
    8550:	66666637 			; <UNDEFINED> instruction: 0x66666637
    8554:	66666666 	strbtvs	r6, [r6], -r6, ror #12
    8558:	5f5f004c 	svcpl	0x005f004c
    855c:	616c6f76 	smcvs	50934	; 0xc6f6
    8560:	656c6974 	strbvs	r6, [ip, #-2420]!	; 0xfffff68c
    8564:	6c6f7620 	stclvs	6, cr7, [pc], #-128	; 84ec <_Min_Stack_Size+0x80ec>
    8568:	6c697461 	cfstrdvs	mvd7, [r9], #-388	; 0xfffffe7c
    856c:	5f5f0065 	svcpl	0x005f0065
    8570:	5f4c4244 	svcpl	0x004c4244
    8574:	5f534148 	svcpl	0x00534148
    8578:	49464e49 	stmdbmi	r6, {r0, r3, r6, r9, sl, fp, lr}^
    857c:	5954494e 	ldmdbpl	r4, {r1, r2, r3, r6, r8, fp, lr}^
    8580:	31205f5f 			; <UNDEFINED> instruction: 0x31205f5f
    8584:	554e4700 	strbpl	r4, [lr, #-1792]	; 0xfffff900
    8588:	31314320 	teqcc	r1, r0, lsr #6
    858c:	332e3720 			; <UNDEFINED> instruction: 0x332e3720
    8590:	3220312e 	eorcc	r3, r0, #-2147483637	; 0x8000000b
    8594:	30383130 	eorscc	r3, r8, r0, lsr r1
    8598:	20323236 	eorscs	r3, r2, r6, lsr r2
    859c:	6c657228 	sfmvs	f7, 2, [r5], #-160	; 0xffffff60
    85a0:	65736165 	ldrbvs	r6, [r3, #-357]!	; 0xfffffe9b
    85a4:	415b2029 	cmpmi	fp, r9, lsr #32
    85a8:	652f4d52 	strvs	r4, [pc, #-3410]!	; 785e <_Min_Stack_Size+0x745e>
    85ac:	6465626d 	strbtvs	r6, [r5], #-621	; 0xfffffd93
    85b0:	2d646564 	cfstr64cs	mvdx6, [r4, #-400]!	; 0xfffffe70
    85b4:	72622d37 	rsbvc	r2, r2, #3520	; 0xdc0
    85b8:	68636e61 	stmdavs	r3!, {r0, r5, r6, r9, sl, fp, sp, lr}^
    85bc:	76657220 	strbtvc	r7, [r5], -r0, lsr #4
    85c0:	6f697369 	svcvs	0x00697369
    85c4:	3632206e 	ldrtcc	r2, [r2], -lr, rrx
    85c8:	37303931 			; <UNDEFINED> instruction: 0x37303931
    85cc:	6d2d205d 	stcvs	0, cr2, [sp, #-372]!	; 0xfffffe8c
    85d0:	3d757063 	ldclcc	0, cr7, [r5, #-396]!	; 0xfffffe74
    85d4:	74726f63 	ldrbtvc	r6, [r2], #-3939	; 0xfffff09d
    85d8:	6d2d7865 	stcvs	8, cr7, [sp, #-404]!	; 0xfffffe6c
    85dc:	6d2d2033 	stcvs	0, cr2, [sp, #-204]!	; 0xffffff34
    85e0:	616f6c66 	cmnvs	pc, r6, ror #24
    85e4:	62612d74 	rsbvs	r2, r1, #116, 26	; 0x1d00
    85e8:	6f733d69 	svcvs	0x00733d69
    85ec:	2d207466 	cfstrscs	mvf7, [r0, #-408]!	; 0xfffffe68
    85f0:	7568746d 	strbvc	r7, [r8, #-1133]!	; 0xfffffb93
    85f4:	2d20626d 	sfmcs	f6, 4, [r0, #-436]!	; 0xfffffe4c
    85f8:	61776467 	cmnvs	r7, r7, ror #8
    85fc:	322d6672 	eorcc	r6, sp, #119537664	; 0x7200000
    8600:	33672d20 	cmncc	r7, #32, 26	; 0x800
    8604:	304f2d20 	subcc	r2, pc, r0, lsr #26
    8608:	74732d20 	ldrbtvc	r2, [r3], #-3360	; 0xfffff2e0
    860c:	6e673d64 	cdpvs	13, 6, cr3, cr7, cr4, {3}
    8610:	20313175 	eorscs	r3, r1, r5, ror r1
    8614:	7566662d 	strbvc	r6, [r6, #-1581]!	; 0xfffff9d3
    8618:	6974636e 	ldmdbvs	r4!, {r1, r2, r3, r5, r6, r8, r9, sp, lr}^
    861c:	732d6e6f 			; <UNDEFINED> instruction: 0x732d6e6f
    8620:	69746365 	ldmdbvs	r4!, {r0, r2, r5, r6, r8, r9, sp, lr}^
    8624:	20736e6f 	rsbscs	r6, r3, pc, ror #28
    8628:	6164662d 	cmnvs	r4, sp, lsr #12
    862c:	732d6174 			; <UNDEFINED> instruction: 0x732d6174
    8630:	69746365 	ldmdbvs	r4!, {r0, r2, r5, r6, r8, r9, sp, lr}^
    8634:	20736e6f 	rsbscs	r6, r3, pc, ror #28
    8638:	7473662d 	ldrbtvc	r6, [r3], #-1581	; 0xfffff9d3
    863c:	2d6b6361 	stclcs	3, cr6, [fp, #-388]!	; 0xfffffe7c
    8640:	67617375 			; <UNDEFINED> instruction: 0x67617375
    8644:	6f6c0065 	svcvs	0x006c0065
    8648:	2b20676e 	blcs	822408 <_Min_Stack_Size+0x822008>
    864c:	50470034 	subpl	r0, r7, r4, lsr r0
    8650:	4d5f4f49 	ldclmi	15, cr4, [pc, #-292]	; 8534 <_Min_Stack_Size+0x8134>
    8654:	5f45444f 	svcpl	0x0045444f
    8658:	5054554f 	subspl	r5, r4, pc, asr #10
    865c:	4f5f5455 	svcmi	0x005f5455
    8660:	78302044 	ldmdavc	r0!, {r2, r6, sp}
    8664:	30303030 	eorscc	r3, r0, r0, lsr r0
    8668:	35303030 	ldrcc	r3, [r0, #-48]!	; 0xffffffd0
    866c:	5f5f0075 	svcpl	0x005f0075
    8670:	6e6e6f6e 	cdpvs	15, 6, cr6, cr14, cr14, {3}
    8674:	286c6c75 	stmdacs	ip!, {r0, r2, r4, r5, r6, sl, fp, sp, lr}^
    8678:	5f202978 	svcpl	0x00202978
    867c:	7474615f 	ldrbtvc	r6, [r4], #-351	; 0xfffffea1
    8680:	75626972 	strbvc	r6, [r2, #-2418]!	; 0xfffff68e
    8684:	5f5f6574 	svcpl	0x005f6574
    8688:	5f5f2828 	svcpl	0x005f2828
    868c:	6e6e6f6e 	cdpvs	15, 6, cr6, cr14, cr14, {3}
    8690:	5f6c6c75 	svcpl	0x006c6c75
    8694:	2978205f 	ldmdbcs	r8!, {r0, r1, r2, r3, r4, r6, sp}^
    8698:	525f0029 	subspl	r0, pc, #41	; 0x29
    869c:	34444e41 	strbcc	r4, [r4], #-3649	; 0xfffff1bf
    86a0:	44415f38 	strbmi	r5, [r1], #-3896	; 0xfffff0c8
    86a4:	30282044 	eorcc	r2, r8, r4, asr #32
    86a8:	30303078 	eorscc	r3, r0, r8, ror r0
    86ac:	45002962 	strmi	r2, [r0, #-2402]	; 0xfffff69e
    86b0:	5f544958 	svcpl	0x00544958
    86b4:	4c494146 	stfmie	f4, [r9], {70}	; 0x46
    86b8:	20455255 	subcs	r5, r5, r5, asr r2
    86bc:	58450031 	stmdapl	r5, {r0, r4, r5}^
    86c0:	33314954 	teqcc	r1, #84, 18	; 0x150000
    86c4:	00333120 	eorseq	r3, r3, r0, lsr #2
    86c8:	52415f5f 	subpl	r5, r1, #380	; 0x17c
    86cc:	45465f4d 	strbmi	r5, [r6, #-3917]	; 0xfffff0b3
    86d0:	52555441 	subspl	r5, r5, #1090519040	; 0x41000000
    86d4:	444c5f45 	strbmi	r5, [ip], #-3909	; 0xfffff0bb
    86d8:	20584552 	subscs	r4, r8, r2, asr r5
    86dc:	58450037 	stmdapl	r5, {r0, r1, r2, r4, r5}^
    86e0:	50394954 	eorspl	r4, r9, r4, asr r9
    86e4:	28203944 	stmdacs	r0!, {r2, r6, r8, fp, ip, sp}
    86e8:	49545845 	ldmdbmi	r4, {r0, r2, r6, fp, ip, lr}^
    86ec:	4950475f 	ldmdbmi	r0, {r0, r1, r2, r3, r4, r6, r8, r9, sl, lr}^
    86f0:	614d5f4f 	cmpvs	sp, pc, asr #30
    86f4:	6e697070 	mcrvs	0, 3, r7, cr9, cr0, {3}
    86f8:	29745f67 	ldmdbcs	r4!, {r0, r1, r2, r5, r6, r8, r9, sl, fp, ip, lr}^
    86fc:	5458457b 	ldrbpl	r4, [r8], #-1403	; 0xfffffa85
    8700:	202c3949 	eorcs	r3, ip, r9, asr #18
    8704:	4f495047 	svcmi	0x00495047
    8708:	47202c44 	strmi	r2, [r0, -r4, asr #24]!
    870c:	5f4f4950 	svcpl	0x004f4950
    8710:	5f4e4950 	svcpl	0x004e4950
    8714:	45202c39 	strmi	r2, [r0, #-3129]!	; 0xfffff3c7
    8718:	39495458 	stmdbcc	r9, {r3, r4, r6, sl, ip, lr}^
    871c:	5152495f 	cmppl	r2, pc, asr r9
    8720:	45007d20 	strmi	r7, [r0, #-3360]	; 0xfffff2e0
    8724:	31495458 	cmpcc	r9, r8, asr r4
    8728:	31415033 	cmpcc	r1, r3, lsr r0
    872c:	45282033 	strmi	r2, [r8, #-51]!	; 0xffffffcd
    8730:	5f495458 	svcpl	0x00495458
    8734:	4f495047 	svcmi	0x00495047
    8738:	70614d5f 	rsbvc	r4, r1, pc, asr sp
    873c:	676e6970 			; <UNDEFINED> instruction: 0x676e6970
    8740:	7b29745f 	blvc	a658c4 <_Min_Stack_Size+0xa654c4>
    8744:	49545845 	ldmdbmi	r4, {r0, r2, r6, fp, ip, lr}^
    8748:	202c3331 	eorcs	r3, ip, r1, lsr r3
    874c:	4f495047 	svcmi	0x00495047
    8750:	47202c41 	strmi	r2, [r0, -r1, asr #24]!
    8754:	5f4f4950 	svcpl	0x004f4950
    8758:	5f4e4950 	svcpl	0x004e4950
    875c:	202c3331 	eorcs	r3, ip, r1, lsr r3
    8760:	49545845 	ldmdbmi	r4, {r0, r2, r6, fp, ip, lr}^
    8764:	495f3331 	ldmdbmi	pc, {r0, r4, r5, r8, r9, ip, sp}^	; <UNPREDICTABLE>
    8768:	7d205152 	stfvcs	f5, [r0, #-328]!	; 0xfffffeb8
    876c:	4e495f00 	cdpmi	15, 4, cr5, cr9, cr0, {0}
    8770:	5f323354 	svcpl	0x00323354
    8774:	4c5f5145 	ldfmie	f5, [pc], {69}	; 0x45
    8778:	20474e4f 	subcs	r4, r7, pc, asr #28
    877c:	45525f00 	ldrbmi	r5, [r2, #-3840]	; 0xfffff100
    8780:	5f544e45 	svcpl	0x00544e45
    8784:	54435341 	strbpl	r5, [r3], #-833	; 0xfffffcbf
    8788:	5f454d49 	svcpl	0x00454d49
    878c:	455a4953 	ldrbmi	r4, [sl, #-2387]	; 0xfffff6ad
    8790:	00363220 	eorseq	r3, r6, r0, lsr #4
    8794:	20434352 	subcs	r4, r3, r2, asr r3
    8798:	43522828 	cmpmi	r2, #40, 16	; 0x280000
    879c:	79545f43 	ldmdbvc	r4, {r0, r1, r6, r8, r9, sl, fp, ip, lr}^
    87a0:	65446570 	strbvs	r6, [r4, #-1392]	; 0xfffffa90
    87a4:	52292a66 	eorpl	r2, r9, #417792	; 0x66000
    87a8:	425f4343 	subsmi	r4, pc, #201326593	; 0xc000001
    87ac:	29455341 	stmdbcs	r5, {r0, r6, r8, r9, ip, lr}^
    87b0:	4c5f5f00 	mrrcmi	15, 0, r5, pc, cr0	; <UNPREDICTABLE>
    87b4:	4152464c 	cmpmi	r2, ip, asr #12
    87b8:	455f5443 	ldrbmi	r5, [pc, #-1091]	; 837d <_Min_Stack_Size+0x7f7d>
    87bc:	4c495350 	mcrrmi	3, 5, r5, r9, cr0
    87c0:	5f5f4e4f 	svcpl	0x005f4e4f
    87c4:	31783020 	cmncc	r8, r0, lsr #32
    87c8:	33362d50 	teqcc	r6, #80, 26	; 0x1400
    87cc:	00524c4c 	subseq	r4, r2, ip, asr #24
    87d0:	52415f5f 	subpl	r5, r1, #380	; 0x17c
    87d4:	45465f4d 	strbmi	r5, [r6, #-3917]	; 0xfffff0b3
    87d8:	52555441 	subspl	r5, r5, #1090519040	; 0x41000000
    87dc:	49535f45 	ldmdbmi	r3, {r0, r2, r6, r8, r9, sl, fp, ip, lr}^
    87e0:	3233444d 	eorscc	r4, r3, #1291845632	; 0x4d000000
    87e4:	6c5f5f00 	mrrcvs	15, 0, r5, pc, cr0	; <UNPREDICTABLE>
    87e8:	5f6b636f 	svcpl	0x006b636f
    87ec:	75716361 	ldrbvc	r6, [r1, #-865]!	; 0xfffffc9f
    87f0:	5f657269 	svcpl	0x00657269
    87f4:	75636572 	strbvc	r6, [r3, #-1394]!	; 0xfffffa8e
    87f8:	76697372 			; <UNDEFINED> instruction: 0x76697372
    87fc:	6f6c2865 	svcvs	0x006c2865
    8800:	20296b63 	eorcs	r6, r9, r3, ror #22
    8804:	6f762828 	svcvs	0x00762828
    8808:	20296469 	eorcs	r6, r9, r9, ror #8
    880c:	45002930 	strmi	r2, [r0, #-2352]	; 0xfffff6d0
    8810:	38495458 	stmdacc	r9, {r3, r4, r6, sl, ip, lr}^
    8814:	47003820 	strmi	r3, [r0, -r0, lsr #16]
    8818:	5f4f4950 	svcpl	0x004f4950
    881c:	5f4e4950 	svcpl	0x004e4950
    8820:	28203131 	stmdacs	r0!, {r0, r4, r5, r8, ip, sp}
    8824:	6e697528 	cdpvs	5, 6, cr7, cr9, cr8, {1}
    8828:	5f363174 	svcpl	0x00363174
    882c:	78302974 	ldmdavc	r0!, {r2, r4, r5, r6, r8, fp, sp}
    8830:	30303830 	eorscc	r3, r0, r0, lsr r8
    8834:	5f5f0029 	svcpl	0x005f0029
    8838:	41484357 	cmpmi	r8, r7, asr r3
    883c:	49575f52 	ldmdbmi	r7, {r1, r4, r6, r8, r9, sl, fp, ip, lr}^
    8840:	5f485444 	svcpl	0x00485444
    8844:	3233205f 	eorscc	r2, r3, #95	; 0x5f
    8848:	4e495f00 	cdpmi	15, 4, cr5, cr9, cr0, {0}
    884c:	5f343654 	svcpl	0x00343654
    8850:	45445f54 	strbmi	r5, [r4, #-3924]	; 0xfffff0ac
    8854:	52414c43 	subpl	r4, r1, #17152	; 0x4300
    8858:	00204445 	eoreq	r4, r0, r5, asr #8
    885c:	67735f5f 			; <UNDEFINED> instruction: 0x67735f5f
    8860:	0065756c 	rsbeq	r7, r5, ip, ror #10
    8864:	49545845 	ldmdbmi	r4, {r0, r2, r6, fp, ip, lr}^
    8868:	36445036 			; <UNDEFINED> instruction: 0x36445036
    886c:	58452820 	stmdapl	r5, {r5, fp, sp}^
    8870:	475f4954 			; <UNDEFINED> instruction: 0x475f4954
    8874:	5f4f4950 	svcpl	0x004f4950
    8878:	7070614d 	rsbsvc	r6, r0, sp, asr #2
    887c:	5f676e69 	svcpl	0x00676e69
    8880:	457b2974 	ldrbmi	r2, [fp, #-2420]!	; 0xfffff68c
    8884:	36495458 			; <UNDEFINED> instruction: 0x36495458
    8888:	5047202c 	subpl	r2, r7, ip, lsr #32
    888c:	2c444f49 	mcrrcs	15, 4, r4, r4, cr9
    8890:	49504720 	ldmdbmi	r0, {r5, r8, r9, sl, lr}^
    8894:	49505f4f 	ldmdbmi	r0, {r0, r1, r2, r3, r6, r8, r9, sl, fp, ip, lr}^
    8898:	2c365f4e 	ldccs	15, cr5, [r6], #-312	; 0xfffffec8
    889c:	54584520 	ldrbpl	r4, [r8], #-1312	; 0xfffffae0
    88a0:	495f3649 	ldmdbmi	pc, {r0, r3, r6, r9, sl, ip, sp}^	; <UNPREDICTABLE>
    88a4:	7d205152 	stfvcs	f5, [r0, #-328]!	; 0xfffffeb8
    88a8:	495f5f00 	ldmdbmi	pc, {r8, r9, sl, fp, ip, lr}^	; <UNPREDICTABLE>
    88ac:	3631544e 	ldrtcc	r5, [r1], -lr, asr #8
    88b0:	6328435f 			; <UNDEFINED> instruction: 0x6328435f
    88b4:	00632029 	rsbeq	r2, r3, r9, lsr #32
    88b8:	5f545649 	svcpl	0x00545649
    88bc:	5f515249 	svcpl	0x00515249
    88c0:	626d754e 	rsbvs	r7, sp, #327155712	; 0x13800000
    88c4:	5f007265 	svcpl	0x00007265
    88c8:	5f41445f 	svcpl	0x0041445f
    88cc:	54494249 	strbpl	r4, [r9], #-585	; 0xfffffdb7
    88d0:	33205f5f 			; <UNDEFINED> instruction: 0x33205f5f
    88d4:	50470032 	subpl	r0, r7, r2, lsr r0
    88d8:	5f454f49 	svcpl	0x00454f49
    88dc:	45534142 	ldrbmi	r4, [r3, #-322]	; 0xfffffebe
    88e0:	34783020 	ldrbtcc	r3, [r8], #-32	; 0xffffffe0
    88e4:	31313030 	teqcc	r1, r0, lsr r0
    88e8:	55303038 	ldrpl	r3, [r0, #-56]!	; 0xffffffc8
    88ec:	5f5f004c 	svcpl	0x005f004c
    88f0:	66727473 			; <UNDEFINED> instruction: 0x66727473
    88f4:	656d6974 	strbvs	r6, [sp, #-2420]!	; 0xfffff68c
    88f8:	656b696c 	strbvs	r6, [fp, #-2412]!	; 0xfffff694
    88fc:	746d6628 	strbtvc	r6, [sp], #-1576	; 0xfffff9d8
    8900:	2c677261 	sfmcs	f7, 2, [r7], #-388	; 0xfffffe7c
    8904:	73726966 	cmnvc	r2, #1671168	; 0x198000
    8908:	72617674 	rsbvc	r7, r1, #116, 12	; 0x7400000
    890c:	29677261 	stmdbcs	r7!, {r0, r5, r6, r9, ip, sp, lr}^
    8910:	615f5f20 	cmpvs	pc, r0, lsr #30
    8914:	69727474 	ldmdbvs	r2!, {r2, r4, r5, r6, sl, ip, sp, lr}^
    8918:	65747562 	ldrbvs	r7, [r4, #-1378]!	; 0xfffffa9e
    891c:	28285f5f 	stmdacs	r8!, {r0, r1, r2, r3, r4, r6, r8, r9, sl, fp, ip, lr}
    8920:	6f665f5f 	svcvs	0x00665f5f
    8924:	74616d72 	strbtvc	r6, [r1], #-3442	; 0xfffff28e
    8928:	28205f5f 	stmdacs	r0!, {r0, r1, r2, r3, r4, r6, r8, r9, sl, fp, ip, lr}
    892c:	74735f5f 	ldrbtvc	r5, [r3], #-3935	; 0xfffff0a1
    8930:	69746672 	ldmdbvs	r4!, {r1, r4, r5, r6, r9, sl, sp, lr}^
    8934:	5f5f656d 	svcpl	0x005f656d
    8938:	6d66202c 	stclvs	0, cr2, [r6, #-176]!	; 0xffffff50
    893c:	67726174 			; <UNDEFINED> instruction: 0x67726174
    8940:	6966202c 	stmdbvs	r6!, {r2, r3, r5, sp}^
    8944:	76747372 			; <UNDEFINED> instruction: 0x76747372
    8948:	72617261 	rsbvc	r7, r1, #268435462	; 0x10000006
    894c:	29292967 	stmdbcs	r9!, {r0, r1, r2, r5, r6, r8, fp, sp}
    8950:	745f5f00 	ldrbvc	r5, [pc], #-3840	; 8958 <_Min_Stack_Size+0x8558>
    8954:	73695f6d 	cmnvc	r9, #436	; 0x1b4
    8958:	00747364 	rsbseq	r7, r4, r4, ror #6
    895c:	45445f5f 	strbmi	r5, [r4, #-3935]	; 0xfffff0a1
    8960:	4c415551 	cfstr64mi	mvdx5, [r1], {81}	; 0x51
    8964:	28594649 	ldmdacs	r9, {r0, r3, r6, r9, sl, lr}^
    8968:	65707974 	ldrbvs	r7, [r0, #-2420]!	; 0xfffff68c
    896c:	7261762c 	rsbvc	r7, r1, #44, 12	; 0x2c00000
    8970:	28282029 	stmdacs	r8!, {r0, r3, r5, sp}
    8974:	65707974 	ldrbvs	r7, [r0, #-2420]!	; 0xfffff68c
    8978:	5f5f2829 	svcpl	0x005f2829
    897c:	746e6975 	strbtvc	r6, [lr], #-2421	; 0xfffff68b
    8980:	5f727470 	svcpl	0x00727470
    8984:	63282974 			; <UNDEFINED> instruction: 0x63282974
    8988:	74736e6f 	ldrbtvc	r6, [r3], #-3695	; 0xfffff191
    898c:	6c6f7620 	stclvs	6, cr7, [pc], #-128	; 8914 <_Min_Stack_Size+0x8514>
    8990:	6c697461 	cfstrdvs	mvd7, [r9], #-388	; 0xfffffe7c
    8994:	6f762065 	svcvs	0x00762065
    8998:	2a206469 	bcs	821b44 <_Min_Stack_Size+0x821744>
    899c:	61762829 	cmnvs	r6, r9, lsr #16
    89a0:	00292972 	eoreq	r2, r9, r2, ror r9
    89a4:	49545845 	ldmdbmi	r4, {r0, r2, r6, fp, ip, lr}^
    89a8:	34415034 	strbcc	r5, [r1], #-52	; 0xffffffcc
    89ac:	58452820 	stmdapl	r5, {r5, fp, sp}^
    89b0:	475f4954 			; <UNDEFINED> instruction: 0x475f4954
    89b4:	5f4f4950 	svcpl	0x004f4950
    89b8:	7070614d 	rsbsvc	r6, r0, sp, asr #2
    89bc:	5f676e69 	svcpl	0x00676e69
    89c0:	457b2974 	ldrbmi	r2, [fp, #-2420]!	; 0xfffff68c
    89c4:	34495458 	strbcc	r5, [r9], #-1112	; 0xfffffba8
    89c8:	5047202c 	subpl	r2, r7, ip, lsr #32
    89cc:	2c414f49 	mcrrcs	15, 4, r4, r1, cr9
    89d0:	49504720 	ldmdbmi	r0, {r5, r8, r9, sl, lr}^
    89d4:	49505f4f 	ldmdbmi	r0, {r0, r1, r2, r3, r6, r8, r9, sl, fp, ip, lr}^
    89d8:	2c345f4e 	ldccs	15, cr5, [r4], #-312	; 0xfffffec8
    89dc:	54584520 	ldrbpl	r4, [r8], #-1312	; 0xfffffae0
    89e0:	495f3449 	ldmdbmi	pc, {r0, r3, r6, sl, ip, sp}^	; <UNPREDICTABLE>
    89e4:	7d205152 	stfvcs	f5, [r0, #-328]!	; 0xfffffeb8
    89e8:	415f5f00 	cmpmi	pc, r0, lsl #30
    89ec:	494d4f54 	stmdbmi	sp, {r2, r4, r6, r8, r9, sl, fp, lr}^
    89f0:	43415f43 	movtmi	r5, #8003	; 0x1f43
    89f4:	45525f51 	ldrbmi	r5, [r2, #-3921]	; 0xfffff0af
    89f8:	0034204c 	eorseq	r2, r4, ip, asr #32
    89fc:	4349564e 	movtmi	r5, #38478	; 0x964e
    8a00:	5152495f 	cmppl	r2, pc, asr r9
    8a04:	58455f36 	stmdapl	r5, {r1, r2, r4, r5, r8, r9, sl, fp, ip, lr}^
    8a08:	5f314954 	svcpl	0x00314954
    8a0c:	41534944 	cmpmi	r3, r4, asr #18
    8a10:	20454c42 	subcs	r4, r5, r2, asr #24
    8a14:	49564e28 	ldmdbmi	r6, {r3, r5, r9, sl, fp, lr}^
    8a18:	43495f43 	movtmi	r5, #40771	; 0x9f43
    8a1c:	20305245 	eorscs	r5, r0, r5, asr #4
    8a20:	28203d7c 	stmdacs	r0!, {r2, r3, r4, r5, r6, r8, sl, fp, ip, sp}
    8a24:	373c3c31 			; <UNDEFINED> instruction: 0x373c3c31
    8a28:	5f002929 	svcpl	0x00002929
    8a2c:	5f51485f 	svcpl	0x0051485f
    8a30:	54494249 	strbpl	r4, [r9], #-585	; 0xfffffdb7
    8a34:	30205f5f 	eorcc	r5, r0, pc, asr pc
    8a38:	705f5f00 	subsvc	r5, pc, r0, lsl #30
    8a3c:	656b6361 	strbvs	r6, [fp, #-865]!	; 0xfffffc9f
    8a40:	5f5f2064 	svcpl	0x005f2064
    8a44:	72747461 	rsbsvc	r7, r4, #1627389952	; 0x61000000
    8a48:	74756269 	ldrbtvc	r6, [r5], #-617	; 0xfffffd97
    8a4c:	285f5f65 	ldmdacs	pc, {r0, r2, r5, r6, r8, r9, sl, fp, ip, lr}^	; <UNPREDICTABLE>
    8a50:	705f5f28 	subsvc	r5, pc, r8, lsr #30
    8a54:	656b6361 	strbvs	r6, [fp, #-865]!	; 0xfffffc9f
    8a58:	295f5f64 	ldmdbcs	pc, {r2, r5, r6, r8, r9, sl, fp, ip, lr}^	; <UNPREDICTABLE>
    8a5c:	575f0029 	ldrbpl	r0, [pc, -r9, lsr #32]
    8a60:	52414843 	subpl	r4, r1, #4390912	; 0x430000
    8a64:	445f545f 	ldrbmi	r5, [pc], #-1119	; 8a6c <_Min_Stack_Size+0x866c>
    8a68:	4e494645 	cdpmi	6, 4, cr4, cr9, cr5, {2}
    8a6c:	205f4445 	subscs	r4, pc, r5, asr #8
    8a70:	4d545300 	ldclmi	3, cr5, [r4, #-0]
    8a74:	31463233 	cmpcc	r6, r3, lsr r2
    8a78:	49003120 	stmdbmi	r0, {r5, r8, ip, sp}
    8a7c:	465f544e 	ldrbmi	r5, [pc], -lr, asr #8
    8a80:	38545341 	ldmdacc	r4, {r0, r6, r8, r9, ip, lr}^
    8a84:	4e494d5f 	mcrmi	13, 2, r4, cr9, cr15, {2}
    8a88:	5f2d2820 	svcpl	0x002d2820
    8a8c:	544e495f 	strbpl	r4, [lr], #-2399	; 0xfffff6a1
    8a90:	5341465f 	movtpl	r4, #5727	; 0x165f
    8a94:	4d5f3854 	ldclmi	8, cr3, [pc, #-336]	; 894c <_Min_Stack_Size+0x854c>
    8a98:	5f5f5841 	svcpl	0x005f5841
    8a9c:	31202d20 			; <UNDEFINED> instruction: 0x31202d20
    8aa0:	5f5f0029 	svcpl	0x005f0029
    8aa4:	65737361 	ldrbvs	r7, [r3, #-865]!	; 0xfffffc9f
    8aa8:	5f737472 	svcpl	0x00737472
    8aac:	72616873 	rsbvc	r6, r1, #7536640	; 0x730000
    8ab0:	2e286465 	cdpcs	4, 2, cr6, cr8, cr5, {3}
    8ab4:	20292e2e 	eorcs	r2, r9, lr, lsr #28
    8ab8:	6f6c5f5f 	svcvs	0x006c5f5f
    8abc:	615f6b63 	cmpvs	pc, r3, ror #22
    8ac0:	746f6e6e 	strbtvc	r6, [pc], #-3694	; 8ac8 <_Min_Stack_Size+0x86c8>
    8ac4:	28657461 	stmdacs	r5!, {r0, r5, r6, sl, ip, sp, lr}^
    8ac8:	65737361 	ldrbvs	r7, [r3, #-865]!	; 0xfffffc9f
    8acc:	735f7472 	cmpvc	pc, #1912602624	; 0x72000000
    8ad0:	65726168 	ldrbvs	r6, [r2, #-360]!	; 0xfffffe98
    8ad4:	6f6c5f64 	svcvs	0x006c5f64
    8ad8:	5f286b63 	svcpl	0x00286b63
    8adc:	5f41565f 	svcpl	0x0041565f
    8ae0:	53475241 	movtpl	r5, #29249	; 0x7241
    8ae4:	29295f5f 	stmdbcs	r9!, {r0, r1, r2, r3, r4, r6, r8, r9, sl, fp, ip, lr}
    8ae8:	535f5f00 	cmppl	pc, #0, 30
    8aec:	4c5f5359 	mrrcmi	3, 5, r5, pc, cr9	; <UNPREDICTABLE>
    8af0:	5f4b434f 	svcpl	0x004b434f
    8af4:	205f5f48 	subscs	r5, pc, r8, asr #30
    8af8:	695f5f00 	ldmdbvs	pc, {r8, r9, sl, fp, ip, lr}^	; <UNPREDICTABLE>
    8afc:	3032746e 	eorscc	r7, r2, lr, ror #8
    8b00:	49504700 	ldmdbmi	r0, {r8, r9, sl, lr}^
    8b04:	50535f4f 	subspl	r5, r3, pc, asr #30
    8b08:	5f444545 	svcpl	0x00444545
    8b0c:	30204d32 	eorcc	r4, r0, r2, lsr sp
    8b10:	30303078 	eorscc	r3, r0, r8, ror r0
    8b14:	30303030 	eorscc	r3, r0, r0, lsr r0
    8b18:	5f007532 	svcpl	0x00007532
    8b1c:	4f4e414e 	svcmi	0x004e414e
    8b20:	524f465f 	subpl	r4, pc, #99614720	; 0x5f00000
    8b24:	5454414d 	ldrbpl	r4, [r4], #-333	; 0xfffffeb3
    8b28:	495f4445 	ldmdbmi	pc, {r0, r2, r6, sl, lr}^	; <UNPREDICTABLE>
    8b2c:	0031204f 	eorseq	r2, r1, pc, asr #32
    8b30:	5f544e49 	svcpl	0x00544e49
    8b34:	54534146 	ldrbpl	r4, [r3], #-326	; 0xfffffeba
    8b38:	4d5f3233 	lfmmi	f3, 2, [pc, #-204]	; 8a74 <_Min_Stack_Size+0x8674>
    8b3c:	28205841 	stmdacs	r0!, {r0, r6, fp, ip, lr}
    8b40:	4e495f5f 	mcrmi	15, 2, r5, cr9, cr15, {2}
    8b44:	41465f54 	cmpmi	r6, r4, asr pc
    8b48:	32335453 	eorscc	r5, r3, #1392508928	; 0x53000000
    8b4c:	58414d5f 	stmdapl	r1, {r0, r1, r2, r3, r4, r6, r8, sl, fp, lr}^
    8b50:	00295f5f 	eoreq	r5, r9, pc, asr pc
    8b54:	6d745f5f 	ldclvs	15, cr5, [r4, #-380]!	; 0xfffffe84
    8b58:	6e696d5f 	mcrvs	13, 3, r6, cr9, cr15, {2}
    8b5c:	524f4300 	subpl	r4, pc, #0, 6
    8b60:	5f584554 	svcpl	0x00584554
    8b64:	495f334d 	ldmdbmi	pc, {r0, r2, r3, r6, r8, r9, ip, sp}^	; <UNPREDICTABLE>
    8b68:	5245544e 	subpl	r5, r5, #1308622848	; 0x4e000000
    8b6c:	5f4c414e 	svcpl	0x004c414e
    8b70:	49524550 	ldmdbmi	r2, {r4, r6, r8, sl, lr}^
    8b74:	52454850 	subpl	r4, r5, #80, 16	; 0x500000
    8b78:	5f534c41 	svcpl	0x00534c41
    8b7c:	45534142 	ldrbmi	r4, [r3, #-322]	; 0xfffffebe
    8b80:	45783020 	ldrbmi	r3, [r8, #-32]!	; 0xffffffe0
    8b84:	30303030 	eorscc	r3, r0, r0, lsr r0
    8b88:	55303030 	ldrpl	r3, [r0, #-48]!	; 0xffffffd0
    8b8c:	5845004c 	stmdapl	r5, {r2, r3, r6}^
    8b90:	475f4954 			; <UNDEFINED> instruction: 0x475f4954
    8b94:	5f4f4950 	svcpl	0x004f4950
    8b98:	7070614d 	rsbsvc	r6, r0, sp, asr #2
    8b9c:	5f676e69 	svcpl	0x00676e69
    8ba0:	43520074 	cmpmi	r2, #116	; 0x74
    8ba4:	50475f43 	subpl	r5, r7, r3, asr #30
    8ba8:	5f414f49 	svcpl	0x00414f49
    8bac:	5f4b4c43 	svcpl	0x004b4c43
    8bb0:	29284e45 	stmdbcs	r8!, {r0, r2, r6, r9, sl, fp, lr}
    8bb4:	43522820 	cmpmi	r2, #32, 16	; 0x200000
    8bb8:	413e2d43 	teqmi	lr, r3, asr #26
    8bbc:	45324250 	ldrmi	r4, [r2, #-592]!	; 0xfffffdb0
    8bc0:	7c20524e 	sfmvc	f5, 4, [r0], #-312	; 0xfffffec8
    8bc4:	3128203d 			; <UNDEFINED> instruction: 0x3128203d
    8bc8:	29323c3c 	ldmdbcs	r2!, {r2, r3, r4, r5, sl, fp, ip, sp}
    8bcc:	4e490029 	cdpmi	0, 4, cr0, cr9, cr9, {1}
    8bd0:	52545054 	subspl	r5, r4, #84	; 0x54
    8bd4:	4e494d5f 	mcrmi	13, 2, r4, cr9, cr15, {2}
    8bd8:	5f2d2820 	svcpl	0x002d2820
    8bdc:	544e495f 	strbpl	r4, [lr], #-2399	; 0xfffff6a1
    8be0:	5f525450 	svcpl	0x00525450
    8be4:	5f58414d 	svcpl	0x0058414d
    8be8:	202d205f 	eorcs	r2, sp, pc, asr r0
    8bec:	50002931 	andpl	r2, r0, r1, lsr r9
    8bf0:	49445254 	stmdbmi	r4, {r2, r4, r6, r9, ip, lr}^
    8bf4:	4d5f4646 	ldclmi	6, cr4, [pc, #-280]	; 8ae4 <_Min_Stack_Size+0x86e4>
    8bf8:	28204e49 	stmdacs	r0!, {r0, r3, r6, r9, sl, fp, lr}
    8bfc:	5254502d 	subspl	r5, r4, #45	; 0x2d
    8c00:	46464944 	strbmi	r4, [r6], -r4, asr #18
    8c04:	58414d5f 	stmdapl	r1, {r0, r1, r2, r3, r4, r6, r8, sl, fp, lr}^
    8c08:	31202d20 			; <UNDEFINED> instruction: 0x31202d20
    8c0c:	505f0029 	subspl	r0, pc, r9, lsr #32
    8c10:	5849534f 	stmdapl	r9, {r0, r1, r2, r3, r6, r8, r9, ip, lr}^
    8c14:	535f435f 	cmppl	pc, #2080374785	; 0x7c000001
    8c18:	4352554f 	cmpmi	r2, #331350016	; 0x13c00000
    8c1c:	5f5f0045 	svcpl	0x005f0045
    8c20:	544e4955 	strbpl	r4, [lr], #-2389	; 0xfffff6ab
    8c24:	5f58414d 	svcpl	0x0058414d
    8c28:	5f58414d 	svcpl	0x0058414d
    8c2c:	7830205f 	ldmdavc	r0!, {r0, r1, r2, r3, r4, r6, sp}
    8c30:	66666666 	strbtvs	r6, [r6], -r6, ror #12
    8c34:	66666666 	strbtvs	r6, [r6], -r6, ror #12
    8c38:	66666666 	strbtvs	r6, [r6], -r6, ror #12
    8c3c:	66666666 	strbtvs	r6, [r6], -r6, ror #12
    8c40:	004c4c55 	subeq	r4, ip, r5, asr ip
    8c44:	42445f5f 	submi	r5, r4, #380	; 0x17c
    8c48:	414d5f4c 	cmpmi	sp, ip, asr #30
    8c4c:	445f544e 	ldrbmi	r5, [pc], #-1102	; 8c54 <_Min_Stack_Size+0x8854>
    8c50:	5f5f4749 	svcpl	0x005f4749
    8c54:	00333520 	eorseq	r3, r3, r0, lsr #10
    8c58:	4c555f5f 	mrrcmi	15, 5, r5, r5, cr15	; <UNPREDICTABLE>
    8c5c:	43415246 	movtmi	r5, #4678	; 0x1246
    8c60:	42495f54 	submi	r5, r9, #84, 30	; 0x150
    8c64:	5f5f5449 	svcpl	0x005f5449
    8c68:	5f003020 	svcpl	0x00003020
    8c6c:	5f41545f 	svcpl	0x0041545f
    8c70:	54494246 	strbpl	r4, [r9], #-582	; 0xfffffdba
    8c74:	36205f5f 	qsaxcc	r5, r0, pc	; <UNPREDICTABLE>
    8c78:	5f5f0033 	svcpl	0x005f0033
    8c7c:	5f4d5241 	svcpl	0x004d5241
    8c80:	49424145 	stmdbmi	r2, {r0, r2, r6, r8, lr}^
    8c84:	31205f5f 			; <UNDEFINED> instruction: 0x31205f5f
    8c88:	495f5f00 	ldmdbmi	pc, {r8, r9, sl, fp, ip, lr}^	; <UNPREDICTABLE>
    8c8c:	4c5f544e 	cfldrdmi	mvd5, [pc], {78}	; 0x4e
    8c90:	54534145 	ldrbpl	r4, [r3], #-325	; 0xfffffebb
    8c94:	545f3436 	ldrbpl	r3, [pc], #-1078	; 8c9c <_Min_Stack_Size+0x889c>
    8c98:	5f455059 	svcpl	0x00455059
    8c9c:	6f6c205f 	svcvs	0x006c205f
    8ca0:	6c20676e 	stcvs	7, cr6, [r0], #-440	; 0xfffffe48
    8ca4:	20676e6f 	rsbcs	r6, r7, pc, ror #28
    8ca8:	00746e69 	rsbseq	r6, r4, r9, ror #28
    8cac:	49545845 	ldmdbmi	r4, {r0, r2, r6, fp, ip, lr}^
    8cb0:	32415032 	subcc	r5, r1, #50	; 0x32
    8cb4:	58452820 	stmdapl	r5, {r5, fp, sp}^
    8cb8:	475f4954 			; <UNDEFINED> instruction: 0x475f4954
    8cbc:	5f4f4950 	svcpl	0x004f4950
    8cc0:	7070614d 	rsbsvc	r6, r0, sp, asr #2
    8cc4:	5f676e69 	svcpl	0x00676e69
    8cc8:	457b2974 	ldrbmi	r2, [fp, #-2420]!	; 0xfffff68c
    8ccc:	32495458 	subcc	r5, r9, #88, 8	; 0x58000000
    8cd0:	5047202c 	subpl	r2, r7, ip, lsr #32
    8cd4:	2c414f49 	mcrrcs	15, 4, r4, r1, cr9
    8cd8:	49504720 	ldmdbmi	r0, {r5, r8, r9, sl, lr}^
    8cdc:	49505f4f 	ldmdbmi	r0, {r0, r1, r2, r3, r6, r8, r9, sl, fp, ip, lr}^
    8ce0:	2c325f4e 	ldccs	15, cr5, [r2], #-312	; 0xfffffec8
    8ce4:	54584520 	ldrbpl	r4, [r8], #-1312	; 0xfffffae0
    8ce8:	495f3249 	ldmdbmi	pc, {r0, r3, r6, r9, ip, sp}^	; <UNPREDICTABLE>
    8cec:	7d205152 	stfvcs	f5, [r0, #-328]!	; 0xfffffeb8
    8cf0:	535f5f00 	cmppl	pc, #0, 30
    8cf4:	55434341 	strbpl	r4, [r3, #-833]	; 0xfffffcbf
    8cf8:	42465f4d 	submi	r5, r6, #308	; 0x134
    8cfc:	5f5f5449 	svcpl	0x005f5449
    8d00:	45003720 	strmi	r3, [r0, #-1824]	; 0xfffff8e0
    8d04:	31495458 	cmpcc	r9, r8, asr r4
    8d08:	31445033 	cmpcc	r4, r3, lsr r0
    8d0c:	45282033 	strmi	r2, [r8, #-51]!	; 0xffffffcd
    8d10:	5f495458 	svcpl	0x00495458
    8d14:	4f495047 	svcmi	0x00495047
    8d18:	70614d5f 	rsbvc	r4, r1, pc, asr sp
    8d1c:	676e6970 			; <UNDEFINED> instruction: 0x676e6970
    8d20:	7b29745f 	blvc	a65ea4 <_Min_Stack_Size+0xa65aa4>
    8d24:	49545845 	ldmdbmi	r4, {r0, r2, r6, fp, ip, lr}^
    8d28:	202c3331 	eorcs	r3, ip, r1, lsr r3
    8d2c:	4f495047 	svcmi	0x00495047
    8d30:	47202c44 	strmi	r2, [r0, -r4, asr #24]!
    8d34:	5f4f4950 	svcpl	0x004f4950
    8d38:	5f4e4950 	svcpl	0x004e4950
    8d3c:	202c3331 	eorcs	r3, ip, r1, lsr r3
    8d40:	49545845 	ldmdbmi	r4, {r0, r2, r6, fp, ip, lr}^
    8d44:	495f3331 	ldmdbmi	pc, {r0, r4, r5, r8, r9, ip, sp}^	; <UNPREDICTABLE>
    8d48:	7d205152 	stfvcs	f5, [r0, #-328]!	; 0xfffffeb8
    8d4c:	2f2e2e00 	svccs	0x002e2e00
    8d50:	72617453 	rsbvc	r7, r1, #1392508928	; 0x53000000
    8d54:	2f707574 	svccs	0x00707574
    8d58:	72617473 	rsbvc	r7, r1, #1929379840	; 0x73000000
    8d5c:	5f707574 	svcpl	0x00707574
    8d60:	336d7473 	cmncc	sp, #1929379840	; 0x73000000
    8d64:	30316632 	eorscc	r6, r1, r2, lsr r6
    8d68:	74366333 	ldrtvc	r6, [r6], #-819	; 0xfffffccd
    8d6c:	00732e78 	rsbseq	r2, r3, r8, ror lr
    8d70:	4d2f3a44 	vstmdbmi	pc!, {s6-s73}
    8d74:	65747361 	ldrbvs	r7, [r4, #-865]!	; 0xfffffc9f
    8d78:	676e6972 			; <UNDEFINED> instruction: 0x676e6972
    8d7c:	626d4520 	rsbvs	r4, sp, #32, 10	; 0x8000000
    8d80:	65646465 	strbvs	r6, [r4, #-1125]!	; 0xfffffb9b
    8d84:	79532064 	ldmdbvc	r3, {r2, r5, r6, sp}^
    8d88:	6d657473 	cfstrdvs	mvd7, [r5, #-460]!	; 0xfffffe34
    8d8c:	6e552f73 	mrcvs	15, 2, r2, cr5, cr3, {3}
    8d90:	31207469 			; <UNDEFINED> instruction: 0x31207469
    8d94:	52412034 	subpl	r2, r1, #52	; 0x34
    8d98:	6e752f4d 	cdpvs	15, 7, cr2, cr5, cr13, {2}
    8d9c:	34317469 	ldrtcc	r7, [r1], #-1129	; 0xfffffb97
    8da0:	73656c5f 	cmnvc	r5, #24320	; 0x5f00
    8da4:	326e6f73 	rsbcc	r6, lr, #460	; 0x1cc
    8da8:	62616c5f 	rsbvs	r6, r1, #24320	; 0x5f00
    8dac:	72442f31 	subvc	r2, r4, #49, 30	; 0xc4
    8db0:	72657669 	rsbvc	r7, r5, #110100480	; 0x6900000
    8db4:	65442f73 	strbvs	r2, [r4, #-3955]	; 0xfffff08d
    8db8:	00677562 	rsbeq	r7, r7, r2, ror #10
    8dbc:	20554e47 	subscs	r4, r5, r7, asr #28
    8dc0:	32205341 	eorcc	r5, r0, #67108865	; 0x4000001
    8dc4:	2e30332e 	cdpcs	3, 3, cr3, cr0, cr14, {1}
    8dc8:	2e2e0030 	mcrcs	0, 1, r0, cr14, cr0, {1}
    8dcc:	6d74532f 	ldclvs	3, cr5, [r4, #-188]!	; 0xffffff44
    8dd0:	465f3233 			; <UNDEFINED> instruction: 0x465f3233
    8dd4:	43333031 	teqmi	r3, #49	; 0x31
    8dd8:	72445f36 	subvc	r5, r4, #54, 30	; 0xd8
    8ddc:	72657669 	rsbvc	r7, r5, #110100480	; 0x6900000
    8de0:	50472f73 	subpl	r2, r7, r3, ror pc
    8de4:	532f4f49 			; <UNDEFINED> instruction: 0x532f4f49
    8de8:	32336d74 	eorscc	r6, r3, #116, 26	; 0x1d00
    8dec:	3031465f 	eorscc	r4, r1, pc, asr r6
    8df0:	5f364333 	svcpl	0x00364333
    8df4:	6f697067 	svcvs	0x00697067
    8df8:	6972645f 	ldmdbvs	r2!, {r0, r1, r2, r3, r4, r6, sl, sp, lr}^
    8dfc:	2e726576 	mrccs	5, 3, r6, cr2, cr6, {3}
    8e00:	434d0063 	movtmi	r0, #53347	; 0xd063
    8e04:	475f4c41 	ldrbmi	r4, [pc, -r1, asr #24]
    8e08:	5f4f4950 	svcpl	0x004f4950
    8e0c:	74696e49 	strbtvc	r6, [r9], #-3657	; 0xfffff1b7
    8e10:	49504700 	ldmdbmi	r0, {r8, r9, sl, lr}^
    8e14:	754f5f4f 	strbvc	r5, [pc, #-3919]	; 7ecd <_Min_Stack_Size+0x7acd>
    8e18:	74757074 	ldrbtvc	r7, [r5], #-116	; 0xffffff8c
    8e1c:	6570535f 	ldrbvs	r5, [r0, #-863]!	; 0xfffffca1
    8e20:	50006465 	andpl	r6, r0, r5, ror #8
    8e24:	6f436e69 	svcvs	0x00436e69
    8e28:	6769666e 	strbvs	r6, [r9, -lr, ror #12]!
    8e2c:	74654700 	strbtvc	r4, [r5], #-1792	; 0xfffff900
    8e30:	4c52435f 	mrrcmi	3, 5, r4, r2, cr15
    8e34:	6f505f48 	svcvs	0x00505f48
    8e38:	69746973 	ldmdbvs	r4!, {r0, r1, r4, r5, r6, r8, fp, sp, lr}^
    8e3c:	47006e6f 	strmi	r6, [r0, -pc, ror #28]
    8e40:	5f4f4950 	svcpl	0x004f4950
    8e44:	45444f4d 	strbmi	r4, [r4, #-3917]	; 0xfffff0b3
    8e48:	49504700 	ldmdbmi	r0, {r8, r9, sl, lr}^
    8e4c:	69505f4f 	ldmdbvs	r0, {r0, r1, r2, r3, r6, r8, r9, sl, fp, ip, lr}^
    8e50:	6e6f436e 	cdpvs	3, 6, cr4, cr15, cr14, {3}
    8e54:	5f676966 	svcpl	0x00676966
    8e58:	434d0074 	movtmi	r0, #53364	; 0xd074
    8e5c:	475f4c41 	ldrbmi	r4, [pc, -r1, asr #24]
    8e60:	5f4f4950 	svcpl	0x004f4950
    8e64:	67676f54 			; <UNDEFINED> instruction: 0x67676f54
    8e68:	6950656c 	ldmdbvs	r0, {r2, r3, r5, r6, r8, sl, sp, lr}^
    8e6c:	434d006e 	movtmi	r0, #53358	; 0xd06e
    8e70:	475f4c41 	ldrbmi	r4, [pc, -r1, asr #24]
    8e74:	5f4f4950 	svcpl	0x004f4950
    8e78:	74697257 	strbtvc	r7, [r9], #-599	; 0xfffffda9
    8e7c:	6e695065 	cdpvs	0, 6, cr5, cr9, cr5, {3}
    8e80:	4e495000 	cdpmi	0, 4, cr5, cr9, cr0, {0}
    8e84:	6e6f435f 	mcrvs	3, 3, r4, cr15, cr15, {2}
    8e88:	00676966 	rsbeq	r6, r7, r6, ror #18
    8e8c:	4f495047 	svcmi	0x00495047
    8e90:	434d0078 	movtmi	r0, #53368	; 0xd078
    8e94:	475f4c41 	ldrbmi	r4, [pc, -r1, asr #24]
    8e98:	5f4f4950 	svcpl	0x004f4950
    8e9c:	64616552 	strbtvs	r6, [r1], #-1362	; 0xfffffaae
    8ea0:	006e6950 	rsbeq	r6, lr, r0, asr r9
    8ea4:	4c41434d 	mcrrmi	3, 4, r4, r1, cr13
    8ea8:	4950475f 	ldmdbmi	r0, {r0, r1, r2, r3, r4, r6, r8, r9, sl, lr}^
    8eac:	6f4c5f4f 	svcvs	0x004c5f4f
    8eb0:	69506b63 	ldmdbvs	r0, {r0, r1, r5, r6, r8, r9, fp, sp, lr}^
    8eb4:	6f63006e 	svcvs	0x0063006e
    8eb8:	6769666e 	strbvs	r6, [r9, -lr, ror #12]!
    8ebc:	69676572 	stmdbvs	r7!, {r1, r4, r5, r6, r8, sl, sp, lr}^
    8ec0:	72657473 	rsbvc	r7, r5, #1929379840	; 0x73000000
    8ec4:	41434d00 	cmpmi	r3, r0, lsl #26
    8ec8:	50475f4c 	subpl	r5, r7, ip, asr #30
    8ecc:	575f4f49 	ldrbpl	r4, [pc, -r9, asr #30]
    8ed0:	65746972 	ldrbvs	r6, [r4, #-2418]!	; 0xfffff68e
    8ed4:	74726f50 	ldrbtvc	r6, [r2], #-3920	; 0xfffff0b0
    8ed8:	41434d00 	cmpmi	r3, r0, lsl #26
    8edc:	50475f4c 	subpl	r5, r7, ip, asr #30
    8ee0:	445f4f49 	ldrbmi	r4, [pc], #-3913	; 8ee8 <_Min_Stack_Size+0x8ae8>
    8ee4:	696e4965 	stmdbvs	lr!, {r0, r2, r5, r6, r8, fp, lr}^
    8ee8:	6f700074 	svcvs	0x00700074
    8eec:	765f7472 			; <UNDEFINED> instruction: 0x765f7472
    8ef0:	65756c61 	ldrbvs	r6, [r5, #-3169]!	; 0xfffff39f
    8ef4:	74696200 	strbtvc	r6, [r9], #-512	; 0xfffffe00
    8ef8:	74617473 	strbtvc	r7, [r1], #-1139	; 0xfffffb8d
    8efc:	47007375 	smlsdxmi	r0, r5, r3, r7
    8f00:	5f4f4950 	svcpl	0x004f4950
    8f04:	4e6e6950 			; <UNDEFINED> instruction: 0x4e6e6950
    8f08:	65626d75 	strbvs	r6, [r2, #-3445]!	; 0xfffff28b
    8f0c:	434d0072 	movtmi	r0, #53362	; 0xd072
    8f10:	475f4c41 	ldrbmi	r4, [pc, -r1, asr #24]
    8f14:	5f4f4950 	svcpl	0x004f4950
    8f18:	64616552 	strbtvs	r6, [r1], #-1362	; 0xfffffaae
    8f1c:	74726f50 	ldrbtvc	r6, [r2], #-3920	; 0xfffff0b0
    8f20:	6c615600 	stclvs	6, cr5, [r1], #-0
    8f24:	45006575 	strmi	r6, [r0, #-1397]	; 0xfffffa8b
    8f28:	43495458 	movtmi	r5, #37976	; 0x9458
    8f2c:	434d0052 	movtmi	r0, #53330	; 0xd052
    8f30:	455f4c41 	ldrbmi	r4, [pc, #-3137]	; 82f7 <_Min_Stack_Size+0x7ef7>
    8f34:	5f495458 	svcpl	0x00495458
    8f38:	4f495047 	svcmi	0x00495047
    8f3c:	6470555f 	ldrbtvs	r5, [r0], #-1375	; 0xfffffaa1
    8f40:	00657461 	rsbeq	r7, r5, r1, ror #8
    8f44:	532f2e2e 			; <UNDEFINED> instruction: 0x532f2e2e
    8f48:	32336d74 	eorscc	r6, r3, #116, 26	; 0x1d00
    8f4c:	3031465f 	eorscc	r4, r1, pc, asr r6
    8f50:	5f364333 	svcpl	0x00364333
    8f54:	76697244 	strbtvc	r7, [r9], -r4, asr #4
    8f58:	2f737265 	svccs	0x00737265
    8f5c:	336d7453 	cmncc	sp, #1392508928	; 0x53000000
    8f60:	31465f32 	cmpcc	r6, r2, lsr pc
    8f64:	36433330 			; <UNDEFINED> instruction: 0x36433330
    8f68:	5458455f 	ldrbpl	r4, [r8], #-1375	; 0xfffffaa1
    8f6c:	72645f49 	rsbvc	r5, r4, #292	; 0x124
    8f70:	72657669 	rsbvc	r7, r5, #110100480	; 0x6900000
    8f74:	4600632e 	strmi	r6, [r0], -lr, lsr #6
    8f78:	00525354 	subseq	r5, r2, r4, asr r3
    8f7c:	61647055 	qdsubvs	r7, r5, r4
    8f80:	455f6574 	ldrbmi	r6, [pc, #-1396]	; 8a14 <_Min_Stack_Size+0x8614>
    8f84:	00495458 	subeq	r5, r9, r8, asr r4
    8f88:	52535452 	subspl	r5, r3, #1375731712	; 0x52000000
    8f8c:	49464100 	stmdbmi	r6, {r8, lr}^
    8f90:	50475f4f 	subpl	r5, r7, pc, asr #30
    8f94:	455f4f49 	ldrbmi	r4, [pc, #-3913]	; 8053 <_Min_Stack_Size+0x7c53>
    8f98:	5f495458 	svcpl	0x00495458
    8f9c:	7070614d 	rsbsvc	r6, r0, sp, asr #2
    8fa0:	28676e69 	stmdacs	r7!, {r0, r3, r5, r6, r9, sl, fp, sp, lr}^
    8fa4:	28202978 	stmdacs	r0!, {r3, r4, r5, r6, r8, fp, sp}
    8fa8:	3d782820 	ldclcc	8, cr2, [r8, #-128]!	; 0xffffff80
    8fac:	4950473d 	ldmdbmi	r0, {r0, r2, r3, r4, r5, r8, r9, sl, lr}^
    8fb0:	3f29414f 	svccc	0x0029414f
    8fb4:	203a3020 	eorscs	r3, sl, r0, lsr #32
    8fb8:	3d3d7828 	ldccc	8, cr7, [sp, #-160]!	; 0xffffff60
    8fbc:	4f495047 	svcmi	0x00495047
    8fc0:	203f2942 	eorscs	r2, pc, r2, asr #18
    8fc4:	28203a31 	stmdacs	r0!, {r0, r4, r5, r9, fp, ip, sp}
    8fc8:	473d3d78 			; <UNDEFINED> instruction: 0x473d3d78
    8fcc:	434f4950 	movtmi	r4, #63824	; 0xf950
    8fd0:	32203f29 	eorcc	r3, r0, #41, 30	; 0xa4
    8fd4:	7828203a 	stmdavc	r8!, {r1, r3, r4, r5, sp}
    8fd8:	50473d3d 	subpl	r3, r7, sp, lsr sp
    8fdc:	29444f49 	stmdbcs	r4, {r0, r3, r6, r8, r9, sl, fp, lr}^
    8fe0:	3a33203f 	bcc	cd10e4 <_Min_Stack_Size+0xcd0ce4>
    8fe4:	00292030 	eoreq	r2, r9, r0, lsr r0
    8fe8:	436e6950 	cmnmi	lr, #80, 18	; 0x140000
    8fec:	52006766 	andpl	r6, r0, #26738688	; 0x1980000
    8ff0:	52455345 	subpl	r5, r5, #335544321	; 0x14000001
    8ff4:	30444556 	subcc	r4, r4, r6, asr r5
    8ff8:	54584500 	ldrbpl	r4, [r8], #-1280	; 0xfffffb00
    8ffc:	495f3449 	ldmdbmi	pc, {r0, r3, r6, sl, ip, sp}^	; <UNPREDICTABLE>
    9000:	61485152 	cmpvs	r8, r2, asr r1
    9004:	656c646e 	strbvs	r6, [ip, #-1134]!	; 0xfffffb92
    9008:	58450072 	stmdapl	r5, {r1, r4, r5, r6}^
    900c:	435f4954 	cmpmi	pc, #84, 18	; 0x150000
    9010:	69666e6f 	stmdbvs	r6!, {r0, r1, r2, r3, r5, r6, r9, sl, fp, sp, lr}^
    9014:	434d0067 	movtmi	r0, #53351	; 0xd067
    9018:	455f4c41 	ldrbmi	r4, [pc, #-3137]	; 83df <_Min_Stack_Size+0x7fdf>
    901c:	5f495458 	svcpl	0x00495458
    9020:	4f495047 	svcmi	0x00495047
    9024:	4965445f 	stmdbmi	r5!, {r0, r1, r2, r3, r4, r6, sl, lr}^
    9028:	0074696e 	rsbseq	r6, r4, lr, ror #18
    902c:	4c41434d 	mcrrmi	3, 4, r4, r1, cr13
    9030:	5458455f 	ldrbpl	r4, [r8], #-1375	; 0xfffffaa1
    9034:	50475f49 	subpl	r5, r7, r9, asr #30
    9038:	495f4f49 	ldmdbmi	pc, {r0, r3, r6, r8, r9, sl, fp, lr}^	; <UNPREDICTABLE>
    903c:	0074696e 	rsbseq	r6, r4, lr, ror #18
    9040:	45495753 	strbmi	r5, [r9, #-1875]	; 0xfffff8ad
    9044:	414d0052 	qdaddmi	r0, r2, sp
    9048:	00325250 	eorseq	r5, r2, r0, asr r2
    904c:	495f5047 	ldmdbmi	pc, {r0, r1, r2, r6, ip, lr}^	; <UNPREDICTABLE>
    9050:	435f5152 	cmpmi	pc, #-2147483628	; 0x80000014
    9054:	426c6c61 	rsbmi	r6, ip, #24832	; 0x6100
    9058:	006b6361 	rsbeq	r6, fp, r1, ror #6
    905c:	4f494641 	svcmi	0x00494641
    9060:	5458455f 	ldrbpl	r4, [r8], #-1375	; 0xfffffaa1
    9064:	5f524349 	svcpl	0x00524349
    9068:	74736f70 	ldrbtvc	r6, [r3], #-3952	; 0xfffff090
    906c:	006e6f69 	rsbeq	r6, lr, r9, ror #30
    9070:	49545845 	ldmdbmi	r4, {r0, r2, r6, fp, ip, lr}^
    9074:	7079545f 	rsbsvc	r5, r9, pc, asr r4
    9078:	66654465 	strbtvs	r4, [r5], -r5, ror #8
    907c:	50414d00 	subpl	r4, r1, r0, lsl #26
    9080:	58450052 	stmdapl	r5, {r1, r4, r6}^
    9084:	5f324954 	svcpl	0x00324954
    9088:	48515249 	ldmdami	r1, {r0, r3, r6, r9, ip, lr}^
    908c:	6c646e61 	stclvs	14, cr6, [r4], #-388	; 0xfffffe7c
    9090:	45007265 	strmi	r7, [r0, #-613]	; 0xfffffd9b
    9094:	39495458 	stmdbcc	r9, {r3, r4, r6, sl, ip, lr}^
    9098:	495f355f 	ldmdbmi	pc, {r0, r1, r2, r3, r4, r6, r8, sl, ip, sp}^	; <UNPREDICTABLE>
    909c:	61485152 	cmpvs	r8, r2, asr r1
    90a0:	656c646e 	strbvs	r6, [ip, #-1134]!	; 0xfffffb92
    90a4:	46410072 			; <UNDEFINED> instruction: 0x46410072
    90a8:	545f4f49 	ldrbpl	r4, [pc], #-3913	; 90b0 <_Min_Stack_Size+0x8cb0>
    90ac:	44657079 	strbtmi	r7, [r5], #-121	; 0xffffff87
    90b0:	45006665 	strmi	r6, [r0, #-1637]	; 0xfffff99b
    90b4:	33495458 	movtcc	r5, #37976	; 0x9458
    90b8:	5152495f 	cmppl	r2, pc, asr r9
    90bc:	646e6148 	strbtvs	r6, [lr], #-328	; 0xfffffeb8
    90c0:	0072656c 	rsbseq	r6, r2, ip, ror #10
    90c4:	4f494641 	svcmi	0x00494641
    90c8:	5458455f 	ldrbpl	r4, [r8], #-1375	; 0xfffffaa1
    90cc:	5f524349 	svcpl	0x00524349
    90d0:	65646e69 	strbvs	r6, [r4, #-3689]!	; 0xfffff197
    90d4:	58450078 	stmdapl	r5, {r3, r4, r5, r6}^
    90d8:	5f304954 	svcpl	0x00304954
    90dc:	48515249 	ldmdami	r1, {r0, r3, r6, r9, ip, lr}^
    90e0:	6c646e61 	stclvs	14, cr6, [r4], #-388	; 0xfffffe7c
    90e4:	45007265 	strmi	r7, [r0, #-613]	; 0xfffffd9b
    90e8:	00524356 	subseq	r4, r2, r6, asr r3
    90ec:	49545845 	ldmdbmi	r4, {r0, r2, r6, fp, ip, lr}^
    90f0:	315f3531 	cmpcc	pc, r1, lsr r5	; <UNPREDICTABLE>
    90f4:	52495f30 	subpl	r5, r9, #48, 30	; 0xc0
    90f8:	6e614851 	mcrvs	8, 3, r4, cr1, cr1, {2}
    90fc:	72656c64 	rsbvc	r6, r5, #100, 24	; 0x6400
    9100:	73694400 	cmnvc	r9, #0, 8
    9104:	656c6261 	strbvs	r6, [ip, #-609]!	; 0xfffffd9f
    9108:	49564e5f 	ldmdbmi	r6, {r0, r1, r2, r3, r4, r6, r9, sl, fp, lr}^
    910c:	58450043 	stmdapl	r5, {r0, r1, r6}^
    9110:	5f314954 	svcpl	0x00314954
    9114:	48515249 	ldmdami	r1, {r0, r3, r6, r9, ip, lr}^
    9118:	6c646e61 	stclvs	14, cr6, [r4], #-388	; 0xfffffe7c
    911c:	45007265 	strmi	r7, [r0, #-613]	; 0xfffffd9b
    9120:	6c62616e 	stfvse	f6, [r2], #-440	; 0xfffffe48
    9124:	564e5f65 	strbpl	r5, [lr], -r5, ror #30
    9128:	Address 0x0000000000009128 is out of bounds.


Disassembly of section .comment:

00000000 <.comment>:
   0:	3a434347 	bcc	10d0d24 <_Min_Stack_Size+0x10d0924>
   4:	4e472820 	cdpmi	8, 4, cr2, cr7, cr0, {1}
   8:	6f542055 	svcvs	0x00542055
   c:	20736c6f 	rsbscs	r6, r3, pc, ror #24
  10:	20726f66 	rsbscs	r6, r2, r6, ror #30
  14:	334d5453 	movtcc	r5, #54355	; 0xd453
  18:	2d372032 	ldccs	0, cr2, [r7, #-200]!	; 0xffffff38
  1c:	38313032 	ldmdacc	r1!, {r1, r4, r5, ip, sp}
  20:	2d32712d 	ldfcss	f7, [r2, #-180]!	; 0xffffff4c
  24:	61647075 	smcvs	18181	; 0x4705
  28:	322e6574 	eorcc	r6, lr, #116, 10	; 0x1d000000
  2c:	30393130 	eorscc	r3, r9, r0, lsr r1
  30:	2d383233 	lfmcs	f3, 4, [r8, #-204]!	; 0xffffff34
  34:	30303831 	eorscc	r3, r0, r1, lsr r8
  38:	2e372029 	cdpcs	0, 3, cr2, cr7, cr9, {1}
  3c:	20312e33 	eorscs	r2, r1, r3, lsr lr
  40:	38313032 	ldmdacc	r1!, {r1, r4, r5, ip, sp}
  44:	32323630 	eorscc	r3, r2, #48, 12	; 0x3000000
  48:	65722820 	ldrbvs	r2, [r2, #-2080]!	; 0xfffff7e0
  4c:	7361656c 	cmnvc	r1, #108, 10	; 0x1b000000
  50:	5b202965 	blpl	80a5ec <_Min_Stack_Size+0x80a1ec>
  54:	2f4d5241 	svccs	0x004d5241
  58:	65626d65 	strbvs	r6, [r2, #-3429]!	; 0xfffff29b
  5c:	64656464 	strbtvs	r6, [r5], #-1124	; 0xfffffb9c
  60:	622d372d 	eorvs	r3, sp, #11796480	; 0xb40000
  64:	636e6172 	cmnvs	lr, #-2147483620	; 0x8000001c
  68:	65722068 	ldrbvs	r2, [r2, #-104]!	; 0xffffff98
  6c:	69736976 	ldmdbvs	r3!, {r1, r2, r4, r5, r6, r8, fp, sp, lr}^
  70:	32206e6f 	eorcc	r6, r0, #1776	; 0x6f0
  74:	30393136 	eorscc	r3, r9, r6, lsr r1
  78:	Address 0x0000000000000078 is out of bounds.


Disassembly of section .debug_frame:

00000000 <.debug_frame>:
   0:	0000000c 	andeq	r0, r0, ip
   4:	ffffffff 			; <UNDEFINED> instruction: 0xffffffff
   8:	7c020001 	stcvc	0, cr0, [r2], {1}
   c:	000d0c0e 	andeq	r0, sp, lr, lsl #24
  10:	0000001c 	andeq	r0, r0, ip, lsl r0
  14:	00000000 	andeq	r0, r0, r0
  18:	08000170 	stmdaeq	r0, {r4, r5, r6, r8}
  1c:	00000024 	andeq	r0, r0, r4, lsr #32
  20:	87040e41 	strhi	r0, [r4, -r1, asr #28]
  24:	070d4101 	streq	r4, [sp, -r1, lsl #2]
  28:	410d0d49 	tstmi	sp, r9, asr #26
  2c:	00000ec7 	andeq	r0, r0, r7, asr #29
  30:	0000001c 	andeq	r0, r0, ip, lsl r0
  34:	00000000 	andeq	r0, r0, r0
  38:	08000194 	stmdaeq	r0, {r2, r4, r7, r8}
  3c:	000000cc 	andeq	r0, r0, ip, asr #1
  40:	87080e41 	strhi	r0, [r8, -r1, asr #28]
  44:	41018e02 	tstmi	r1, r2, lsl #28
  48:	0d41200e 	stcleq	0, cr2, [r1, #-56]	; 0xffffffc8
  4c:	00000007 	andeq	r0, r0, r7
  50:	0000000c 	andeq	r0, r0, ip
  54:	ffffffff 			; <UNDEFINED> instruction: 0xffffffff
  58:	7c020001 	stcvc	0, cr0, [r2], {1}
  5c:	000d0c0e 	andeq	r0, sp, lr, lsl #24
  60:	00000024 	andeq	r0, r0, r4, lsr #32
  64:	00000050 	andeq	r0, r0, r0, asr r0
  68:	080002b2 	stmdaeq	r0, {r1, r4, r5, r7, r9}
  6c:	000000c6 	andeq	r0, r0, r6, asr #1
  70:	87040e41 	strhi	r0, [r4, -r1, asr #28]
  74:	100e4101 	andne	r4, lr, r1, lsl #2
  78:	02070d41 	andeq	r0, r7, #4160	; 0x1040
  7c:	41040e5d 	tstmi	r4, sp, asr lr
  80:	c7410d0d 	strbgt	r0, [r1, -sp, lsl #26]
  84:	0000000e 	andeq	r0, r0, lr
  88:	00000024 	andeq	r0, r0, r4, lsr #32
  8c:	00000050 	andeq	r0, r0, r0, asr r0
  90:	08000378 	stmdaeq	r0, {r3, r4, r5, r6, r8, r9}
  94:	000000fe 	strdeq	r0, [r0], -lr
  98:	840c0e41 	strhi	r0, [ip], #-3649	; 0xfffff1bf
  9c:	8e028703 	cdphi	7, 0, cr8, cr2, cr3, {0}
  a0:	200e4101 	andcs	r4, lr, r1, lsl #2
  a4:	02070d41 	andeq	r0, r7, #4160	; 0x1040
  a8:	410c0e7a 	tstmi	ip, sl, ror lr
  ac:	00000d0d 	andeq	r0, r0, sp, lsl #26
  b0:	00000024 	andeq	r0, r0, r4, lsr #32
  b4:	00000050 	andeq	r0, r0, r0, asr r0
  b8:	00000000 	andeq	r0, r0, r0
  bc:	000000d4 	ldrdeq	r0, [r0], -r4
  c0:	87040e41 	strhi	r0, [r4, -r1, asr #28]
  c4:	100e4101 	andne	r4, lr, r1, lsl #2
  c8:	02070d41 	andeq	r0, r7, #4160	; 0x1040
  cc:	41040e57 	tstmi	r4, r7, asr lr
  d0:	c7410d0d 	strbgt	r0, [r1, -sp, lsl #26]
  d4:	0000000e 	andeq	r0, r0, lr
  d8:	00000024 	andeq	r0, r0, r4, lsr #32
  dc:	00000050 	andeq	r0, r0, r0, asr r0
  e0:	00000000 	andeq	r0, r0, r0
  e4:	0000002e 	andeq	r0, r0, lr, lsr #32
  e8:	87040e41 	strhi	r0, [r4, -r1, asr #28]
  ec:	180e4101 	stmdane	lr, {r0, r8, lr}
  f0:	51070d41 	tstpl	r7, r1, asr #26
  f4:	0d41040e 	cfstrdeq	mvd0, [r1, #-56]	; 0xffffffc8
  f8:	0ec7410d 	poleqs	f4, f7, #5.0
  fc:	00000000 	andeq	r0, r0, r0
 100:	00000024 	andeq	r0, r0, r4, lsr #32
 104:	00000050 	andeq	r0, r0, r0, asr r0
 108:	00000000 	andeq	r0, r0, r0
 10c:	0000001a 	andeq	r0, r0, sl, lsl r0
 110:	87040e41 	strhi	r0, [r4, -r1, asr #28]
 114:	180e4101 	stmdane	lr, {r0, r8, lr}
 118:	47070d41 	strmi	r0, [r7, -r1, asr #26]
 11c:	0d41040e 	cfstrdeq	mvd0, [r1, #-56]	; 0xffffffc8
 120:	0ec7410d 	poleqs	f4, f7, #5.0
 124:	00000000 	andeq	r0, r0, r0
 128:	00000024 	andeq	r0, r0, r4, lsr #32
 12c:	00000050 	andeq	r0, r0, r0, asr r0
 130:	00000000 	andeq	r0, r0, r0
 134:	0000002e 	andeq	r0, r0, lr, lsr #32
 138:	87040e41 	strhi	r0, [r4, -r1, asr #28]
 13c:	100e4101 	andne	r4, lr, r1, lsl #2
 140:	51070d41 	tstpl	r7, r1, asr #26
 144:	0d41040e 	cfstrdeq	mvd0, [r1, #-56]	; 0xffffffc8
 148:	0ec7410d 	poleqs	f4, f7, #5.0
 14c:	00000000 	andeq	r0, r0, r0
 150:	00000024 	andeq	r0, r0, r4, lsr #32
 154:	00000050 	andeq	r0, r0, r0, asr r0
 158:	00000000 	andeq	r0, r0, r0
 15c:	0000001c 	andeq	r0, r0, ip, lsl r0
 160:	87040e41 	strhi	r0, [r4, -r1, asr #28]
 164:	100e4101 	andne	r4, lr, r1, lsl #2
 168:	48070d41 	stmdami	r7, {r0, r6, r8, sl, fp}
 16c:	0d41040e 	cfstrdeq	mvd0, [r1, #-56]	; 0xffffffc8
 170:	0ec7410d 	poleqs	f4, f7, #5.0
 174:	00000000 	andeq	r0, r0, r0
 178:	00000024 	andeq	r0, r0, r4, lsr #32
 17c:	00000050 	andeq	r0, r0, r0, asr r0
 180:	00000000 	andeq	r0, r0, r0
 184:	00000022 	andeq	r0, r0, r2, lsr #32
 188:	87040e41 	strhi	r0, [r4, -r1, asr #28]
 18c:	100e4101 	andne	r4, lr, r1, lsl #2
 190:	4b070d41 	blmi	1c369c <_Min_Stack_Size+0x1c329c>
 194:	0d41040e 	cfstrdeq	mvd0, [r1, #-56]	; 0xffffffc8
 198:	0ec7410d 	poleqs	f4, f7, #5.0
 19c:	00000000 	andeq	r0, r0, r0
 1a0:	00000024 	andeq	r0, r0, r4, lsr #32
 1a4:	00000050 	andeq	r0, r0, r0, asr r0
 1a8:	00000000 	andeq	r0, r0, r0
 1ac:	0000004e 	andeq	r0, r0, lr, asr #32
 1b0:	87040e41 	strhi	r0, [r4, -r1, asr #28]
 1b4:	180e4101 	stmdane	lr, {r0, r8, lr}
 1b8:	61070d41 	tstvs	r7, r1, asr #26
 1bc:	0d41040e 	cfstrdeq	mvd0, [r1, #-56]	; 0xffffffc8
 1c0:	0ec7410d 	poleqs	f4, f7, #5.0
 1c4:	00000000 	andeq	r0, r0, r0
 1c8:	0000000c 	andeq	r0, r0, ip
 1cc:	ffffffff 			; <UNDEFINED> instruction: 0xffffffff
 1d0:	7c020001 	stcvc	0, cr0, [r2], {1}
 1d4:	000d0c0e 	andeq	r0, sp, lr, lsl #24
 1d8:	00000024 	andeq	r0, r0, r4, lsr #32
 1dc:	000001c8 	andeq	r0, r0, r8, asr #3
 1e0:	08000478 	stmdaeq	r0, {r3, r4, r5, r6, sl}
 1e4:	000000cc 	andeq	r0, r0, ip, asr #1
 1e8:	87040e41 	strhi	r0, [r4, -r1, asr #28]
 1ec:	100e4101 	andne	r4, lr, r1, lsl #2
 1f0:	02070d41 	andeq	r0, r7, #4160	; 0x1040
 1f4:	41040e5c 	tstmi	r4, ip, asr lr
 1f8:	c7410d0d 	strbgt	r0, [r1, -sp, lsl #26]
 1fc:	0000000e 	andeq	r0, r0, lr
 200:	00000024 	andeq	r0, r0, r4, lsr #32
 204:	000001c8 	andeq	r0, r0, r8, asr #3
 208:	08000544 	stmdaeq	r0, {r2, r6, r8, sl}
 20c:	000000cc 	andeq	r0, r0, ip, asr #1
 210:	87040e41 	strhi	r0, [r4, -r1, asr #28]
 214:	100e4101 	andne	r4, lr, r1, lsl #2
 218:	02070d41 	andeq	r0, r7, #4160	; 0x1040
 21c:	41040e5c 	tstmi	r4, ip, asr lr
 220:	c7410d0d 	strbgt	r0, [r1, -sp, lsl #26]
 224:	0000000e 	andeq	r0, r0, lr
 228:	00000020 	andeq	r0, r0, r0, lsr #32
 22c:	000001c8 	andeq	r0, r0, r8, asr #3
 230:	08000610 	stmdaeq	r0, {r4, r9, sl}
 234:	000001d8 	ldrdeq	r0, [r0], -r8
 238:	87080e41 	strhi	r0, [r8, -r1, asr #28]
 23c:	41018e02 	tstmi	r1, r2, lsl #28
 240:	0d41180e 	stcleq	8, cr1, [r1, #-56]	; 0xffffffc8
 244:	0ed90207 	cdpeq	2, 13, cr0, cr9, cr7, {0}
 248:	0d0d4108 	stfeqs	f4, [sp, #-32]	; 0xffffffe0
 24c:	00000020 	andeq	r0, r0, r0, lsr #32
 250:	000001c8 	andeq	r0, r0, r8, asr #3
 254:	080007e8 	stmdaeq	r0, {r3, r5, r6, r7, r8, r9, sl}
 258:	00000016 	andeq	r0, r0, r6, lsl r0
 25c:	87080e41 	strhi	r0, [r8, -r1, asr #28]
 260:	41018e02 	tstmi	r1, r2, lsl #28
 264:	0d41100e 	stcleq	0, cr1, [r1, #-56]	; 0xffffffc8
 268:	080e4607 	stmdaeq	lr, {r0, r1, r2, r9, sl, lr}
 26c:	000d0d41 	andeq	r0, sp, r1, asr #26
 270:	0000001c 	andeq	r0, r0, ip, lsl r0
 274:	000001c8 	andeq	r0, r0, r8, asr #3
 278:	00000000 	andeq	r0, r0, r0
 27c:	00000094 	muleq	r0, r4, r0
 280:	87040e41 	strhi	r0, [r4, -r1, asr #28]
 284:	070d4101 	streq	r4, [sp, -r1, lsl #2]
 288:	410d0d7f 	tstmi	sp, pc, ror sp
 28c:	00000ec7 	andeq	r0, r0, r7, asr #29
 290:	00000020 	andeq	r0, r0, r0, lsr #32
 294:	000001c8 	andeq	r0, r0, r8, asr #3
 298:	00000000 	andeq	r0, r0, r0
 29c:	00000016 	andeq	r0, r0, r6, lsl r0
 2a0:	87080e41 	strhi	r0, [r8, -r1, asr #28]
 2a4:	41018e02 	tstmi	r1, r2, lsl #28
 2a8:	0d41100e 	stcleq	0, cr1, [r1, #-56]	; 0xffffffc8
 2ac:	080e4607 	stmdaeq	lr, {r0, r1, r2, r9, sl, lr}
 2b0:	000d0d41 	andeq	r0, sp, r1, asr #26
 2b4:	00000018 	andeq	r0, r0, r8, lsl r0
 2b8:	000001c8 	andeq	r0, r0, r8, asr #3
 2bc:	08000800 	stmdaeq	r0, {fp}
 2c0:	00000024 	andeq	r0, r0, r4, lsr #32
 2c4:	87080e41 	strhi	r0, [r8, -r1, asr #28]
 2c8:	41018e02 	tstmi	r1, r2, lsl #28
 2cc:	0000070d 	andeq	r0, r0, sp, lsl #14
 2d0:	00000018 	andeq	r0, r0, r8, lsl r0
 2d4:	000001c8 	andeq	r0, r0, r8, asr #3
 2d8:	08000824 	stmdaeq	r0, {r2, r5, fp}
 2dc:	00000024 	andeq	r0, r0, r4, lsr #32
 2e0:	87080e41 	strhi	r0, [r8, -r1, asr #28]
 2e4:	41018e02 	tstmi	r1, r2, lsl #28
 2e8:	0000070d 	andeq	r0, r0, sp, lsl #14
 2ec:	00000018 	andeq	r0, r0, r8, lsl r0
 2f0:	000001c8 	andeq	r0, r0, r8, asr #3
 2f4:	08000848 	stmdaeq	r0, {r3, r6, fp}
 2f8:	00000024 	andeq	r0, r0, r4, lsr #32
 2fc:	87080e41 	strhi	r0, [r8, -r1, asr #28]
 300:	41018e02 	tstmi	r1, r2, lsl #28
 304:	0000070d 	andeq	r0, r0, sp, lsl #14
 308:	00000018 	andeq	r0, r0, r8, lsl r0
 30c:	000001c8 	andeq	r0, r0, r8, asr #3
 310:	0800086c 	stmdaeq	r0, {r2, r3, r5, r6, fp}
 314:	00000024 	andeq	r0, r0, r4, lsr #32
 318:	87080e41 	strhi	r0, [r8, -r1, asr #28]
 31c:	41018e02 	tstmi	r1, r2, lsl #28
 320:	0000070d 	andeq	r0, r0, sp, lsl #14
 324:	00000018 	andeq	r0, r0, r8, lsl r0
 328:	000001c8 	andeq	r0, r0, r8, asr #3
 32c:	08000890 	stmdaeq	r0, {r4, r7, fp}
 330:	00000024 	andeq	r0, r0, r4, lsr #32
 334:	87080e41 	strhi	r0, [r8, -r1, asr #28]
 338:	41018e02 	tstmi	r1, r2, lsl #28
 33c:	0000070d 	andeq	r0, r0, sp, lsl #14
 340:	00000018 	andeq	r0, r0, r8, lsl r0
 344:	000001c8 	andeq	r0, r0, r8, asr #3
 348:	080008b4 	stmdaeq	r0, {r2, r4, r5, r7, fp}
 34c:	000000a8 	andeq	r0, r0, r8, lsr #1
 350:	87080e41 	strhi	r0, [r8, -r1, asr #28]
 354:	41018e02 	tstmi	r1, r2, lsl #28
 358:	0000070d 	andeq	r0, r0, sp, lsl #14
 35c:	00000018 	andeq	r0, r0, r8, lsl r0
 360:	000001c8 	andeq	r0, r0, r8, asr #3
 364:	0800095c 	stmdaeq	r0, {r2, r3, r4, r6, r8, fp}
 368:	000000c4 	andeq	r0, r0, r4, asr #1
 36c:	87080e41 	strhi	r0, [r8, -r1, asr #28]
 370:	41018e02 	tstmi	r1, r2, lsl #28
 374:	0000070d 	andeq	r0, r0, sp, lsl #14
 378:	0000000c 	andeq	r0, r0, ip
 37c:	ffffffff 			; <UNDEFINED> instruction: 0xffffffff
 380:	7c020001 	stcvc	0, cr0, [r2], {1}
 384:	000d0c0e 	andeq	r0, sp, lr, lsl #24
 388:	00000018 	andeq	r0, r0, r8, lsl r0
 38c:	00000378 	andeq	r0, r0, r8, ror r3
 390:	08000a20 	stmdaeq	r0, {r5, r9, fp}
 394:	00000048 	andeq	r0, r0, r8, asr #32
 398:	84100e41 	ldrhi	r0, [r0], #-3649	; 0xfffff1bf
 39c:	86038504 	strhi	r8, [r3], -r4, lsl #10
 3a0:	00018e02 	andeq	r8, r1, r2, lsl #28
