
Drivers.axf:     file format elf32-littlearm


Disassembly of section .isr_vector:

08000000 <g_pfnVectors>:
 8000000:	20002800 	andcs	r2, r0, r0, lsl #16
 8000004:	08000261 	stmdaeq	r0, {r0, r5, r6, r9}
 8000008:	080002b1 	stmdaeq	r0, {r0, r4, r5, r7, r9}
 800000c:	08000171 	stmdaeq	r0, {r0, r4, r5, r6, r8}
 8000010:	080002b1 	stmdaeq	r0, {r0, r4, r5, r7, r9}
 8000014:	0800017d 	stmdaeq	r0, {r0, r2, r3, r4, r5, r6, r8}
 8000018:	08000189 	stmdaeq	r0, {r0, r3, r7, r8}
	...
 800002c:	080002b1 	stmdaeq	r0, {r0, r4, r5, r7, r9}
 8000030:	080002b1 	stmdaeq	r0, {r0, r4, r5, r7, r9}
 8000034:	00000000 	andeq	r0, r0, r0
 8000038:	080002b1 	stmdaeq	r0, {r0, r4, r5, r7, r9}
 800003c:	080002b1 	stmdaeq	r0, {r0, r4, r5, r7, r9}
 8000040:	080002b1 	stmdaeq	r0, {r0, r4, r5, r7, r9}
 8000044:	080002b1 	stmdaeq	r0, {r0, r4, r5, r7, r9}
 8000048:	080002b1 	stmdaeq	r0, {r0, r4, r5, r7, r9}
 800004c:	080002b1 	stmdaeq	r0, {r0, r4, r5, r7, r9}
 8000050:	080002b1 	stmdaeq	r0, {r0, r4, r5, r7, r9}
 8000054:	080002b1 	stmdaeq	r0, {r0, r4, r5, r7, r9}
 8000058:	08000801 	stmdaeq	r0, {r0, fp}
 800005c:	08000825 	stmdaeq	r0, {r0, r2, r5, fp}
 8000060:	08000849 	stmdaeq	r0, {r0, r3, r6, fp}
 8000064:	0800086d 	stmdaeq	r0, {r0, r2, r3, r5, r6, fp}
 8000068:	08000891 	stmdaeq	r0, {r0, r4, r7, fp}
 800006c:	080002b1 	stmdaeq	r0, {r0, r4, r5, r7, r9}
 8000070:	080002b1 	stmdaeq	r0, {r0, r4, r5, r7, r9}
 8000074:	080002b1 	stmdaeq	r0, {r0, r4, r5, r7, r9}
 8000078:	080002b1 	stmdaeq	r0, {r0, r4, r5, r7, r9}
 800007c:	080002b1 	stmdaeq	r0, {r0, r4, r5, r7, r9}
 8000080:	080002b1 	stmdaeq	r0, {r0, r4, r5, r7, r9}
 8000084:	080002b1 	stmdaeq	r0, {r0, r4, r5, r7, r9}
 8000088:	080002b1 	stmdaeq	r0, {r0, r4, r5, r7, r9}
 800008c:	080002b1 	stmdaeq	r0, {r0, r4, r5, r7, r9}
 8000090:	080002b1 	stmdaeq	r0, {r0, r4, r5, r7, r9}
 8000094:	080002b1 	stmdaeq	r0, {r0, r4, r5, r7, r9}
 8000098:	080002b1 	stmdaeq	r0, {r0, r4, r5, r7, r9}
 800009c:	080008b5 	stmdaeq	r0, {r0, r2, r4, r5, r7, fp}
 80000a0:	080002b1 	stmdaeq	r0, {r0, r4, r5, r7, r9}
 80000a4:	080002b1 	stmdaeq	r0, {r0, r4, r5, r7, r9}
 80000a8:	080002b1 	stmdaeq	r0, {r0, r4, r5, r7, r9}
 80000ac:	080002b1 	stmdaeq	r0, {r0, r4, r5, r7, r9}
 80000b0:	080002b1 	stmdaeq	r0, {r0, r4, r5, r7, r9}
 80000b4:	080002b1 	stmdaeq	r0, {r0, r4, r5, r7, r9}
 80000b8:	080002b1 	stmdaeq	r0, {r0, r4, r5, r7, r9}
 80000bc:	080002b1 	stmdaeq	r0, {r0, r4, r5, r7, r9}
 80000c0:	080002b1 	stmdaeq	r0, {r0, r4, r5, r7, r9}
 80000c4:	080002b1 	stmdaeq	r0, {r0, r4, r5, r7, r9}
 80000c8:	080002b1 	stmdaeq	r0, {r0, r4, r5, r7, r9}
 80000cc:	080002b1 	stmdaeq	r0, {r0, r4, r5, r7, r9}
 80000d0:	080002b1 	stmdaeq	r0, {r0, r4, r5, r7, r9}
 80000d4:	080002b1 	stmdaeq	r0, {r0, r4, r5, r7, r9}
 80000d8:	080002b1 	stmdaeq	r0, {r0, r4, r5, r7, r9}
 80000dc:	080002b1 	stmdaeq	r0, {r0, r4, r5, r7, r9}
 80000e0:	0800095d 	stmdaeq	r0, {r0, r2, r3, r4, r6, r8, fp}
 80000e4:	080002b1 	stmdaeq	r0, {r0, r4, r5, r7, r9}
 80000e8:	00000000 	andeq	r0, r0, r0
 80000ec:	080002b1 	stmdaeq	r0, {r0, r4, r5, r7, r9}
 80000f0:	080002b1 	stmdaeq	r0, {r0, r4, r5, r7, r9}
 80000f4:	080002b1 	stmdaeq	r0, {r0, r4, r5, r7, r9}
 80000f8:	080002b1 	stmdaeq	r0, {r0, r4, r5, r7, r9}
 80000fc:	080002b1 	stmdaeq	r0, {r0, r4, r5, r7, r9}
 8000100:	080002b1 	stmdaeq	r0, {r0, r4, r5, r7, r9}
 8000104:	080002b1 	stmdaeq	r0, {r0, r4, r5, r7, r9}
 8000108:	080002b1 	stmdaeq	r0, {r0, r4, r5, r7, r9}
 800010c:	080002b1 	stmdaeq	r0, {r0, r4, r5, r7, r9}
 8000110:	080002b1 	stmdaeq	r0, {r0, r4, r5, r7, r9}
 8000114:	080002b1 	stmdaeq	r0, {r0, r4, r5, r7, r9}
 8000118:	080002b1 	stmdaeq	r0, {r0, r4, r5, r7, r9}
 800011c:	080002b1 	stmdaeq	r0, {r0, r4, r5, r7, r9}
 8000120:	080002b1 	stmdaeq	r0, {r0, r4, r5, r7, r9}
 8000124:	080002b1 	stmdaeq	r0, {r0, r4, r5, r7, r9}
 8000128:	080002b1 	stmdaeq	r0, {r0, r4, r5, r7, r9}
 800012c:	080002b1 	stmdaeq	r0, {r0, r4, r5, r7, r9}

Disassembly of section .text:

08000130 <__do_global_dtors_aux>:
 8000130:	b510      	push	{r4, lr}
 8000132:	4c05      	ldr	r4, [pc, #20]	; (8000148 <__do_global_dtors_aux+0x18>)
 8000134:	7823      	ldrb	r3, [r4, #0]
 8000136:	b933      	cbnz	r3, 8000146 <__do_global_dtors_aux+0x16>
 8000138:	4b04      	ldr	r3, [pc, #16]	; (800014c <__do_global_dtors_aux+0x1c>)
 800013a:	b113      	cbz	r3, 8000142 <__do_global_dtors_aux+0x12>
 800013c:	4804      	ldr	r0, [pc, #16]	; (8000150 <__do_global_dtors_aux+0x20>)
 800013e:	f3af 8000 	nop.w
 8000142:	2301      	movs	r3, #1
 8000144:	7023      	strb	r3, [r4, #0]
 8000146:	bd10      	pop	{r4, pc}
 8000148:	20000000 	andcs	r0, r0, r0
 800014c:	00000000 	andeq	r0, r0, r0
 8000150:	08000a68 	stmdaeq	r0, {r3, r5, r6, r9, fp}

08000154 <frame_dummy>:
 8000154:	b508      	push	{r3, lr}
 8000156:	4b03      	ldr	r3, [pc, #12]	; (8000164 <frame_dummy+0x10>)
 8000158:	b11b      	cbz	r3, 8000162 <frame_dummy+0xe>
 800015a:	4903      	ldr	r1, [pc, #12]	; (8000168 <frame_dummy+0x14>)
 800015c:	4803      	ldr	r0, [pc, #12]	; (800016c <frame_dummy+0x18>)
 800015e:	f3af 8000 	nop.w
 8000162:	bd08      	pop	{r3, pc}
 8000164:	00000000 	andeq	r0, r0, r0
 8000168:	20000004 	andcs	r0, r0, r4
 800016c:	08000a68 	stmdaeq	r0, {r3, r5, r6, r9, fp}

08000170 <HardFault_Handler>:
 8000170:	b480      	push	{r7}
 8000172:	af00      	add	r7, sp, #0
 8000174:	bf00      	nop
 8000176:	46bd      	mov	sp, r7
 8000178:	bc80      	pop	{r7}
 800017a:	4770      	bx	lr

0800017c <BusFault_Handler>:
 800017c:	b480      	push	{r7}
 800017e:	af00      	add	r7, sp, #0
 8000180:	bf00      	nop
 8000182:	46bd      	mov	sp, r7
 8000184:	bc80      	pop	{r7}
 8000186:	4770      	bx	lr

08000188 <UsageFault_Handler>:
 8000188:	b480      	push	{r7}
 800018a:	af00      	add	r7, sp, #0
 800018c:	bf00      	nop
 800018e:	46bd      	mov	sp, r7
 8000190:	bc80      	pop	{r7}
 8000192:	4770      	bx	lr

08000194 <SWITCH_CPU_AccessLevel>:
 8000194:	b480      	push	{r7}
 8000196:	b083      	sub	sp, #12
 8000198:	af00      	add	r7, sp, #0
 800019a:	4603      	mov	r3, r0
 800019c:	71fb      	strb	r3, [r7, #7]
 800019e:	79fb      	ldrb	r3, [r7, #7]
 80001a0:	2b00      	cmp	r3, #0
 80001a2:	d002      	beq.n	80001aa <SWITCH_CPU_AccessLevel+0x16>
 80001a4:	2b01      	cmp	r3, #1
 80001a6:	d009      	beq.n	80001bc <SWITCH_CPU_AccessLevel+0x28>
 80001a8:	e00f      	b.n	80001ca <SWITCH_CPU_AccessLevel+0x36>
 80001aa:	f3ef 8314 	mrs	r3, CONTROL
 80001ae:	ea4f 0353 	mov.w	r3, r3, lsr #1
 80001b2:	ea4f 0343 	mov.w	r3, r3, lsl #1
 80001b6:	f383 8814 	msr	CONTROL, r3
 80001ba:	e006      	b.n	80001ca <SWITCH_CPU_AccessLevel+0x36>
 80001bc:	f3ef 8314 	mrs	r3, CONTROL
 80001c0:	f043 0301 	orr.w	r3, r3, #1
 80001c4:	f383 8814 	msr	CONTROL, r3
 80001c8:	bf00      	nop
 80001ca:	bf00      	nop
 80001cc:	370c      	adds	r7, #12
 80001ce:	46bd      	mov	sp, r7
 80001d0:	bc80      	pop	{r7}
 80001d2:	4770      	bx	lr

080001d4 <EXTI9_Callback>:
 80001d4:	b580      	push	{r7, lr}
 80001d6:	af00      	add	r7, sp, #0
 80001d8:	4b03      	ldr	r3, [pc, #12]	; (80001e8 <EXTI9_Callback+0x14>)
 80001da:	2201      	movs	r2, #1
 80001dc:	601a      	str	r2, [r3, #0]
 80001de:	2000      	movs	r0, #0
 80001e0:	f7ff ffd8 	bl	8000194 <SWITCH_CPU_AccessLevel>
 80001e4:	bf00      	nop
 80001e6:	bd80      	pop	{r7, pc}
 80001e8:	2000001c 	andcs	r0, r0, ip, lsl r0

080001ec <main>:
 80001ec:	b580      	push	{r7, lr}
 80001ee:	b086      	sub	sp, #24
 80001f0:	af00      	add	r7, sp, #0
 80001f2:	4b17      	ldr	r3, [pc, #92]	; (8000250 <main+0x64>)
 80001f4:	699b      	ldr	r3, [r3, #24]
 80001f6:	4a16      	ldr	r2, [pc, #88]	; (8000250 <main+0x64>)
 80001f8:	f043 0304 	orr.w	r3, r3, #4
 80001fc:	6193      	str	r3, [r2, #24]
 80001fe:	4b14      	ldr	r3, [pc, #80]	; (8000250 <main+0x64>)
 8000200:	699b      	ldr	r3, [r3, #24]
 8000202:	4a13      	ldr	r2, [pc, #76]	; (8000250 <main+0x64>)
 8000204:	f043 0308 	orr.w	r3, r3, #8
 8000208:	6193      	str	r3, [r2, #24]
 800020a:	4b11      	ldr	r3, [pc, #68]	; (8000250 <main+0x64>)
 800020c:	699b      	ldr	r3, [r3, #24]
 800020e:	4a10      	ldr	r2, [pc, #64]	; (8000250 <main+0x64>)
 8000210:	f043 0301 	orr.w	r3, r3, #1
 8000214:	6193      	str	r3, [r2, #24]
 8000216:	4a0f      	ldr	r2, [pc, #60]	; (8000254 <main+0x68>)
 8000218:	1d3b      	adds	r3, r7, #4
 800021a:	ca07      	ldmia	r2, {r0, r1, r2}
 800021c:	e883 0007 	stmia.w	r3, {r0, r1, r2}
 8000220:	2300      	movs	r3, #0
 8000222:	743b      	strb	r3, [r7, #16]
 8000224:	4b0c      	ldr	r3, [pc, #48]	; (8000258 <main+0x6c>)
 8000226:	617b      	str	r3, [r7, #20]
 8000228:	2300      	movs	r3, #0
 800022a:	747b      	strb	r3, [r7, #17]
 800022c:	1d3b      	adds	r3, r7, #4
 800022e:	4618      	mov	r0, r3
 8000230:	f000 fada 	bl	80007e8 <MCAL_EXTI_GPIO_Init>
 8000234:	2001      	movs	r0, #1
 8000236:	f7ff ffad 	bl	8000194 <SWITCH_CPU_AccessLevel>
 800023a:	4b08      	ldr	r3, [pc, #32]	; (800025c <main+0x70>)
 800023c:	2201      	movs	r2, #1
 800023e:	601a      	str	r2, [r3, #0]
 8000240:	4b06      	ldr	r3, [pc, #24]	; (800025c <main+0x70>)
 8000242:	681b      	ldr	r3, [r3, #0]
 8000244:	2b00      	cmp	r3, #0
 8000246:	d0fb      	beq.n	8000240 <main+0x54>
 8000248:	4b04      	ldr	r3, [pc, #16]	; (800025c <main+0x70>)
 800024a:	2200      	movs	r2, #0
 800024c:	601a      	str	r2, [r3, #0]
 800024e:	e7f7      	b.n	8000240 <main+0x54>
 8000250:	40021000 	andmi	r1, r2, r0
 8000254:	08000a80 	stmdaeq	r0, {r7, r9, fp}
 8000258:	080001d5 	stmdaeq	r0, {r0, r2, r4, r6, r7, r8}
 800025c:	2000001c 	andcs	r0, r0, ip, lsl r0

08000260 <Reset_Handler>:
 8000260:	480d      	ldr	r0, [pc, #52]	; (8000298 <LoopForever+0x2>)
 8000262:	4685      	mov	sp, r0
 8000264:	f3af 8000 	nop.w
 8000268:	480c      	ldr	r0, [pc, #48]	; (800029c <LoopForever+0x6>)
 800026a:	490d      	ldr	r1, [pc, #52]	; (80002a0 <LoopForever+0xa>)
 800026c:	4a0d      	ldr	r2, [pc, #52]	; (80002a4 <LoopForever+0xe>)
 800026e:	2300      	movs	r3, #0
 8000270:	e002      	b.n	8000278 <LoopCopyDataInit>

08000272 <CopyDataInit>:
 8000272:	58d4      	ldr	r4, [r2, r3]
 8000274:	50c4      	str	r4, [r0, r3]
 8000276:	3304      	adds	r3, #4

08000278 <LoopCopyDataInit>:
 8000278:	18c4      	adds	r4, r0, r3
 800027a:	428c      	cmp	r4, r1
 800027c:	d3f9      	bcc.n	8000272 <CopyDataInit>
 800027e:	4a0a      	ldr	r2, [pc, #40]	; (80002a8 <LoopForever+0x12>)
 8000280:	4c0a      	ldr	r4, [pc, #40]	; (80002ac <LoopForever+0x16>)
 8000282:	2300      	movs	r3, #0
 8000284:	e001      	b.n	800028a <LoopFillZerobss>

08000286 <FillZerobss>:
 8000286:	6013      	str	r3, [r2, #0]
 8000288:	3204      	adds	r2, #4

0800028a <LoopFillZerobss>:
 800028a:	42a2      	cmp	r2, r4
 800028c:	d3fb      	bcc.n	8000286 <FillZerobss>
 800028e:	f000 fbc7 	bl	8000a20 <__libc_init_array>
 8000292:	f7ff ffab 	bl	80001ec <main>

08000296 <LoopForever>:
 8000296:	e7fe      	b.n	8000296 <LoopForever>
 8000298:	20002800 	andcs	r2, r0, r0, lsl #16
 800029c:	20000000 	andcs	r0, r0, r0
 80002a0:	20000000 	andcs	r0, r0, r0
 80002a4:	08000a94 	stmdaeq	r0, {r2, r4, r7, r9, fp}
 80002a8:	20000000 	andcs	r0, r0, r0
 80002ac:	2000005c 	andcs	r0, r0, ip, asr r0

080002b0 <ADC1_2_IRQHandler>:
 80002b0:	e7fe      	b.n	80002b0 <ADC1_2_IRQHandler>

080002b2 <Get_CRLH_Position>:
 80002b2:	b480      	push	{r7}
 80002b4:	b083      	sub	sp, #12
 80002b6:	af00      	add	r7, sp, #0
 80002b8:	4603      	mov	r3, r0
 80002ba:	80fb      	strh	r3, [r7, #6]
 80002bc:	88fb      	ldrh	r3, [r7, #6]
 80002be:	2b80      	cmp	r3, #128	; 0x80
 80002c0:	d042      	beq.n	8000348 <Get_CRLH_Position+0x96>
 80002c2:	2b80      	cmp	r3, #128	; 0x80
 80002c4:	dc11      	bgt.n	80002ea <Get_CRLH_Position+0x38>
 80002c6:	2b08      	cmp	r3, #8
 80002c8:	d036      	beq.n	8000338 <Get_CRLH_Position+0x86>
 80002ca:	2b08      	cmp	r3, #8
 80002cc:	dc06      	bgt.n	80002dc <Get_CRLH_Position+0x2a>
 80002ce:	2b02      	cmp	r3, #2
 80002d0:	d02e      	beq.n	8000330 <Get_CRLH_Position+0x7e>
 80002d2:	2b04      	cmp	r3, #4
 80002d4:	d02e      	beq.n	8000334 <Get_CRLH_Position+0x82>
 80002d6:	2b01      	cmp	r3, #1
 80002d8:	d028      	beq.n	800032c <Get_CRLH_Position+0x7a>
 80002da:	e047      	b.n	800036c <Get_CRLH_Position+0xba>
 80002dc:	2b20      	cmp	r3, #32
 80002de:	d02f      	beq.n	8000340 <Get_CRLH_Position+0x8e>
 80002e0:	2b40      	cmp	r3, #64	; 0x40
 80002e2:	d02f      	beq.n	8000344 <Get_CRLH_Position+0x92>
 80002e4:	2b10      	cmp	r3, #16
 80002e6:	d029      	beq.n	800033c <Get_CRLH_Position+0x8a>
 80002e8:	e040      	b.n	800036c <Get_CRLH_Position+0xba>
 80002ea:	f5b3 6f00 	cmp.w	r3, #2048	; 0x800
 80002ee:	d033      	beq.n	8000358 <Get_CRLH_Position+0xa6>
 80002f0:	f5b3 6f00 	cmp.w	r3, #2048	; 0x800
 80002f4:	dc09      	bgt.n	800030a <Get_CRLH_Position+0x58>
 80002f6:	f5b3 7f00 	cmp.w	r3, #512	; 0x200
 80002fa:	d029      	beq.n	8000350 <Get_CRLH_Position+0x9e>
 80002fc:	f5b3 6f80 	cmp.w	r3, #1024	; 0x400
 8000300:	d028      	beq.n	8000354 <Get_CRLH_Position+0xa2>
 8000302:	f5b3 7f80 	cmp.w	r3, #256	; 0x100
 8000306:	d021      	beq.n	800034c <Get_CRLH_Position+0x9a>
 8000308:	e030      	b.n	800036c <Get_CRLH_Position+0xba>
 800030a:	f5b3 5f00 	cmp.w	r3, #8192	; 0x2000
 800030e:	d027      	beq.n	8000360 <Get_CRLH_Position+0xae>
 8000310:	f5b3 5f00 	cmp.w	r3, #8192	; 0x2000
 8000314:	dc03      	bgt.n	800031e <Get_CRLH_Position+0x6c>
 8000316:	f5b3 5f80 	cmp.w	r3, #4096	; 0x1000
 800031a:	d01f      	beq.n	800035c <Get_CRLH_Position+0xaa>
 800031c:	e026      	b.n	800036c <Get_CRLH_Position+0xba>
 800031e:	f5b3 4f80 	cmp.w	r3, #16384	; 0x4000
 8000322:	d01f      	beq.n	8000364 <Get_CRLH_Position+0xb2>
 8000324:	f5b3 4f00 	cmp.w	r3, #32768	; 0x8000
 8000328:	d01e      	beq.n	8000368 <Get_CRLH_Position+0xb6>
 800032a:	e01f      	b.n	800036c <Get_CRLH_Position+0xba>
 800032c:	2300      	movs	r3, #0
 800032e:	e01e      	b.n	800036e <Get_CRLH_Position+0xbc>
 8000330:	2304      	movs	r3, #4
 8000332:	e01c      	b.n	800036e <Get_CRLH_Position+0xbc>
 8000334:	2308      	movs	r3, #8
 8000336:	e01a      	b.n	800036e <Get_CRLH_Position+0xbc>
 8000338:	230c      	movs	r3, #12
 800033a:	e018      	b.n	800036e <Get_CRLH_Position+0xbc>
 800033c:	2310      	movs	r3, #16
 800033e:	e016      	b.n	800036e <Get_CRLH_Position+0xbc>
 8000340:	2314      	movs	r3, #20
 8000342:	e014      	b.n	800036e <Get_CRLH_Position+0xbc>
 8000344:	2318      	movs	r3, #24
 8000346:	e012      	b.n	800036e <Get_CRLH_Position+0xbc>
 8000348:	231c      	movs	r3, #28
 800034a:	e010      	b.n	800036e <Get_CRLH_Position+0xbc>
 800034c:	2300      	movs	r3, #0
 800034e:	e00e      	b.n	800036e <Get_CRLH_Position+0xbc>
 8000350:	2304      	movs	r3, #4
 8000352:	e00c      	b.n	800036e <Get_CRLH_Position+0xbc>
 8000354:	2308      	movs	r3, #8
 8000356:	e00a      	b.n	800036e <Get_CRLH_Position+0xbc>
 8000358:	230c      	movs	r3, #12
 800035a:	e008      	b.n	800036e <Get_CRLH_Position+0xbc>
 800035c:	2310      	movs	r3, #16
 800035e:	e006      	b.n	800036e <Get_CRLH_Position+0xbc>
 8000360:	2314      	movs	r3, #20
 8000362:	e004      	b.n	800036e <Get_CRLH_Position+0xbc>
 8000364:	2318      	movs	r3, #24
 8000366:	e002      	b.n	800036e <Get_CRLH_Position+0xbc>
 8000368:	231c      	movs	r3, #28
 800036a:	e000      	b.n	800036e <Get_CRLH_Position+0xbc>
 800036c:	2300      	movs	r3, #0
 800036e:	4618      	mov	r0, r3
 8000370:	370c      	adds	r7, #12
 8000372:	46bd      	mov	sp, r7
 8000374:	bc80      	pop	{r7}
 8000376:	4770      	bx	lr

08000378 <MCAL_GPIO_Init>:
 8000378:	b590      	push	{r4, r7, lr}
 800037a:	b085      	sub	sp, #20
 800037c:	af00      	add	r7, sp, #0
 800037e:	6078      	str	r0, [r7, #4]
 8000380:	6039      	str	r1, [r7, #0]
 8000382:	2300      	movs	r3, #0
 8000384:	60bb      	str	r3, [r7, #8]
 8000386:	2300      	movs	r3, #0
 8000388:	73fb      	strb	r3, [r7, #15]
 800038a:	683b      	ldr	r3, [r7, #0]
 800038c:	881b      	ldrh	r3, [r3, #0]
 800038e:	2bff      	cmp	r3, #255	; 0xff
 8000390:	d801      	bhi.n	8000396 <MCAL_GPIO_Init+0x1e>
 8000392:	687b      	ldr	r3, [r7, #4]
 8000394:	e001      	b.n	800039a <MCAL_GPIO_Init+0x22>
 8000396:	687b      	ldr	r3, [r7, #4]
 8000398:	3304      	adds	r3, #4
 800039a:	60bb      	str	r3, [r7, #8]
 800039c:	683b      	ldr	r3, [r7, #0]
 800039e:	881b      	ldrh	r3, [r3, #0]
 80003a0:	4618      	mov	r0, r3
 80003a2:	f7ff ff86 	bl	80002b2 <Get_CRLH_Position>
 80003a6:	4603      	mov	r3, r0
 80003a8:	461a      	mov	r2, r3
 80003aa:	230f      	movs	r3, #15
 80003ac:	4093      	lsls	r3, r2
 80003ae:	43da      	mvns	r2, r3
 80003b0:	68bb      	ldr	r3, [r7, #8]
 80003b2:	681b      	ldr	r3, [r3, #0]
 80003b4:	401a      	ands	r2, r3
 80003b6:	68bb      	ldr	r3, [r7, #8]
 80003b8:	601a      	str	r2, [r3, #0]
 80003ba:	683b      	ldr	r3, [r7, #0]
 80003bc:	789b      	ldrb	r3, [r3, #2]
 80003be:	2b07      	cmp	r3, #7
 80003c0:	d00b      	beq.n	80003da <MCAL_GPIO_Init+0x62>
 80003c2:	683b      	ldr	r3, [r7, #0]
 80003c4:	789b      	ldrb	r3, [r3, #2]
 80003c6:	2b06      	cmp	r3, #6
 80003c8:	d007      	beq.n	80003da <MCAL_GPIO_Init+0x62>
 80003ca:	683b      	ldr	r3, [r7, #0]
 80003cc:	789b      	ldrb	r3, [r3, #2]
 80003ce:	2b05      	cmp	r3, #5
 80003d0:	d003      	beq.n	80003da <MCAL_GPIO_Init+0x62>
 80003d2:	683b      	ldr	r3, [r7, #0]
 80003d4:	789b      	ldrb	r3, [r3, #2]
 80003d6:	2b04      	cmp	r3, #4
 80003d8:	d10e      	bne.n	80003f8 <MCAL_GPIO_Init+0x80>
 80003da:	683b      	ldr	r3, [r7, #0]
 80003dc:	789b      	ldrb	r3, [r3, #2]
 80003de:	3b04      	subs	r3, #4
 80003e0:	009b      	lsls	r3, r3, #2
 80003e2:	b25a      	sxtb	r2, r3
 80003e4:	683b      	ldr	r3, [r7, #0]
 80003e6:	78db      	ldrb	r3, [r3, #3]
 80003e8:	b25b      	sxtb	r3, r3
 80003ea:	4313      	orrs	r3, r2
 80003ec:	b25b      	sxtb	r3, r3
 80003ee:	b2db      	uxtb	r3, r3
 80003f0:	f003 030f 	and.w	r3, r3, #15
 80003f4:	73fb      	strb	r3, [r7, #15]
 80003f6:	e02c      	b.n	8000452 <MCAL_GPIO_Init+0xda>
 80003f8:	683b      	ldr	r3, [r7, #0]
 80003fa:	789b      	ldrb	r3, [r3, #2]
 80003fc:	2b01      	cmp	r3, #1
 80003fe:	d003      	beq.n	8000408 <MCAL_GPIO_Init+0x90>
 8000400:	683b      	ldr	r3, [r7, #0]
 8000402:	789b      	ldrb	r3, [r3, #2]
 8000404:	2b00      	cmp	r3, #0
 8000406:	d107      	bne.n	8000418 <MCAL_GPIO_Init+0xa0>
 8000408:	683b      	ldr	r3, [r7, #0]
 800040a:	789b      	ldrb	r3, [r3, #2]
 800040c:	009b      	lsls	r3, r3, #2
 800040e:	b2db      	uxtb	r3, r3
 8000410:	f003 030f 	and.w	r3, r3, #15
 8000414:	73fb      	strb	r3, [r7, #15]
 8000416:	e01c      	b.n	8000452 <MCAL_GPIO_Init+0xda>
 8000418:	683b      	ldr	r3, [r7, #0]
 800041a:	789b      	ldrb	r3, [r3, #2]
 800041c:	2b08      	cmp	r3, #8
 800041e:	d102      	bne.n	8000426 <MCAL_GPIO_Init+0xae>
 8000420:	2304      	movs	r3, #4
 8000422:	73fb      	strb	r3, [r7, #15]
 8000424:	e015      	b.n	8000452 <MCAL_GPIO_Init+0xda>
 8000426:	2308      	movs	r3, #8
 8000428:	73fb      	strb	r3, [r7, #15]
 800042a:	683b      	ldr	r3, [r7, #0]
 800042c:	789b      	ldrb	r3, [r3, #2]
 800042e:	2b02      	cmp	r3, #2
 8000430:	d107      	bne.n	8000442 <MCAL_GPIO_Init+0xca>
 8000432:	687b      	ldr	r3, [r7, #4]
 8000434:	68db      	ldr	r3, [r3, #12]
 8000436:	683a      	ldr	r2, [r7, #0]
 8000438:	8812      	ldrh	r2, [r2, #0]
 800043a:	431a      	orrs	r2, r3
 800043c:	687b      	ldr	r3, [r7, #4]
 800043e:	60da      	str	r2, [r3, #12]
 8000440:	e007      	b.n	8000452 <MCAL_GPIO_Init+0xda>
 8000442:	687b      	ldr	r3, [r7, #4]
 8000444:	68db      	ldr	r3, [r3, #12]
 8000446:	683a      	ldr	r2, [r7, #0]
 8000448:	8812      	ldrh	r2, [r2, #0]
 800044a:	43d2      	mvns	r2, r2
 800044c:	401a      	ands	r2, r3
 800044e:	687b      	ldr	r3, [r7, #4]
 8000450:	60da      	str	r2, [r3, #12]
 8000452:	7bfc      	ldrb	r4, [r7, #15]
 8000454:	683b      	ldr	r3, [r7, #0]
 8000456:	881b      	ldrh	r3, [r3, #0]
 8000458:	4618      	mov	r0, r3
 800045a:	f7ff ff2a 	bl	80002b2 <Get_CRLH_Position>
 800045e:	4603      	mov	r3, r0
 8000460:	fa04 f203 	lsl.w	r2, r4, r3
 8000464:	68bb      	ldr	r3, [r7, #8]
 8000466:	681b      	ldr	r3, [r3, #0]
 8000468:	431a      	orrs	r2, r3
 800046a:	68bb      	ldr	r3, [r7, #8]
 800046c:	601a      	str	r2, [r3, #0]
 800046e:	bf00      	nop
 8000470:	3714      	adds	r7, #20
 8000472:	46bd      	mov	sp, r7
 8000474:	bd90      	pop	{r4, r7, pc}
	...

08000478 <Enable_NVIC>:
 8000478:	b480      	push	{r7}
 800047a:	b083      	sub	sp, #12
 800047c:	af00      	add	r7, sp, #0
 800047e:	4603      	mov	r3, r0
 8000480:	80fb      	strh	r3, [r7, #6]
 8000482:	88fb      	ldrh	r3, [r7, #6]
 8000484:	2b0f      	cmp	r3, #15
 8000486:	d854      	bhi.n	8000532 <Enable_NVIC+0xba>
 8000488:	a201      	add	r2, pc, #4	; (adr r2, 8000490 <Enable_NVIC+0x18>)
 800048a:	f852 f023 	ldr.w	pc, [r2, r3, lsl #2]
 800048e:	bf00      	nop
 8000490:	080004d1 	stmdaeq	r0, {r0, r4, r6, r7, sl}
 8000494:	080004df 	stmdaeq	r0, {r0, r1, r2, r3, r4, r6, r7, sl}
 8000498:	080004ed 	stmdaeq	r0, {r0, r2, r3, r5, r6, r7, sl}
 800049c:	080004fb 	stmdaeq	r0, {r0, r1, r3, r4, r5, r6, r7, sl}
 80004a0:	08000509 	stmdaeq	r0, {r0, r3, r8, sl}
 80004a4:	08000517 	stmdaeq	r0, {r0, r1, r2, r4, r8, sl}
 80004a8:	08000517 	stmdaeq	r0, {r0, r1, r2, r4, r8, sl}
 80004ac:	08000517 	stmdaeq	r0, {r0, r1, r2, r4, r8, sl}
 80004b0:	08000517 	stmdaeq	r0, {r0, r1, r2, r4, r8, sl}
 80004b4:	08000517 	stmdaeq	r0, {r0, r1, r2, r4, r8, sl}
 80004b8:	08000525 	stmdaeq	r0, {r0, r2, r5, r8, sl}
 80004bc:	08000525 	stmdaeq	r0, {r0, r2, r5, r8, sl}
 80004c0:	08000525 	stmdaeq	r0, {r0, r2, r5, r8, sl}
 80004c4:	08000525 	stmdaeq	r0, {r0, r2, r5, r8, sl}
 80004c8:	08000525 	stmdaeq	r0, {r0, r2, r5, r8, sl}
 80004cc:	08000525 	stmdaeq	r0, {r0, r2, r5, r8, sl}
 80004d0:	4b1a      	ldr	r3, [pc, #104]	; (800053c <Enable_NVIC+0xc4>)
 80004d2:	681b      	ldr	r3, [r3, #0]
 80004d4:	4a19      	ldr	r2, [pc, #100]	; (800053c <Enable_NVIC+0xc4>)
 80004d6:	f043 0340 	orr.w	r3, r3, #64	; 0x40
 80004da:	6013      	str	r3, [r2, #0]
 80004dc:	e029      	b.n	8000532 <Enable_NVIC+0xba>
 80004de:	4b17      	ldr	r3, [pc, #92]	; (800053c <Enable_NVIC+0xc4>)
 80004e0:	681b      	ldr	r3, [r3, #0]
 80004e2:	4a16      	ldr	r2, [pc, #88]	; (800053c <Enable_NVIC+0xc4>)
 80004e4:	f043 0380 	orr.w	r3, r3, #128	; 0x80
 80004e8:	6013      	str	r3, [r2, #0]
 80004ea:	e022      	b.n	8000532 <Enable_NVIC+0xba>
 80004ec:	4b13      	ldr	r3, [pc, #76]	; (800053c <Enable_NVIC+0xc4>)
 80004ee:	681b      	ldr	r3, [r3, #0]
 80004f0:	4a12      	ldr	r2, [pc, #72]	; (800053c <Enable_NVIC+0xc4>)
 80004f2:	f443 7380 	orr.w	r3, r3, #256	; 0x100
 80004f6:	6013      	str	r3, [r2, #0]
 80004f8:	e01b      	b.n	8000532 <Enable_NVIC+0xba>
 80004fa:	4b10      	ldr	r3, [pc, #64]	; (800053c <Enable_NVIC+0xc4>)
 80004fc:	681b      	ldr	r3, [r3, #0]
 80004fe:	4a0f      	ldr	r2, [pc, #60]	; (800053c <Enable_NVIC+0xc4>)
 8000500:	f443 7300 	orr.w	r3, r3, #512	; 0x200
 8000504:	6013      	str	r3, [r2, #0]
 8000506:	e014      	b.n	8000532 <Enable_NVIC+0xba>
 8000508:	4b0c      	ldr	r3, [pc, #48]	; (800053c <Enable_NVIC+0xc4>)
 800050a:	681b      	ldr	r3, [r3, #0]
 800050c:	4a0b      	ldr	r2, [pc, #44]	; (800053c <Enable_NVIC+0xc4>)
 800050e:	f443 6380 	orr.w	r3, r3, #1024	; 0x400
 8000512:	6013      	str	r3, [r2, #0]
 8000514:	e00d      	b.n	8000532 <Enable_NVIC+0xba>
 8000516:	4b09      	ldr	r3, [pc, #36]	; (800053c <Enable_NVIC+0xc4>)
 8000518:	681b      	ldr	r3, [r3, #0]
 800051a:	4a08      	ldr	r2, [pc, #32]	; (800053c <Enable_NVIC+0xc4>)
 800051c:	f443 0300 	orr.w	r3, r3, #8388608	; 0x800000
 8000520:	6013      	str	r3, [r2, #0]
 8000522:	e006      	b.n	8000532 <Enable_NVIC+0xba>
 8000524:	4b06      	ldr	r3, [pc, #24]	; (8000540 <Enable_NVIC+0xc8>)
 8000526:	681b      	ldr	r3, [r3, #0]
 8000528:	4a05      	ldr	r2, [pc, #20]	; (8000540 <Enable_NVIC+0xc8>)
 800052a:	f443 7380 	orr.w	r3, r3, #256	; 0x100
 800052e:	6013      	str	r3, [r2, #0]
 8000530:	bf00      	nop
 8000532:	bf00      	nop
 8000534:	370c      	adds	r7, #12
 8000536:	46bd      	mov	sp, r7
 8000538:	bc80      	pop	{r7}
 800053a:	4770      	bx	lr
 800053c:	e000e100 	and	lr, r0, r0, lsl #2
 8000540:	e000e104 	and	lr, r0, r4, lsl #2

08000544 <Disable_NVIC>:
 8000544:	b480      	push	{r7}
 8000546:	b083      	sub	sp, #12
 8000548:	af00      	add	r7, sp, #0
 800054a:	4603      	mov	r3, r0
 800054c:	80fb      	strh	r3, [r7, #6]
 800054e:	88fb      	ldrh	r3, [r7, #6]
 8000550:	2b0f      	cmp	r3, #15
 8000552:	d854      	bhi.n	80005fe <Disable_NVIC+0xba>
 8000554:	a201      	add	r2, pc, #4	; (adr r2, 800055c <Disable_NVIC+0x18>)
 8000556:	f852 f023 	ldr.w	pc, [r2, r3, lsl #2]
 800055a:	bf00      	nop
 800055c:	0800059d 	stmdaeq	r0, {r0, r2, r3, r4, r7, r8, sl}
 8000560:	080005ab 	stmdaeq	r0, {r0, r1, r3, r5, r7, r8, sl}
 8000564:	080005b9 	stmdaeq	r0, {r0, r3, r4, r5, r7, r8, sl}
 8000568:	080005c7 	stmdaeq	r0, {r0, r1, r2, r6, r7, r8, sl}
 800056c:	080005d5 	stmdaeq	r0, {r0, r2, r4, r6, r7, r8, sl}
 8000570:	080005e3 	stmdaeq	r0, {r0, r1, r5, r6, r7, r8, sl}
 8000574:	080005e3 	stmdaeq	r0, {r0, r1, r5, r6, r7, r8, sl}
 8000578:	080005e3 	stmdaeq	r0, {r0, r1, r5, r6, r7, r8, sl}
 800057c:	080005e3 	stmdaeq	r0, {r0, r1, r5, r6, r7, r8, sl}
 8000580:	080005e3 	stmdaeq	r0, {r0, r1, r5, r6, r7, r8, sl}
 8000584:	080005f1 	stmdaeq	r0, {r0, r4, r5, r6, r7, r8, sl}
 8000588:	080005f1 	stmdaeq	r0, {r0, r4, r5, r6, r7, r8, sl}
 800058c:	080005f1 	stmdaeq	r0, {r0, r4, r5, r6, r7, r8, sl}
 8000590:	080005f1 	stmdaeq	r0, {r0, r4, r5, r6, r7, r8, sl}
 8000594:	080005f1 	stmdaeq	r0, {r0, r4, r5, r6, r7, r8, sl}
 8000598:	080005f1 	stmdaeq	r0, {r0, r4, r5, r6, r7, r8, sl}
 800059c:	4b1a      	ldr	r3, [pc, #104]	; (8000608 <Disable_NVIC+0xc4>)
 800059e:	681b      	ldr	r3, [r3, #0]
 80005a0:	4a19      	ldr	r2, [pc, #100]	; (8000608 <Disable_NVIC+0xc4>)
 80005a2:	f043 0340 	orr.w	r3, r3, #64	; 0x40
 80005a6:	6013      	str	r3, [r2, #0]
 80005a8:	e029      	b.n	80005fe <Disable_NVIC+0xba>
 80005aa:	4b17      	ldr	r3, [pc, #92]	; (8000608 <Disable_NVIC+0xc4>)
 80005ac:	681b      	ldr	r3, [r3, #0]
 80005ae:	4a16      	ldr	r2, [pc, #88]	; (8000608 <Disable_NVIC+0xc4>)
 80005b0:	f043 0380 	orr.w	r3, r3, #128	; 0x80
 80005b4:	6013      	str	r3, [r2, #0]
 80005b6:	e022      	b.n	80005fe <Disable_NVIC+0xba>
 80005b8:	4b13      	ldr	r3, [pc, #76]	; (8000608 <Disable_NVIC+0xc4>)
 80005ba:	681b      	ldr	r3, [r3, #0]
 80005bc:	4a12      	ldr	r2, [pc, #72]	; (8000608 <Disable_NVIC+0xc4>)
 80005be:	f443 7380 	orr.w	r3, r3, #256	; 0x100
 80005c2:	6013      	str	r3, [r2, #0]
 80005c4:	e01b      	b.n	80005fe <Disable_NVIC+0xba>
 80005c6:	4b10      	ldr	r3, [pc, #64]	; (8000608 <Disable_NVIC+0xc4>)
 80005c8:	681b      	ldr	r3, [r3, #0]
 80005ca:	4a0f      	ldr	r2, [pc, #60]	; (8000608 <Disable_NVIC+0xc4>)
 80005cc:	f443 7300 	orr.w	r3, r3, #512	; 0x200
 80005d0:	6013      	str	r3, [r2, #0]
 80005d2:	e014      	b.n	80005fe <Disable_NVIC+0xba>
 80005d4:	4b0c      	ldr	r3, [pc, #48]	; (8000608 <Disable_NVIC+0xc4>)
 80005d6:	681b      	ldr	r3, [r3, #0]
 80005d8:	4a0b      	ldr	r2, [pc, #44]	; (8000608 <Disable_NVIC+0xc4>)
 80005da:	f443 6380 	orr.w	r3, r3, #1024	; 0x400
 80005de:	6013      	str	r3, [r2, #0]
 80005e0:	e00d      	b.n	80005fe <Disable_NVIC+0xba>
 80005e2:	4b09      	ldr	r3, [pc, #36]	; (8000608 <Disable_NVIC+0xc4>)
 80005e4:	681b      	ldr	r3, [r3, #0]
 80005e6:	4a08      	ldr	r2, [pc, #32]	; (8000608 <Disable_NVIC+0xc4>)
 80005e8:	f443 0300 	orr.w	r3, r3, #8388608	; 0x800000
 80005ec:	6013      	str	r3, [r2, #0]
 80005ee:	e006      	b.n	80005fe <Disable_NVIC+0xba>
 80005f0:	4b06      	ldr	r3, [pc, #24]	; (800060c <Disable_NVIC+0xc8>)
 80005f2:	681b      	ldr	r3, [r3, #0]
 80005f4:	4a05      	ldr	r2, [pc, #20]	; (800060c <Disable_NVIC+0xc8>)
 80005f6:	f443 7380 	orr.w	r3, r3, #256	; 0x100
 80005fa:	6013      	str	r3, [r2, #0]
 80005fc:	bf00      	nop
 80005fe:	bf00      	nop
 8000600:	370c      	adds	r7, #12
 8000602:	46bd      	mov	sp, r7
 8000604:	bc80      	pop	{r7}
 8000606:	4770      	bx	lr
 8000608:	e000e180 	and	lr, r0, r0, lsl #3
 800060c:	e000e184 	and	lr, r0, r4, lsl #3

08000610 <Update_EXTI>:
 8000610:	b580      	push	{r7, lr}
 8000612:	b084      	sub	sp, #16
 8000614:	af00      	add	r7, sp, #0
 8000616:	6078      	str	r0, [r7, #4]
 8000618:	687b      	ldr	r3, [r7, #4]
 800061a:	891b      	ldrh	r3, [r3, #8]
 800061c:	813b      	strh	r3, [r7, #8]
 800061e:	2301      	movs	r3, #1
 8000620:	72bb      	strb	r3, [r7, #10]
 8000622:	687b      	ldr	r3, [r7, #4]
 8000624:	685b      	ldr	r3, [r3, #4]
 8000626:	f107 0208 	add.w	r2, r7, #8
 800062a:	4611      	mov	r1, r2
 800062c:	4618      	mov	r0, r3
 800062e:	f7ff fea3 	bl	8000378 <MCAL_GPIO_Init>
 8000632:	687b      	ldr	r3, [r7, #4]
 8000634:	881b      	ldrh	r3, [r3, #0]
 8000636:	089b      	lsrs	r3, r3, #2
 8000638:	b29b      	uxth	r3, r3
 800063a:	73fb      	strb	r3, [r7, #15]
 800063c:	687b      	ldr	r3, [r7, #4]
 800063e:	881b      	ldrh	r3, [r3, #0]
 8000640:	b2db      	uxtb	r3, r3
 8000642:	f003 0303 	and.w	r3, r3, #3
 8000646:	b2db      	uxtb	r3, r3
 8000648:	009b      	lsls	r3, r3, #2
 800064a:	73bb      	strb	r3, [r7, #14]
 800064c:	4a5f      	ldr	r2, [pc, #380]	; (80007cc <Update_EXTI+0x1bc>)
 800064e:	7bfb      	ldrb	r3, [r7, #15]
 8000650:	3302      	adds	r3, #2
 8000652:	f852 2023 	ldr.w	r2, [r2, r3, lsl #2]
 8000656:	7bbb      	ldrb	r3, [r7, #14]
 8000658:	210f      	movs	r1, #15
 800065a:	fa01 f303 	lsl.w	r3, r1, r3
 800065e:	43db      	mvns	r3, r3
 8000660:	4618      	mov	r0, r3
 8000662:	495a      	ldr	r1, [pc, #360]	; (80007cc <Update_EXTI+0x1bc>)
 8000664:	7bfb      	ldrb	r3, [r7, #15]
 8000666:	4002      	ands	r2, r0
 8000668:	3302      	adds	r3, #2
 800066a:	f841 2023 	str.w	r2, [r1, r3, lsl #2]
 800066e:	4a57      	ldr	r2, [pc, #348]	; (80007cc <Update_EXTI+0x1bc>)
 8000670:	7bfb      	ldrb	r3, [r7, #15]
 8000672:	3302      	adds	r3, #2
 8000674:	f852 2023 	ldr.w	r2, [r2, r3, lsl #2]
 8000678:	687b      	ldr	r3, [r7, #4]
 800067a:	685b      	ldr	r3, [r3, #4]
 800067c:	4954      	ldr	r1, [pc, #336]	; (80007d0 <Update_EXTI+0x1c0>)
 800067e:	428b      	cmp	r3, r1
 8000680:	d016      	beq.n	80006b0 <Update_EXTI+0xa0>
 8000682:	687b      	ldr	r3, [r7, #4]
 8000684:	685b      	ldr	r3, [r3, #4]
 8000686:	4953      	ldr	r1, [pc, #332]	; (80007d4 <Update_EXTI+0x1c4>)
 8000688:	428b      	cmp	r3, r1
 800068a:	d00f      	beq.n	80006ac <Update_EXTI+0x9c>
 800068c:	687b      	ldr	r3, [r7, #4]
 800068e:	685b      	ldr	r3, [r3, #4]
 8000690:	4951      	ldr	r1, [pc, #324]	; (80007d8 <Update_EXTI+0x1c8>)
 8000692:	428b      	cmp	r3, r1
 8000694:	d008      	beq.n	80006a8 <Update_EXTI+0x98>
 8000696:	687b      	ldr	r3, [r7, #4]
 8000698:	685b      	ldr	r3, [r3, #4]
 800069a:	4950      	ldr	r1, [pc, #320]	; (80007dc <Update_EXTI+0x1cc>)
 800069c:	428b      	cmp	r3, r1
 800069e:	d101      	bne.n	80006a4 <Update_EXTI+0x94>
 80006a0:	2303      	movs	r3, #3
 80006a2:	e006      	b.n	80006b2 <Update_EXTI+0xa2>
 80006a4:	2300      	movs	r3, #0
 80006a6:	e004      	b.n	80006b2 <Update_EXTI+0xa2>
 80006a8:	2302      	movs	r3, #2
 80006aa:	e002      	b.n	80006b2 <Update_EXTI+0xa2>
 80006ac:	2301      	movs	r3, #1
 80006ae:	e000      	b.n	80006b2 <Update_EXTI+0xa2>
 80006b0:	2300      	movs	r3, #0
 80006b2:	7bb9      	ldrb	r1, [r7, #14]
 80006b4:	408b      	lsls	r3, r1
 80006b6:	4618      	mov	r0, r3
 80006b8:	4944      	ldr	r1, [pc, #272]	; (80007cc <Update_EXTI+0x1bc>)
 80006ba:	7bfb      	ldrb	r3, [r7, #15]
 80006bc:	4302      	orrs	r2, r0
 80006be:	3302      	adds	r3, #2
 80006c0:	f841 2023 	str.w	r2, [r1, r3, lsl #2]
 80006c4:	4b46      	ldr	r3, [pc, #280]	; (80007e0 <Update_EXTI+0x1d0>)
 80006c6:	689b      	ldr	r3, [r3, #8]
 80006c8:	687a      	ldr	r2, [r7, #4]
 80006ca:	8812      	ldrh	r2, [r2, #0]
 80006cc:	4611      	mov	r1, r2
 80006ce:	2201      	movs	r2, #1
 80006d0:	408a      	lsls	r2, r1
 80006d2:	43d2      	mvns	r2, r2
 80006d4:	4611      	mov	r1, r2
 80006d6:	4a42      	ldr	r2, [pc, #264]	; (80007e0 <Update_EXTI+0x1d0>)
 80006d8:	400b      	ands	r3, r1
 80006da:	6093      	str	r3, [r2, #8]
 80006dc:	4b40      	ldr	r3, [pc, #256]	; (80007e0 <Update_EXTI+0x1d0>)
 80006de:	68db      	ldr	r3, [r3, #12]
 80006e0:	687a      	ldr	r2, [r7, #4]
 80006e2:	8812      	ldrh	r2, [r2, #0]
 80006e4:	4611      	mov	r1, r2
 80006e6:	2201      	movs	r2, #1
 80006e8:	408a      	lsls	r2, r1
 80006ea:	43d2      	mvns	r2, r2
 80006ec:	4611      	mov	r1, r2
 80006ee:	4a3c      	ldr	r2, [pc, #240]	; (80007e0 <Update_EXTI+0x1d0>)
 80006f0:	400b      	ands	r3, r1
 80006f2:	60d3      	str	r3, [r2, #12]
 80006f4:	687b      	ldr	r3, [r7, #4]
 80006f6:	7b1b      	ldrb	r3, [r3, #12]
 80006f8:	2b00      	cmp	r3, #0
 80006fa:	d10b      	bne.n	8000714 <Update_EXTI+0x104>
 80006fc:	4b38      	ldr	r3, [pc, #224]	; (80007e0 <Update_EXTI+0x1d0>)
 80006fe:	689b      	ldr	r3, [r3, #8]
 8000700:	687a      	ldr	r2, [r7, #4]
 8000702:	8812      	ldrh	r2, [r2, #0]
 8000704:	4611      	mov	r1, r2
 8000706:	2201      	movs	r2, #1
 8000708:	408a      	lsls	r2, r1
 800070a:	4611      	mov	r1, r2
 800070c:	4a34      	ldr	r2, [pc, #208]	; (80007e0 <Update_EXTI+0x1d0>)
 800070e:	430b      	orrs	r3, r1
 8000710:	6093      	str	r3, [r2, #8]
 8000712:	e029      	b.n	8000768 <Update_EXTI+0x158>
 8000714:	687b      	ldr	r3, [r7, #4]
 8000716:	7b1b      	ldrb	r3, [r3, #12]
 8000718:	2b01      	cmp	r3, #1
 800071a:	d10b      	bne.n	8000734 <Update_EXTI+0x124>
 800071c:	4b30      	ldr	r3, [pc, #192]	; (80007e0 <Update_EXTI+0x1d0>)
 800071e:	68db      	ldr	r3, [r3, #12]
 8000720:	687a      	ldr	r2, [r7, #4]
 8000722:	8812      	ldrh	r2, [r2, #0]
 8000724:	4611      	mov	r1, r2
 8000726:	2201      	movs	r2, #1
 8000728:	408a      	lsls	r2, r1
 800072a:	4611      	mov	r1, r2
 800072c:	4a2c      	ldr	r2, [pc, #176]	; (80007e0 <Update_EXTI+0x1d0>)
 800072e:	430b      	orrs	r3, r1
 8000730:	60d3      	str	r3, [r2, #12]
 8000732:	e019      	b.n	8000768 <Update_EXTI+0x158>
 8000734:	687b      	ldr	r3, [r7, #4]
 8000736:	7b1b      	ldrb	r3, [r3, #12]
 8000738:	2b02      	cmp	r3, #2
 800073a:	d115      	bne.n	8000768 <Update_EXTI+0x158>
 800073c:	4b28      	ldr	r3, [pc, #160]	; (80007e0 <Update_EXTI+0x1d0>)
 800073e:	689b      	ldr	r3, [r3, #8]
 8000740:	687a      	ldr	r2, [r7, #4]
 8000742:	8812      	ldrh	r2, [r2, #0]
 8000744:	4611      	mov	r1, r2
 8000746:	2201      	movs	r2, #1
 8000748:	408a      	lsls	r2, r1
 800074a:	4611      	mov	r1, r2
 800074c:	4a24      	ldr	r2, [pc, #144]	; (80007e0 <Update_EXTI+0x1d0>)
 800074e:	430b      	orrs	r3, r1
 8000750:	6093      	str	r3, [r2, #8]
 8000752:	4b23      	ldr	r3, [pc, #140]	; (80007e0 <Update_EXTI+0x1d0>)
 8000754:	68db      	ldr	r3, [r3, #12]
 8000756:	687a      	ldr	r2, [r7, #4]
 8000758:	8812      	ldrh	r2, [r2, #0]
 800075a:	4611      	mov	r1, r2
 800075c:	2201      	movs	r2, #1
 800075e:	408a      	lsls	r2, r1
 8000760:	4611      	mov	r1, r2
 8000762:	4a1f      	ldr	r2, [pc, #124]	; (80007e0 <Update_EXTI+0x1d0>)
 8000764:	430b      	orrs	r3, r1
 8000766:	60d3      	str	r3, [r2, #12]
 8000768:	687b      	ldr	r3, [r7, #4]
 800076a:	881b      	ldrh	r3, [r3, #0]
 800076c:	4619      	mov	r1, r3
 800076e:	687b      	ldr	r3, [r7, #4]
 8000770:	691b      	ldr	r3, [r3, #16]
 8000772:	4a1c      	ldr	r2, [pc, #112]	; (80007e4 <Update_EXTI+0x1d4>)
 8000774:	f842 3021 	str.w	r3, [r2, r1, lsl #2]
 8000778:	687b      	ldr	r3, [r7, #4]
 800077a:	7b5b      	ldrb	r3, [r3, #13]
 800077c:	2b00      	cmp	r3, #0
 800077e:	d110      	bne.n	80007a2 <Update_EXTI+0x192>
 8000780:	4b17      	ldr	r3, [pc, #92]	; (80007e0 <Update_EXTI+0x1d0>)
 8000782:	681b      	ldr	r3, [r3, #0]
 8000784:	687a      	ldr	r2, [r7, #4]
 8000786:	8812      	ldrh	r2, [r2, #0]
 8000788:	4611      	mov	r1, r2
 800078a:	2201      	movs	r2, #1
 800078c:	408a      	lsls	r2, r1
 800078e:	4611      	mov	r1, r2
 8000790:	4a13      	ldr	r2, [pc, #76]	; (80007e0 <Update_EXTI+0x1d0>)
 8000792:	430b      	orrs	r3, r1
 8000794:	6013      	str	r3, [r2, #0]
 8000796:	687b      	ldr	r3, [r7, #4]
 8000798:	881b      	ldrh	r3, [r3, #0]
 800079a:	4618      	mov	r0, r3
 800079c:	f7ff fe6c 	bl	8000478 <Enable_NVIC>
 80007a0:	e010      	b.n	80007c4 <Update_EXTI+0x1b4>
 80007a2:	4b0f      	ldr	r3, [pc, #60]	; (80007e0 <Update_EXTI+0x1d0>)
 80007a4:	681b      	ldr	r3, [r3, #0]
 80007a6:	687a      	ldr	r2, [r7, #4]
 80007a8:	8812      	ldrh	r2, [r2, #0]
 80007aa:	4611      	mov	r1, r2
 80007ac:	2201      	movs	r2, #1
 80007ae:	408a      	lsls	r2, r1
 80007b0:	43d2      	mvns	r2, r2
 80007b2:	4611      	mov	r1, r2
 80007b4:	4a0a      	ldr	r2, [pc, #40]	; (80007e0 <Update_EXTI+0x1d0>)
 80007b6:	400b      	ands	r3, r1
 80007b8:	6013      	str	r3, [r2, #0]
 80007ba:	687b      	ldr	r3, [r7, #4]
 80007bc:	881b      	ldrh	r3, [r3, #0]
 80007be:	4618      	mov	r0, r3
 80007c0:	f7ff fec0 	bl	8000544 <Disable_NVIC>
 80007c4:	bf00      	nop
 80007c6:	3710      	adds	r7, #16
 80007c8:	46bd      	mov	sp, r7
 80007ca:	bd80      	pop	{r7, pc}
 80007cc:	40010000 	andmi	r0, r1, r0
 80007d0:	40010800 	andmi	r0, r1, r0, lsl #16
 80007d4:	40010c00 	andmi	r0, r1, r0, lsl #24
 80007d8:	40011000 	andmi	r1, r1, r0
 80007dc:	40011400 	andmi	r1, r1, r0, lsl #8
 80007e0:	40010400 	andmi	r0, r1, r0, lsl #8
 80007e4:	20000020 	andcs	r0, r0, r0, lsr #32

080007e8 <MCAL_EXTI_GPIO_Init>:
 80007e8:	b580      	push	{r7, lr}
 80007ea:	b082      	sub	sp, #8
 80007ec:	af00      	add	r7, sp, #0
 80007ee:	6078      	str	r0, [r7, #4]
 80007f0:	6878      	ldr	r0, [r7, #4]
 80007f2:	f7ff ff0d 	bl	8000610 <Update_EXTI>
 80007f6:	bf00      	nop
 80007f8:	3708      	adds	r7, #8
 80007fa:	46bd      	mov	sp, r7
 80007fc:	bd80      	pop	{r7, pc}
	...

08000800 <EXTI0_IRQHandler>:
 8000800:	b580      	push	{r7, lr}
 8000802:	af00      	add	r7, sp, #0
 8000804:	4b05      	ldr	r3, [pc, #20]	; (800081c <EXTI0_IRQHandler+0x1c>)
 8000806:	695b      	ldr	r3, [r3, #20]
 8000808:	4a04      	ldr	r2, [pc, #16]	; (800081c <EXTI0_IRQHandler+0x1c>)
 800080a:	f043 0301 	orr.w	r3, r3, #1
 800080e:	6153      	str	r3, [r2, #20]
 8000810:	4b03      	ldr	r3, [pc, #12]	; (8000820 <EXTI0_IRQHandler+0x20>)
 8000812:	681b      	ldr	r3, [r3, #0]
 8000814:	4798      	blx	r3
 8000816:	bf00      	nop
 8000818:	bd80      	pop	{r7, pc}
 800081a:	bf00      	nop
 800081c:	40010400 	andmi	r0, r1, r0, lsl #8
 8000820:	20000020 	andcs	r0, r0, r0, lsr #32

08000824 <EXTI1_IRQHandler>:
 8000824:	b580      	push	{r7, lr}
 8000826:	af00      	add	r7, sp, #0
 8000828:	4b05      	ldr	r3, [pc, #20]	; (8000840 <EXTI1_IRQHandler+0x1c>)
 800082a:	695b      	ldr	r3, [r3, #20]
 800082c:	4a04      	ldr	r2, [pc, #16]	; (8000840 <EXTI1_IRQHandler+0x1c>)
 800082e:	f043 0302 	orr.w	r3, r3, #2
 8000832:	6153      	str	r3, [r2, #20]
 8000834:	4b03      	ldr	r3, [pc, #12]	; (8000844 <EXTI1_IRQHandler+0x20>)
 8000836:	685b      	ldr	r3, [r3, #4]
 8000838:	4798      	blx	r3
 800083a:	bf00      	nop
 800083c:	bd80      	pop	{r7, pc}
 800083e:	bf00      	nop
 8000840:	40010400 	andmi	r0, r1, r0, lsl #8
 8000844:	20000020 	andcs	r0, r0, r0, lsr #32

08000848 <EXTI2_IRQHandler>:
 8000848:	b580      	push	{r7, lr}
 800084a:	af00      	add	r7, sp, #0
 800084c:	4b05      	ldr	r3, [pc, #20]	; (8000864 <EXTI2_IRQHandler+0x1c>)
 800084e:	695b      	ldr	r3, [r3, #20]
 8000850:	4a04      	ldr	r2, [pc, #16]	; (8000864 <EXTI2_IRQHandler+0x1c>)
 8000852:	f043 0304 	orr.w	r3, r3, #4
 8000856:	6153      	str	r3, [r2, #20]
 8000858:	4b03      	ldr	r3, [pc, #12]	; (8000868 <EXTI2_IRQHandler+0x20>)
 800085a:	689b      	ldr	r3, [r3, #8]
 800085c:	4798      	blx	r3
 800085e:	bf00      	nop
 8000860:	bd80      	pop	{r7, pc}
 8000862:	bf00      	nop
 8000864:	40010400 	andmi	r0, r1, r0, lsl #8
 8000868:	20000020 	andcs	r0, r0, r0, lsr #32

0800086c <EXTI3_IRQHandler>:
 800086c:	b580      	push	{r7, lr}
 800086e:	af00      	add	r7, sp, #0
 8000870:	4b05      	ldr	r3, [pc, #20]	; (8000888 <EXTI3_IRQHandler+0x1c>)
 8000872:	695b      	ldr	r3, [r3, #20]
 8000874:	4a04      	ldr	r2, [pc, #16]	; (8000888 <EXTI3_IRQHandler+0x1c>)
 8000876:	f043 0308 	orr.w	r3, r3, #8
 800087a:	6153      	str	r3, [r2, #20]
 800087c:	4b03      	ldr	r3, [pc, #12]	; (800088c <EXTI3_IRQHandler+0x20>)
 800087e:	68db      	ldr	r3, [r3, #12]
 8000880:	4798      	blx	r3
 8000882:	bf00      	nop
 8000884:	bd80      	pop	{r7, pc}
 8000886:	bf00      	nop
 8000888:	40010400 	andmi	r0, r1, r0, lsl #8
 800088c:	20000020 	andcs	r0, r0, r0, lsr #32

08000890 <EXTI4_IRQHandler>:
 8000890:	b580      	push	{r7, lr}
 8000892:	af00      	add	r7, sp, #0
 8000894:	4b05      	ldr	r3, [pc, #20]	; (80008ac <EXTI4_IRQHandler+0x1c>)
 8000896:	695b      	ldr	r3, [r3, #20]
 8000898:	4a04      	ldr	r2, [pc, #16]	; (80008ac <EXTI4_IRQHandler+0x1c>)
 800089a:	f043 0310 	orr.w	r3, r3, #16
 800089e:	6153      	str	r3, [r2, #20]
 80008a0:	4b03      	ldr	r3, [pc, #12]	; (80008b0 <EXTI4_IRQHandler+0x20>)
 80008a2:	691b      	ldr	r3, [r3, #16]
 80008a4:	4798      	blx	r3
 80008a6:	bf00      	nop
 80008a8:	bd80      	pop	{r7, pc}
 80008aa:	bf00      	nop
 80008ac:	40010400 	andmi	r0, r1, r0, lsl #8
 80008b0:	20000020 	andcs	r0, r0, r0, lsr #32

080008b4 <EXTI9_5_IRQHandler>:
 80008b4:	b580      	push	{r7, lr}
 80008b6:	af00      	add	r7, sp, #0
 80008b8:	4b26      	ldr	r3, [pc, #152]	; (8000954 <EXTI9_5_IRQHandler+0xa0>)
 80008ba:	695b      	ldr	r3, [r3, #20]
 80008bc:	f003 0320 	and.w	r3, r3, #32
 80008c0:	2b00      	cmp	r3, #0
 80008c2:	d008      	beq.n	80008d6 <EXTI9_5_IRQHandler+0x22>
 80008c4:	4b23      	ldr	r3, [pc, #140]	; (8000954 <EXTI9_5_IRQHandler+0xa0>)
 80008c6:	695b      	ldr	r3, [r3, #20]
 80008c8:	4a22      	ldr	r2, [pc, #136]	; (8000954 <EXTI9_5_IRQHandler+0xa0>)
 80008ca:	f043 0320 	orr.w	r3, r3, #32
 80008ce:	6153      	str	r3, [r2, #20]
 80008d0:	4b21      	ldr	r3, [pc, #132]	; (8000958 <EXTI9_5_IRQHandler+0xa4>)
 80008d2:	695b      	ldr	r3, [r3, #20]
 80008d4:	4798      	blx	r3
 80008d6:	4b1f      	ldr	r3, [pc, #124]	; (8000954 <EXTI9_5_IRQHandler+0xa0>)
 80008d8:	695b      	ldr	r3, [r3, #20]
 80008da:	f003 0340 	and.w	r3, r3, #64	; 0x40
 80008de:	2b00      	cmp	r3, #0
 80008e0:	d008      	beq.n	80008f4 <EXTI9_5_IRQHandler+0x40>
 80008e2:	4b1c      	ldr	r3, [pc, #112]	; (8000954 <EXTI9_5_IRQHandler+0xa0>)
 80008e4:	695b      	ldr	r3, [r3, #20]
 80008e6:	4a1b      	ldr	r2, [pc, #108]	; (8000954 <EXTI9_5_IRQHandler+0xa0>)
 80008e8:	f043 0340 	orr.w	r3, r3, #64	; 0x40
 80008ec:	6153      	str	r3, [r2, #20]
 80008ee:	4b1a      	ldr	r3, [pc, #104]	; (8000958 <EXTI9_5_IRQHandler+0xa4>)
 80008f0:	699b      	ldr	r3, [r3, #24]
 80008f2:	4798      	blx	r3
 80008f4:	4b17      	ldr	r3, [pc, #92]	; (8000954 <EXTI9_5_IRQHandler+0xa0>)
 80008f6:	695b      	ldr	r3, [r3, #20]
 80008f8:	f003 0380 	and.w	r3, r3, #128	; 0x80
 80008fc:	2b00      	cmp	r3, #0
 80008fe:	d008      	beq.n	8000912 <EXTI9_5_IRQHandler+0x5e>
 8000900:	4b14      	ldr	r3, [pc, #80]	; (8000954 <EXTI9_5_IRQHandler+0xa0>)
 8000902:	695b      	ldr	r3, [r3, #20]
 8000904:	4a13      	ldr	r2, [pc, #76]	; (8000954 <EXTI9_5_IRQHandler+0xa0>)
 8000906:	f043 0380 	orr.w	r3, r3, #128	; 0x80
 800090a:	6153      	str	r3, [r2, #20]
 800090c:	4b12      	ldr	r3, [pc, #72]	; (8000958 <EXTI9_5_IRQHandler+0xa4>)
 800090e:	69db      	ldr	r3, [r3, #28]
 8000910:	4798      	blx	r3
 8000912:	4b10      	ldr	r3, [pc, #64]	; (8000954 <EXTI9_5_IRQHandler+0xa0>)
 8000914:	695b      	ldr	r3, [r3, #20]
 8000916:	f403 7380 	and.w	r3, r3, #256	; 0x100
 800091a:	2b00      	cmp	r3, #0
 800091c:	d008      	beq.n	8000930 <EXTI9_5_IRQHandler+0x7c>
 800091e:	4b0d      	ldr	r3, [pc, #52]	; (8000954 <EXTI9_5_IRQHandler+0xa0>)
 8000920:	695b      	ldr	r3, [r3, #20]
 8000922:	4a0c      	ldr	r2, [pc, #48]	; (8000954 <EXTI9_5_IRQHandler+0xa0>)
 8000924:	f443 7380 	orr.w	r3, r3, #256	; 0x100
 8000928:	6153      	str	r3, [r2, #20]
 800092a:	4b0b      	ldr	r3, [pc, #44]	; (8000958 <EXTI9_5_IRQHandler+0xa4>)
 800092c:	6a1b      	ldr	r3, [r3, #32]
 800092e:	4798      	blx	r3
 8000930:	4b08      	ldr	r3, [pc, #32]	; (8000954 <EXTI9_5_IRQHandler+0xa0>)
 8000932:	695b      	ldr	r3, [r3, #20]
 8000934:	f403 7300 	and.w	r3, r3, #512	; 0x200
 8000938:	2b00      	cmp	r3, #0
 800093a:	d008      	beq.n	800094e <EXTI9_5_IRQHandler+0x9a>
 800093c:	4b05      	ldr	r3, [pc, #20]	; (8000954 <EXTI9_5_IRQHandler+0xa0>)
 800093e:	695b      	ldr	r3, [r3, #20]
 8000940:	4a04      	ldr	r2, [pc, #16]	; (8000954 <EXTI9_5_IRQHandler+0xa0>)
 8000942:	f443 7300 	orr.w	r3, r3, #512	; 0x200
 8000946:	6153      	str	r3, [r2, #20]
 8000948:	4b03      	ldr	r3, [pc, #12]	; (8000958 <EXTI9_5_IRQHandler+0xa4>)
 800094a:	6a5b      	ldr	r3, [r3, #36]	; 0x24
 800094c:	4798      	blx	r3
 800094e:	bf00      	nop
 8000950:	bd80      	pop	{r7, pc}
 8000952:	bf00      	nop
 8000954:	40010400 	andmi	r0, r1, r0, lsl #8
 8000958:	20000020 	andcs	r0, r0, r0, lsr #32

0800095c <EXTI15_10_IRQHandler>:
 800095c:	b580      	push	{r7, lr}
 800095e:	af00      	add	r7, sp, #0
 8000960:	4b2d      	ldr	r3, [pc, #180]	; (8000a18 <EXTI15_10_IRQHandler+0xbc>)
 8000962:	695b      	ldr	r3, [r3, #20]
 8000964:	f403 6380 	and.w	r3, r3, #1024	; 0x400
 8000968:	2b00      	cmp	r3, #0
 800096a:	d008      	beq.n	800097e <EXTI15_10_IRQHandler+0x22>
 800096c:	4b2a      	ldr	r3, [pc, #168]	; (8000a18 <EXTI15_10_IRQHandler+0xbc>)
 800096e:	695b      	ldr	r3, [r3, #20]
 8000970:	4a29      	ldr	r2, [pc, #164]	; (8000a18 <EXTI15_10_IRQHandler+0xbc>)
 8000972:	f443 6380 	orr.w	r3, r3, #1024	; 0x400
 8000976:	6153      	str	r3, [r2, #20]
 8000978:	4b28      	ldr	r3, [pc, #160]	; (8000a1c <EXTI15_10_IRQHandler+0xc0>)
 800097a:	6a9b      	ldr	r3, [r3, #40]	; 0x28
 800097c:	4798      	blx	r3
 800097e:	4b26      	ldr	r3, [pc, #152]	; (8000a18 <EXTI15_10_IRQHandler+0xbc>)
 8000980:	695b      	ldr	r3, [r3, #20]
 8000982:	f403 6300 	and.w	r3, r3, #2048	; 0x800
 8000986:	2b00      	cmp	r3, #0
 8000988:	d008      	beq.n	800099c <EXTI15_10_IRQHandler+0x40>
 800098a:	4b23      	ldr	r3, [pc, #140]	; (8000a18 <EXTI15_10_IRQHandler+0xbc>)
 800098c:	695b      	ldr	r3, [r3, #20]
 800098e:	4a22      	ldr	r2, [pc, #136]	; (8000a18 <EXTI15_10_IRQHandler+0xbc>)
 8000990:	f443 6300 	orr.w	r3, r3, #2048	; 0x800
 8000994:	6153      	str	r3, [r2, #20]
 8000996:	4b21      	ldr	r3, [pc, #132]	; (8000a1c <EXTI15_10_IRQHandler+0xc0>)
 8000998:	6adb      	ldr	r3, [r3, #44]	; 0x2c
 800099a:	4798      	blx	r3
 800099c:	4b1e      	ldr	r3, [pc, #120]	; (8000a18 <EXTI15_10_IRQHandler+0xbc>)
 800099e:	695b      	ldr	r3, [r3, #20]
 80009a0:	f403 5380 	and.w	r3, r3, #4096	; 0x1000
 80009a4:	2b00      	cmp	r3, #0
 80009a6:	d008      	beq.n	80009ba <EXTI15_10_IRQHandler+0x5e>
 80009a8:	4b1b      	ldr	r3, [pc, #108]	; (8000a18 <EXTI15_10_IRQHandler+0xbc>)
 80009aa:	695b      	ldr	r3, [r3, #20]
 80009ac:	4a1a      	ldr	r2, [pc, #104]	; (8000a18 <EXTI15_10_IRQHandler+0xbc>)
 80009ae:	f443 5380 	orr.w	r3, r3, #4096	; 0x1000
 80009b2:	6153      	str	r3, [r2, #20]
 80009b4:	4b19      	ldr	r3, [pc, #100]	; (8000a1c <EXTI15_10_IRQHandler+0xc0>)
 80009b6:	6b1b      	ldr	r3, [r3, #48]	; 0x30
 80009b8:	4798      	blx	r3
 80009ba:	4b17      	ldr	r3, [pc, #92]	; (8000a18 <EXTI15_10_IRQHandler+0xbc>)
 80009bc:	695b      	ldr	r3, [r3, #20]
 80009be:	f403 5300 	and.w	r3, r3, #8192	; 0x2000
 80009c2:	2b00      	cmp	r3, #0
 80009c4:	d008      	beq.n	80009d8 <EXTI15_10_IRQHandler+0x7c>
 80009c6:	4b14      	ldr	r3, [pc, #80]	; (8000a18 <EXTI15_10_IRQHandler+0xbc>)
 80009c8:	695b      	ldr	r3, [r3, #20]
 80009ca:	4a13      	ldr	r2, [pc, #76]	; (8000a18 <EXTI15_10_IRQHandler+0xbc>)
 80009cc:	f443 5300 	orr.w	r3, r3, #8192	; 0x2000
 80009d0:	6153      	str	r3, [r2, #20]
 80009d2:	4b12      	ldr	r3, [pc, #72]	; (8000a1c <EXTI15_10_IRQHandler+0xc0>)
 80009d4:	6b5b      	ldr	r3, [r3, #52]	; 0x34
 80009d6:	4798      	blx	r3
 80009d8:	4b0f      	ldr	r3, [pc, #60]	; (8000a18 <EXTI15_10_IRQHandler+0xbc>)
 80009da:	695b      	ldr	r3, [r3, #20]
 80009dc:	f403 4380 	and.w	r3, r3, #16384	; 0x4000
 80009e0:	2b00      	cmp	r3, #0
 80009e2:	d008      	beq.n	80009f6 <EXTI15_10_IRQHandler+0x9a>
 80009e4:	4b0c      	ldr	r3, [pc, #48]	; (8000a18 <EXTI15_10_IRQHandler+0xbc>)
 80009e6:	695b      	ldr	r3, [r3, #20]
 80009e8:	4a0b      	ldr	r2, [pc, #44]	; (8000a18 <EXTI15_10_IRQHandler+0xbc>)
 80009ea:	f443 4380 	orr.w	r3, r3, #16384	; 0x4000
 80009ee:	6153      	str	r3, [r2, #20]
 80009f0:	4b0a      	ldr	r3, [pc, #40]	; (8000a1c <EXTI15_10_IRQHandler+0xc0>)
 80009f2:	6b9b      	ldr	r3, [r3, #56]	; 0x38
 80009f4:	4798      	blx	r3
 80009f6:	4b08      	ldr	r3, [pc, #32]	; (8000a18 <EXTI15_10_IRQHandler+0xbc>)
 80009f8:	695b      	ldr	r3, [r3, #20]
 80009fa:	f403 4380 	and.w	r3, r3, #16384	; 0x4000
 80009fe:	2b00      	cmp	r3, #0
 8000a00:	d008      	beq.n	8000a14 <EXTI15_10_IRQHandler+0xb8>
 8000a02:	4b05      	ldr	r3, [pc, #20]	; (8000a18 <EXTI15_10_IRQHandler+0xbc>)
 8000a04:	695b      	ldr	r3, [r3, #20]
 8000a06:	4a04      	ldr	r2, [pc, #16]	; (8000a18 <EXTI15_10_IRQHandler+0xbc>)
 8000a08:	f443 4300 	orr.w	r3, r3, #32768	; 0x8000
 8000a0c:	6153      	str	r3, [r2, #20]
 8000a0e:	4b03      	ldr	r3, [pc, #12]	; (8000a1c <EXTI15_10_IRQHandler+0xc0>)
 8000a10:	6bdb      	ldr	r3, [r3, #60]	; 0x3c
 8000a12:	4798      	blx	r3
 8000a14:	bf00      	nop
 8000a16:	bd80      	pop	{r7, pc}
 8000a18:	40010400 	andmi	r0, r1, r0, lsl #8
 8000a1c:	20000020 	andcs	r0, r0, r0, lsr #32

08000a20 <__libc_init_array>:
 8000a20:	b570      	push	{r4, r5, r6, lr}
 8000a22:	2500      	movs	r5, #0
 8000a24:	4e0c      	ldr	r6, [pc, #48]	; (8000a58 <__libc_init_array+0x38>)
 8000a26:	4c0d      	ldr	r4, [pc, #52]	; (8000a5c <__libc_init_array+0x3c>)
 8000a28:	1ba4      	subs	r4, r4, r6
 8000a2a:	10a4      	asrs	r4, r4, #2
 8000a2c:	42a5      	cmp	r5, r4
 8000a2e:	d109      	bne.n	8000a44 <__libc_init_array+0x24>
 8000a30:	f000 f81a 	bl	8000a68 <_init>
 8000a34:	2500      	movs	r5, #0
 8000a36:	4e0a      	ldr	r6, [pc, #40]	; (8000a60 <__libc_init_array+0x40>)
 8000a38:	4c0a      	ldr	r4, [pc, #40]	; (8000a64 <__libc_init_array+0x44>)
 8000a3a:	1ba4      	subs	r4, r4, r6
 8000a3c:	10a4      	asrs	r4, r4, #2
 8000a3e:	42a5      	cmp	r5, r4
 8000a40:	d105      	bne.n	8000a4e <__libc_init_array+0x2e>
 8000a42:	bd70      	pop	{r4, r5, r6, pc}
 8000a44:	f856 3025 	ldr.w	r3, [r6, r5, lsl #2]
 8000a48:	4798      	blx	r3
 8000a4a:	3501      	adds	r5, #1
 8000a4c:	e7ee      	b.n	8000a2c <__libc_init_array+0xc>
 8000a4e:	f856 3025 	ldr.w	r3, [r6, r5, lsl #2]
 8000a52:	4798      	blx	r3
 8000a54:	3501      	adds	r5, #1
 8000a56:	e7f2      	b.n	8000a3e <__libc_init_array+0x1e>
 8000a58:	08000a8c 	stmdaeq	r0, {r2, r3, r7, r9, fp}
 8000a5c:	08000a8c 	stmdaeq	r0, {r2, r3, r7, r9, fp}
 8000a60:	08000a8c 	stmdaeq	r0, {r2, r3, r7, r9, fp}
 8000a64:	08000a90 	stmdaeq	r0, {r4, r7, r9, fp}

08000a68 <_init>:
 8000a68:	b5f8      	push	{r3, r4, r5, r6, r7, lr}
 8000a6a:	bf00      	nop
 8000a6c:	bcf8      	pop	{r3, r4, r5, r6, r7}
 8000a6e:	bc08      	pop	{r3}
 8000a70:	469e      	mov	lr, r3
 8000a72:	4770      	bx	lr

08000a74 <_fini>:
 8000a74:	b5f8      	push	{r3, r4, r5, r6, r7, lr}
 8000a76:	bf00      	nop
 8000a78:	bcf8      	pop	{r3, r4, r5, r6, r7}
 8000a7a:	bc08      	pop	{r3}
 8000a7c:	469e      	mov	lr, r3
 8000a7e:	4770      	bx	lr

Disassembly of section .rodata:

08000a80 <.rodata>:
 8000a80:	00000009 	andeq	r0, r0, r9
 8000a84:	40010c00 	andmi	r0, r1, r0, lsl #24
 8000a88:	00170200 	andseq	r0, r7, r0, lsl #4

Disassembly of section .init_array:

08000a8c <__frame_dummy_init_array_entry>:
 8000a8c:	08000155 	stmdaeq	r0, {r0, r2, r4, r6, r8}

Disassembly of section .fini_array:

08000a90 <__do_global_dtors_aux_fini_array_entry>:
 8000a90:	08000131 	stmdaeq	r0, {r0, r4, r5, r8}

Disassembly of section .bss:

20000000 <__bss_start__>:
20000000:	00000000 	andeq	r0, r0, r0

20000004 <object.8661>:
	...

2000001c <IRQ_Flag>:
2000001c:	00000000 	andeq	r0, r0, r0

20000020 <GP_IRQ_CallBack>:
	...

Disassembly of section ._user_heap_stack:

2000005c <_end-0x4>:
2000005c:	00000000 	andeq	r0, r0, r0

20000060 <_end>:
	...

Disassembly of section .ARM.attributes:

00000000 <.ARM.attributes>:
   0:	00002841 	andeq	r2, r0, r1, asr #16
   4:	61656100 	cmnvs	r5, r0, lsl #2
   8:	01006962 	tsteq	r0, r2, ror #18
   c:	0000001e 	andeq	r0, r0, lr, lsl r0
  10:	4d2d3705 	stcmi	7, cr3, [sp, #-20]!	; 0xffffffec
  14:	070a0600 	streq	r0, [sl, -r0, lsl #12]
  18:	1202094d 	andne	r0, r2, #1261568	; 0x134000
  1c:	15011404 	strne	r1, [r1, #-1028]	; 0xfffffbfc
  20:	18031701 	stmdane	r3, {r0, r8, r9, sl, ip}
  24:	22011a01 	andcs	r1, r1, #4096	; 0x1000
  28:	Address 0x0000000000000028 is out of bounds.


Disassembly of section .debug_info:

00000000 <.debug_info>:
       0:	00000c4f 	andeq	r0, r0, pc, asr #24
       4:	00000002 	andeq	r0, r0, r2
       8:	01040000 	mrseq	r0, (UNDEF: 4)
       c:	0000860e 	andeq	r8, r0, lr, lsl #12
      10:	00300f0c 	eorseq	r0, r0, ip, lsl #30
      14:	00407f00 	subeq	r7, r0, r0, lsl #30
	...
      2c:	07040200 	streq	r0, [r4, -r0, lsl #4]
      30:	0000214c 	andeq	r2, r0, ip, asr #2
      34:	69050403 	stmdbvs	r5, {r0, r1, sl}
      38:	0200746e 	andeq	r7, r0, #1845493760	; 0x6e000000
      3c:	50230508 	eorpl	r0, r3, r8, lsl #10
      40:	08020000 	stmdaeq	r2, {}	; <UNPREDICTABLE>
      44:	00034704 	andeq	r4, r3, r4, lsl #14
      48:	06010200 	streq	r0, [r1], -r0, lsl #4
      4c:	000007e7 	andeq	r0, r0, r7, ror #15
      50:	00129004 	andseq	r9, r2, r4
      54:	5b2b0200 	blpl	ac085c <_Min_Stack_Size+0xac045c>
      58:	02000000 	andeq	r0, r0, #0
      5c:	2fd60801 	svccs	0x00d60801
      60:	02020000 	andeq	r0, r2, #0
      64:	008aef05 	addeq	lr, sl, r5, lsl #30
      68:	29fe0400 	ldmibcs	lr!, {sl}^
      6c:	39020000 	stmdbcc	r2, {}	; <UNPREDICTABLE>
      70:	00000074 	andeq	r0, r0, r4, ror r0
      74:	57070202 	strpl	r0, [r7, -r2, lsl #4]
      78:	02000067 	andeq	r0, r0, #103	; 0x67
      7c:	6a4f0504 	bvs	13c1494 <_Min_Stack_Size+0x13c1094>
      80:	74040000 	strvc	r0, [r4], #-0
      84:	02000040 	andeq	r0, r0, #64	; 0x40
      88:	00008d4f 	andeq	r8, r0, pc, asr #26
      8c:	07040200 	streq	r0, [r4, -r0, lsl #4]
      90:	00001a0f 	andeq	r1, r0, pc, lsl #20
      94:	e5070802 	str	r0, [r7, #-2050]	; 0xfffff7fe
      98:	0400003c 	streq	r0, [r0], #-60	; 0xffffffc4
      9c:	00004324 	andeq	r4, r0, r4, lsr #6
      a0:	00340c03 	eorseq	r0, r4, r3, lsl #24
      a4:	06040000 	streq	r0, [r4], -r0
      a8:	04000083 	streq	r0, [r0], #-131	; 0xffffff7d
      ac:	00007b2c 	andeq	r7, r0, ip, lsr #22
      b0:	62cb0400 	sbcvs	r0, fp, #0, 8
      b4:	72040000 	andvc	r0, r4, #0
      b8:	0000007b 	andeq	r0, r0, fp, ror r0
      bc:	0022e005 	eoreq	lr, r2, r5
      c0:	01650500 	cmneq	r5, r0, lsl #10
      c4:	0000002d 	andeq	r0, r0, sp, lsr #32
      c8:	a6040406 	strge	r0, [r4], -r6, lsl #8
      cc:	000000e7 	andeq	r0, r0, r7, ror #1
      d0:	00126007 	andseq	r6, r2, r7
      d4:	bca80400 	cfstrslt	mvf0, [r8]
      d8:	07000000 	streq	r0, [r0, -r0]
      dc:	000062e9 	andeq	r6, r0, r9, ror #5
      e0:	00e7a904 	rsceq	sl, r7, r4, lsl #18
      e4:	08000000 	stmdaeq	r0, {}	; <UNPREDICTABLE>
      e8:	0000005b 	andeq	r0, r0, fp, asr r0
      ec:	000000f7 	strdeq	r0, [r0], -r7
      f0:	00002d09 	andeq	r2, r0, r9, lsl #26
      f4:	0a000300 	beq	cfc <_Min_Stack_Size+0x8fc>
      f8:	1ca30408 	cfstrsne	mvf0, [r3], #32
      fc:	0b000001 	bleq	108 <_Min_Heap_Size-0xf8>
     100:	00005ca7 	andeq	r5, r0, r7, lsr #25
     104:	0034a504 	eorseq	sl, r4, r4, lsl #10
     108:	23020000 	movwcs	r0, #8192	; 0x2000
     10c:	020b0b00 	andeq	r0, fp, #0, 22
     110:	aa040000 	bge	100118 <_Min_Stack_Size+0xffd18>
     114:	000000c8 	andeq	r0, r0, r8, asr #1
     118:	00042302 	andeq	r2, r4, r2, lsl #6
     11c:	00516d04 	subseq	r6, r1, r4, lsl #26
     120:	f7ab0400 			; <UNDEFINED> instruction: 0xf7ab0400
     124:	04000000 	streq	r0, [r0], #-0
     128:	00006b91 	muleq	r0, r1, fp
     12c:	009baf04 	addseq	sl, fp, r4, lsl #30
     130:	040c0000 	streq	r0, [ip], #-0
     134:	013a040d 	teqeq	sl, sp, lsl #8
     138:	01020000 	mrseq	r0, (UNDEF: 2)
     13c:	0007ee08 	andeq	lr, r7, r8, lsl #28
     140:	013a0e00 	teqeq	sl, r0, lsl #28
     144:	d3040000 	movwle	r0, #16384	; 0x4000
     148:	0600007f 			; <UNDEFINED> instruction: 0x0600007f
     14c:	00008d16 	andeq	r8, r0, r6, lsl sp
     150:	480f0f00 	stmdami	pc, {r8, r9, sl, fp}	; <UNPREDICTABLE>
     154:	06180000 	ldreq	r0, [r8], -r0
     158:	0001b02f 	andeq	fp, r1, pc, lsr #32
     15c:	59c80b00 	stmibpl	r8, {r8, r9, fp}^
     160:	31060000 	mrscc	r0, (UNDEF: 6)
     164:	000001b0 			; <UNDEFINED> instruction: 0x000001b0
     168:	10002302 	andne	r2, r0, r2, lsl #6
     16c:	06006b5f 			; <UNDEFINED> instruction: 0x06006b5f
     170:	00003432 	andeq	r3, r0, r2, lsr r4
     174:	04230200 	strteq	r0, [r3], #-512	; 0xfffffe00
     178:	00788e0b 	rsbseq	r8, r8, fp, lsl #28
     17c:	34320600 	ldrtcc	r0, [r2], #-1536	; 0xfffffa00
     180:	02000000 	andeq	r0, r0, #0
     184:	780b0823 	stmdavc	fp, {r0, r1, r5, fp}
     188:	06000051 			; <UNDEFINED> instruction: 0x06000051
     18c:	00003432 	andeq	r3, r0, r2, lsr r4
     190:	0c230200 	sfmeq	f0, 4, [r3], #-0
     194:	0034140b 	eorseq	r1, r4, fp, lsl #8
     198:	34320600 	ldrtcc	r0, [r2], #-1536	; 0xfffffa00
     19c:	02000000 	andeq	r0, r0, #0
     1a0:	5f101023 	svcpl	0x00101023
     1a4:	33060078 	movwcc	r0, #24696	; 0x6078
     1a8:	000001b6 			; <UNDEFINED> instruction: 0x000001b6
     1ac:	00142302 	andseq	r2, r4, r2, lsl #6
     1b0:	0151040d 	cmpeq	r1, sp, lsl #8
     1b4:	46080000 	strmi	r0, [r8], -r0
     1b8:	c6000001 	strgt	r0, [r0], -r1
     1bc:	09000001 	stmdbeq	r0, {r0}
     1c0:	0000002d 	andeq	r0, r0, sp, lsr #32
     1c4:	e30f0000 	movw	r0, #61440	; 0xf000
     1c8:	24000009 	strcs	r0, [r0], #-9
     1cc:	02513706 	subseq	r3, r1, #1572864	; 0x180000
     1d0:	ff0b0000 			; <UNDEFINED> instruction: 0xff0b0000
     1d4:	06000009 	streq	r0, [r0], -r9
     1d8:	00003439 	andeq	r3, r0, r9, lsr r4
     1dc:	00230200 	eoreq	r0, r3, r0, lsl #4
     1e0:	008b910b 	addeq	r9, fp, fp, lsl #2
     1e4:	343a0600 	ldrtcc	r0, [sl], #-1536	; 0xfffffa00
     1e8:	02000000 	andeq	r0, r0, #0
     1ec:	580b0423 	stmdapl	fp, {r0, r1, r5, sl}
     1f0:	06000084 	streq	r0, [r0], -r4, lsl #1
     1f4:	0000343b 	andeq	r3, r0, fp, lsr r4
     1f8:	08230200 	stmdaeq	r3!, {r9}
     1fc:	0057ae0b 	subseq	sl, r7, fp, lsl #28
     200:	343c0600 	ldrtcc	r0, [ip], #-1536	; 0xfffffa00
     204:	02000000 	andeq	r0, r0, #0
     208:	c20b0c23 	andgt	r0, fp, #8960	; 0x2300
     20c:	0600001a 			; <UNDEFINED> instruction: 0x0600001a
     210:	0000343d 	andeq	r3, r0, sp, lsr r4
     214:	10230200 	eorne	r0, r3, r0, lsl #4
     218:	0079060b 	rsbseq	r0, r9, fp, lsl #12
     21c:	343e0600 	ldrtcc	r0, [lr], #-1536	; 0xfffffa00
     220:	02000000 	andeq	r0, r0, #0
     224:	ef0b1423 	svc	0x000b1423
     228:	0600005e 			; <UNDEFINED> instruction: 0x0600005e
     22c:	0000343f 	andeq	r3, r0, pc, lsr r4
     230:	18230200 	stmdane	r3!, {r9}
     234:	0060060b 	rsbeq	r0, r0, fp, lsl #12
     238:	34400600 	strbcc	r0, [r0], #-1536	; 0xfffffa00
     23c:	02000000 	andeq	r0, r0, #0
     240:	b60b1c23 	strlt	r1, [fp], -r3, lsr #24
     244:	06000089 	streq	r0, [r0], -r9, lsl #1
     248:	00003441 	andeq	r3, r0, r1, asr #8
     24c:	20230200 	eorcs	r0, r3, r0, lsl #4
     250:	137a1100 	cmnne	sl, #0, 2
     254:	01080000 	mrseq	r0, (UNDEF: 8)
     258:	029a4a06 	addseq	r4, sl, #24576	; 0x6000
     25c:	4c0b0000 	stcmi	0, cr0, [fp], {-0}
     260:	0600000c 	streq	r0, [r0], -ip
     264:	00029a4b 	andeq	r9, r2, fp, asr #20
     268:	00230200 	eoreq	r0, r3, r0, lsl #4
     26c:	0066810b 	rsbeq	r8, r6, fp, lsl #2
     270:	9a4c0600 	bls	1301a78 <_Min_Stack_Size+0x1301678>
     274:	03000002 	movweq	r0, #2
     278:	0b018023 	bleq	6030c <_Min_Stack_Size+0x5ff0c>
     27c:	0000198e 	andeq	r1, r0, lr, lsl #19
     280:	01464e06 	cmpeq	r6, r6, lsl #28
     284:	23030000 	movwcs	r0, #12288	; 0x3000
     288:	6e0b0280 	cdpvs	2, 0, cr0, cr11, cr0, {4}
     28c:	0600007e 			; <UNDEFINED> instruction: 0x0600007e
     290:	00014651 	andeq	r4, r1, r1, asr r6
     294:	84230300 	strthi	r0, [r3], #-768	; 0xfffffd00
     298:	32080002 	andcc	r0, r8, #2
     29c:	aa000001 	bge	2a8 <_Min_Heap_Size+0xa8>
     2a0:	09000002 	stmdbeq	r0, {r1}
     2a4:	0000002d 	andeq	r0, r0, sp, lsr #32
     2a8:	ea0f001f 	b	3c032c <_Min_Stack_Size+0x3bff2c>
     2ac:	8c000046 	stchi	0, cr0, [r0], {70}	; 0x46
     2b0:	02f05506 	rscseq	r5, r0, #25165824	; 0x1800000
     2b4:	c80b0000 	stmdagt	fp, {}	; <UNPREDICTABLE>
     2b8:	06000059 			; <UNDEFINED> instruction: 0x06000059
     2bc:	0002f056 	andeq	pc, r2, r6, asr r0	; <UNPREDICTABLE>
     2c0:	00230200 	eoreq	r0, r3, r0, lsl #4
     2c4:	007cdd0b 	rsbseq	sp, ip, fp, lsl #26
     2c8:	34570600 	ldrbcc	r0, [r7], #-1536	; 0xfffffa00
     2cc:	02000000 	andeq	r0, r0, #0
     2d0:	b00b0423 	andlt	r0, fp, r3, lsr #8
     2d4:	06000027 	streq	r0, [r0], -r7, lsr #32
     2d8:	0002f658 	andeq	pc, r2, r8, asr r6	; <UNPREDICTABLE>
     2dc:	08230200 	stmdaeq	r3!, {r9}
     2e0:	002cfd0b 	eoreq	pc, ip, fp, lsl #26
     2e4:	0e590600 	cdpeq	6, 5, cr0, cr9, cr0, {0}
     2e8:	03000003 	movweq	r0, #3
     2ec:	00018823 	andeq	r8, r1, r3, lsr #16
     2f0:	02aa040d 	adceq	r0, sl, #218103808	; 0xd000000
     2f4:	06080000 	streq	r0, [r8], -r0
     2f8:	06000003 	streq	r0, [r0], -r3
     2fc:	09000003 	stmdbeq	r0, {r0, r1}
     300:	0000002d 	andeq	r0, r0, sp, lsr #32
     304:	040d001f 	streq	r0, [sp], #-31	; 0xffffffe1
     308:	0000030c 	andeq	r0, r0, ip, lsl #6
     30c:	040d0112 	streq	r0, [sp], #-274	; 0xfffffeee
     310:	00000251 	andeq	r0, r0, r1, asr r2
     314:	0003760f 	andeq	r7, r3, pc, lsl #12
     318:	75060800 	strvc	r0, [r6, #-2048]	; 0xfffff800
     31c:	0000033d 	andeq	r0, r0, sp, lsr r3
     320:	0068f60b 	rsbeq	pc, r8, fp, lsl #12
     324:	3d760600 	ldclcc	6, cr0, [r6, #-0]
     328:	02000003 	andeq	r0, r0, #3
     32c:	9e0b0023 	cdpls	0, 0, cr0, cr11, cr3, {1}
     330:	06000080 	streq	r0, [r0], -r0, lsl #1
     334:	00003477 	andeq	r3, r0, r7, ror r4
     338:	04230200 	strteq	r0, [r3], #-512	; 0xfffffe00
     33c:	5b040d00 	blpl	103744 <_Min_Stack_Size+0x103344>
     340:	0f000000 	svceq	0x00000000
     344:	000033df 	ldrdeq	r3, [r0], -pc	; <UNPREDICTABLE>
     348:	bd990620 	ldclt	6, cr0, [r9, #128]	; 0x80
     34c:	10000003 	andne	r0, r0, r3
     350:	0600705f 			; <UNDEFINED> instruction: 0x0600705f
     354:	00033d9a 	muleq	r3, sl, sp
     358:	00230200 	eoreq	r0, r3, r0, lsl #4
     35c:	00725f10 	rsbseq	r5, r2, r0, lsl pc
     360:	00349b06 	eorseq	r9, r4, r6, lsl #22
     364:	23020000 	movwcs	r0, #8192	; 0x2000
     368:	775f1004 	ldrbvc	r1, [pc, -r4]
     36c:	349c0600 	ldrcc	r0, [ip], #1536	; 0x600
     370:	02000000 	andeq	r0, r0, #0
     374:	e60b0823 	str	r0, [fp], -r3, lsr #16
     378:	06000059 			; <UNDEFINED> instruction: 0x06000059
     37c:	0000629d 	muleq	r0, sp, r2
     380:	0c230200 	sfmeq	f0, 4, [r3], #-0
     384:	0013290b 	andseq	r2, r3, fp, lsl #18
     388:	629e0600 	addsvs	r0, lr, #0, 12
     38c:	02000000 	andeq	r0, r0, #0
     390:	5f100e23 	svcpl	0x00100e23
     394:	06006662 	streq	r6, [r0], -r2, ror #12
     398:	0003149f 	muleq	r3, pc, r4	; <UNPREDICTABLE>
     39c:	10230200 	eorne	r0, r3, r0, lsl #4
     3a0:	007c9d0b 	rsbseq	r9, ip, fp, lsl #26
     3a4:	34a00600 	strtcc	r0, [r0], #1536	; 0x600
     3a8:	02000000 	andeq	r0, r0, #0
     3ac:	b30b1823 	movwlt	r1, #47139	; 0xb823
     3b0:	0600006d 	streq	r0, [r0], -sp, rrx
     3b4:	00051aa2 	andeq	r1, r5, r2, lsr #21
     3b8:	1c230200 	sfmne	f0, 4, [r3], #-0
     3bc:	03430e00 	movteq	r0, #15872	; 0x3e00
     3c0:	60130000 	andsvs	r0, r3, r0
     3c4:	6000001c 	andvs	r0, r0, ip, lsl r0
     3c8:	1a017406 	bne	5d3e8 <_Min_Stack_Size+0x5cfe8>
     3cc:	14000005 	strne	r0, [r0], #-5
     3d0:	00004419 	andeq	r4, r0, r9, lsl r4
     3d4:	34017806 	strcc	r7, [r1], #-2054	; 0xfffff7fa
     3d8:	02000000 	andeq	r0, r0, #0
     3dc:	0a140023 	beq	500470 <_Min_Stack_Size+0x500070>
     3e0:	0600001f 			; <UNDEFINED> instruction: 0x0600001f
     3e4:	077c017d 			; <UNDEFINED> instruction: 0x077c017d
     3e8:	23020000 	movwcs	r0, #8192	; 0x2000
     3ec:	534a1404 	movtpl	r1, #41988	; 0xa404
     3f0:	7d060000 	stcvc	0, cr0, [r6, #-0]
     3f4:	00077c01 	andeq	r7, r7, r1, lsl #24
     3f8:	08230200 	stmdaeq	r3!, {r9}
     3fc:	0043ae14 	subeq	sl, r3, r4, lsl lr
     400:	017d0600 	cmneq	sp, r0, lsl #12
     404:	0000077c 	andeq	r0, r0, ip, ror r7
     408:	140c2302 	strne	r2, [ip], #-770	; 0xfffffcfe
     40c:	0000258d 	andeq	r2, r0, sp, lsl #11
     410:	34017f06 	strcc	r7, [r1], #-3846	; 0xfffff0fa
     414:	02000000 	andeq	r0, r0, #0
     418:	cc141023 	ldcgt	0, cr1, [r4], {35}	; 0x23
     41c:	06000053 			; <UNDEFINED> instruction: 0x06000053
     420:	01340181 	teqeq	r4, r1, lsl #3
     424:	23020000 	movwcs	r0, #8192	; 0x2000
     428:	410d1414 	tstmi	sp, r4, lsl r4
     42c:	83060000 	movwhi	r0, #24576	; 0x6000
     430:	00003401 	andeq	r3, r0, r1, lsl #8
     434:	18230200 	stmdane	r3!, {r9}
     438:	0022c014 	eoreq	ip, r2, r4, lsl r0
     43c:	01850600 	orreq	r0, r5, r0, lsl #12
     440:	00000034 	andeq	r0, r0, r4, lsr r0
     444:	141c2302 	ldrne	r2, [ip], #-770	; 0xfffffcfe
     448:	00007fcb 	andeq	r7, r0, fp, asr #31
     44c:	f5018606 			; <UNDEFINED> instruction: 0xf5018606
     450:	02000008 	andeq	r0, r0, #8
     454:	5f152023 	svcpl	0x00152023
     458:	0600706d 	streq	r7, [r0], -sp, rrx
     45c:	08fb0188 	ldmeq	fp!, {r3, r7, r8}^
     460:	23020000 	movwcs	r0, #8192	; 0x2000
     464:	49e81424 	stmibmi	r8!, {r2, r5, sl, ip}^
     468:	8a060000 	bhi	180470 <_Min_Stack_Size+0x180070>
     46c:	00090d01 	andeq	r0, r9, r1, lsl #26
     470:	28230200 	stmdacs	r3!, {r9}
     474:	004fd314 	subeq	sp, pc, r4, lsl r3	; <UNPREDICTABLE>
     478:	018c0600 	orreq	r0, ip, r0, lsl #12
     47c:	00000034 	andeq	r0, r0, r4, lsr r0
     480:	142c2302 	strtne	r2, [ip], #-770	; 0xfffffcfe
     484:	00000637 	andeq	r0, r0, r7, lsr r6
     488:	34018f06 	strcc	r8, [r1], #-3846	; 0xfffff0fa
     48c:	02000000 	andeq	r0, r0, #0
     490:	a2143023 	andsge	r3, r4, #35	; 0x23
     494:	06000036 			; <UNDEFINED> instruction: 0x06000036
     498:	01340190 	teqeq	r4, r0	; <illegal shifter operand>
     49c:	23020000 	movwcs	r0, #8192	; 0x2000
     4a0:	6ce21434 	cfstrdvs	mvd1, [r2], #208	; 0xd0
     4a4:	92060000 	andls	r0, r6, #0
     4a8:	00091301 	andeq	r1, r9, r1, lsl #6
     4ac:	38230200 	stmdacc	r3!, {r9}
     4b0:	00182214 	andseq	r2, r8, r4, lsl r2
     4b4:	01930600 	orrseq	r0, r3, r0, lsl #12
     4b8:	00000919 	andeq	r0, r0, r9, lsl r9
     4bc:	143c2302 	ldrtne	r2, [ip], #-770	; 0xfffffcfe
     4c0:	00000613 	andeq	r0, r0, r3, lsl r6
     4c4:	34019406 	strcc	r9, [r1], #-1030	; 0xfffffbfa
     4c8:	02000001 	andeq	r0, r0, #1
     4cc:	d6144023 	ldrle	r4, [r4], -r3, lsr #32
     4d0:	06000034 			; <UNDEFINED> instruction: 0x06000034
     4d4:	092b0197 	stmdbeq	fp!, {r0, r1, r2, r4, r7, r8}
     4d8:	23020000 	movwcs	r0, #8192	; 0x2000
     4dc:	88c61444 	stmiahi	r6, {r2, r6, sl, ip}^
     4e0:	9f060000 	svcls	0x00060000
     4e4:	00073b01 	andeq	r3, r7, r1, lsl #22
     4e8:	48230200 	stmdami	r3!, {r9}
     4ec:	0002d514 	andeq	sp, r2, r4, lsl r5
     4f0:	01a00600 	lsleq	r0, r0, #12
     4f4:	0000077c 	andeq	r0, r0, ip, ror r7
     4f8:	14542302 	ldrbne	r2, [r4], #-770	; 0xfffffcfe
     4fc:	00007fa1 	andeq	r7, r0, r1, lsr #31
     500:	3701a106 	strcc	sl, [r1, -r6, lsl #2]
     504:	02000009 	andeq	r0, r0, #9
     508:	2e145823 	cdpcs	8, 1, cr5, cr4, cr3, {1}
     50c:	06000046 	streq	r0, [r0], -r6, asr #32
     510:	013401a2 	teqeq	r4, r2, lsr #3
     514:	23020000 	movwcs	r0, #8192	; 0x2000
     518:	040d005c 	streq	r0, [sp], #-92	; 0xffffffa4
     51c:	000003c2 	andeq	r0, r0, r2, asr #7
     520:	00051a0e 	andeq	r1, r5, lr, lsl #20
     524:	846e0f00 	strbthi	r0, [lr], #-3840	; 0xfffff100
     528:	06680000 	strbteq	r0, [r8], -r0
     52c:	00067fb5 			; <UNDEFINED> instruction: 0x00067fb5
     530:	705f1000 	subsvc	r1, pc, r0
     534:	3db60600 	ldccc	6, cr0, [r6]
     538:	02000003 	andeq	r0, r0, #3
     53c:	5f100023 	svcpl	0x00100023
     540:	b7060072 	smlsdxlt	r6, r2, r0, r0
     544:	00000034 	andeq	r0, r0, r4, lsr r0
     548:	10042302 	andne	r2, r4, r2, lsl #6
     54c:	0600775f 			; <UNDEFINED> instruction: 0x0600775f
     550:	000034b8 			; <UNDEFINED> instruction: 0x000034b8
     554:	08230200 	stmdaeq	r3!, {r9}
     558:	0059e60b 	subseq	lr, r9, fp, lsl #12
     55c:	62b90600 	adcsvs	r0, r9, #0, 12
     560:	02000000 	andeq	r0, r0, #0
     564:	290b0c23 	stmdbcs	fp, {r0, r1, r5, sl, fp}
     568:	06000013 			; <UNDEFINED> instruction: 0x06000013
     56c:	000062ba 			; <UNDEFINED> instruction: 0x000062ba
     570:	0e230200 	cdpeq	2, 2, cr0, cr3, cr0, {0}
     574:	66625f10 	uqadd16vs	r5, r2, r0
     578:	14bb0600 	ldrtne	r0, [fp], #1536	; 0x600
     57c:	02000003 	andeq	r0, r0, #3
     580:	9d0b1023 	stcls	0, cr1, [fp, #-140]	; 0xffffff74
     584:	0600007c 			; <UNDEFINED> instruction: 0x0600007c
     588:	000034bc 			; <UNDEFINED> instruction: 0x000034bc
     58c:	18230200 	stmdane	r3!, {r9}
     590:	006db30b 	rsbeq	fp, sp, fp, lsl #6
     594:	1abf0600 	bne	fefc1d9c <_estack+0xdefbf59c>
     598:	02000005 	andeq	r0, r0, #5
     59c:	690b1c23 	stmdbvs	fp, {r0, r1, r5, sl, fp, ip}
     5a0:	06000033 			; <UNDEFINED> instruction: 0x06000033
     5a4:	000132c3 	andeq	r3, r1, r3, asr #5
     5a8:	20230200 	eorcs	r0, r3, r0, lsl #4
     5ac:	00037d0b 	andeq	r7, r3, fp, lsl #26
     5b0:	9ec50600 	cdpls	6, 12, cr0, cr5, cr0, {0}
     5b4:	02000006 	andeq	r0, r0, #6
     5b8:	9a0b2423 	bls	2c964c <_Min_Stack_Size+0x2c924c>
     5bc:	06000005 	streq	r0, [r0], -r5
     5c0:	0006c9c7 	andeq	ip, r6, r7, asr #19
     5c4:	28230200 	stmdacs	r3!, {r9}
     5c8:	0061c10b 	rsbeq	ip, r1, fp, lsl #2
     5cc:	eeca0600 	cdp	6, 12, cr0, cr10, cr0, {0}
     5d0:	02000006 	andeq	r0, r0, #6
     5d4:	c10b2c23 	tstgt	fp, r3, lsr #24
     5d8:	0600005f 			; <UNDEFINED> instruction: 0x0600005f
     5dc:	000709cb 	andeq	r0, r7, fp, asr #19
     5e0:	30230200 	eorcc	r0, r3, r0, lsl #4
     5e4:	62755f10 	rsbsvs	r5, r5, #16, 30	; 0x40
     5e8:	14ce0600 	strbne	r0, [lr], #1536	; 0x600
     5ec:	02000003 	andeq	r0, r0, #3
     5f0:	5f103423 	svcpl	0x00103423
     5f4:	06007075 			; <UNDEFINED> instruction: 0x06007075
     5f8:	00033dcf 	andeq	r3, r3, pc, asr #27
     5fc:	3c230200 	sfmcc	f0, 4, [r3], #-0
     600:	72755f10 	rsbsvc	r5, r5, #16, 30	; 0x40
     604:	34d00600 	ldrbcc	r0, [r0], #1536	; 0x600
     608:	02000000 	andeq	r0, r0, #0
     60c:	6d0b4023 	stcvs	0, cr4, [fp, #-140]	; 0xffffff74
     610:	06000020 	streq	r0, [r0], -r0, lsr #32
     614:	00070fd3 	ldrdeq	r0, [r7], -r3
     618:	44230200 	strtmi	r0, [r3], #-512	; 0xfffffe00
     61c:	0009f90b 	andeq	pc, r9, fp, lsl #18
     620:	1fd40600 	svcne	0x00d40600
     624:	02000007 	andeq	r0, r0, #7
     628:	5f104723 	svcpl	0x00104723
     62c:	0600626c 	streq	r6, [r0], -ip, ror #4
     630:	000314d7 	ldrdeq	r1, [r3], -r7
     634:	48230200 	stmdami	r3!, {r9}
     638:	00689c0b 	rsbeq	r9, r8, fp, lsl #24
     63c:	34da0600 	ldrbcc	r0, [sl], #1536	; 0x600
     640:	02000000 	andeq	r0, r0, #0
     644:	3f0b5023 	svccc	0x000b5023
     648:	06000036 			; <UNDEFINED> instruction: 0x06000036
     64c:	0000a6db 	ldrdeq	sl, [r0], -fp
     650:	54230200 	strtpl	r0, [r3], #-512	; 0xfffffe00
     654:	000c540b 	andeq	r5, ip, fp, lsl #8
     658:	27e20600 	strbcs	r0, [r2, r0, lsl #12]!
     65c:	02000001 	andeq	r0, r0, #1
     660:	620b5823 	andvs	r5, fp, #2293760	; 0x230000
     664:	06000059 			; <UNDEFINED> instruction: 0x06000059
     668:	00011ce4 	andeq	r1, r1, r4, ror #25
     66c:	5c230200 	sfmpl	f0, 4, [r3], #-0
     670:	0053880b 	subseq	r8, r3, fp, lsl #16
     674:	34e50600 	strbtcc	r0, [r5], #1536	; 0x600
     678:	02000000 	andeq	r0, r0, #0
     67c:	16006423 	strne	r6, [r0], -r3, lsr #8
     680:	00003401 	andeq	r3, r0, r1, lsl #8
     684:	00069e00 	andeq	r9, r6, r0, lsl #28
     688:	051a1700 	ldreq	r1, [sl, #-1792]	; 0xfffff900
     68c:	32170000 	andscc	r0, r7, #0
     690:	17000001 	strne	r0, [r0, -r1]
     694:	00000134 	andeq	r0, r0, r4, lsr r1
     698:	00003417 	andeq	r3, r0, r7, lsl r4
     69c:	040d0000 	streq	r0, [sp], #-0
     6a0:	0000067f 	andeq	r0, r0, pc, ror r6
     6a4:	00340116 	eorseq	r0, r4, r6, lsl r1
     6a8:	06c30000 	strbeq	r0, [r3], r0
     6ac:	1a170000 	bne	5c06b4 <_Min_Stack_Size+0x5c02b4>
     6b0:	17000005 	strne	r0, [r0, -r5]
     6b4:	00000132 	andeq	r0, r0, r2, lsr r1
     6b8:	0006c317 	andeq	ip, r6, r7, lsl r3
     6bc:	00341700 	eorseq	r1, r4, r0, lsl #14
     6c0:	0d000000 	stceq	0, cr0, [r0, #-0]
     6c4:	00014104 	andeq	r4, r1, r4, lsl #2
     6c8:	a4040d00 	strge	r0, [r4], #-3328	; 0xfffff300
     6cc:	16000006 	strne	r0, [r0], -r6
     6d0:	0000b101 	andeq	fp, r0, r1, lsl #2
     6d4:	0006ee00 	andeq	lr, r6, r0, lsl #28
     6d8:	051a1700 	ldreq	r1, [sl, #-1792]	; 0xfffff900
     6dc:	32170000 	andscc	r0, r7, #0
     6e0:	17000001 	strne	r0, [r0, -r1]
     6e4:	000000b1 	strheq	r0, [r0], -r1
     6e8:	00003417 	andeq	r3, r0, r7, lsl r4
     6ec:	040d0000 	streq	r0, [sp], #-0
     6f0:	000006cf 	andeq	r0, r0, pc, asr #13
     6f4:	00340116 	eorseq	r0, r4, r6, lsl r1
     6f8:	07090000 	streq	r0, [r9, -r0]
     6fc:	1a170000 	bne	5c0704 <_Min_Stack_Size+0x5c0304>
     700:	17000005 	strne	r0, [r0, -r5]
     704:	00000132 	andeq	r0, r0, r2, lsr r1
     708:	f4040d00 			; <UNDEFINED> instruction: 0xf4040d00
     70c:	08000006 	stmdaeq	r0, {r1, r2}
     710:	0000005b 	andeq	r0, r0, fp, asr r0
     714:	0000071f 	andeq	r0, r0, pc, lsl r7
     718:	00002d09 	andeq	r2, r0, r9, lsl #26
     71c:	08000200 	stmdaeq	r0, {r9}
     720:	0000005b 	andeq	r0, r0, fp, asr r0
     724:	0000072f 	andeq	r0, r0, pc, lsr #14
     728:	00002d09 	andeq	r2, r0, r9, lsl #26
     72c:	05000000 	streq	r0, [r0, #-0]
     730:	00006bba 			; <UNDEFINED> instruction: 0x00006bba
     734:	25011f06 	strcs	r1, [r1, #-3846]	; 0xfffff0fa
     738:	13000005 	movwne	r0, #5
     73c:	00005167 	andeq	r5, r0, r7, ror #2
     740:	0123060c 			; <UNDEFINED> instruction: 0x0123060c
     744:	00000776 	andeq	r0, r0, r6, ror r7
     748:	0059c814 	subseq	ip, r9, r4, lsl r8
     74c:	01250600 			; <UNDEFINED> instruction: 0x01250600
     750:	00000776 	andeq	r0, r0, r6, ror r7
     754:	14002302 	strne	r2, [r0], #-770	; 0xfffffcfe
     758:	00002bf3 	strdeq	r2, [r0], -r3
     75c:	34012606 	strcc	r2, [r1], #-1542	; 0xfffff9fa
     760:	02000000 	andeq	r0, r0, #0
     764:	78140423 	ldmdavc	r4, {r0, r1, r5, sl}
     768:	06000037 			; <UNDEFINED> instruction: 0x06000037
     76c:	077c0127 	ldrbeq	r0, [ip, -r7, lsr #2]!
     770:	23020000 	movwcs	r0, #8192	; 0x2000
     774:	040d0008 	streq	r0, [sp], #-8
     778:	0000073b 	andeq	r0, r0, fp, lsr r7
     77c:	072f040d 	streq	r0, [pc, -sp, lsl #8]!
     780:	dc130000 	ldcle	0, cr0, [r3], {-0}
     784:	18000066 	stmdane	r0, {r1, r2, r5, r6}
     788:	cc013f06 	stcgt	15, cr3, [r1], {6}
     78c:	14000007 	strne	r0, [r0], #-7
     790:	0000613e 	andeq	r6, r0, lr, lsr r1
     794:	cc014006 	stcgt	0, cr4, [r1], {6}
     798:	02000007 	andeq	r0, r0, #7
     79c:	f2140023 	vhadd.s16	d0, d4, d19
     7a0:	0600000d 	streq	r0, [r0], -sp
     7a4:	07cc0141 	strbeq	r0, [ip, r1, asr #2]
     7a8:	23020000 	movwcs	r0, #8192	; 0x2000
     7ac:	84021406 	strhi	r1, [r2], #-1030	; 0xfffffbfa
     7b0:	42060000 	andmi	r0, r6, #0
     7b4:	00007401 	andeq	r7, r0, r1, lsl #8
     7b8:	0c230200 	sfmeq	f0, 4, [r3], #-0
     7bc:	0059c314 	subseq	ip, r9, r4, lsl r3
     7c0:	01450600 	cmpeq	r5, r0, lsl #12
     7c4:	00000094 	muleq	r0, r4, r0
     7c8:	00102302 	andseq	r2, r0, r2, lsl #6
     7cc:	00007408 	andeq	r7, r0, r8, lsl #8
     7d0:	0007dc00 	andeq	sp, r7, r0, lsl #24
     7d4:	002d0900 	eoreq	r0, sp, r0, lsl #18
     7d8:	00020000 	andeq	r0, r2, r0
     7dc:	007f7413 	rsbseq	r7, pc, r3, lsl r4	; <UNPREDICTABLE>
     7e0:	58061000 	stmdapl	r6, {ip}
     7e4:	00082601 	andeq	r2, r8, r1, lsl #12
     7e8:	80d01400 	sbcshi	r1, r0, r0, lsl #8
     7ec:	5b060000 	blpl	1807f4 <_Min_Stack_Size+0x1803f4>
     7f0:	0001b001 	andeq	fp, r1, r1
     7f4:	00230200 	eoreq	r0, r3, r0, lsl #4
     7f8:	00165814 	andseq	r5, r6, r4, lsl r8
     7fc:	015c0600 	cmpeq	ip, r0, lsl #12
     800:	00000034 	andeq	r0, r0, r4, lsr r0
     804:	14042302 	strne	r2, [r4], #-770	; 0xfffffcfe
     808:	00003384 	andeq	r3, r0, r4, lsl #7
     80c:	b0015d06 	andlt	r5, r1, r6, lsl #26
     810:	02000001 	andeq	r0, r0, #1
     814:	ea140823 	b	5028a8 <_Min_Stack_Size+0x5024a8>
     818:	06000050 			; <UNDEFINED> instruction: 0x06000050
     81c:	0826015e 	stmdaeq	r6!, {r1, r2, r3, r4, r6, r8}
     820:	23020000 	movwcs	r0, #8192	; 0x2000
     824:	040d000c 	streq	r0, [sp], #-12
     828:	000001b0 			; <UNDEFINED> instruction: 0x000001b0
     82c:	001c5b13 	andseq	r5, ip, r3, lsl fp
     830:	62065000 	andvs	r5, r6, #0
     834:	0008df01 	andeq	sp, r8, r1, lsl #30
     838:	69db1400 	ldmibvs	fp, {sl, ip}^
     83c:	65060000 	strvs	r0, [r6, #-0]
     840:	00013401 	andeq	r3, r1, r1, lsl #8
     844:	00230200 	eoreq	r0, r3, r0, lsl #4
     848:	00737714 	rsbseq	r7, r3, r4, lsl r7
     84c:	01660600 	cmneq	r6, r0, lsl #12
     850:	0000011c 	andeq	r0, r0, ip, lsl r1
     854:	14042302 	strne	r2, [r4], #-770	; 0xfffffcfe
     858:	0000593a 	andeq	r5, r0, sl, lsr r9
     85c:	1c016706 	stcne	7, cr6, [r1], {6}
     860:	02000001 	andeq	r0, r0, #1
     864:	b2140c23 	andslt	r0, r4, #8960	; 0x2300
     868:	06000063 	streq	r0, [r0], -r3, rrx
     86c:	011c0168 	tsteq	ip, r8, ror #2
     870:	23020000 	movwcs	r0, #8192	; 0x2000
     874:	0aac1414 	beq	feb058cc <_estack+0xdeb030cc>
     878:	69060000 	stmdbvs	r6, {}	; <UNPREDICTABLE>
     87c:	0008df01 	andeq	sp, r8, r1, lsl #30
     880:	1c230200 	sfmne	f0, 4, [r3], #-0
     884:	000de514 	andeq	lr, sp, r4, lsl r5
     888:	016a0600 	cmneq	sl, r0, lsl #12
     88c:	00000034 	andeq	r0, r0, r4, lsr r0
     890:	14242302 	strtne	r2, [r4], #-770	; 0xfffffcfe
     894:	000015ea 	andeq	r1, r0, sl, ror #11
     898:	1c016b06 			; <UNDEFINED> instruction: 0x1c016b06
     89c:	02000001 	andeq	r0, r0, #1
     8a0:	96142823 	ldrls	r2, [r4], -r3, lsr #16
     8a4:	0600006a 	streq	r0, [r0], -sl, rrx
     8a8:	011c016c 	tsteq	ip, ip, ror #2
     8ac:	23020000 	movwcs	r0, #8192	; 0x2000
     8b0:	85941430 	ldrhi	r1, [r4, #1072]	; 0x430
     8b4:	6d060000 	stcvs	0, cr0, [r6, #-0]
     8b8:	00011c01 	andeq	r1, r1, r1, lsl #24
     8bc:	38230200 	stmdacc	r3!, {r9}
     8c0:	0056c414 	subseq	ip, r6, r4, lsl r4
     8c4:	016e0600 	cmneq	lr, r0, lsl #12
     8c8:	0000011c 	andeq	r0, r0, ip, lsl r1
     8cc:	14402302 	strbne	r2, [r0], #-770	; 0xfffffcfe
     8d0:	000009e8 	andeq	r0, r0, r8, ror #19
     8d4:	1c016f06 	stcne	15, cr6, [r1], {6}
     8d8:	02000001 	andeq	r0, r0, #1
     8dc:	08004823 	stmdaeq	r0, {r0, r1, r5, fp, lr}
     8e0:	0000013a 	andeq	r0, r0, sl, lsr r1
     8e4:	000008ef 	andeq	r0, r0, pc, ror #17
     8e8:	00002d09 	andeq	r2, r0, r9, lsl #26
     8ec:	18000700 	stmdane	r0, {r8, r9, sl}
     8f0:	000001e7 	andeq	r0, r0, r7, ror #3
     8f4:	ef040d01 	svc	0x00040d01
     8f8:	0d000008 	stceq	0, cr0, [r0, #-32]	; 0xffffffe0
     8fc:	0007dc04 	andeq	sp, r7, r4, lsl #24
     900:	0d011900 	vstreq.16	s2, [r1, #-0]	; <UNPREDICTABLE>
     904:	17000009 	strne	r0, [r0, -r9]
     908:	0000051a 	andeq	r0, r0, sl, lsl r5
     90c:	01040d00 	tsteq	r4, r0, lsl #26
     910:	0d000009 	stceq	0, cr0, [r0, #-36]	; 0xffffffdc
     914:	00078204 	andeq	r8, r7, r4, lsl #4
     918:	c6040d00 	strgt	r0, [r4], -r0, lsl #26
     91c:	19000001 	stmdbne	r0, {r0}
     920:	00092b01 	andeq	r2, r9, r1, lsl #22
     924:	00341700 	eorseq	r1, r4, r0, lsl #14
     928:	0d000000 	stceq	0, cr0, [r0, #-0]
     92c:	00093104 	andeq	r3, r9, r4, lsl #2
     930:	1f040d00 	svcne	0x00040d00
     934:	0d000009 	stceq	0, cr0, [r0, #-36]	; 0xffffffdc
     938:	00082c04 	andeq	r2, r8, r4, lsl #24
     93c:	1f011a00 	svcne	0x00011a00
     940:	ca060000 	bgt	180948 <_Min_Stack_Size+0x180548>
     944:	0003bd01 	andeq	fp, r3, r1, lsl #26
     948:	1a010100 	bne	40d50 <_Min_Stack_Size+0x40950>
     94c:	00005341 	andeq	r5, r0, r1, asr #6
     950:	bd01cb06 	vstrlt	d12, [r1, #-24]	; 0xffffffe8
     954:	01000003 	tsteq	r0, r3
     958:	43a51a01 			; <UNDEFINED> instruction: 0x43a51a01
     95c:	cc060000 	stcgt	0, cr0, [r6], {-0}
     960:	0003bd01 	andeq	fp, r3, r1, lsl #26
     964:	1a010100 	bne	40d6c <_Min_Stack_Size+0x4096c>
     968:	00002b31 	andeq	r2, r0, r1, lsr fp
     96c:	1a032e06 	bne	cc18c <_Min_Stack_Size+0xcbd8c>
     970:	01000005 	tsteq	r0, r5
     974:	78dd1a01 	ldmvc	sp, {r0, r9, fp, ip}^
     978:	2f060000 	svccs	0x00060000
     97c:	00052003 	andeq	r2, r5, r3
     980:	1a010100 	bne	40d88 <_Min_Stack_Size+0x40988>
     984:	000046e3 	andeq	r4, r0, r3, ror #13
     988:	f0034106 			; <UNDEFINED> instruction: 0xf0034106
     98c:	01000002 	tsteq	r0, r2
     990:	77ad1b01 	strvc	r1, [sp, r1, lsl #22]!
     994:	63070000 	movwvs	r0, #28672	; 0x7000
     998:	00000134 	andeq	r0, r0, r4, lsr r1
     99c:	92040101 	andls	r0, r4, #1073741824	; 0x40000000
     9a0:	08000012 	stmdaeq	r0, {r1, r4}
     9a4:	00005018 	andeq	r5, r0, r8, lsl r0
     9a8:	2a000400 	bcs	19b0 <_Min_Stack_Size+0x15b0>
     9ac:	24080000 	strcs	r0, [r8], #-0
     9b0:	00000069 	andeq	r0, r0, r9, rrx
     9b4:	00407604 	subeq	r7, r0, r4, lsl #12
     9b8:	82300800 	eorshi	r0, r0, #0, 16
     9bc:	1c000000 	stcne	0, cr0, [r0], {-0}
     9c0:	000009b4 			; <UNDEFINED> instruction: 0x000009b4
     9c4:	50091c0a 	andpl	r1, r9, sl, lsl #24
     9c8:	00000a2f 	andeq	r0, r0, pc, lsr #20
     9cc:	4c524310 	mrrcmi	3, 1, r4, r2, cr0
     9d0:	bf520900 	svclt	0x00520900
     9d4:	02000009 	andeq	r0, r0, #9
     9d8:	43100023 	tstmi	r0, #35	; 0x23
     9dc:	09004852 	stmdbeq	r0, {r1, r4, r6, fp, lr}
     9e0:	0009bf53 	andeq	fp, r9, r3, asr pc
     9e4:	04230200 	strteq	r0, [r3], #-512	; 0xfffffe00
     9e8:	52444910 	subpl	r4, r4, #16, 18	; 0x40000
     9ec:	bf540900 	svclt	0x00540900
     9f0:	02000009 	andeq	r0, r0, #9
     9f4:	4f100823 	svcmi	0x00100823
     9f8:	09005244 	stmdbeq	r0, {r2, r6, r9, ip, lr}
     9fc:	0009bf55 	andeq	fp, r9, r5, asr pc
     a00:	0c230200 	sfmeq	f0, 4, [r3], #-0
     a04:	007b170b 	rsbseq	r1, fp, fp, lsl #14
     a08:	bf560900 	svclt	0x00560900
     a0c:	02000009 	andeq	r0, r0, #9
     a10:	42101023 	andsmi	r1, r0, #35	; 0x23
     a14:	09005252 	stmdbeq	r0, {r1, r4, r6, r9, ip, lr}
     a18:	0009bf57 	andeq	fp, r9, r7, asr pc
     a1c:	14230200 	strtne	r0, [r3], #-512	; 0xfffffe00
     a20:	00463a0b 	subeq	r3, r6, fp, lsl #20
     a24:	bf580900 	svclt	0x00580900
     a28:	02000009 	andeq	r0, r0, #9
     a2c:	04001823 	streq	r1, [r0], #-2083	; 0xfffff7dd
     a30:	00007c57 	andeq	r7, r0, r7, asr ip
     a34:	09c45909 	stmibeq	r4, {r0, r3, r8, fp, ip, lr}^
     a38:	280a0000 	stmdacs	sl, {}	; <UNPREDICTABLE>
     a3c:	0ace5e09 	beq	ff398268 <_estack+0xdf395a68>
     a40:	43100000 	tstmi	r0, #0
     a44:	60090052 	andvs	r0, r9, r2, asr r0
     a48:	000009bf 			; <UNDEFINED> instruction: 0x000009bf
     a4c:	0b002302 	bleq	965c <_Min_Stack_Size+0x925c>
     a50:	000035f5 	strdeq	r3, [r0], -r5
     a54:	09bf6109 	ldmibeq	pc!, {r0, r3, r8, sp, lr}	; <UNPREDICTABLE>
     a58:	23020000 	movwcs	r0, #8192	; 0x2000
     a5c:	49431004 	stmdbmi	r3, {r2, ip}^
     a60:	62090052 	andvs	r0, r9, #82	; 0x52
     a64:	000009bf 			; <UNDEFINED> instruction: 0x000009bf
     a68:	0b082302 	bleq	209678 <_Min_Stack_Size+0x209278>
     a6c:	00004fe2 	andeq	r4, r0, r2, ror #31
     a70:	09bf6309 	ldmibeq	pc!, {r0, r3, r8, r9, sp, lr}	; <UNPREDICTABLE>
     a74:	23020000 	movwcs	r0, #8192	; 0x2000
     a78:	63370b0c 	teqvs	r7, #12, 22	; 0x3000
     a7c:	64090000 	strvs	r0, [r9], #-0
     a80:	000009bf 			; <UNDEFINED> instruction: 0x000009bf
     a84:	0b102302 	bleq	409694 <_Min_Stack_Size+0x409294>
     a88:	00007910 	andeq	r7, r0, r0, lsl r9
     a8c:	09bf6509 	ldmibeq	pc!, {r0, r3, r8, sl, sp, lr}	; <UNPREDICTABLE>
     a90:	23020000 	movwcs	r0, #8192	; 0x2000
     a94:	1af80b14 	bne	ffe036ec <_estack+0xdfe00eec>
     a98:	66090000 	strvs	r0, [r9], -r0
     a9c:	000009bf 			; <UNDEFINED> instruction: 0x000009bf
     aa0:	0b182302 	bleq	6096b0 <_Min_Stack_Size+0x6092b0>
     aa4:	000063aa 	andeq	r6, r0, sl, lsr #7
     aa8:	09bf6709 	ldmibeq	pc!, {r0, r3, r8, r9, sl, sp, lr}	; <UNPREDICTABLE>
     aac:	23020000 	movwcs	r0, #8192	; 0x2000
     ab0:	30f80b1c 	rscscc	r0, r8, ip, lsl fp
     ab4:	68090000 	stmdavs	r9, {}	; <UNPREDICTABLE>
     ab8:	000009bf 			; <UNDEFINED> instruction: 0x000009bf
     abc:	10202302 	eorne	r2, r0, r2, lsl #6
     ac0:	00525343 	subseq	r5, r2, r3, asr #6
     ac4:	09bf6909 	ldmibeq	pc!, {r0, r3, r8, fp, sp, lr}	; <UNPREDICTABLE>
     ac8:	23020000 	movwcs	r0, #8192	; 0x2000
     acc:	4b040024 	blmi	100b64 <_Min_Stack_Size+0x100764>
     ad0:	09000073 	stmdbeq	r0, {r0, r1, r4, r5, r6}
     ad4:	000a3a6a 	andeq	r3, sl, sl, ror #20
     ad8:	0a0c0a00 	beq	3032e0 <_Min_Stack_Size+0x302ee0>
     adc:	000b1a17 	andeq	r1, fp, r7, lsl sl
     ae0:	4e6d0b00 	vmulmi.f64	d16, d13, d0
     ae4:	190a0000 	stmdbne	sl, {}	; <UNPREDICTABLE>
     ae8:	000009a9 	andeq	r0, r0, r9, lsr #19
     aec:	0b002302 	bleq	96fc <_Min_Stack_Size+0x92fc>
     af0:	0000676a 	andeq	r6, r0, sl, ror #14
     af4:	0b1a1a0a 	bleq	687324 <_Min_Stack_Size+0x686f24>
     af8:	23020000 	movwcs	r0, #8192	; 0x2000
     afc:	68b80b04 	ldmvs	r8!, {r2, r8, r9, fp}
     b00:	1b0a0000 	blne	280b08 <_Min_Stack_Size+0x280708>
     b04:	000009a9 	andeq	r0, r0, r9, lsr #19
     b08:	0b082302 	bleq	209718 <_Min_Stack_Size+0x209318>
     b0c:	0000891d 	andeq	r8, r0, sp, lsl r9
     b10:	099e1c0a 	ldmibeq	lr, {r1, r3, sl, fp, ip}
     b14:	23020000 	movwcs	r0, #8192	; 0x2000
     b18:	040d000a 	streq	r0, [sp], #-10
     b1c:	00000a2f 	andeq	r0, r0, pc, lsr #20
     b20:	008bcb04 	addeq	ip, fp, r4, lsl #22
     b24:	d91d0a00 	ldmdble	sp, {r9, fp}
     b28:	0a00000a 	beq	b58 <_Min_Stack_Size+0x758>
     b2c:	6c1f0a14 			; <UNDEFINED> instruction: 0x6c1f0a14
     b30:	0b00000b 	bleq	b64 <_Min_Stack_Size+0x764>
     b34:	00005053 	andeq	r5, r0, r3, asr r0
     b38:	0b20210a 	bleq	808f68 <_Min_Stack_Size+0x808b68>
     b3c:	23020000 	movwcs	r0, #8192	; 0x2000
     b40:	30fd0b00 	rscscc	r0, sp, r0, lsl #22
     b44:	240a0000 	strcs	r0, [sl], #-0
     b48:	0000099e 	muleq	r0, lr, r9
     b4c:	0b0c2302 	bleq	30975c <_Min_Stack_Size+0x30935c>
     b50:	000067b4 			; <UNDEFINED> instruction: 0x000067b4
     b54:	099e270a 	ldmibeq	lr, {r1, r3, r8, r9, sl, sp}
     b58:	23020000 	movwcs	r0, #8192	; 0x2000
     b5c:	908a0b0d 	addls	r0, sl, sp, lsl #22
     b60:	2a0a0000 	bcs	280b68 <_Min_Stack_Size+0x280768>
     b64:	00000306 	andeq	r0, r0, r6, lsl #6
     b68:	00102302 	andseq	r2, r0, r2, lsl #6
     b6c:	002b5304 	eoreq	r5, fp, r4, lsl #6
     b70:	2b2b0a00 	blcs	ac3378 <_Min_Stack_Size+0xac2f78>
     b74:	1d00000b 	stcne	0, cr0, [r0, #-44]	; 0xffffffd4
     b78:	00002f84 	andeq	r2, r0, r4, lsl #31
     b7c:	002d2b01 	eoreq	r2, sp, r1, lsl #22
     b80:	05010000 	streq	r0, [r1, #-0]
     b84:	00001c03 	andeq	r1, r0, r3, lsl #24
     b88:	768b1e20 	strvc	r1, [fp], r0, lsr #28
     b8c:	01070000 	mrseq	r0, (UNDEF: 7)
     b90:	0000005b 	andeq	r0, r0, fp, asr r0
     b94:	0ba72d01 	bleq	fe9cbfa0 <_estack+0xde9c97a0>
     b98:	831f0000 	tsthi	pc, #0
     b9c:	0000000f 	andeq	r0, r0, pc
     ba0:	000f811f 	andeq	r8, pc, pc, lsl r1	; <UNPREDICTABLE>
     ba4:	20000100 	andcs	r0, r0, r0, lsl #2
     ba8:	00193f01 	andseq	r3, r9, r1, lsl #30
     bac:	01540100 	cmpeq	r4, r0, lsl #2
     bb0:	00000034 	andeq	r0, r0, r4, lsr r0
     bb4:	080001ec 	stmdaeq	r0, {r2, r3, r5, r6, r7, r8}
     bb8:	08000260 	stmdaeq	r0, {r5, r6, r9}
     bbc:	00000000 	andeq	r0, r0, r0
     bc0:	000bd401 	andeq	sp, fp, r1, lsl #8
     bc4:	725b2100 	subsvc	r2, fp, #0, 2
     bc8:	5a010000 	bpl	40bd0 <_Min_Stack_Size+0x407d0>
     bcc:	00000b6c 	andeq	r0, r0, ip, ror #22
     bd0:	00649102 	rsbeq	r9, r4, r2, lsl #2
     bd4:	10440122 	subne	r0, r4, r2, lsr #2
     bd8:	4b010000 	blmi	40be0 <_Min_Stack_Size+0x407e0>
     bdc:	0001d401 	andeq	sp, r1, r1, lsl #8
     be0:	0001ec08 	andeq	lr, r1, r8, lsl #24
     be4:	00003808 	andeq	r3, r0, r8, lsl #16
     be8:	01230100 			; <UNDEFINED> instruction: 0x01230100
     bec:	000018d5 	ldrdeq	r1, [r0], -r5
     bf0:	94013401 	strls	r3, [r1], #-1025	; 0xfffffbff
     bf4:	d4080001 	strle	r0, [r8], #-1
     bf8:	64080001 	strvs	r0, [r8], #-1
     bfc:	01000000 	mrseq	r0, (UNDEF: 0)
     c00:	00000c13 	andeq	r0, r0, r3, lsl ip
     c04:	00005a24 	andeq	r5, r0, r4, lsr #20
     c08:	89340100 	ldmdbhi	r4!, {r8}
     c0c:	0200000b 	andeq	r0, r0, #11
     c10:	25007791 	strcs	r7, [r0, #-1937]	; 0xfffff86f
     c14:	007ca601 	rsbseq	sl, ip, r1, lsl #12
     c18:	88250100 	stmdahi	r5!, {r8}
     c1c:	94080001 	strls	r0, [r8], #-1
     c20:	c0080001 	andgt	r0, r8, r1
     c24:	01000000 	mrseq	r0, (UNDEF: 0)
     c28:	881d0125 	ldmdahi	sp, {r0, r2, r5, r8}
     c2c:	20010000 	andcs	r0, r1, r0
     c30:	0800017c 	stmdaeq	r0, {r2, r3, r4, r5, r6, r8}
     c34:	08000188 	stmdaeq	r0, {r3, r7, r8}
     c38:	00000104 	andeq	r0, r0, r4, lsl #2
     c3c:	85012501 	strhi	r2, [r1, #-1281]	; 0xfffffaff
     c40:	01000059 	qaddeq	r0, r9, r0
     c44:	0001701b 	andeq	r7, r1, fp, lsl r0
     c48:	00017c08 	andeq	r7, r1, r8, lsl #24
     c4c:	00014808 	andeq	r4, r1, r8, lsl #16
     c50:	1e000100 	adfnes	f0, f0, f0
     c54:	02000000 	andeq	r0, r0, #0
     c58:	00020500 	andeq	r0, r2, r0, lsl #10
     c5c:	e5010400 	str	r0, [r1, #-1024]	; 0xfffffc00
     c60:	38000005 	stmdacc	r0, {r0, r2}
     c64:	8a000000 	bhi	c6c <_Min_Stack_Size+0x86c>
     c68:	ad00008d 	stcge	0, cr0, [r0, #-564]	; 0xfffffdcc
     c6c:	f900008d 			; <UNDEFINED> instruction: 0xf900008d
     c70:	0100008d 	smlabbeq	r0, sp, r0, r0
     c74:	000d5580 	andeq	r5, sp, r0, lsl #11
     c78:	17000200 	strne	r0, [r0, -r0, lsl #4]
     c7c:	04000002 	streq	r0, [r0], #-2
     c80:	00860e01 	addeq	r0, r6, r1, lsl #28
     c84:	8e070c00 	cdphi	12, 0, cr0, cr7, cr0, {0}
     c88:	8dad0000 	stchi	0, cr0, [sp]
     c8c:	00580000 	subseq	r0, r8, r0
	...
     c98:	06690000 	strbteq	r0, [r9], -r0
     c9c:	03760000 	cmneq	r6, #0
     ca0:	04020000 	streq	r0, [r2], #-0
     ca4:	00214c07 	eoreq	r4, r1, r7, lsl #24
     ca8:	05040300 	streq	r0, [r4, #-768]	; 0xfffffd00
     cac:	00746e69 	rsbseq	r6, r4, r9, ror #28
     cb0:	23050802 	movwcs	r0, #22530	; 0x5802
     cb4:	02000050 	andeq	r0, r0, #80	; 0x50
     cb8:	03470408 	movteq	r0, #29704	; 0x7408
     cbc:	01020000 	mrseq	r0, (UNDEF: 2)
     cc0:	0007e706 	andeq	lr, r7, r6, lsl #14
     cc4:	12900400 	addsne	r0, r0, #0, 8
     cc8:	2b020000 	blcs	80cd0 <_Min_Stack_Size+0x808d0>
     ccc:	0000005b 	andeq	r0, r0, fp, asr r0
     cd0:	d6080102 	strle	r0, [r8], -r2, lsl #2
     cd4:	0200002f 	andeq	r0, r0, #47	; 0x2f
     cd8:	8aef0502 	bhi	ffbc20e8 <_estack+0xdfbbf8e8>
     cdc:	fe040000 	cdp2	0, 0, cr0, cr4, cr0, {0}
     ce0:	02000029 	andeq	r0, r0, #41	; 0x29
     ce4:	00007439 	andeq	r7, r0, r9, lsr r4
     ce8:	07020200 	streq	r0, [r2, -r0, lsl #4]
     cec:	00006757 	andeq	r6, r0, r7, asr r7
     cf0:	4f050402 	svcmi	0x00050402
     cf4:	0400006a 	streq	r0, [r0], #-106	; 0xffffff96
     cf8:	00004074 	andeq	r4, r0, r4, ror r0
     cfc:	008d4f02 	addeq	r4, sp, r2, lsl #30
     d00:	04020000 	streq	r0, [r2], #-0
     d04:	001a0f07 	andseq	r0, sl, r7, lsl #30
     d08:	07080200 	streq	r0, [r8, -r0, lsl #4]
     d0c:	00003ce5 	andeq	r3, r0, r5, ror #25
     d10:	00432404 	subeq	r2, r3, r4, lsl #8
     d14:	340c0300 	strcc	r0, [ip], #-768	; 0xfffffd00
     d18:	04000000 	streq	r0, [r0], #-0
     d1c:	00008306 	andeq	r8, r0, r6, lsl #6
     d20:	007b2c04 	rsbseq	r2, fp, r4, lsl #24
     d24:	cb040000 	blgt	100d2c <_Min_Stack_Size+0x10092c>
     d28:	04000062 	streq	r0, [r0], #-98	; 0xffffff9e
     d2c:	00007b72 	andeq	r7, r0, r2, ror fp
     d30:	22e00500 	rsccs	r0, r0, #0, 10
     d34:	65050000 	strvs	r0, [r5, #-0]
     d38:	00002d01 	andeq	r2, r0, r1, lsl #26
     d3c:	04040600 	streq	r0, [r4], #-1536	; 0xfffffa00
     d40:	0000e7a6 	andeq	lr, r0, r6, lsr #15
     d44:	12600700 	rsbne	r0, r0, #0, 14
     d48:	a8040000 	stmdage	r4, {}	; <UNPREDICTABLE>
     d4c:	000000bc 	strheq	r0, [r0], -ip
     d50:	0062e907 	rsbeq	lr, r2, r7, lsl #18
     d54:	e7a90400 	str	r0, [r9, r0, lsl #8]!
     d58:	00000000 	andeq	r0, r0, r0
     d5c:	00005b08 	andeq	r5, r0, r8, lsl #22
     d60:	0000f700 	andeq	pc, r0, r0, lsl #14
     d64:	002d0900 	eoreq	r0, sp, r0, lsl #18
     d68:	00030000 	andeq	r0, r3, r0
     d6c:	a304080a 	movwge	r0, #18442	; 0x480a
     d70:	0000011c 	andeq	r0, r0, ip, lsl r1
     d74:	005ca70b 	subseq	sl, ip, fp, lsl #14
     d78:	34a50400 	strtcc	r0, [r5], #1024	; 0x400
     d7c:	02000000 	andeq	r0, r0, #0
     d80:	0b0b0023 	bleq	2c0e14 <_Min_Stack_Size+0x2c0a14>
     d84:	04000002 	streq	r0, [r0], #-2
     d88:	0000c8aa 	andeq	ip, r0, sl, lsr #17
     d8c:	04230200 	strteq	r0, [r3], #-512	; 0xfffffe00
     d90:	516d0400 	cmnpl	sp, r0, lsl #8
     d94:	ab040000 	blge	100d9c <_Min_Stack_Size+0x10099c>
     d98:	000000f7 	strdeq	r0, [r0], -r7
     d9c:	006b9104 	rsbeq	r9, fp, r4, lsl #2
     da0:	9baf0400 	blls	febc1da8 <_estack+0xdebbf5a8>
     da4:	0c000000 	stceq	0, cr0, [r0], {-0}
     da8:	3a040d04 	bcc	1041c0 <_Min_Stack_Size+0x103dc0>
     dac:	02000001 	andeq	r0, r0, #1
     db0:	07ee0801 	strbeq	r0, [lr, r1, lsl #16]!
     db4:	3a0e0000 	bcc	380dbc <_Min_Stack_Size+0x3809bc>
     db8:	04000001 	streq	r0, [r0], #-1
     dbc:	00007fd3 	ldrdeq	r7, [r0], -r3
     dc0:	008d1606 	addeq	r1, sp, r6, lsl #12
     dc4:	0f0f0000 	svceq	0x000f0000
     dc8:	18000048 	stmdane	r0, {r3, r6}
     dcc:	01b02f06 	lslseq	r2, r6, #30
     dd0:	c80b0000 	stmdagt	fp, {}	; <UNPREDICTABLE>
     dd4:	06000059 			; <UNDEFINED> instruction: 0x06000059
     dd8:	0001b031 	andeq	fp, r1, r1, lsr r0
     ddc:	00230200 	eoreq	r0, r3, r0, lsl #4
     de0:	006b5f10 	rsbeq	r5, fp, r0, lsl pc
     de4:	00343206 	eorseq	r3, r4, r6, lsl #4
     de8:	23020000 	movwcs	r0, #8192	; 0x2000
     dec:	788e0b04 	stmvc	lr, {r2, r8, r9, fp}
     df0:	32060000 	andcc	r0, r6, #0
     df4:	00000034 	andeq	r0, r0, r4, lsr r0
     df8:	0b082302 	bleq	209a08 <_Min_Stack_Size+0x209608>
     dfc:	00005178 	andeq	r5, r0, r8, ror r1
     e00:	00343206 	eorseq	r3, r4, r6, lsl #4
     e04:	23020000 	movwcs	r0, #8192	; 0x2000
     e08:	34140b0c 	ldrcc	r0, [r4], #-2828	; 0xfffff4f4
     e0c:	32060000 	andcc	r0, r6, #0
     e10:	00000034 	andeq	r0, r0, r4, lsr r0
     e14:	10102302 	andsne	r2, r0, r2, lsl #6
     e18:	0600785f 			; <UNDEFINED> instruction: 0x0600785f
     e1c:	0001b633 	andeq	fp, r1, r3, lsr r6
     e20:	14230200 	strtne	r0, [r3], #-512	; 0xfffffe00
     e24:	51040d00 	tstpl	r4, r0, lsl #26
     e28:	08000001 	stmdaeq	r0, {r0}
     e2c:	00000146 	andeq	r0, r0, r6, asr #2
     e30:	000001c6 	andeq	r0, r0, r6, asr #3
     e34:	00002d09 	andeq	r2, r0, r9, lsl #26
     e38:	0f000000 	svceq	0x00000000
     e3c:	000009e3 	andeq	r0, r0, r3, ror #19
     e40:	51370624 	teqpl	r7, r4, lsr #12
     e44:	0b000002 	bleq	e54 <_Min_Stack_Size+0xa54>
     e48:	000009ff 	strdeq	r0, [r0], -pc	; <UNPREDICTABLE>
     e4c:	00343906 	eorseq	r3, r4, r6, lsl #18
     e50:	23020000 	movwcs	r0, #8192	; 0x2000
     e54:	8b910b00 	blhi	fe443a5c <_estack+0xde44125c>
     e58:	3a060000 	bcc	180e60 <_Min_Stack_Size+0x180a60>
     e5c:	00000034 	andeq	r0, r0, r4, lsr r0
     e60:	0b042302 	bleq	109a70 <_Min_Stack_Size+0x109670>
     e64:	00008458 	andeq	r8, r0, r8, asr r4
     e68:	00343b06 	eorseq	r3, r4, r6, lsl #22
     e6c:	23020000 	movwcs	r0, #8192	; 0x2000
     e70:	57ae0b08 	strpl	r0, [lr, r8, lsl #22]!
     e74:	3c060000 	stccc	0, cr0, [r6], {-0}
     e78:	00000034 	andeq	r0, r0, r4, lsr r0
     e7c:	0b0c2302 	bleq	309a8c <_Min_Stack_Size+0x30968c>
     e80:	00001ac2 	andeq	r1, r0, r2, asr #21
     e84:	00343d06 	eorseq	r3, r4, r6, lsl #26
     e88:	23020000 	movwcs	r0, #8192	; 0x2000
     e8c:	79060b10 	stmdbvc	r6, {r4, r8, r9, fp}
     e90:	3e060000 	cdpcc	0, 0, cr0, cr6, cr0, {0}
     e94:	00000034 	andeq	r0, r0, r4, lsr r0
     e98:	0b142302 	bleq	509aa8 <_Min_Stack_Size+0x5096a8>
     e9c:	00005eef 	andeq	r5, r0, pc, ror #29
     ea0:	00343f06 	eorseq	r3, r4, r6, lsl #30
     ea4:	23020000 	movwcs	r0, #8192	; 0x2000
     ea8:	60060b18 	andvs	r0, r6, r8, lsl fp
     eac:	40060000 	andmi	r0, r6, r0
     eb0:	00000034 	andeq	r0, r0, r4, lsr r0
     eb4:	0b1c2302 	bleq	709ac4 <_Min_Stack_Size+0x7096c4>
     eb8:	000089b6 			; <UNDEFINED> instruction: 0x000089b6
     ebc:	00344106 	eorseq	r4, r4, r6, lsl #2
     ec0:	23020000 	movwcs	r0, #8192	; 0x2000
     ec4:	7a110020 	bvc	440f4c <_Min_Stack_Size+0x440b4c>
     ec8:	08000013 	stmdaeq	r0, {r0, r1, r4}
     ecc:	9a4a0601 	bls	12826d8 <_Min_Stack_Size+0x12822d8>
     ed0:	0b000002 	bleq	ee0 <_Min_Stack_Size+0xae0>
     ed4:	00000c4c 	andeq	r0, r0, ip, asr #24
     ed8:	029a4b06 	addseq	r4, sl, #6144	; 0x1800
     edc:	23020000 	movwcs	r0, #8192	; 0x2000
     ee0:	66810b00 	strvs	r0, [r1], r0, lsl #22
     ee4:	4c060000 	stcmi	0, cr0, [r6], {-0}
     ee8:	0000029a 	muleq	r0, sl, r2
     eec:	01802303 	orreq	r2, r0, r3, lsl #6
     ef0:	00198e0b 	andseq	r8, r9, fp, lsl #28
     ef4:	464e0600 	strbmi	r0, [lr], -r0, lsl #12
     ef8:	03000001 	movweq	r0, #1
     efc:	0b028023 	bleq	a0f90 <_Min_Stack_Size+0xa0b90>
     f00:	00007e6e 	andeq	r7, r0, lr, ror #28
     f04:	01465106 	cmpeq	r6, r6, lsl #2
     f08:	23030000 	movwcs	r0, #12288	; 0x3000
     f0c:	08000284 	stmdaeq	r0, {r2, r7, r9}
     f10:	00000132 	andeq	r0, r0, r2, lsr r1
     f14:	000002aa 	andeq	r0, r0, sl, lsr #5
     f18:	00002d09 	andeq	r2, r0, r9, lsl #26
     f1c:	0f001f00 	svceq	0x00001f00
     f20:	000046ea 	andeq	r4, r0, sl, ror #13
     f24:	f055068c 			; <UNDEFINED> instruction: 0xf055068c
     f28:	0b000002 	bleq	f38 <_Min_Stack_Size+0xb38>
     f2c:	000059c8 	andeq	r5, r0, r8, asr #19
     f30:	02f05606 	rscseq	r5, r0, #6291456	; 0x600000
     f34:	23020000 	movwcs	r0, #8192	; 0x2000
     f38:	7cdd0b00 	vldmiavc	sp, {d16-d15}
     f3c:	57060000 	strpl	r0, [r6, -r0]
     f40:	00000034 	andeq	r0, r0, r4, lsr r0
     f44:	0b042302 	bleq	109b54 <_Min_Stack_Size+0x109754>
     f48:	000027b0 			; <UNDEFINED> instruction: 0x000027b0
     f4c:	02f65806 	rscseq	r5, r6, #393216	; 0x60000
     f50:	23020000 	movwcs	r0, #8192	; 0x2000
     f54:	2cfd0b08 	vpopcs	{d16-d19}
     f58:	59060000 	stmdbpl	r6, {}	; <UNPREDICTABLE>
     f5c:	0000030e 	andeq	r0, r0, lr, lsl #6
     f60:	01882303 	orreq	r2, r8, r3, lsl #6
     f64:	aa040d00 	bge	10436c <_Min_Stack_Size+0x103f6c>
     f68:	08000002 	stmdaeq	r0, {r1}
     f6c:	00000306 	andeq	r0, r0, r6, lsl #6
     f70:	00000306 	andeq	r0, r0, r6, lsl #6
     f74:	00002d09 	andeq	r2, r0, r9, lsl #26
     f78:	0d001f00 	stceq	15, cr1, [r0, #-0]
     f7c:	00030c04 	andeq	r0, r3, r4, lsl #24
     f80:	0d011200 	sfmeq	f1, 4, [r1, #-0]
     f84:	00025104 	andeq	r5, r2, r4, lsl #2
     f88:	03760f00 	cmneq	r6, #0, 30
     f8c:	06080000 	streq	r0, [r8], -r0
     f90:	00033d75 	andeq	r3, r3, r5, ror sp
     f94:	68f60b00 	ldmvs	r6!, {r8, r9, fp}^
     f98:	76060000 	strvc	r0, [r6], -r0
     f9c:	0000033d 	andeq	r0, r0, sp, lsr r3
     fa0:	0b002302 	bleq	9bb0 <_Min_Stack_Size+0x97b0>
     fa4:	0000809e 	muleq	r0, lr, r0
     fa8:	00347706 	eorseq	r7, r4, r6, lsl #14
     fac:	23020000 	movwcs	r0, #8192	; 0x2000
     fb0:	040d0004 	streq	r0, [sp], #-4
     fb4:	0000005b 	andeq	r0, r0, fp, asr r0
     fb8:	0033df0f 	eorseq	sp, r3, pc, lsl #30
     fbc:	99062000 	stmdbls	r6, {sp}
     fc0:	000003bd 			; <UNDEFINED> instruction: 0x000003bd
     fc4:	00705f10 	rsbseq	r5, r0, r0, lsl pc
     fc8:	033d9a06 	teqeq	sp, #24576	; 0x6000
     fcc:	23020000 	movwcs	r0, #8192	; 0x2000
     fd0:	725f1000 	subsvc	r1, pc, #0
     fd4:	349b0600 	ldrcc	r0, [fp], #1536	; 0x600
     fd8:	02000000 	andeq	r0, r0, #0
     fdc:	5f100423 	svcpl	0x00100423
     fe0:	9c060077 	stcls	0, cr0, [r6], {119}	; 0x77
     fe4:	00000034 	andeq	r0, r0, r4, lsr r0
     fe8:	0b082302 	bleq	209bf8 <_Min_Stack_Size+0x2097f8>
     fec:	000059e6 	andeq	r5, r0, r6, ror #19
     ff0:	00629d06 	rsbeq	r9, r2, r6, lsl #26
     ff4:	23020000 	movwcs	r0, #8192	; 0x2000
     ff8:	13290b0c 			; <UNDEFINED> instruction: 0x13290b0c
     ffc:	9e060000 	cdpls	0, 0, cr0, cr6, cr0, {0}
    1000:	00000062 	andeq	r0, r0, r2, rrx
    1004:	100e2302 	andne	r2, lr, r2, lsl #6
    1008:	0066625f 	rsbeq	r6, r6, pc, asr r2
    100c:	03149f06 	tsteq	r4, #6, 30
    1010:	23020000 	movwcs	r0, #8192	; 0x2000
    1014:	7c9d0b10 	vldmiavc	sp, {d0-d7}
    1018:	a0060000 	andge	r0, r6, r0
    101c:	00000034 	andeq	r0, r0, r4, lsr r0
    1020:	0b182302 	bleq	609c30 <_Min_Stack_Size+0x609830>
    1024:	00006db3 			; <UNDEFINED> instruction: 0x00006db3
    1028:	051aa206 	ldreq	sl, [sl, #-518]	; 0xfffffdfa
    102c:	23020000 	movwcs	r0, #8192	; 0x2000
    1030:	430e001c 	movwmi	r0, #57372	; 0xe01c
    1034:	13000003 	movwne	r0, #3
    1038:	00001c60 	andeq	r1, r0, r0, ror #24
    103c:	01740660 	cmneq	r4, r0, ror #12
    1040:	0000051a 	andeq	r0, r0, sl, lsl r5
    1044:	00441914 	subeq	r1, r4, r4, lsl r9
    1048:	01780600 	cmneq	r8, r0, lsl #12
    104c:	00000034 	andeq	r0, r0, r4, lsr r0
    1050:	14002302 	strne	r2, [r0], #-770	; 0xfffffcfe
    1054:	00001f0a 	andeq	r1, r0, sl, lsl #30
    1058:	7c017d06 	stcvc	13, cr7, [r1], {6}
    105c:	02000007 	andeq	r0, r0, #7
    1060:	4a140423 	bmi	5020f4 <_Min_Stack_Size+0x501cf4>
    1064:	06000053 			; <UNDEFINED> instruction: 0x06000053
    1068:	077c017d 			; <UNDEFINED> instruction: 0x077c017d
    106c:	23020000 	movwcs	r0, #8192	; 0x2000
    1070:	43ae1408 			; <UNDEFINED> instruction: 0x43ae1408
    1074:	7d060000 	stcvc	0, cr0, [r6, #-0]
    1078:	00077c01 	andeq	r7, r7, r1, lsl #24
    107c:	0c230200 	sfmeq	f0, 4, [r3], #-0
    1080:	00258d14 	eoreq	r8, r5, r4, lsl sp
    1084:	017f0600 	cmneq	pc, r0, lsl #12
    1088:	00000034 	andeq	r0, r0, r4, lsr r0
    108c:	14102302 	ldrne	r2, [r0], #-770	; 0xfffffcfe
    1090:	000053cc 	andeq	r5, r0, ip, asr #7
    1094:	34018106 	strcc	r8, [r1], #-262	; 0xfffffefa
    1098:	02000001 	andeq	r0, r0, #1
    109c:	0d141423 	cfldrseq	mvf1, [r4, #-140]	; 0xffffff74
    10a0:	06000041 	streq	r0, [r0], -r1, asr #32
    10a4:	00340183 	eorseq	r0, r4, r3, lsl #3
    10a8:	23020000 	movwcs	r0, #8192	; 0x2000
    10ac:	22c01418 	sbccs	r1, r0, #24, 8	; 0x18000000
    10b0:	85060000 	strhi	r0, [r6, #-0]
    10b4:	00003401 	andeq	r3, r0, r1, lsl #8
    10b8:	1c230200 	sfmne	f0, 4, [r3], #-0
    10bc:	007fcb14 	rsbseq	ip, pc, r4, lsl fp	; <UNPREDICTABLE>
    10c0:	01860600 	orreq	r0, r6, r0, lsl #12
    10c4:	000008f5 	strdeq	r0, [r0], -r5
    10c8:	15202302 	strne	r2, [r0, #-770]!	; 0xfffffcfe
    10cc:	00706d5f 	rsbseq	r6, r0, pc, asr sp
    10d0:	fb018806 	blx	630f2 <_Min_Stack_Size+0x62cf2>
    10d4:	02000008 	andeq	r0, r0, #8
    10d8:	e8142423 	ldmda	r4, {r0, r1, r5, sl, sp}
    10dc:	06000049 	streq	r0, [r0], -r9, asr #32
    10e0:	090d018a 	stmdbeq	sp, {r1, r3, r7, r8}
    10e4:	23020000 	movwcs	r0, #8192	; 0x2000
    10e8:	4fd31428 	svcmi	0x00d31428
    10ec:	8c060000 	stchi	0, cr0, [r6], {-0}
    10f0:	00003401 	andeq	r3, r0, r1, lsl #8
    10f4:	2c230200 	sfmcs	f0, 4, [r3], #-0
    10f8:	00063714 	andeq	r3, r6, r4, lsl r7
    10fc:	018f0600 	orreq	r0, pc, r0, lsl #12
    1100:	00000034 	andeq	r0, r0, r4, lsr r0
    1104:	14302302 	ldrtne	r2, [r0], #-770	; 0xfffffcfe
    1108:	000036a2 	andeq	r3, r0, r2, lsr #13
    110c:	34019006 	strcc	r9, [r1], #-6
    1110:	02000001 	andeq	r0, r0, #1
    1114:	e2143423 	ands	r3, r4, #587202560	; 0x23000000
    1118:	0600006c 	streq	r0, [r0], -ip, rrx
    111c:	09130192 	ldmdbeq	r3, {r1, r4, r7, r8}
    1120:	23020000 	movwcs	r0, #8192	; 0x2000
    1124:	18221438 	stmdane	r2!, {r3, r4, r5, sl, ip}
    1128:	93060000 	movwls	r0, #24576	; 0x6000
    112c:	00091901 	andeq	r1, r9, r1, lsl #18
    1130:	3c230200 	sfmcc	f0, 4, [r3], #-0
    1134:	00061314 	andeq	r1, r6, r4, lsl r3
    1138:	01940600 	orrseq	r0, r4, r0, lsl #12
    113c:	00000134 	andeq	r0, r0, r4, lsr r1
    1140:	14402302 	strbne	r2, [r0], #-770	; 0xfffffcfe
    1144:	000034d6 	ldrdeq	r3, [r0], -r6
    1148:	2b019706 	blcs	66d68 <_Min_Stack_Size+0x66968>
    114c:	02000009 	andeq	r0, r0, #9
    1150:	c6144423 	ldrgt	r4, [r4], -r3, lsr #8
    1154:	06000088 	streq	r0, [r0], -r8, lsl #1
    1158:	073b019f 			; <UNDEFINED> instruction: 0x073b019f
    115c:	23020000 	movwcs	r0, #8192	; 0x2000
    1160:	02d51448 	sbcseq	r1, r5, #72, 8	; 0x48000000
    1164:	a0060000 	andge	r0, r6, r0
    1168:	00077c01 	andeq	r7, r7, r1, lsl #24
    116c:	54230200 	strtpl	r0, [r3], #-512	; 0xfffffe00
    1170:	007fa114 	rsbseq	sl, pc, r4, lsl r1	; <UNPREDICTABLE>
    1174:	01a10600 			; <UNDEFINED> instruction: 0x01a10600
    1178:	00000937 	andeq	r0, r0, r7, lsr r9
    117c:	14582302 	ldrbne	r2, [r8], #-770	; 0xfffffcfe
    1180:	0000462e 	andeq	r4, r0, lr, lsr #12
    1184:	3401a206 	strcc	sl, [r1], #-518	; 0xfffffdfa
    1188:	02000001 	andeq	r0, r0, #1
    118c:	0d005c23 	stceq	12, cr5, [r0, #-140]	; 0xffffff74
    1190:	0003c204 	andeq	ip, r3, r4, lsl #4
    1194:	051a0e00 	ldreq	r0, [sl, #-3584]	; 0xfffff200
    1198:	6e0f0000 	cdpvs	0, 0, cr0, cr15, cr0, {0}
    119c:	68000084 	stmdavs	r0, {r2, r7}
    11a0:	067fb506 	ldrbteq	fp, [pc], -r6, lsl #10
    11a4:	5f100000 	svcpl	0x00100000
    11a8:	b6060070 			; <UNDEFINED> instruction: 0xb6060070
    11ac:	0000033d 	andeq	r0, r0, sp, lsr r3
    11b0:	10002302 	andne	r2, r0, r2, lsl #6
    11b4:	0600725f 			; <UNDEFINED> instruction: 0x0600725f
    11b8:	000034b7 			; <UNDEFINED> instruction: 0x000034b7
    11bc:	04230200 	strteq	r0, [r3], #-512	; 0xfffffe00
    11c0:	00775f10 	rsbseq	r5, r7, r0, lsl pc
    11c4:	0034b806 	eorseq	fp, r4, r6, lsl #16
    11c8:	23020000 	movwcs	r0, #8192	; 0x2000
    11cc:	59e60b08 	stmibpl	r6!, {r3, r8, r9, fp}^
    11d0:	b9060000 	stmdblt	r6, {}	; <UNPREDICTABLE>
    11d4:	00000062 	andeq	r0, r0, r2, rrx
    11d8:	0b0c2302 	bleq	309de8 <_Min_Stack_Size+0x3099e8>
    11dc:	00001329 	andeq	r1, r0, r9, lsr #6
    11e0:	0062ba06 	rsbeq	fp, r2, r6, lsl #20
    11e4:	23020000 	movwcs	r0, #8192	; 0x2000
    11e8:	625f100e 	subsvs	r1, pc, #14
    11ec:	bb060066 	bllt	18138c <_Min_Stack_Size+0x180f8c>
    11f0:	00000314 	andeq	r0, r0, r4, lsl r3
    11f4:	0b102302 	bleq	409e04 <_Min_Stack_Size+0x409a04>
    11f8:	00007c9d 	muleq	r0, sp, ip
    11fc:	0034bc06 	eorseq	fp, r4, r6, lsl #24
    1200:	23020000 	movwcs	r0, #8192	; 0x2000
    1204:	6db30b18 			; <UNDEFINED> instruction: 0x6db30b18
    1208:	bf060000 	svclt	0x00060000
    120c:	0000051a 	andeq	r0, r0, sl, lsl r5
    1210:	0b1c2302 	bleq	709e20 <_Min_Stack_Size+0x709a20>
    1214:	00003369 	andeq	r3, r0, r9, ror #6
    1218:	0132c306 	teqeq	r2, r6, lsl #6
    121c:	23020000 	movwcs	r0, #8192	; 0x2000
    1220:	037d0b20 	cmneq	sp, #32, 22	; 0x8000
    1224:	c5060000 	strgt	r0, [r6, #-0]
    1228:	0000069e 	muleq	r0, lr, r6
    122c:	0b242302 	bleq	909e3c <_Min_Stack_Size+0x909a3c>
    1230:	0000059a 	muleq	r0, sl, r5
    1234:	06c9c706 	strbeq	ip, [r9], r6, lsl #14
    1238:	23020000 	movwcs	r0, #8192	; 0x2000
    123c:	61c10b28 	bicvs	r0, r1, r8, lsr #22
    1240:	ca060000 	bgt	181248 <_Min_Stack_Size+0x180e48>
    1244:	000006ee 	andeq	r0, r0, lr, ror #13
    1248:	0b2c2302 	bleq	b09e58 <_Min_Stack_Size+0xb09a58>
    124c:	00005fc1 	andeq	r5, r0, r1, asr #31
    1250:	0709cb06 	streq	ip, [r9, -r6, lsl #22]
    1254:	23020000 	movwcs	r0, #8192	; 0x2000
    1258:	755f1030 	ldrbvc	r1, [pc, #-48]	; 1230 <_Min_Stack_Size+0xe30>
    125c:	ce060062 	cdpgt	0, 0, cr0, cr6, cr2, {3}
    1260:	00000314 	andeq	r0, r0, r4, lsl r3
    1264:	10342302 	eorsne	r2, r4, r2, lsl #6
    1268:	0070755f 	rsbseq	r7, r0, pc, asr r5
    126c:	033dcf06 	teqeq	sp, #6, 30
    1270:	23020000 	movwcs	r0, #8192	; 0x2000
    1274:	755f103c 	ldrbvc	r1, [pc, #-60]	; 1240 <_Min_Stack_Size+0xe40>
    1278:	d0060072 	andle	r0, r6, r2, ror r0
    127c:	00000034 	andeq	r0, r0, r4, lsr r0
    1280:	0b402302 	bleq	1009e90 <_Min_Stack_Size+0x1009a90>
    1284:	0000206d 	andeq	r2, r0, sp, rrx
    1288:	070fd306 	streq	sp, [pc, -r6, lsl #6]
    128c:	23020000 	movwcs	r0, #8192	; 0x2000
    1290:	09f90b44 	ldmibeq	r9!, {r2, r6, r8, r9, fp}^
    1294:	d4060000 	strle	r0, [r6], #-0
    1298:	0000071f 	andeq	r0, r0, pc, lsl r7
    129c:	10472302 	subne	r2, r7, r2, lsl #6
    12a0:	00626c5f 	rsbeq	r6, r2, pc, asr ip
    12a4:	0314d706 	tsteq	r4, #1572864	; 0x180000
    12a8:	23020000 	movwcs	r0, #8192	; 0x2000
    12ac:	689c0b48 	ldmvs	ip, {r3, r6, r8, r9, fp}
    12b0:	da060000 	ble	1812b8 <_Min_Stack_Size+0x180eb8>
    12b4:	00000034 	andeq	r0, r0, r4, lsr r0
    12b8:	0b502302 	bleq	1409ec8 <_Min_Stack_Size+0x1409ac8>
    12bc:	0000363f 	andeq	r3, r0, pc, lsr r6
    12c0:	00a6db06 	adceq	sp, r6, r6, lsl #22
    12c4:	23020000 	movwcs	r0, #8192	; 0x2000
    12c8:	0c540b54 	mrrceq	11, 5, r0, r4, cr4
    12cc:	e2060000 	and	r0, r6, #0
    12d0:	00000127 	andeq	r0, r0, r7, lsr #2
    12d4:	0b582302 	bleq	1609ee4 <_Min_Stack_Size+0x1609ae4>
    12d8:	00005962 	andeq	r5, r0, r2, ror #18
    12dc:	011ce406 	tsteq	ip, r6, lsl #8
    12e0:	23020000 	movwcs	r0, #8192	; 0x2000
    12e4:	53880b5c 	orrpl	r0, r8, #92, 22	; 0x17000
    12e8:	e5060000 	str	r0, [r6, #-0]
    12ec:	00000034 	andeq	r0, r0, r4, lsr r0
    12f0:	00642302 	rsbeq	r2, r4, r2, lsl #6
    12f4:	00340116 	eorseq	r0, r4, r6, lsl r1
    12f8:	069e0000 	ldreq	r0, [lr], r0
    12fc:	1a170000 	bne	5c1304 <_Min_Stack_Size+0x5c0f04>
    1300:	17000005 	strne	r0, [r0, -r5]
    1304:	00000132 	andeq	r0, r0, r2, lsr r1
    1308:	00013417 	andeq	r3, r1, r7, lsl r4
    130c:	00341700 	eorseq	r1, r4, r0, lsl #14
    1310:	0d000000 	stceq	0, cr0, [r0, #-0]
    1314:	00067f04 	andeq	r7, r6, r4, lsl #30
    1318:	34011600 	strcc	r1, [r1], #-1536	; 0xfffffa00
    131c:	c3000000 	movwgt	r0, #0
    1320:	17000006 	strne	r0, [r0, -r6]
    1324:	0000051a 	andeq	r0, r0, sl, lsl r5
    1328:	00013217 	andeq	r3, r1, r7, lsl r2
    132c:	06c31700 	strbeq	r1, [r3], r0, lsl #14
    1330:	34170000 	ldrcc	r0, [r7], #-0
    1334:	00000000 	andeq	r0, r0, r0
    1338:	0141040d 	cmpeq	r1, sp, lsl #8
    133c:	040d0000 	streq	r0, [sp], #-0
    1340:	000006a4 	andeq	r0, r0, r4, lsr #13
    1344:	00b10116 	adcseq	r0, r1, r6, lsl r1
    1348:	06ee0000 	strbteq	r0, [lr], r0
    134c:	1a170000 	bne	5c1354 <_Min_Stack_Size+0x5c0f54>
    1350:	17000005 	strne	r0, [r0, -r5]
    1354:	00000132 	andeq	r0, r0, r2, lsr r1
    1358:	0000b117 	andeq	fp, r0, r7, lsl r1
    135c:	00341700 	eorseq	r1, r4, r0, lsl #14
    1360:	0d000000 	stceq	0, cr0, [r0, #-0]
    1364:	0006cf04 	andeq	ip, r6, r4, lsl #30
    1368:	34011600 	strcc	r1, [r1], #-1536	; 0xfffffa00
    136c:	09000000 	stmdbeq	r0, {}	; <UNPREDICTABLE>
    1370:	17000007 	strne	r0, [r0, -r7]
    1374:	0000051a 	andeq	r0, r0, sl, lsl r5
    1378:	00013217 	andeq	r3, r1, r7, lsl r2
    137c:	040d0000 	streq	r0, [sp], #-0
    1380:	000006f4 	strdeq	r0, [r0], -r4
    1384:	00005b08 	andeq	r5, r0, r8, lsl #22
    1388:	00071f00 	andeq	r1, r7, r0, lsl #30
    138c:	002d0900 	eoreq	r0, sp, r0, lsl #18
    1390:	00020000 	andeq	r0, r2, r0
    1394:	00005b08 	andeq	r5, r0, r8, lsl #22
    1398:	00072f00 	andeq	r2, r7, r0, lsl #30
    139c:	002d0900 	eoreq	r0, sp, r0, lsl #18
    13a0:	00000000 	andeq	r0, r0, r0
    13a4:	006bba05 	rsbeq	fp, fp, r5, lsl #20
    13a8:	011f0600 	tsteq	pc, r0, lsl #12
    13ac:	00000525 	andeq	r0, r0, r5, lsr #10
    13b0:	00516713 	subseq	r6, r1, r3, lsl r7
    13b4:	23060c00 	movwcs	r0, #27648	; 0x6c00
    13b8:	00077601 	andeq	r7, r7, r1, lsl #12
    13bc:	59c81400 	stmibpl	r8, {sl, ip}^
    13c0:	25060000 	strcs	r0, [r6, #-0]
    13c4:	00077601 	andeq	r7, r7, r1, lsl #12
    13c8:	00230200 	eoreq	r0, r3, r0, lsl #4
    13cc:	002bf314 	eoreq	pc, fp, r4, lsl r3	; <UNPREDICTABLE>
    13d0:	01260600 			; <UNDEFINED> instruction: 0x01260600
    13d4:	00000034 	andeq	r0, r0, r4, lsr r0
    13d8:	14042302 	strne	r2, [r4], #-770	; 0xfffffcfe
    13dc:	00003778 	andeq	r3, r0, r8, ror r7
    13e0:	7c012706 	stcvc	7, cr2, [r1], {6}
    13e4:	02000007 	andeq	r0, r0, #7
    13e8:	0d000823 	stceq	8, cr0, [r0, #-140]	; 0xffffff74
    13ec:	00073b04 	andeq	r3, r7, r4, lsl #22
    13f0:	2f040d00 	svccs	0x00040d00
    13f4:	13000007 	movwne	r0, #7
    13f8:	000066dc 	ldrdeq	r6, [r0], -ip
    13fc:	013f0618 	teqeq	pc, r8, lsl r6	; <UNPREDICTABLE>
    1400:	000007cc 	andeq	r0, r0, ip, asr #15
    1404:	00613e14 	rsbeq	r3, r1, r4, lsl lr
    1408:	01400600 	cmpeq	r0, r0, lsl #12
    140c:	000007cc 	andeq	r0, r0, ip, asr #15
    1410:	14002302 	strne	r2, [r0], #-770	; 0xfffffcfe
    1414:	00000df2 	strdeq	r0, [r0], -r2
    1418:	cc014106 	stfgts	f4, [r1], {6}
    141c:	02000007 	andeq	r0, r0, #7
    1420:	02140623 	andseq	r0, r4, #36700160	; 0x2300000
    1424:	06000084 	streq	r0, [r0], -r4, lsl #1
    1428:	00740142 	rsbseq	r0, r4, r2, asr #2
    142c:	23020000 	movwcs	r0, #8192	; 0x2000
    1430:	59c3140c 	stmibpl	r3, {r2, r3, sl, ip}^
    1434:	45060000 	strmi	r0, [r6, #-0]
    1438:	00009401 	andeq	r9, r0, r1, lsl #8
    143c:	10230200 	eorne	r0, r3, r0, lsl #4
    1440:	00740800 	rsbseq	r0, r4, r0, lsl #16
    1444:	07dc0000 	ldrbeq	r0, [ip, r0]
    1448:	2d090000 	stccs	0, cr0, [r9, #-0]
    144c:	02000000 	andeq	r0, r0, #0
    1450:	7f741300 	svcvc	0x00741300
    1454:	06100000 	ldreq	r0, [r0], -r0
    1458:	08260158 	stmdaeq	r6!, {r3, r4, r6, r8}
    145c:	d0140000 	andsle	r0, r4, r0
    1460:	06000080 	streq	r0, [r0], -r0, lsl #1
    1464:	01b0015b 	asrseq	r0, fp, r1
    1468:	23020000 	movwcs	r0, #8192	; 0x2000
    146c:	16581400 	ldrbne	r1, [r8], -r0, lsl #8
    1470:	5c060000 	stcpl	0, cr0, [r6], {-0}
    1474:	00003401 	andeq	r3, r0, r1, lsl #8
    1478:	04230200 	strteq	r0, [r3], #-512	; 0xfffffe00
    147c:	00338414 	eorseq	r8, r3, r4, lsl r4
    1480:	015d0600 	cmpeq	sp, r0, lsl #12
    1484:	000001b0 			; <UNDEFINED> instruction: 0x000001b0
    1488:	14082302 	strne	r2, [r8], #-770	; 0xfffffcfe
    148c:	000050ea 	andeq	r5, r0, sl, ror #1
    1490:	26015e06 	strcs	r5, [r1], -r6, lsl #28
    1494:	02000008 	andeq	r0, r0, #8
    1498:	0d000c23 	stceq	12, cr0, [r0, #-140]	; 0xffffff74
    149c:	0001b004 	andeq	fp, r1, r4
    14a0:	1c5b1300 	mrrcne	3, 0, r1, fp, cr0
    14a4:	06500000 	ldrbeq	r0, [r0], -r0
    14a8:	08df0162 	ldmeq	pc, {r1, r5, r6, r8}^	; <UNPREDICTABLE>
    14ac:	db140000 	blle	5014b4 <_Min_Stack_Size+0x5010b4>
    14b0:	06000069 	streq	r0, [r0], -r9, rrx
    14b4:	01340165 	teqeq	r4, r5, ror #2
    14b8:	23020000 	movwcs	r0, #8192	; 0x2000
    14bc:	73771400 	cmnvc	r7, #0, 8
    14c0:	66060000 	strvs	r0, [r6], -r0
    14c4:	00011c01 	andeq	r1, r1, r1, lsl #24
    14c8:	04230200 	strteq	r0, [r3], #-512	; 0xfffffe00
    14cc:	00593a14 	subseq	r3, r9, r4, lsl sl
    14d0:	01670600 	cmneq	r7, r0, lsl #12
    14d4:	0000011c 	andeq	r0, r0, ip, lsl r1
    14d8:	140c2302 	strne	r2, [ip], #-770	; 0xfffffcfe
    14dc:	000063b2 			; <UNDEFINED> instruction: 0x000063b2
    14e0:	1c016806 	stcne	8, cr6, [r1], {6}
    14e4:	02000001 	andeq	r0, r0, #1
    14e8:	ac141423 	cfldrsge	mvf1, [r4], {35}	; 0x23
    14ec:	0600000a 	streq	r0, [r0], -sl
    14f0:	08df0169 	ldmeq	pc, {r0, r3, r5, r6, r8}^	; <UNPREDICTABLE>
    14f4:	23020000 	movwcs	r0, #8192	; 0x2000
    14f8:	0de5141c 	cfstrdeq	mvd1, [r5, #112]!	; 0x70
    14fc:	6a060000 	bvs	181504 <_Min_Stack_Size+0x181104>
    1500:	00003401 	andeq	r3, r0, r1, lsl #8
    1504:	24230200 	strtcs	r0, [r3], #-512	; 0xfffffe00
    1508:	0015ea14 	andseq	lr, r5, r4, lsl sl
    150c:	016b0600 	cmneq	fp, r0, lsl #12
    1510:	0000011c 	andeq	r0, r0, ip, lsl r1
    1514:	14282302 	strtne	r2, [r8], #-770	; 0xfffffcfe
    1518:	00006a96 	muleq	r0, r6, sl
    151c:	1c016c06 	stcne	12, cr6, [r1], {6}
    1520:	02000001 	andeq	r0, r0, #1
    1524:	94143023 	ldrls	r3, [r4], #-35	; 0xffffffdd
    1528:	06000085 	streq	r0, [r0], -r5, lsl #1
    152c:	011c016d 	tsteq	ip, sp, ror #2
    1530:	23020000 	movwcs	r0, #8192	; 0x2000
    1534:	56c41438 			; <UNDEFINED> instruction: 0x56c41438
    1538:	6e060000 	cdpvs	0, 0, cr0, cr6, cr0, {0}
    153c:	00011c01 	andeq	r1, r1, r1, lsl #24
    1540:	40230200 	eormi	r0, r3, r0, lsl #4
    1544:	0009e814 	andeq	lr, r9, r4, lsl r8
    1548:	016f0600 	cmneq	pc, r0, lsl #12
    154c:	0000011c 	andeq	r0, r0, ip, lsl r1
    1550:	00482302 	subeq	r2, r8, r2, lsl #6
    1554:	00013a08 	andeq	r3, r1, r8, lsl #20
    1558:	0008ef00 	andeq	lr, r8, r0, lsl #30
    155c:	002d0900 	eoreq	r0, sp, r0, lsl #18
    1560:	00070000 	andeq	r0, r7, r0
    1564:	0001e718 	andeq	lr, r1, r8, lsl r7
    1568:	040d0100 	streq	r0, [sp], #-256	; 0xffffff00
    156c:	000008ef 	andeq	r0, r0, pc, ror #17
    1570:	07dc040d 	ldrbeq	r0, [ip, sp, lsl #8]
    1574:	01190000 	tsteq	r9, r0
    1578:	0000090d 	andeq	r0, r0, sp, lsl #18
    157c:	00051a17 	andeq	r1, r5, r7, lsl sl
    1580:	040d0000 	streq	r0, [sp], #-0
    1584:	00000901 	andeq	r0, r0, r1, lsl #18
    1588:	0782040d 	streq	r0, [r2, sp, lsl #8]
    158c:	040d0000 	streq	r0, [sp], #-0
    1590:	000001c6 	andeq	r0, r0, r6, asr #3
    1594:	092b0119 	stmdbeq	fp!, {r0, r3, r4, r8}
    1598:	34170000 	ldrcc	r0, [r7], #-0
    159c:	00000000 	andeq	r0, r0, r0
    15a0:	0931040d 	ldmdbeq	r1!, {r0, r2, r3, sl}
    15a4:	040d0000 	streq	r0, [sp], #-0
    15a8:	0000091f 	andeq	r0, r0, pc, lsl r9
    15ac:	082c040d 	stmdaeq	ip!, {r0, r2, r3, sl}
    15b0:	011a0000 	tsteq	sl, r0
    15b4:	0600001f 			; <UNDEFINED> instruction: 0x0600001f
    15b8:	03bd01ca 			; <UNDEFINED> instruction: 0x03bd01ca
    15bc:	01010000 	mrseq	r0, (UNDEF: 1)
    15c0:	0053411a 	subseq	r4, r3, sl, lsl r1
    15c4:	01cb0600 	biceq	r0, fp, r0, lsl #12
    15c8:	000003bd 			; <UNDEFINED> instruction: 0x000003bd
    15cc:	a51a0101 	ldrge	r0, [sl, #-257]	; 0xfffffeff
    15d0:	06000043 	streq	r0, [r0], -r3, asr #32
    15d4:	03bd01cc 			; <UNDEFINED> instruction: 0x03bd01cc
    15d8:	01010000 	mrseq	r0, (UNDEF: 1)
    15dc:	002b311a 	eoreq	r3, fp, sl, lsl r1
    15e0:	032e0600 			; <UNDEFINED> instruction: 0x032e0600
    15e4:	0000051a 	andeq	r0, r0, sl, lsl r5
    15e8:	dd1a0101 	ldfles	f0, [sl, #-4]
    15ec:	06000078 			; <UNDEFINED> instruction: 0x06000078
    15f0:	0520032f 	streq	r0, [r0, #-815]!	; 0xfffffcd1
    15f4:	01010000 	mrseq	r0, (UNDEF: 1)
    15f8:	0046e31a 	subeq	lr, r6, sl, lsl r3
    15fc:	03410600 	movteq	r0, #5632	; 0x1600
    1600:	000002f0 	strdeq	r0, [r0], -r0	; <UNPREDICTABLE>
    1604:	ad1b0101 	ldfges	f0, [fp, #-4]
    1608:	07000077 	smlsdxeq	r0, r7, r0, r0
    160c:	00013463 	andeq	r3, r1, r3, ror #8
    1610:	04010100 	streq	r0, [r1], #-256	; 0xffffff00
    1614:	00001292 	muleq	r0, r2, r2
    1618:	00501808 	subseq	r1, r0, r8, lsl #16
    161c:	00040000 	andeq	r0, r4, r0
    1620:	0800002a 	stmdaeq	r0, {r1, r3, r5}
    1624:	00006924 	andeq	r6, r0, r4, lsr #18
    1628:	40760400 	rsbsmi	r0, r6, r0, lsl #8
    162c:	30080000 	andcc	r0, r8, r0
    1630:	00000082 	andeq	r0, r0, r2, lsl #1
    1634:	0009b41c 	andeq	fp, r9, ip, lsl r4
    1638:	091c0a00 	ldmdbeq	ip, {r9, fp}
    163c:	000a2f50 	andeq	r2, sl, r0, asr pc
    1640:	52431000 	subpl	r1, r3, #0
    1644:	5209004c 	andpl	r0, r9, #76	; 0x4c
    1648:	000009bf 			; <UNDEFINED> instruction: 0x000009bf
    164c:	10002302 	andne	r2, r0, r2, lsl #6
    1650:	00485243 	subeq	r5, r8, r3, asr #4
    1654:	09bf5309 	ldmibeq	pc!, {r0, r3, r8, r9, ip, lr}	; <UNPREDICTABLE>
    1658:	23020000 	movwcs	r0, #8192	; 0x2000
    165c:	44491004 	strbmi	r1, [r9], #-4
    1660:	54090052 	strpl	r0, [r9], #-82	; 0xffffffae
    1664:	000009bf 			; <UNDEFINED> instruction: 0x000009bf
    1668:	10082302 	andne	r2, r8, r2, lsl #6
    166c:	0052444f 	subseq	r4, r2, pc, asr #8
    1670:	09bf5509 	ldmibeq	pc!, {r0, r3, r8, sl, ip, lr}	; <UNPREDICTABLE>
    1674:	23020000 	movwcs	r0, #8192	; 0x2000
    1678:	7b170b0c 	blvc	5c42b0 <_Min_Stack_Size+0x5c3eb0>
    167c:	56090000 	strpl	r0, [r9], -r0
    1680:	000009bf 			; <UNDEFINED> instruction: 0x000009bf
    1684:	10102302 	andsne	r2, r0, r2, lsl #6
    1688:	00525242 	subseq	r5, r2, r2, asr #4
    168c:	09bf5709 	ldmibeq	pc!, {r0, r3, r8, r9, sl, ip, lr}	; <UNPREDICTABLE>
    1690:	23020000 	movwcs	r0, #8192	; 0x2000
    1694:	463a0b14 			; <UNDEFINED> instruction: 0x463a0b14
    1698:	58090000 	stmdapl	r9, {}	; <UNPREDICTABLE>
    169c:	000009bf 			; <UNDEFINED> instruction: 0x000009bf
    16a0:	00182302 	andseq	r2, r8, r2, lsl #6
    16a4:	007c5704 	rsbseq	r5, ip, r4, lsl #14
    16a8:	c4590900 	ldrbgt	r0, [r9], #-2304	; 0xfffff700
    16ac:	0a000009 	beq	16d8 <_Min_Stack_Size+0x12d8>
    16b0:	ce5e0928 	vnmlsgt.f16	s1, s28, s17	; <UNPREDICTABLE>
    16b4:	1000000a 	andne	r0, r0, sl
    16b8:	09005243 	stmdbeq	r0, {r0, r1, r6, r9, ip, lr}
    16bc:	0009bf60 	andeq	fp, r9, r0, ror #30
    16c0:	00230200 	eoreq	r0, r3, r0, lsl #4
    16c4:	0035f50b 	eorseq	pc, r5, fp, lsl #10
    16c8:	bf610900 	svclt	0x00610900
    16cc:	02000009 	andeq	r0, r0, #9
    16d0:	43100423 	tstmi	r0, #587202560	; 0x23000000
    16d4:	09005249 	stmdbeq	r0, {r0, r3, r6, r9, ip, lr}
    16d8:	0009bf62 	andeq	fp, r9, r2, ror #30
    16dc:	08230200 	stmdaeq	r3!, {r9}
    16e0:	004fe20b 	subeq	lr, pc, fp, lsl #4
    16e4:	bf630900 	svclt	0x00630900
    16e8:	02000009 	andeq	r0, r0, #9
    16ec:	370b0c23 	strcc	r0, [fp, -r3, lsr #24]
    16f0:	09000063 	stmdbeq	r0, {r0, r1, r5, r6}
    16f4:	0009bf64 	andeq	fp, r9, r4, ror #30
    16f8:	10230200 	eorne	r0, r3, r0, lsl #4
    16fc:	0079100b 	rsbseq	r1, r9, fp
    1700:	bf650900 	svclt	0x00650900
    1704:	02000009 	andeq	r0, r0, #9
    1708:	f80b1423 			; <UNDEFINED> instruction: 0xf80b1423
    170c:	0900001a 	stmdbeq	r0, {r1, r3, r4}
    1710:	0009bf66 	andeq	fp, r9, r6, ror #30
    1714:	18230200 	stmdane	r3!, {r9}
    1718:	0063aa0b 	rsbeq	sl, r3, fp, lsl #20
    171c:	bf670900 	svclt	0x00670900
    1720:	02000009 	andeq	r0, r0, #9
    1724:	f80b1c23 			; <UNDEFINED> instruction: 0xf80b1c23
    1728:	09000030 	stmdbeq	r0, {r4, r5}
    172c:	0009bf68 	andeq	fp, r9, r8, ror #30
    1730:	20230200 	eorcs	r0, r3, r0, lsl #4
    1734:	52534310 	subspl	r4, r3, #16, 6	; 0x40000000
    1738:	bf690900 	svclt	0x00690900
    173c:	02000009 	andeq	r0, r0, #9
    1740:	04002423 	streq	r2, [r0], #-1059	; 0xfffffbdd
    1744:	0000734b 	andeq	r7, r0, fp, asr #6
    1748:	0a3a6a09 	beq	e9bf74 <_Min_Stack_Size+0xe9bb74>
    174c:	040a0000 	streq	r0, [sl], #-0
    1750:	0b0c150a 	bleq	306b80 <_Min_Stack_Size+0x306780>
    1754:	3c0b0000 	stccc	0, cr0, [fp], {-0}
    1758:	0a00008f 	beq	199c <_Min_Stack_Size+0x159c>
    175c:	0009a917 	andeq	sl, r9, r7, lsl r9
    1760:	00230200 	eoreq	r0, r3, r0, lsl #4
    1764:	008e7c0b 	addeq	r7, lr, fp, lsl #24
    1768:	9e190a00 	vnmlsls.f32	s0, s18, s0
    176c:	02000009 	andeq	r0, r0, #9
    1770:	4e0b0223 	cdpmi	2, 0, cr0, cr11, cr3, {1}
    1774:	0a00008e 	beq	19b4 <_Min_Stack_Size+0x15b4>
    1778:	00099e1b 	andeq	r9, r9, fp, lsl lr
    177c:	03230200 			; <UNDEFINED> instruction: 0x03230200
    1780:	8e860400 	cdphi	4, 8, cr0, cr6, cr0, {0}
    1784:	1d0a0000 	stcne	0, cr0, [sl, #-0]
    1788:	00000ad9 	ldrdeq	r0, [r0], -r9
    178c:	8ee1011d 	mcrhi	1, 7, r0, cr1, cr13, {0}
    1790:	1b010000 	blne	41798 <_Min_Stack_Size+0x41398>
    1794:	099e0101 	ldmibeq	lr, {r0, r8}
	...
    17a0:	018c0000 	orreq	r0, ip, r0
    17a4:	64010000 	strvs	r0, [r1], #-0
    17a8:	1e00000b 	cdpne	0, 0, cr0, cr0, cr11, {0}
    17ac:	00008ec9 	andeq	r8, r0, r9, asr #29
    17b0:	64011b01 	strvs	r1, [r1], #-2817	; 0xfffff4ff
    17b4:	0200000b 	andeq	r0, r0, #11
    17b8:	411e6c91 			; <UNDEFINED> instruction: 0x411e6c91
    17bc:	0100008f 	smlabbeq	r0, pc, r0, r0	; <UNPREDICTABLE>
    17c0:	09a9011b 	stmibeq	r9!, {r0, r1, r3, r4, r8}
    17c4:	91020000 	mrsls	r0, (UNDEF: 2)
    17c8:	6d741f6a 	ldclvs	15, cr1, [r4, #-424]!	; 0xfffffe58
    17cc:	30010070 	andcc	r0, r1, r0, ror r0
    17d0:	0009bf01 	andeq	fp, r9, r1, lsl #30
    17d4:	74910200 	ldrvc	r0, [r1], #512	; 0x200
    17d8:	2f040d00 	svccs	0x00040d00
    17dc:	2000000a 	andcs	r0, r0, sl
    17e0:	008e9701 	addeq	r9, lr, r1, lsl #14
    17e4:	010e0100 	mrseq	r0, (UNDEF: 30)
    17e8:	00000001 	andeq	r0, r0, r1
    17ec:	00000000 	andeq	r0, r0, r0
    17f0:	0001e800 	andeq	lr, r1, r0, lsl #16
    17f4:	0ba40100 	bleq	fe901bfc <_estack+0xde8ff3fc>
    17f8:	c91e0000 	ldmdbgt	lr, {}	; <UNPREDICTABLE>
    17fc:	0100008e 	smlabbeq	r0, lr, r0, r0
    1800:	0b64010e 	bleq	1901c40 <_Min_Stack_Size+0x1901840>
    1804:	91020000 	mrsls	r0, (UNDEF: 2)
    1808:	8f411e74 	svchi	0x00411e74
    180c:	0e010000 	cdpeq	0, 0, cr0, cr1, cr0, {0}
    1810:	0009a901 	andeq	sl, r9, r1, lsl #18
    1814:	72910200 	addsvc	r0, r1, #0, 4
    1818:	02012000 	andeq	r2, r1, #0
    181c:	0100008f 	smlabbeq	r0, pc, r0, r0	; <UNPREDICTABLE>
    1820:	00010101 	andeq	r0, r1, r1, lsl #2
    1824:	00000000 	andeq	r0, r0, r0
    1828:	44000000 	strmi	r0, [r0], #-0
    182c:	01000002 	tsteq	r0, r2
    1830:	00000bde 	ldrdeq	r0, [r0], -lr
    1834:	008ec91e 	addeq	ip, lr, lr, lsl r9
    1838:	01010100 	mrseq	r0, (UNDEF: 17)
    183c:	00000b64 	andeq	r0, r0, r4, ror #22
    1840:	1e749102 	expnes	f1, f2
    1844:	00008f5e 	andeq	r8, r0, lr, asr pc
    1848:	a9010101 	stmdbge	r1, {r0, r8}
    184c:	02000009 	andeq	r0, r0, #9
    1850:	21007291 			; <UNDEFINED> instruction: 0x21007291
    1854:	008eab01 	addeq	sl, lr, r1, lsl #22
    1858:	01e10100 	mvneq	r0, r0, lsl #2
	...
    1864:	000002a0 	andeq	r0, r0, r0, lsr #5
    1868:	000c2301 	andeq	r2, ip, r1, lsl #6
    186c:	8ec92200 	cdphi	2, 12, cr2, cr9, cr0, {0}
    1870:	e1010000 	mrs	r0, (UNDEF: 1)
    1874:	00000b64 	andeq	r0, r0, r4, ror #22
    1878:	22749102 	rsbscs	r9, r4, #-2147483648	; 0x80000000
    187c:	00008f41 	andeq	r8, r0, r1, asr #30
    1880:	09a9e101 	stmibeq	r9!, {r0, r8, sp, lr, pc}
    1884:	91020000 	mrsls	r0, (UNDEF: 2)
    1888:	8f5e2272 	svchi	0x005e2272
    188c:	e1010000 	mrs	r0, (UNDEF: 1)
    1890:	0000099e 	muleq	r0, lr, r9
    1894:	00719102 	rsbseq	r9, r1, r2, lsl #2
    1898:	8f4b0123 	svchi	0x004b0123
    189c:	d1010000 	mrsle	r0, (UNDEF: 1)
    18a0:	0009a901 	andeq	sl, r9, r1, lsl #18
	...
    18ac:	0002fc00 	andeq	pc, r2, r0, lsl #24
    18b0:	0c5e0100 	ldfeqe	f0, [lr], {-0}
    18b4:	c9220000 	stmdbgt	r2!, {}	; <UNPREDICTABLE>
    18b8:	0100008e 	smlabbeq	r0, lr, r0, r0
    18bc:	000b64d1 	ldrdeq	r6, [fp], -r1
    18c0:	6c910200 	lfmvs	f0, 4, [r1], {0}
    18c4:	008f2724 	addeq	r2, pc, r4, lsr #14
    18c8:	a9d30100 	ldmibge	r3, {r8}^
    18cc:	02000009 	andeq	r0, r0, #9
    18d0:	23007691 	movwcs	r7, #1681	; 0x691
    18d4:	008ecf01 	addeq	ip, lr, r1, lsl #30
    18d8:	01bb0100 			; <UNDEFINED> instruction: 0x01bb0100
    18dc:	0000099e 	muleq	r0, lr, r9
	...
    18e8:	00000358 	andeq	r0, r0, r8, asr r3
    18ec:	000ca701 	andeq	sl, ip, r1, lsl #14
    18f0:	8ec92200 	cdphi	2, 12, cr2, cr9, cr0, {0}
    18f4:	bb010000 	bllt	418fc <_Min_Stack_Size+0x414fc>
    18f8:	00000b64 	andeq	r0, r0, r4, ror #22
    18fc:	226c9102 	rsbcs	r9, ip, #-2147483648	; 0x80000000
    1900:	00008f41 	andeq	r8, r0, r1, asr #30
    1904:	09a9bb01 	stmibeq	r9!, {r0, r8, r9, fp, ip, sp, pc}
    1908:	91020000 	mrsls	r0, (UNDEF: 2)
    190c:	8f32246a 	svchi	0x0032246a
    1910:	bd010000 	stclt	0, cr0, [r1, #-0]
    1914:	0000099e 	muleq	r0, lr, r9
    1918:	00779102 	rsbseq	r9, r7, r2, lsl #2
    191c:	8f160121 	svchi	0x00160121
    1920:	8b010000 	blhi	41928 <_Min_Stack_Size+0x41528>
    1924:	00000001 	andeq	r0, r0, r1
    1928:	00000000 	andeq	r0, r0, r0
    192c:	0003b400 	andeq	fp, r3, r0, lsl #8
    1930:	0cd00100 	ldfeqe	f0, [r0], {0}
    1934:	c9220000 	stmdbgt	r2!, {}	; <UNPREDICTABLE>
    1938:	0100008e 	smlabbeq	r0, lr, r0, r0
    193c:	000b648b 	andeq	r6, fp, fp, lsl #9
    1940:	74910200 	ldrvc	r0, [r1], #512	; 0x200
    1944:	3f012500 	svccc	0x00012500
    1948:	0100008e 	smlabbeq	r0, lr, r0, r0
    194c:	03780151 	cmneq	r8, #1073741844	; 0x40000014
    1950:	04760800 	ldrbteq	r0, [r6], #-2048	; 0xfffff800
    1954:	04100800 	ldreq	r0, [r0], #-2048	; 0xfffff800
    1958:	23010000 	movwcs	r0, #4096	; 0x1000
    195c:	2200000d 	andcs	r0, r0, #13
    1960:	00008ec9 	andeq	r8, r0, r9, asr #29
    1964:	0b645101 	bleq	1915d70 <_Min_Stack_Size+0x1915970>
    1968:	91020000 	mrsls	r0, (UNDEF: 2)
    196c:	8e602264 	cdphi	2, 6, cr2, cr0, cr4, {3}
    1970:	51010000 	mrspl	r0, (UNDEF: 1)
    1974:	00000d23 	andeq	r0, r0, r3, lsr #26
    1978:	24609102 	strbtcs	r9, [r0], #-258	; 0xfffffefe
    197c:	00008ef3 	strdeq	r8, [r0], -r3
    1980:	0d295501 	cfstr32eq	mvfx5, [r9, #-4]!
    1984:	91020000 	mrsls	r0, (UNDEF: 2)
    1988:	8ebe2468 	cdphi	4, 11, cr2, cr14, cr8, {3}
    198c:	56010000 	strpl	r0, [r1], -r0
    1990:	0000099e 	muleq	r0, lr, r9
    1994:	006f9102 	rsbeq	r9, pc, r2, lsl #2
    1998:	0b0c040d 	bleq	3029d4 <_Min_Stack_Size+0x3025d4>
    199c:	040d0000 	streq	r0, [sp], #-0
    19a0:	000009bf 			; <UNDEFINED> instruction: 0x000009bf
    19a4:	8e6a0126 	powhiep	f0, f2, f6
    19a8:	0d010000 	stceq	0, cr0, [r1, #-0]
    19ac:	00099e01 	andeq	r9, r9, r1, lsl #28
    19b0:	0002b200 	andeq	fp, r2, r0, lsl #4
    19b4:	00037808 	andeq	r7, r3, r8, lsl #16
    19b8:	00046008 	andeq	r6, r4, r8
    19bc:	41220100 			; <UNDEFINED> instruction: 0x41220100
    19c0:	0100008f 	smlabbeq	r0, pc, r0, r0	; <UNPREDICTABLE>
    19c4:	0009a90d 	andeq	sl, r9, sp, lsl #18
    19c8:	76910200 	ldrvc	r0, [r1], r0, lsl #4
    19cc:	0db50000 	ldceq	0, cr0, [r5]
    19d0:	00020000 	andeq	r0, r2, r0
    19d4:	00000449 	andeq	r0, r0, r9, asr #8
    19d8:	860e0104 	strhi	r0, [lr], -r4, lsl #2
    19dc:	810c0000 	mrshi	r0, (UNDEF: 12)
    19e0:	ad00008f 	stcge	0, cr0, [r0, #-572]	; 0xfffffdc4
    19e4:	a800008d 	stmdage	r0, {r0, r2, r3, r7}
	...
    19f0:	08000000 	stmdaeq	r0, {}	; <UNPREDICTABLE>
    19f4:	b500000d 	strlt	r0, [r0, #-13]
    19f8:	02000004 	andeq	r0, r0, #4
    19fc:	214c0704 	cmpcs	ip, r4, lsl #14
    1a00:	04030000 	streq	r0, [r3], #-0
    1a04:	746e6905 	strbtvc	r6, [lr], #-2309	; 0xfffff6fb
    1a08:	05080200 	streq	r0, [r8, #-512]	; 0xfffffe00
    1a0c:	00005023 	andeq	r5, r0, r3, lsr #32
    1a10:	47040802 	strmi	r0, [r4, -r2, lsl #16]
    1a14:	02000003 	andeq	r0, r0, #3
    1a18:	07e70601 	strbeq	r0, [r7, r1, lsl #12]!
    1a1c:	90040000 	andls	r0, r4, r0
    1a20:	02000012 	andeq	r0, r0, #18
    1a24:	00005b2b 	andeq	r5, r0, fp, lsr #22
    1a28:	08010200 	stmdaeq	r1, {r9}
    1a2c:	00002fd6 	ldrdeq	r2, [r0], -r6
    1a30:	ef050202 	svc	0x00050202
    1a34:	0400008a 	streq	r0, [r0], #-138	; 0xffffff76
    1a38:	000029fe 	strdeq	r2, [r0], -lr
    1a3c:	00743902 	rsbseq	r3, r4, r2, lsl #18
    1a40:	02020000 	andeq	r0, r2, #0
    1a44:	00675707 	rsbeq	r5, r7, r7, lsl #14
    1a48:	05040200 	streq	r0, [r4, #-512]	; 0xfffffe00
    1a4c:	00006a4f 	andeq	r6, r0, pc, asr #20
    1a50:	00407404 	subeq	r7, r0, r4, lsl #8
    1a54:	8d4f0200 	sfmhi	f0, 2, [pc, #-0]	; 1a5c <_Min_Stack_Size+0x165c>
    1a58:	02000000 	andeq	r0, r0, #0
    1a5c:	1a0f0704 	bne	3c3674 <_Min_Stack_Size+0x3c3274>
    1a60:	08020000 	stmdaeq	r2, {}	; <UNPREDICTABLE>
    1a64:	003ce507 	eorseq	lr, ip, r7, lsl #10
    1a68:	43240400 			; <UNDEFINED> instruction: 0x43240400
    1a6c:	0c030000 	stceq	0, cr0, [r3], {-0}
    1a70:	00000034 	andeq	r0, r0, r4, lsr r0
    1a74:	00830604 	addeq	r0, r3, r4, lsl #12
    1a78:	7b2c0400 	blvc	b02a80 <_Min_Stack_Size+0xb02680>
    1a7c:	04000000 	streq	r0, [r0], #-0
    1a80:	000062cb 	andeq	r6, r0, fp, asr #5
    1a84:	007b7204 	rsbseq	r7, fp, r4, lsl #4
    1a88:	e0050000 	and	r0, r5, r0
    1a8c:	05000022 	streq	r0, [r0, #-34]	; 0xffffffde
    1a90:	002d0165 	eoreq	r0, sp, r5, ror #2
    1a94:	04060000 	streq	r0, [r6], #-0
    1a98:	00e7a604 	rsceq	sl, r7, r4, lsl #12
    1a9c:	60070000 	andvs	r0, r7, r0
    1aa0:	04000012 	streq	r0, [r0], #-18	; 0xffffffee
    1aa4:	0000bca8 	andeq	fp, r0, r8, lsr #25
    1aa8:	62e90700 	rscvs	r0, r9, #0, 14
    1aac:	a9040000 	stmdbge	r4, {}	; <UNPREDICTABLE>
    1ab0:	000000e7 	andeq	r0, r0, r7, ror #1
    1ab4:	005b0800 	subseq	r0, fp, r0, lsl #16
    1ab8:	00f70000 	rscseq	r0, r7, r0
    1abc:	2d090000 	stccs	0, cr0, [r9, #-0]
    1ac0:	03000000 	movweq	r0, #0
    1ac4:	04080a00 	streq	r0, [r8], #-2560	; 0xfffff600
    1ac8:	00011ca3 	andeq	r1, r1, r3, lsr #25
    1acc:	5ca70b00 	vstmiapl	r7!, {d0-d-1}
    1ad0:	a5040000 	strge	r0, [r4, #-0]
    1ad4:	00000034 	andeq	r0, r0, r4, lsr r0
    1ad8:	0b002302 	bleq	a6e8 <_Min_Stack_Size+0xa2e8>
    1adc:	0000020b 	andeq	r0, r0, fp, lsl #4
    1ae0:	00c8aa04 	sbceq	sl, r8, r4, lsl #20
    1ae4:	23020000 	movwcs	r0, #8192	; 0x2000
    1ae8:	6d040004 	stcvs	0, cr0, [r4, #-16]
    1aec:	04000051 	streq	r0, [r0], #-81	; 0xffffffaf
    1af0:	0000f7ab 	andeq	pc, r0, fp, lsr #15
    1af4:	6b910400 	blvs	fe442afc <_estack+0xde4402fc>
    1af8:	af040000 	svcge	0x00040000
    1afc:	0000009b 	muleq	r0, fp, r0
    1b00:	040d040c 	streq	r0, [sp], #-1036	; 0xfffffbf4
    1b04:	0000013a 	andeq	r0, r0, sl, lsr r1
    1b08:	ee080102 	adfe	f0, f0, f2
    1b0c:	0e000007 	cdpeq	0, 0, cr0, cr0, cr7, {0}
    1b10:	0000013a 	andeq	r0, r0, sl, lsr r1
    1b14:	007fd304 	rsbseq	sp, pc, r4, lsl #6
    1b18:	8d160600 	ldchi	6, cr0, [r6, #-0]
    1b1c:	0f000000 	svceq	0x00000000
    1b20:	0000480f 	andeq	r4, r0, pc, lsl #16
    1b24:	b02f0618 	eorlt	r0, pc, r8, lsl r6	; <UNPREDICTABLE>
    1b28:	0b000001 	bleq	1b34 <_Min_Stack_Size+0x1734>
    1b2c:	000059c8 	andeq	r5, r0, r8, asr #19
    1b30:	01b03106 	lslseq	r3, r6, #2
    1b34:	23020000 	movwcs	r0, #8192	; 0x2000
    1b38:	6b5f1000 	blvs	17c5b40 <_Min_Stack_Size+0x17c5740>
    1b3c:	34320600 	ldrtcc	r0, [r2], #-1536	; 0xfffffa00
    1b40:	02000000 	andeq	r0, r0, #0
    1b44:	8e0b0423 	cdphi	4, 0, cr0, cr11, cr3, {1}
    1b48:	06000078 			; <UNDEFINED> instruction: 0x06000078
    1b4c:	00003432 	andeq	r3, r0, r2, lsr r4
    1b50:	08230200 	stmdaeq	r3!, {r9}
    1b54:	0051780b 	subseq	r7, r1, fp, lsl #16
    1b58:	34320600 	ldrtcc	r0, [r2], #-1536	; 0xfffffa00
    1b5c:	02000000 	andeq	r0, r0, #0
    1b60:	140b0c23 	strne	r0, [fp], #-3107	; 0xfffff3dd
    1b64:	06000034 			; <UNDEFINED> instruction: 0x06000034
    1b68:	00003432 	andeq	r3, r0, r2, lsr r4
    1b6c:	10230200 	eorne	r0, r3, r0, lsl #4
    1b70:	00785f10 	rsbseq	r5, r8, r0, lsl pc
    1b74:	01b63306 			; <UNDEFINED> instruction: 0x01b63306
    1b78:	23020000 	movwcs	r0, #8192	; 0x2000
    1b7c:	040d0014 	streq	r0, [sp], #-20	; 0xffffffec
    1b80:	00000151 	andeq	r0, r0, r1, asr r1
    1b84:	00014608 	andeq	r4, r1, r8, lsl #12
    1b88:	0001c600 	andeq	ip, r1, r0, lsl #12
    1b8c:	002d0900 	eoreq	r0, sp, r0, lsl #18
    1b90:	00000000 	andeq	r0, r0, r0
    1b94:	0009e30f 	andeq	lr, r9, pc, lsl #6
    1b98:	37062400 	strcc	r2, [r6, -r0, lsl #8]
    1b9c:	00000251 	andeq	r0, r0, r1, asr r2
    1ba0:	0009ff0b 	andeq	pc, r9, fp, lsl #30
    1ba4:	34390600 	ldrtcc	r0, [r9], #-1536	; 0xfffffa00
    1ba8:	02000000 	andeq	r0, r0, #0
    1bac:	910b0023 	tstls	fp, r3, lsr #32
    1bb0:	0600008b 	streq	r0, [r0], -fp, lsl #1
    1bb4:	0000343a 	andeq	r3, r0, sl, lsr r4
    1bb8:	04230200 	strteq	r0, [r3], #-512	; 0xfffffe00
    1bbc:	0084580b 	addeq	r5, r4, fp, lsl #16
    1bc0:	343b0600 	ldrtcc	r0, [fp], #-1536	; 0xfffffa00
    1bc4:	02000000 	andeq	r0, r0, #0
    1bc8:	ae0b0823 	cdpge	8, 0, cr0, cr11, cr3, {1}
    1bcc:	06000057 			; <UNDEFINED> instruction: 0x06000057
    1bd0:	0000343c 	andeq	r3, r0, ip, lsr r4
    1bd4:	0c230200 	sfmeq	f0, 4, [r3], #-0
    1bd8:	001ac20b 	andseq	ip, sl, fp, lsl #4
    1bdc:	343d0600 	ldrtcc	r0, [sp], #-1536	; 0xfffffa00
    1be0:	02000000 	andeq	r0, r0, #0
    1be4:	060b1023 	streq	r1, [fp], -r3, lsr #32
    1be8:	06000079 			; <UNDEFINED> instruction: 0x06000079
    1bec:	0000343e 	andeq	r3, r0, lr, lsr r4
    1bf0:	14230200 	strtne	r0, [r3], #-512	; 0xfffffe00
    1bf4:	005eef0b 	subseq	lr, lr, fp, lsl #30
    1bf8:	343f0600 	ldrtcc	r0, [pc], #-1536	; 1c00 <_Min_Stack_Size+0x1800>
    1bfc:	02000000 	andeq	r0, r0, #0
    1c00:	060b1823 	streq	r1, [fp], -r3, lsr #16
    1c04:	06000060 	streq	r0, [r0], -r0, rrx
    1c08:	00003440 	andeq	r3, r0, r0, asr #8
    1c0c:	1c230200 	sfmne	f0, 4, [r3], #-0
    1c10:	0089b60b 	addeq	fp, r9, fp, lsl #12
    1c14:	34410600 	strbcc	r0, [r1], #-1536	; 0xfffffa00
    1c18:	02000000 	andeq	r0, r0, #0
    1c1c:	11002023 	tstne	r0, r3, lsr #32
    1c20:	0000137a 	andeq	r1, r0, sl, ror r3
    1c24:	4a060108 	bmi	18204c <_Min_Stack_Size+0x181c4c>
    1c28:	0000029a 	muleq	r0, sl, r2
    1c2c:	000c4c0b 	andeq	r4, ip, fp, lsl #24
    1c30:	9a4b0600 	bls	12c3438 <_Min_Stack_Size+0x12c3038>
    1c34:	02000002 	andeq	r0, r0, #2
    1c38:	810b0023 	tsthi	fp, r3, lsr #32
    1c3c:	06000066 	streq	r0, [r0], -r6, rrx
    1c40:	00029a4c 	andeq	r9, r2, ip, asr #20
    1c44:	80230300 	eorhi	r0, r3, r0, lsl #6
    1c48:	198e0b01 	stmibne	lr, {r0, r8, r9, fp}
    1c4c:	4e060000 	cdpmi	0, 0, cr0, cr6, cr0, {0}
    1c50:	00000146 	andeq	r0, r0, r6, asr #2
    1c54:	02802303 	addeq	r2, r0, #201326592	; 0xc000000
    1c58:	007e6e0b 	rsbseq	r6, lr, fp, lsl #28
    1c5c:	46510600 	ldrbmi	r0, [r1], -r0, lsl #12
    1c60:	03000001 	movweq	r0, #1
    1c64:	00028423 	andeq	r8, r2, r3, lsr #8
    1c68:	00013208 	andeq	r3, r1, r8, lsl #4
    1c6c:	0002aa00 	andeq	sl, r2, r0, lsl #20
    1c70:	002d0900 	eoreq	r0, sp, r0, lsl #18
    1c74:	001f0000 	andseq	r0, pc, r0
    1c78:	0046ea0f 	subeq	lr, r6, pc, lsl #20
    1c7c:	55068c00 	strpl	r8, [r6, #-3072]	; 0xfffff400
    1c80:	000002f0 	strdeq	r0, [r0], -r0	; <UNPREDICTABLE>
    1c84:	0059c80b 	subseq	ip, r9, fp, lsl #16
    1c88:	f0560600 			; <UNDEFINED> instruction: 0xf0560600
    1c8c:	02000002 	andeq	r0, r0, #2
    1c90:	dd0b0023 	stcle	0, cr0, [fp, #-140]	; 0xffffff74
    1c94:	0600007c 			; <UNDEFINED> instruction: 0x0600007c
    1c98:	00003457 	andeq	r3, r0, r7, asr r4
    1c9c:	04230200 	strteq	r0, [r3], #-512	; 0xfffffe00
    1ca0:	0027b00b 	eoreq	fp, r7, fp
    1ca4:	f6580600 			; <UNDEFINED> instruction: 0xf6580600
    1ca8:	02000002 	andeq	r0, r0, #2
    1cac:	fd0b0823 	stc2	8, cr0, [fp, #-140]	; 0xffffff74
    1cb0:	0600002c 	streq	r0, [r0], -ip, lsr #32
    1cb4:	00030e59 	andeq	r0, r3, r9, asr lr
    1cb8:	88230300 	stmdahi	r3!, {r8, r9}
    1cbc:	040d0001 	streq	r0, [sp], #-1
    1cc0:	000002aa 	andeq	r0, r0, sl, lsr #5
    1cc4:	00030608 	andeq	r0, r3, r8, lsl #12
    1cc8:	00030600 	andeq	r0, r3, r0, lsl #12
    1ccc:	002d0900 	eoreq	r0, sp, r0, lsl #18
    1cd0:	001f0000 	andseq	r0, pc, r0
    1cd4:	030c040d 	movweq	r0, #50189	; 0xc40d
    1cd8:	01120000 	tsteq	r2, r0
    1cdc:	0251040d 	subseq	r0, r1, #218103808	; 0xd000000
    1ce0:	760f0000 	strvc	r0, [pc], -r0
    1ce4:	08000003 	stmdaeq	r0, {r0, r1}
    1ce8:	033d7506 	teqeq	sp, #25165824	; 0x1800000
    1cec:	f60b0000 			; <UNDEFINED> instruction: 0xf60b0000
    1cf0:	06000068 	streq	r0, [r0], -r8, rrx
    1cf4:	00033d76 	andeq	r3, r3, r6, ror sp
    1cf8:	00230200 	eoreq	r0, r3, r0, lsl #4
    1cfc:	00809e0b 	addeq	r9, r0, fp, lsl #28
    1d00:	34770600 	ldrbtcc	r0, [r7], #-1536	; 0xfffffa00
    1d04:	02000000 	andeq	r0, r0, #0
    1d08:	0d000423 	cfstrseq	mvf0, [r0, #-140]	; 0xffffff74
    1d0c:	00005b04 	andeq	r5, r0, r4, lsl #22
    1d10:	33df0f00 	bicscc	r0, pc, #0, 30
    1d14:	06200000 	strteq	r0, [r0], -r0
    1d18:	0003bd99 	muleq	r3, r9, sp
    1d1c:	705f1000 	subsvc	r1, pc, r0
    1d20:	3d9a0600 	ldccc	6, cr0, [sl]
    1d24:	02000003 	andeq	r0, r0, #3
    1d28:	5f100023 	svcpl	0x00100023
    1d2c:	9b060072 	blls	181efc <_Min_Stack_Size+0x181afc>
    1d30:	00000034 	andeq	r0, r0, r4, lsr r0
    1d34:	10042302 	andne	r2, r4, r2, lsl #6
    1d38:	0600775f 			; <UNDEFINED> instruction: 0x0600775f
    1d3c:	0000349c 	muleq	r0, ip, r4
    1d40:	08230200 	stmdaeq	r3!, {r9}
    1d44:	0059e60b 	subseq	lr, r9, fp, lsl #12
    1d48:	629d0600 	addsvs	r0, sp, #0, 12
    1d4c:	02000000 	andeq	r0, r0, #0
    1d50:	290b0c23 	stmdbcs	fp, {r0, r1, r5, sl, fp}
    1d54:	06000013 			; <UNDEFINED> instruction: 0x06000013
    1d58:	0000629e 	muleq	r0, lr, r2
    1d5c:	0e230200 	cdpeq	2, 2, cr0, cr3, cr0, {0}
    1d60:	66625f10 	uqadd16vs	r5, r2, r0
    1d64:	149f0600 	ldrne	r0, [pc], #1536	; 1d6c <_Min_Stack_Size+0x196c>
    1d68:	02000003 	andeq	r0, r0, #3
    1d6c:	9d0b1023 	stcls	0, cr1, [fp, #-140]	; 0xffffff74
    1d70:	0600007c 			; <UNDEFINED> instruction: 0x0600007c
    1d74:	000034a0 	andeq	r3, r0, r0, lsr #9
    1d78:	18230200 	stmdane	r3!, {r9}
    1d7c:	006db30b 	rsbeq	fp, sp, fp, lsl #6
    1d80:	1aa20600 	bne	fe883588 <_estack+0xde880d88>
    1d84:	02000005 	andeq	r0, r0, #5
    1d88:	0e001c23 	cdpeq	12, 0, cr1, cr0, cr3, {1}
    1d8c:	00000343 	andeq	r0, r0, r3, asr #6
    1d90:	001c6013 	andseq	r6, ip, r3, lsl r0
    1d94:	74066000 	strvc	r6, [r6], #-0
    1d98:	00051a01 	andeq	r1, r5, r1, lsl #20
    1d9c:	44191400 	ldrmi	r1, [r9], #-1024	; 0xfffffc00
    1da0:	78060000 	stmdavc	r6, {}	; <UNPREDICTABLE>
    1da4:	00003401 	andeq	r3, r0, r1, lsl #8
    1da8:	00230200 	eoreq	r0, r3, r0, lsl #4
    1dac:	001f0a14 	andseq	r0, pc, r4, lsl sl	; <UNPREDICTABLE>
    1db0:	017d0600 	cmneq	sp, r0, lsl #12
    1db4:	0000077c 	andeq	r0, r0, ip, ror r7
    1db8:	14042302 	strne	r2, [r4], #-770	; 0xfffffcfe
    1dbc:	0000534a 	andeq	r5, r0, sl, asr #6
    1dc0:	7c017d06 	stcvc	13, cr7, [r1], {6}
    1dc4:	02000007 	andeq	r0, r0, #7
    1dc8:	ae140823 	cdpge	8, 1, cr0, cr4, cr3, {1}
    1dcc:	06000043 	streq	r0, [r0], -r3, asr #32
    1dd0:	077c017d 			; <UNDEFINED> instruction: 0x077c017d
    1dd4:	23020000 	movwcs	r0, #8192	; 0x2000
    1dd8:	258d140c 	strcs	r1, [sp, #1036]	; 0x40c
    1ddc:	7f060000 	svcvc	0x00060000
    1de0:	00003401 	andeq	r3, r0, r1, lsl #8
    1de4:	10230200 	eorne	r0, r3, r0, lsl #4
    1de8:	0053cc14 	subseq	ip, r3, r4, lsl ip
    1dec:	01810600 	orreq	r0, r1, r0, lsl #12
    1df0:	00000134 	andeq	r0, r0, r4, lsr r1
    1df4:	14142302 	ldrne	r2, [r4], #-770	; 0xfffffcfe
    1df8:	0000410d 	andeq	r4, r0, sp, lsl #2
    1dfc:	34018306 	strcc	r8, [r1], #-774	; 0xfffffcfa
    1e00:	02000000 	andeq	r0, r0, #0
    1e04:	c0141823 	andsgt	r1, r4, r3, lsr #16
    1e08:	06000022 	streq	r0, [r0], -r2, lsr #32
    1e0c:	00340185 	eorseq	r0, r4, r5, lsl #3
    1e10:	23020000 	movwcs	r0, #8192	; 0x2000
    1e14:	7fcb141c 	svcvc	0x00cb141c
    1e18:	86060000 	strhi	r0, [r6], -r0
    1e1c:	0008f501 	andeq	pc, r8, r1, lsl #10
    1e20:	20230200 	eorcs	r0, r3, r0, lsl #4
    1e24:	706d5f15 	rsbvc	r5, sp, r5, lsl pc
    1e28:	01880600 	orreq	r0, r8, r0, lsl #12
    1e2c:	000008fb 	strdeq	r0, [r0], -fp
    1e30:	14242302 	strtne	r2, [r4], #-770	; 0xfffffcfe
    1e34:	000049e8 	andeq	r4, r0, r8, ror #19
    1e38:	0d018a06 	vstreq	s16, [r1, #-24]	; 0xffffffe8
    1e3c:	02000009 	andeq	r0, r0, #9
    1e40:	d3142823 	tstle	r4, #2293760	; 0x230000
    1e44:	0600004f 	streq	r0, [r0], -pc, asr #32
    1e48:	0034018c 	eorseq	r0, r4, ip, lsl #3
    1e4c:	23020000 	movwcs	r0, #8192	; 0x2000
    1e50:	0637142c 	ldrteq	r1, [r7], -ip, lsr #8
    1e54:	8f060000 	svchi	0x00060000
    1e58:	00003401 	andeq	r3, r0, r1, lsl #8
    1e5c:	30230200 	eorcc	r0, r3, r0, lsl #4
    1e60:	0036a214 	eorseq	sl, r6, r4, lsl r2
    1e64:	01900600 	orrseq	r0, r0, r0, lsl #12
    1e68:	00000134 	andeq	r0, r0, r4, lsr r1
    1e6c:	14342302 	ldrtne	r2, [r4], #-770	; 0xfffffcfe
    1e70:	00006ce2 	andeq	r6, r0, r2, ror #25
    1e74:	13019206 	movwne	r9, #4614	; 0x1206
    1e78:	02000009 	andeq	r0, r0, #9
    1e7c:	22143823 	andscs	r3, r4, #2293760	; 0x230000
    1e80:	06000018 			; <UNDEFINED> instruction: 0x06000018
    1e84:	09190193 	ldmdbeq	r9, {r0, r1, r4, r7, r8}
    1e88:	23020000 	movwcs	r0, #8192	; 0x2000
    1e8c:	0613143c 			; <UNDEFINED> instruction: 0x0613143c
    1e90:	94060000 	strls	r0, [r6], #-0
    1e94:	00013401 	andeq	r3, r1, r1, lsl #8
    1e98:	40230200 	eormi	r0, r3, r0, lsl #4
    1e9c:	0034d614 	eorseq	sp, r4, r4, lsl r6
    1ea0:	01970600 	orrseq	r0, r7, r0, lsl #12
    1ea4:	0000092b 	andeq	r0, r0, fp, lsr #18
    1ea8:	14442302 	strbne	r2, [r4], #-770	; 0xfffffcfe
    1eac:	000088c6 	andeq	r8, r0, r6, asr #17
    1eb0:	3b019f06 	blcc	69ad0 <_Min_Stack_Size+0x696d0>
    1eb4:	02000007 	andeq	r0, r0, #7
    1eb8:	d5144823 	ldrle	r4, [r4, #-2083]	; 0xfffff7dd
    1ebc:	06000002 	streq	r0, [r0], -r2
    1ec0:	077c01a0 	ldrbeq	r0, [ip, -r0, lsr #3]!
    1ec4:	23020000 	movwcs	r0, #8192	; 0x2000
    1ec8:	7fa11454 	svcvc	0x00a11454
    1ecc:	a1060000 	mrsge	r0, (UNDEF: 6)
    1ed0:	00093701 	andeq	r3, r9, r1, lsl #14
    1ed4:	58230200 	stmdapl	r3!, {r9}
    1ed8:	00462e14 	subeq	r2, r6, r4, lsl lr
    1edc:	01a20600 			; <UNDEFINED> instruction: 0x01a20600
    1ee0:	00000134 	andeq	r0, r0, r4, lsr r1
    1ee4:	005c2302 	subseq	r2, ip, r2, lsl #6
    1ee8:	03c2040d 	biceq	r0, r2, #218103808	; 0xd000000
    1eec:	1a0e0000 	bne	381ef4 <_Min_Stack_Size+0x381af4>
    1ef0:	0f000005 	svceq	0x00000005
    1ef4:	0000846e 	andeq	r8, r0, lr, ror #8
    1ef8:	7fb50668 	svcvc	0x00b50668
    1efc:	10000006 	andne	r0, r0, r6
    1f00:	0600705f 			; <UNDEFINED> instruction: 0x0600705f
    1f04:	00033db6 			; <UNDEFINED> instruction: 0x00033db6
    1f08:	00230200 	eoreq	r0, r3, r0, lsl #4
    1f0c:	00725f10 	rsbseq	r5, r2, r0, lsl pc
    1f10:	0034b706 	eorseq	fp, r4, r6, lsl #14
    1f14:	23020000 	movwcs	r0, #8192	; 0x2000
    1f18:	775f1004 	ldrbvc	r1, [pc, -r4]
    1f1c:	34b80600 	ldrtcc	r0, [r8], #1536	; 0x600
    1f20:	02000000 	andeq	r0, r0, #0
    1f24:	e60b0823 	str	r0, [fp], -r3, lsr #16
    1f28:	06000059 			; <UNDEFINED> instruction: 0x06000059
    1f2c:	000062b9 			; <UNDEFINED> instruction: 0x000062b9
    1f30:	0c230200 	sfmeq	f0, 4, [r3], #-0
    1f34:	0013290b 	andseq	r2, r3, fp, lsl #18
    1f38:	62ba0600 	adcsvs	r0, sl, #0, 12
    1f3c:	02000000 	andeq	r0, r0, #0
    1f40:	5f100e23 	svcpl	0x00100e23
    1f44:	06006662 	streq	r6, [r0], -r2, ror #12
    1f48:	000314bb 			; <UNDEFINED> instruction: 0x000314bb
    1f4c:	10230200 	eorne	r0, r3, r0, lsl #4
    1f50:	007c9d0b 	rsbseq	r9, ip, fp, lsl #26
    1f54:	34bc0600 	ldrtcc	r0, [ip], #1536	; 0x600
    1f58:	02000000 	andeq	r0, r0, #0
    1f5c:	b30b1823 	movwlt	r1, #47139	; 0xb823
    1f60:	0600006d 	streq	r0, [r0], -sp, rrx
    1f64:	00051abf 			; <UNDEFINED> instruction: 0x00051abf
    1f68:	1c230200 	sfmne	f0, 4, [r3], #-0
    1f6c:	0033690b 	eorseq	r6, r3, fp, lsl #18
    1f70:	32c30600 	sbccc	r0, r3, #0, 12
    1f74:	02000001 	andeq	r0, r0, #1
    1f78:	7d0b2023 	stcvc	0, cr2, [fp, #-140]	; 0xffffff74
    1f7c:	06000003 	streq	r0, [r0], -r3
    1f80:	00069ec5 	andeq	r9, r6, r5, asr #29
    1f84:	24230200 	strtcs	r0, [r3], #-512	; 0xfffffe00
    1f88:	00059a0b 	andeq	r9, r5, fp, lsl #20
    1f8c:	c9c70600 	stmibgt	r7, {r9, sl}^
    1f90:	02000006 	andeq	r0, r0, #6
    1f94:	c10b2823 	tstgt	fp, r3, lsr #16
    1f98:	06000061 	streq	r0, [r0], -r1, rrx
    1f9c:	0006eeca 	andeq	lr, r6, sl, asr #29
    1fa0:	2c230200 	sfmcs	f0, 4, [r3], #-0
    1fa4:	005fc10b 	subseq	ip, pc, fp, lsl #2
    1fa8:	09cb0600 	stmibeq	fp, {r9, sl}^
    1fac:	02000007 	andeq	r0, r0, #7
    1fb0:	5f103023 	svcpl	0x00103023
    1fb4:	06006275 			; <UNDEFINED> instruction: 0x06006275
    1fb8:	000314ce 	andeq	r1, r3, lr, asr #9
    1fbc:	34230200 	strtcc	r0, [r3], #-512	; 0xfffffe00
    1fc0:	70755f10 	rsbsvc	r5, r5, r0, lsl pc
    1fc4:	3dcf0600 	stclcc	6, cr0, [pc]	; 1fcc <_Min_Stack_Size+0x1bcc>
    1fc8:	02000003 	andeq	r0, r0, #3
    1fcc:	5f103c23 	svcpl	0x00103c23
    1fd0:	06007275 			; <UNDEFINED> instruction: 0x06007275
    1fd4:	000034d0 	ldrdeq	r3, [r0], -r0
    1fd8:	40230200 	eormi	r0, r3, r0, lsl #4
    1fdc:	00206d0b 	eoreq	r6, r0, fp, lsl #26
    1fe0:	0fd30600 	svceq	0x00d30600
    1fe4:	02000007 	andeq	r0, r0, #7
    1fe8:	f90b4423 			; <UNDEFINED> instruction: 0xf90b4423
    1fec:	06000009 	streq	r0, [r0], -r9
    1ff0:	00071fd4 	ldrdeq	r1, [r7], -r4
    1ff4:	47230200 	strmi	r0, [r3, -r0, lsl #4]!
    1ff8:	626c5f10 	rsbvs	r5, ip, #16, 30	; 0x40
    1ffc:	14d70600 	ldrbne	r0, [r7], #1536	; 0x600
    2000:	02000003 	andeq	r0, r0, #3
    2004:	9c0b4823 	stcls	8, cr4, [fp], {35}	; 0x23
    2008:	06000068 	streq	r0, [r0], -r8, rrx
    200c:	000034da 	ldrdeq	r3, [r0], -sl
    2010:	50230200 	eorpl	r0, r3, r0, lsl #4
    2014:	00363f0b 	eorseq	r3, r6, fp, lsl #30
    2018:	a6db0600 	ldrbge	r0, [fp], r0, lsl #12
    201c:	02000000 	andeq	r0, r0, #0
    2020:	540b5423 	strpl	r5, [fp], #-1059	; 0xfffffbdd
    2024:	0600000c 	streq	r0, [r0], -ip
    2028:	000127e2 	andeq	r2, r1, r2, ror #15
    202c:	58230200 	stmdapl	r3!, {r9}
    2030:	0059620b 	subseq	r6, r9, fp, lsl #4
    2034:	1ce40600 	stclne	6, cr0, [r4]
    2038:	02000001 	andeq	r0, r0, #1
    203c:	880b5c23 	stmdahi	fp, {r0, r1, r5, sl, fp, ip, lr}
    2040:	06000053 			; <UNDEFINED> instruction: 0x06000053
    2044:	000034e5 	andeq	r3, r0, r5, ror #9
    2048:	64230200 	strtvs	r0, [r3], #-512	; 0xfffffe00
    204c:	34011600 	strcc	r1, [r1], #-1536	; 0xfffffa00
    2050:	9e000000 	cdpls	0, 0, cr0, cr0, cr0, {0}
    2054:	17000006 	strne	r0, [r0, -r6]
    2058:	0000051a 	andeq	r0, r0, sl, lsl r5
    205c:	00013217 	andeq	r3, r1, r7, lsl r2
    2060:	01341700 	teqeq	r4, r0, lsl #14
    2064:	34170000 	ldrcc	r0, [r7], #-0
    2068:	00000000 	andeq	r0, r0, r0
    206c:	067f040d 	ldrbteq	r0, [pc], -sp, lsl #8
    2070:	01160000 	tsteq	r6, r0
    2074:	00000034 	andeq	r0, r0, r4, lsr r0
    2078:	000006c3 	andeq	r0, r0, r3, asr #13
    207c:	00051a17 	andeq	r1, r5, r7, lsl sl
    2080:	01321700 	teqeq	r2, r0, lsl #14
    2084:	c3170000 	tstgt	r7, #0
    2088:	17000006 	strne	r0, [r0, -r6]
    208c:	00000034 	andeq	r0, r0, r4, lsr r0
    2090:	41040d00 	tstmi	r4, r0, lsl #26
    2094:	0d000001 	stceq	0, cr0, [r0, #-4]
    2098:	0006a404 	andeq	sl, r6, r4, lsl #8
    209c:	b1011600 	tstlt	r1, r0, lsl #12
    20a0:	ee000000 	cdp	0, 0, cr0, cr0, cr0, {0}
    20a4:	17000006 	strne	r0, [r0, -r6]
    20a8:	0000051a 	andeq	r0, r0, sl, lsl r5
    20ac:	00013217 	andeq	r3, r1, r7, lsl r2
    20b0:	00b11700 	adcseq	r1, r1, r0, lsl #14
    20b4:	34170000 	ldrcc	r0, [r7], #-0
    20b8:	00000000 	andeq	r0, r0, r0
    20bc:	06cf040d 	strbeq	r0, [pc], sp, lsl #8
    20c0:	01160000 	tsteq	r6, r0
    20c4:	00000034 	andeq	r0, r0, r4, lsr r0
    20c8:	00000709 	andeq	r0, r0, r9, lsl #14
    20cc:	00051a17 	andeq	r1, r5, r7, lsl sl
    20d0:	01321700 	teqeq	r2, r0, lsl #14
    20d4:	0d000000 	stceq	0, cr0, [r0, #-0]
    20d8:	0006f404 	andeq	pc, r6, r4, lsl #8
    20dc:	005b0800 	subseq	r0, fp, r0, lsl #16
    20e0:	071f0000 	ldreq	r0, [pc, -r0]
    20e4:	2d090000 	stccs	0, cr0, [r9, #-0]
    20e8:	02000000 	andeq	r0, r0, #0
    20ec:	005b0800 	subseq	r0, fp, r0, lsl #16
    20f0:	072f0000 	streq	r0, [pc, -r0]!
    20f4:	2d090000 	stccs	0, cr0, [r9, #-0]
    20f8:	00000000 	andeq	r0, r0, r0
    20fc:	6bba0500 	blvs	fee83504 <_estack+0xdee80d04>
    2100:	1f060000 	svcne	0x00060000
    2104:	00052501 	andeq	r2, r5, r1, lsl #10
    2108:	51671300 	cmnpl	r7, r0, lsl #6
    210c:	060c0000 	streq	r0, [ip], -r0
    2110:	07760123 	ldrbeq	r0, [r6, -r3, lsr #2]!
    2114:	c8140000 	ldmdagt	r4, {}	; <UNPREDICTABLE>
    2118:	06000059 			; <UNDEFINED> instruction: 0x06000059
    211c:	07760125 	ldrbeq	r0, [r6, -r5, lsr #2]!
    2120:	23020000 	movwcs	r0, #8192	; 0x2000
    2124:	2bf31400 	blcs	ffcc712c <_estack+0xdfcc492c>
    2128:	26060000 	strcs	r0, [r6], -r0
    212c:	00003401 	andeq	r3, r0, r1, lsl #8
    2130:	04230200 	strteq	r0, [r3], #-512	; 0xfffffe00
    2134:	00377814 	eorseq	r7, r7, r4, lsl r8
    2138:	01270600 			; <UNDEFINED> instruction: 0x01270600
    213c:	0000077c 	andeq	r0, r0, ip, ror r7
    2140:	00082302 	andeq	r2, r8, r2, lsl #6
    2144:	073b040d 	ldreq	r0, [fp, -sp, lsl #8]!
    2148:	040d0000 	streq	r0, [sp], #-0
    214c:	0000072f 	andeq	r0, r0, pc, lsr #14
    2150:	0066dc13 	rsbeq	sp, r6, r3, lsl ip
    2154:	3f061800 	svccc	0x00061800
    2158:	0007cc01 	andeq	ip, r7, r1, lsl #24
    215c:	613e1400 	teqvs	lr, r0, lsl #8
    2160:	40060000 	andmi	r0, r6, r0
    2164:	0007cc01 	andeq	ip, r7, r1, lsl #24
    2168:	00230200 	eoreq	r0, r3, r0, lsl #4
    216c:	000df214 	andeq	pc, sp, r4, lsl r2	; <UNPREDICTABLE>
    2170:	01410600 	cmpeq	r1, r0, lsl #12
    2174:	000007cc 	andeq	r0, r0, ip, asr #15
    2178:	14062302 	strne	r2, [r6], #-770	; 0xfffffcfe
    217c:	00008402 	andeq	r8, r0, r2, lsl #8
    2180:	74014206 	strvc	r4, [r1], #-518	; 0xfffffdfa
    2184:	02000000 	andeq	r0, r0, #0
    2188:	c3140c23 	tstgt	r4, #8960	; 0x2300
    218c:	06000059 			; <UNDEFINED> instruction: 0x06000059
    2190:	00940145 	addseq	r0, r4, r5, asr #2
    2194:	23020000 	movwcs	r0, #8192	; 0x2000
    2198:	74080010 	strvc	r0, [r8], #-16
    219c:	dc000000 	stcle	0, cr0, [r0], {-0}
    21a0:	09000007 	stmdbeq	r0, {r0, r1, r2}
    21a4:	0000002d 	andeq	r0, r0, sp, lsr #32
    21a8:	74130002 	ldrvc	r0, [r3], #-2
    21ac:	1000007f 	andne	r0, r0, pc, ror r0
    21b0:	26015806 	strcs	r5, [r1], -r6, lsl #16
    21b4:	14000008 	strne	r0, [r0], #-8
    21b8:	000080d0 	ldrdeq	r8, [r0], -r0
    21bc:	b0015b06 	andlt	r5, r1, r6, lsl #22
    21c0:	02000001 	andeq	r0, r0, #1
    21c4:	58140023 	ldmdapl	r4, {r0, r1, r5}
    21c8:	06000016 			; <UNDEFINED> instruction: 0x06000016
    21cc:	0034015c 	eorseq	r0, r4, ip, asr r1
    21d0:	23020000 	movwcs	r0, #8192	; 0x2000
    21d4:	33841404 	orrcc	r1, r4, #4, 8	; 0x4000000
    21d8:	5d060000 	stcpl	0, cr0, [r6, #-0]
    21dc:	0001b001 	andeq	fp, r1, r1
    21e0:	08230200 	stmdaeq	r3!, {r9}
    21e4:	0050ea14 	subseq	lr, r0, r4, lsl sl
    21e8:	015e0600 	cmpeq	lr, r0, lsl #12
    21ec:	00000826 	andeq	r0, r0, r6, lsr #16
    21f0:	000c2302 	andeq	r2, ip, r2, lsl #6
    21f4:	01b0040d 	lslseq	r0, sp, #8
    21f8:	5b130000 	blpl	4c2200 <_Min_Stack_Size+0x4c1e00>
    21fc:	5000001c 	andpl	r0, r0, ip, lsl r0
    2200:	df016206 	svcle	0x00016206
    2204:	14000008 	strne	r0, [r0], #-8
    2208:	000069db 	ldrdeq	r6, [r0], -fp
    220c:	34016506 	strcc	r6, [r1], #-1286	; 0xfffffafa
    2210:	02000001 	andeq	r0, r0, #1
    2214:	77140023 	ldrvc	r0, [r4, -r3, lsr #32]
    2218:	06000073 			; <UNDEFINED> instruction: 0x06000073
    221c:	011c0166 	tsteq	ip, r6, ror #2
    2220:	23020000 	movwcs	r0, #8192	; 0x2000
    2224:	593a1404 	ldmdbpl	sl!, {r2, sl, ip}
    2228:	67060000 	strvs	r0, [r6, -r0]
    222c:	00011c01 	andeq	r1, r1, r1, lsl #24
    2230:	0c230200 	sfmeq	f0, 4, [r3], #-0
    2234:	0063b214 	rsbeq	fp, r3, r4, lsl r2
    2238:	01680600 	cmneq	r8, r0, lsl #12
    223c:	0000011c 	andeq	r0, r0, ip, lsl r1
    2240:	14142302 	ldrne	r2, [r4], #-770	; 0xfffffcfe
    2244:	00000aac 	andeq	r0, r0, ip, lsr #21
    2248:	df016906 	svcle	0x00016906
    224c:	02000008 	andeq	r0, r0, #8
    2250:	e5141c23 	ldr	r1, [r4, #-3107]	; 0xfffff3dd
    2254:	0600000d 	streq	r0, [r0], -sp
    2258:	0034016a 	eorseq	r0, r4, sl, ror #2
    225c:	23020000 	movwcs	r0, #8192	; 0x2000
    2260:	15ea1424 	strbne	r1, [sl, #1060]!	; 0x424
    2264:	6b060000 	blvs	18226c <_Min_Stack_Size+0x181e6c>
    2268:	00011c01 	andeq	r1, r1, r1, lsl #24
    226c:	28230200 	stmdacs	r3!, {r9}
    2270:	006a9614 	rsbeq	r9, sl, r4, lsl r6
    2274:	016c0600 	cmneq	ip, r0, lsl #12
    2278:	0000011c 	andeq	r0, r0, ip, lsl r1
    227c:	14302302 	ldrtne	r2, [r0], #-770	; 0xfffffcfe
    2280:	00008594 	muleq	r0, r4, r5
    2284:	1c016d06 	stcne	13, cr6, [r1], {6}
    2288:	02000001 	andeq	r0, r0, #1
    228c:	c4143823 	ldrgt	r3, [r4], #-2083	; 0xfffff7dd
    2290:	06000056 			; <UNDEFINED> instruction: 0x06000056
    2294:	011c016e 	tsteq	ip, lr, ror #2
    2298:	23020000 	movwcs	r0, #8192	; 0x2000
    229c:	09e81440 	stmibeq	r8!, {r6, sl, ip}^
    22a0:	6f060000 	svcvs	0x00060000
    22a4:	00011c01 	andeq	r1, r1, r1, lsl #24
    22a8:	48230200 	stmdami	r3!, {r9}
    22ac:	013a0800 	teqeq	sl, r0, lsl #16
    22b0:	08ef0000 	stmiaeq	pc!, {}^	; <UNPREDICTABLE>
    22b4:	2d090000 	stccs	0, cr0, [r9, #-0]
    22b8:	07000000 	streq	r0, [r0, -r0]
    22bc:	01e71800 	mvneq	r1, r0, lsl #16
    22c0:	0d010000 	stceq	0, cr0, [r1, #-0]
    22c4:	0008ef04 	andeq	lr, r8, r4, lsl #30
    22c8:	dc040d00 	stcle	13, cr0, [r4], {-0}
    22cc:	19000007 	stmdbne	r0, {r0, r1, r2}
    22d0:	00090d01 	andeq	r0, r9, r1, lsl #26
    22d4:	051a1700 	ldreq	r1, [sl, #-1792]	; 0xfffff900
    22d8:	0d000000 	stceq	0, cr0, [r0, #-0]
    22dc:	00090104 	andeq	r0, r9, r4, lsl #2
    22e0:	82040d00 	andhi	r0, r4, #0, 26
    22e4:	0d000007 	stceq	0, cr0, [r0, #-28]	; 0xffffffe4
    22e8:	0001c604 	andeq	ip, r1, r4, lsl #12
    22ec:	2b011900 	blcs	486f4 <_Min_Stack_Size+0x482f4>
    22f0:	17000009 	strne	r0, [r0, -r9]
    22f4:	00000034 	andeq	r0, r0, r4, lsr r0
    22f8:	31040d00 	tstcc	r4, r0, lsl #26
    22fc:	0d000009 	stceq	0, cr0, [r0, #-36]	; 0xffffffdc
    2300:	00091f04 	andeq	r1, r9, r4, lsl #30
    2304:	2c040d00 	stccs	13, cr0, [r4], {-0}
    2308:	1a000008 	bne	2330 <_Min_Stack_Size+0x1f30>
    230c:	00001f01 	andeq	r1, r0, r1, lsl #30
    2310:	bd01ca06 	vstrlt	s24, [r1, #-24]	; 0xffffffe8
    2314:	01000003 	tsteq	r0, r3
    2318:	53411a01 	movtpl	r1, #6657	; 0x1a01
    231c:	cb060000 	blgt	182324 <_Min_Stack_Size+0x181f24>
    2320:	0003bd01 	andeq	fp, r3, r1, lsl #26
    2324:	1a010100 	bne	4272c <_Min_Stack_Size+0x4232c>
    2328:	000043a5 	andeq	r4, r0, r5, lsr #7
    232c:	bd01cc06 	stclt	12, cr12, [r1, #-24]	; 0xffffffe8
    2330:	01000003 	tsteq	r0, r3
    2334:	2b311a01 	blcs	c48b40 <_Min_Stack_Size+0xc48740>
    2338:	2e060000 	cdpcs	0, 0, cr0, cr6, cr0, {0}
    233c:	00051a03 	andeq	r1, r5, r3, lsl #20
    2340:	1a010100 	bne	42748 <_Min_Stack_Size+0x42348>
    2344:	000078dd 	ldrdeq	r7, [r0], -sp
    2348:	20032f06 	andcs	r2, r3, r6, lsl #30
    234c:	01000005 	tsteq	r0, r5
    2350:	46e31a01 	strbtmi	r1, [r3], r1, lsl #20
    2354:	41060000 	mrsmi	r0, (UNDEF: 6)
    2358:	0002f003 	andeq	pc, r2, r3
    235c:	1b010100 	blne	42764 <_Min_Stack_Size+0x42364>
    2360:	000077ad 	andeq	r7, r0, sp, lsr #15
    2364:	01346307 	teqeq	r4, r7, lsl #6
    2368:	01010000 	mrseq	r0, (UNDEF: 1)
    236c:	00129204 	andseq	r9, r2, r4, lsl #4
    2370:	50180800 	andspl	r0, r8, r0, lsl #16
    2374:	04000000 	streq	r0, [r0], #-0
    2378:	00002a00 	andeq	r2, r0, r0, lsl #20
    237c:	00692408 	rsbeq	r2, r9, r8, lsl #8
    2380:	76040000 	strvc	r0, [r4], -r0
    2384:	08000040 	stmdaeq	r0, {r6}
    2388:	00008230 	andeq	r8, r0, r0, lsr r2
    238c:	09b41c00 	ldmibeq	r4!, {sl, fp, ip}
    2390:	1c0a0000 	stcne	0, cr0, [sl], {-0}
    2394:	0a2f5009 	beq	bd63c0 <_Min_Stack_Size+0xbd5fc0>
    2398:	43100000 	tstmi	r0, #0
    239c:	09004c52 	stmdbeq	r0, {r1, r4, r6, sl, fp, lr}
    23a0:	0009bf52 	andeq	fp, r9, r2, asr pc
    23a4:	00230200 	eoreq	r0, r3, r0, lsl #4
    23a8:	48524310 	ldmdami	r2, {r4, r8, r9, lr}^
    23ac:	bf530900 	svclt	0x00530900
    23b0:	02000009 	andeq	r0, r0, #9
    23b4:	49100423 	ldmdbmi	r0, {r0, r1, r5, sl}
    23b8:	09005244 	stmdbeq	r0, {r2, r6, r9, ip, lr}
    23bc:	0009bf54 	andeq	fp, r9, r4, asr pc
    23c0:	08230200 	stmdaeq	r3!, {r9}
    23c4:	52444f10 	subpl	r4, r4, #16, 30	; 0x40
    23c8:	bf550900 	svclt	0x00550900
    23cc:	02000009 	andeq	r0, r0, #9
    23d0:	170b0c23 	strne	r0, [fp, -r3, lsr #24]
    23d4:	0900007b 	stmdbeq	r0, {r0, r1, r3, r4, r5, r6}
    23d8:	0009bf56 	andeq	fp, r9, r6, asr pc
    23dc:	10230200 	eorne	r0, r3, r0, lsl #4
    23e0:	52524210 	subspl	r4, r2, #16, 4
    23e4:	bf570900 	svclt	0x00570900
    23e8:	02000009 	andeq	r0, r0, #9
    23ec:	3a0b1423 	bcc	2c7480 <_Min_Stack_Size+0x2c7080>
    23f0:	09000046 	stmdbeq	r0, {r1, r2, r6}
    23f4:	0009bf58 	andeq	fp, r9, r8, asr pc
    23f8:	18230200 	stmdane	r3!, {r9}
    23fc:	7c570400 	cfldrdvc	mvd0, [r7], {-0}
    2400:	59090000 	stmdbpl	r9, {}	; <UNPREDICTABLE>
    2404:	000009c4 	andeq	r0, r0, r4, asr #19
    2408:	6f09180a 	svcvs	0x0009180a
    240c:	00000a96 	muleq	r0, r6, sl
    2410:	524d4910 	subpl	r4, sp, #16, 18	; 0x40000
    2414:	bf710900 	svclt	0x00710900
    2418:	02000009 	andeq	r0, r0, #9
    241c:	45100023 	ldrmi	r0, [r0, #-35]	; 0xffffffdd
    2420:	0900524d 	stmdbeq	r0, {r0, r2, r3, r6, r9, ip, lr}
    2424:	0009bf72 	andeq	fp, r9, r2, ror pc
    2428:	04230200 	strteq	r0, [r3], #-512	; 0xfffffe00
    242c:	008fc50b 	addeq	ip, pc, fp, lsl #10
    2430:	bf730900 	svclt	0x00730900
    2434:	02000009 	andeq	r0, r0, #9
    2438:	b40b0823 	strlt	r0, [fp], #-2083	; 0xfffff7dd
    243c:	0900008f 	stmdbeq	r0, {r0, r1, r2, r3, r7}
    2440:	0009bf74 	andeq	fp, r9, r4, ror pc
    2444:	0c230200 	sfmeq	f0, 4, [r3], #-0
    2448:	00907d0b 	addseq	r7, r0, fp, lsl #26
    244c:	bf750900 	svclt	0x00750900
    2450:	02000009 	andeq	r0, r0, #9
    2454:	50101023 	andspl	r1, r0, r3, lsr #32
    2458:	76090052 			; <UNDEFINED> instruction: 0x76090052
    245c:	000009bf 			; <UNDEFINED> instruction: 0x000009bf
    2460:	00142302 	andseq	r2, r4, r2, lsl #6
    2464:	0090ad04 	addseq	sl, r0, r4, lsl #26
    2468:	3a770900 	bcc	1dc4870 <_Min_Stack_Size+0x1dc4470>
    246c:	0a00000a 	beq	249c <_Min_Stack_Size+0x209c>
    2470:	f07c0920 			; <UNDEFINED> instruction: 0xf07c0920
    2474:	0b00000a 	bleq	24a4 <_Min_Stack_Size+0x20a4>
    2478:	00009124 	andeq	r9, r0, r4, lsr #2
    247c:	09bf7e09 	ldmibeq	pc!, {r0, r3, r9, sl, fp, ip, sp, lr}	; <UNPREDICTABLE>
    2480:	23020000 	movwcs	r0, #8192	; 0x2000
    2484:	90ba0b00 	adcsls	r0, sl, r0, lsl #22
    2488:	7f090000 	svcvc	0x00090000
    248c:	000009bf 			; <UNDEFINED> instruction: 0x000009bf
    2490:	0b042302 	bleq	10b0a0 <_Min_Stack_Size+0x10aca0>
    2494:	00008f64 	andeq	r8, r0, r4, ror #30
    2498:	0b008009 	bleq	224c4 <_Min_Stack_Size+0x220c4>
    249c:	23020000 	movwcs	r0, #8192	; 0x2000
    24a0:	902c0b08 	eorls	r0, ip, r8, lsl #22
    24a4:	81090000 	mrshi	r0, (UNDEF: 9)
    24a8:	000009b4 			; <UNDEFINED> instruction: 0x000009b4
    24ac:	0b182302 	bleq	60b0bc <_Min_Stack_Size+0x60acbc>
    24b0:	00009083 	andeq	r9, r0, r3, lsl #1
    24b4:	09bf8209 	ldmibeq	pc!, {r0, r3, r9, pc}	; <UNPREDICTABLE>
    24b8:	23020000 	movwcs	r0, #8192	; 0x2000
    24bc:	bf08001c 	svclt	0x0008001c
    24c0:	00000009 	andeq	r0, r0, r9
    24c4:	0900000b 	stmdbeq	r0, {r0, r1, r3}
    24c8:	0000002d 	andeq	r0, r0, sp, lsr #32
    24cc:	f01c0003 			; <UNDEFINED> instruction: 0xf01c0003
    24d0:	0400000a 	streq	r0, [r0], #-10
    24d4:	000090e3 	andeq	r9, r0, r3, ror #1
    24d8:	0aa18309 	beq	fe863104 <_estack+0xde860904>
    24dc:	040a0000 	streq	r0, [sl], #-0
    24e0:	0b43150a 	bleq	10c7910 <_Min_Stack_Size+0x10c7510>
    24e4:	3c0b0000 	stccc	0, cr0, [fp], {-0}
    24e8:	0a00008f 	beq	272c <_Min_Stack_Size+0x232c>
    24ec:	0009a917 	andeq	sl, r9, r7, lsl r9
    24f0:	00230200 	eoreq	r0, r3, r0, lsl #4
    24f4:	008e7c0b 	addeq	r7, lr, fp, lsl #24
    24f8:	9e190a00 	vnmlsls.f32	s0, s18, s0
    24fc:	02000009 	andeq	r0, r0, #9
    2500:	4e0b0223 	cdpmi	2, 0, cr0, cr11, cr3, {1}
    2504:	0a00008e 	beq	2744 <_Min_Stack_Size+0x2344>
    2508:	00099e1b 	andeq	r9, r9, fp, lsl lr
    250c:	03230200 			; <UNDEFINED> instruction: 0x03230200
    2510:	8e860400 	cdphi	4, 8, cr0, cr6, cr0, {0}
    2514:	1d0a0000 	stcne	0, cr0, [sl, #-0]
    2518:	00000b10 	andeq	r0, r0, r0, lsl fp
    251c:	170b0c0a 	strne	r0, [fp, -sl, lsl #24]
    2520:	00000b8f 	andeq	r0, r0, pc, lsl #23
    2524:	004e6d0b 	subeq	r6, lr, fp, lsl #26
    2528:	a9190b00 	ldmdbge	r9, {r8, r9, fp}
    252c:	02000009 	andeq	r0, r0, #9
    2530:	6a0b0023 	bvs	2c25c4 <_Min_Stack_Size+0x2c21c4>
    2534:	0b000067 	bleq	26d8 <_Min_Stack_Size+0x22d8>
    2538:	000b8f1a 	andeq	r8, fp, sl, lsl pc
    253c:	04230200 	strteq	r0, [r3], #-512	; 0xfffffe00
    2540:	0068b80b 	rsbeq	fp, r8, fp, lsl #16
    2544:	a91b0b00 	ldmdbge	fp, {r8, r9, fp}
    2548:	02000009 	andeq	r0, r0, #9
    254c:	1d0b0823 	stcne	8, cr0, [fp, #-140]	; 0xffffff74
    2550:	0b000089 	bleq	277c <_Min_Stack_Size+0x237c>
    2554:	00099e1c 	andeq	r9, r9, ip, lsl lr
    2558:	0a230200 	beq	8c2d60 <_Min_Stack_Size+0x8c2960>
    255c:	2f040d00 	svccs	0x00040d00
    2560:	0400000a 	streq	r0, [r0], #-10
    2564:	00008bcb 	andeq	r8, r0, fp, asr #23
    2568:	0b4e1d0b 	bleq	138999c <_Min_Stack_Size+0x138959c>
    256c:	140a0000 	strne	r0, [sl], #-0
    2570:	0be11f0b 	bleq	ff84a1a4 <_estack+0xdf8479a4>
    2574:	530b0000 	movwpl	r0, #45056	; 0xb000
    2578:	0b000050 	bleq	26c0 <_Min_Stack_Size+0x22c0>
    257c:	000b9521 	andeq	r9, fp, r1, lsr #10
    2580:	00230200 	eoreq	r0, r3, r0, lsl #4
    2584:	0030fd0b 	eorseq	pc, r0, fp, lsl #26
    2588:	9e240b00 	vmulls.f64	d0, d4, d0
    258c:	02000009 	andeq	r0, r0, #9
    2590:	b40b0c23 	strlt	r0, [fp], #-3107	; 0xfffff3dd
    2594:	0b000067 	bleq	2738 <_Min_Stack_Size+0x2338>
    2598:	00099e27 	andeq	r9, r9, r7, lsr #28
    259c:	0d230200 	sfmeq	f0, 4, [r3, #-0]
    25a0:	00908a0b 	addseq	r8, r0, fp, lsl #20
    25a4:	062a0b00 	strteq	r0, [sl], -r0, lsl #22
    25a8:	02000003 	andeq	r0, r0, #3
    25ac:	04001023 	streq	r1, [r0], #-35	; 0xffffffdd
    25b0:	00002b53 	andeq	r2, r0, r3, asr fp
    25b4:	0ba02b0b 	bleq	fe80d1e8 <_estack+0xde80a9e8>
    25b8:	06080000 	streq	r0, [r8], -r0
    25bc:	fc000003 	stc2	0, cr0, [r0], {3}
    25c0:	0900000b 	stmdbeq	r0, {r0, r1, r3}
    25c4:	0000002d 	andeq	r0, r0, sp, lsr #32
    25c8:	891d000e 	ldmdbhi	sp, {r1, r2, r3}
    25cc:	01000090 	swpeq	r0, r0, [r0]	; <UNPREDICTABLE>
    25d0:	000bec0d 	andeq	lr, fp, sp, lsl #24
    25d4:	03050100 	movweq	r0, #20736	; 0x5100
    25d8:	20000020 	andcs	r0, r0, r0, lsr #32
    25dc:	9129011e 			; <UNDEFINED> instruction: 0x9129011e
    25e0:	03010000 	movweq	r0, #4096	; 0x1000
    25e4:	095c0101 	ldmdbeq	ip, {r0, r8}^
    25e8:	0a200800 	beq	8045f0 <_Min_Stack_Size+0x8041f0>
    25ec:	04bc0800 	ldrteq	r0, [ip], #2048	; 0x800
    25f0:	1f010000 	svcne	0x00010000
    25f4:	0090d001 	addseq	sp, r0, r1
    25f8:	01fa0100 	mvnseq	r0, r0, lsl #2
    25fc:	080008b4 	stmdaeq	r0, {r2, r4, r5, r7, fp}
    2600:	0800095c 	stmdaeq	r0, {r2, r3, r4, r6, r8, fp}
    2604:	000004e8 	andeq	r0, r0, r8, ror #9
    2608:	36011f01 	strcc	r1, [r1], -r1, lsl #30
    260c:	01000090 	swpeq	r0, r0, [r0]	; <UNPREDICTABLE>
    2610:	089001f4 	ldmeq	r0, {r2, r4, r5, r6, r7, r8}
    2614:	08b40800 	ldmeq	r4!, {fp}
    2618:	05140800 	ldreq	r0, [r4, #-2048]	; 0xfffff800
    261c:	1f010000 	svcne	0x00010000
    2620:	0090f001 	addseq	pc, r0, r1
    2624:	01ee0100 	mvneq	r0, r0, lsl #2
    2628:	0800086c 	stmdaeq	r0, {r2, r3, r5, r6, fp}
    262c:	08000890 	stmdaeq	r0, {r4, r7, fp}
    2630:	00000540 	andeq	r0, r0, r0, asr #10
    2634:	bf011f01 	svclt	0x00011f01
    2638:	01000090 	swpeq	r0, r0, [r0]	; <UNPREDICTABLE>
    263c:	084801e8 	stmdaeq	r8, {r3, r5, r6, r7, r8}^
    2640:	086c0800 	stmdaeq	ip!, {fp}^
    2644:	056c0800 	strbeq	r0, [ip, #-2048]!	; 0xfffff800
    2648:	1f010000 	svcne	0x00010000
    264c:	00914b01 	addseq	r4, r1, r1, lsl #22
    2650:	01e20100 	mvneq	r0, r0, lsl #2
    2654:	08000824 	stmdaeq	r0, {r2, r5, fp}
    2658:	08000848 	stmdaeq	r0, {r3, r6, fp}
    265c:	00000598 	muleq	r0, r8, r5
    2660:	13011f01 	movwne	r1, #7937	; 0x1f01
    2664:	01000091 	swpeq	r0, r1, [r0]	; <UNPREDICTABLE>
    2668:	080001da 	stmdaeq	r0, {r1, r3, r4, r6, r7, r8}
    266c:	08240800 	stmdaeq	r4!, {fp}
    2670:	05c40800 	strbeq	r0, [r4, #2048]	; 0x800
    2674:	20010000 	andcs	r0, r1, r0
    2678:	008f6b01 	addeq	r6, pc, r1, lsl #22
    267c:	01d00100 	bicseq	r0, r0, r0, lsl #2
	...
    2688:	000005f0 	strdeq	r0, [r0], -r0	; <UNPREDICTABLE>
    268c:	000cd201 	andeq	sp, ip, r1, lsl #4
    2690:	90472100 	subls	r2, r7, r0, lsl #2
    2694:	d0010000 	andle	r0, r1, r0
    2698:	00000cd2 	ldrdeq	r0, [r0], -r2
    269c:	00749102 	rsbseq	r9, r4, r2, lsl #2
    26a0:	0be1040d 	bleq	ff8436dc <_estack+0xdf840edc>
    26a4:	01220000 			; <UNDEFINED> instruction: 0x01220000
    26a8:	00009053 	andeq	r9, r0, r3, asr r0
    26ac:	0001b101 	andeq	fp, r1, r1, lsl #2
    26b0:	00000000 	andeq	r0, r0, r0
    26b4:	40000000 	andmi	r0, r0, r0
    26b8:	01000006 	tsteq	r0, r6
    26bc:	90690120 	rsbls	r0, r9, r0, lsr #2
    26c0:	a5010000 	strge	r0, [r1, #-0]
    26c4:	0007e801 	andeq	lr, r7, r1, lsl #16
    26c8:	0007fe08 	andeq	pc, r7, r8, lsl #28
    26cc:	00068408 	andeq	r8, r6, r8, lsl #8
    26d0:	0d170100 	ldfeqs	f0, [r7, #-0]
    26d4:	47210000 	strmi	r0, [r1, -r0]!
    26d8:	01000090 	swpeq	r0, r0, [r0]	; <UNPREDICTABLE>
    26dc:	000cd2a5 	andeq	sp, ip, r5, lsr #5
    26e0:	74910200 	ldrvc	r0, [r1], #512	; 0x200
    26e4:	b9012000 	stmdblt	r1, {sp}
    26e8:	0100008f 	smlabbeq	r0, pc, r0, r0	; <UNPREDICTABLE>
    26ec:	06100166 	ldreq	r0, [r0], -r6, ror #2
    26f0:	07e80800 	strbeq	r0, [r8, r0, lsl #16]!
    26f4:	06d40800 	ldrbeq	r0, [r4], r0, lsl #16
    26f8:	6a010000 	bvs	42700 <_Min_Stack_Size+0x42300>
    26fc:	2100000d 	tstcs	r0, sp
    2700:	00009047 	andeq	r9, r0, r7, asr #32
    2704:	0cd26601 	ldcleq	6, cr6, [r2], {1}
    2708:	91020000 	mrsls	r0, (UNDEF: 2)
    270c:	9025236c 	eorls	r2, r5, ip, ror #6
    2710:	69010000 	stmdbvs	r1, {}	; <UNPREDICTABLE>
    2714:	00000b43 	andeq	r0, r0, r3, asr #22
    2718:	23709102 	cmncs	r0, #-2147483648	; 0x80000000
    271c:	00009101 	andeq	r9, r0, r1, lsl #2
    2720:	099e6f01 	ldmibeq	lr, {r0, r8, r9, sl, fp, sp, lr}
    2724:	91020000 	mrsls	r0, (UNDEF: 2)
    2728:	90992377 	addsls	r2, r9, r7, ror r3
    272c:	70010000 	andvc	r0, r1, r0
    2730:	0000099e 	muleq	r0, lr, r9
    2734:	00769102 	rsbseq	r9, r6, r2, lsl #2
    2738:	913e0124 	teqls	lr, r4, lsr #2
    273c:	41010000 	mrsmi	r0, (UNDEF: 1)
    2740:	00054401 	andeq	r4, r5, r1, lsl #8
    2744:	00061008 	andeq	r1, r6, r8
    2748:	00072408 	andeq	r2, r7, r8, lsl #8
    274c:	0d930100 	ldfeqs	f0, [r3]
    2750:	49250000 	stmdbmi	r5!, {}	; <UNPREDICTABLE>
    2754:	01005152 	tsteq	r0, r2, asr r1
    2758:	0009a941 	andeq	sl, r9, r1, asr #18
    275c:	76910200 	ldrvc	r0, [r1], r0, lsl #4
    2760:	5c012600 	stcpl	6, cr2, [r1], {-0}
    2764:	01000091 	swpeq	r0, r1, [r0]	; <UNPREDICTABLE>
    2768:	0478011c 	ldrbteq	r0, [r8], #-284	; 0xfffffee4
    276c:	05440800 	strbeq	r0, [r4, #-2048]	; 0xfffff800
    2770:	07800800 	streq	r0, [r0, r0, lsl #16]
    2774:	25010000 	strcs	r0, [r1, #-0]
    2778:	00515249 	subseq	r5, r1, r9, asr #4
    277c:	09a91c01 	stmibeq	r9!, {r0, sl, fp, ip}
    2780:	91020000 	mrsls	r0, (UNDEF: 2)
    2784:	Address 0x0000000000002784 is out of bounds.


Disassembly of section .debug_abbrev:

00000000 <.debug_abbrev>:
   0:	25011101 	strcs	r1, [r1, #-257]	; 0xfffffeff
   4:	030b130e 	movweq	r1, #45838	; 0xb30e
   8:	550e1b0e 	strpl	r1, [lr, #-2830]	; 0xfffff4f2
   c:	52011106 	andpl	r1, r1, #-2147483647	; 0x80000001
  10:	99061001 	stmdbls	r6, {r0, ip}
  14:	00000642 	andeq	r0, r0, r2, asr #12
  18:	0b002402 	bleq	9028 <_Min_Stack_Size+0x8c28>
  1c:	030b3e0b 	movweq	r3, #48651	; 0xbe0b
  20:	0300000e 	movweq	r0, #14
  24:	0b0b0024 	bleq	2c00bc <_Min_Stack_Size+0x2bfcbc>
  28:	08030b3e 	stmdaeq	r3, {r1, r2, r3, r4, r5, r8, r9, fp}
  2c:	16040000 	strne	r0, [r4], -r0
  30:	3a0e0300 	bcc	380c38 <_Min_Stack_Size+0x380838>
  34:	490b3b0b 	stmdbmi	fp, {r0, r1, r3, r8, r9, fp, ip, sp}
  38:	05000013 	streq	r0, [r0, #-19]	; 0xffffffed
  3c:	0e030016 	mcreq	0, 0, r0, cr3, cr6, {0}
  40:	053b0b3a 	ldreq	r0, [fp, #-2874]!	; 0xfffff4c6
  44:	00001349 	andeq	r1, r0, r9, asr #6
  48:	0b011706 	bleq	45c68 <_Min_Stack_Size+0x45868>
  4c:	3b0b3a0b 	blcc	2ce880 <_Min_Stack_Size+0x2ce480>
  50:	0013010b 	andseq	r0, r3, fp, lsl #2
  54:	000d0700 	andeq	r0, sp, r0, lsl #14
  58:	0b3a0e03 	bleq	e8386c <_Min_Stack_Size+0xe8346c>
  5c:	13490b3b 	movtne	r0, #39739	; 0x9b3b
  60:	01080000 	mrseq	r0, (UNDEF: 8)
  64:	01134901 	tsteq	r3, r1, lsl #18
  68:	09000013 	stmdbeq	r0, {r0, r1, r4}
  6c:	13490021 	movtne	r0, #36897	; 0x9021
  70:	00000b2f 	andeq	r0, r0, pc, lsr #22
  74:	0b01130a 	bleq	44ca4 <_Min_Stack_Size+0x448a4>
  78:	3b0b3a0b 	blcc	2ce8ac <_Min_Stack_Size+0x2ce4ac>
  7c:	0013010b 	andseq	r0, r3, fp, lsl #2
  80:	000d0b00 	andeq	r0, sp, r0, lsl #22
  84:	0b3a0e03 	bleq	e83898 <_Min_Stack_Size+0xe83498>
  88:	13490b3b 	movtne	r0, #39739	; 0x9b3b
  8c:	00000a38 	andeq	r0, r0, r8, lsr sl
  90:	0b000f0c 	bleq	3cc8 <_Min_Stack_Size+0x38c8>
  94:	0d00000b 	stceq	0, cr0, [r0, #-44]	; 0xffffffd4
  98:	0b0b000f 	bleq	2c00dc <_Min_Stack_Size+0x2bfcdc>
  9c:	00001349 	andeq	r1, r0, r9, asr #6
  a0:	4900260e 	stmdbmi	r0, {r1, r2, r3, r9, sl, sp}
  a4:	0f000013 	svceq	0x00000013
  a8:	0e030113 	mcreq	1, 0, r0, cr3, cr3, {0}
  ac:	0b3a0b0b 	bleq	e82ce0 <_Min_Stack_Size+0xe828e0>
  b0:	13010b3b 	movwne	r0, #6971	; 0x1b3b
  b4:	0d100000 	ldceq	0, cr0, [r0, #-0]
  b8:	3a080300 	bcc	200cc0 <_Min_Stack_Size+0x2008c0>
  bc:	490b3b0b 	stmdbmi	fp, {r0, r1, r3, r8, r9, fp, ip, sp}
  c0:	000a3813 	andeq	r3, sl, r3, lsl r8
  c4:	01131100 	tsteq	r3, r0, lsl #2
  c8:	050b0e03 	streq	r0, [fp, #-3587]	; 0xfffff1fd
  cc:	0b3b0b3a 	bleq	ec2dbc <_Min_Stack_Size+0xec29bc>
  d0:	00001301 	andeq	r1, r0, r1, lsl #6
  d4:	27001512 	smladcs	r0, r2, r5, r1
  d8:	1300000c 	movwne	r0, #12
  dc:	0e030113 	mcreq	1, 0, r0, cr3, cr3, {0}
  e0:	0b3a0b0b 	bleq	e82d14 <_Min_Stack_Size+0xe82914>
  e4:	1301053b 	movwne	r0, #5435	; 0x153b
  e8:	0d140000 	ldceq	0, cr0, [r4, #-0]
  ec:	3a0e0300 	bcc	380cf4 <_Min_Stack_Size+0x3808f4>
  f0:	49053b0b 	stmdbmi	r5, {r0, r1, r3, r8, r9, fp, ip, sp}
  f4:	000a3813 	andeq	r3, sl, r3, lsl r8
  f8:	000d1500 	andeq	r1, sp, r0, lsl #10
  fc:	0b3a0803 	bleq	e82110 <_Min_Stack_Size+0xe81d10>
 100:	1349053b 	movtne	r0, #38203	; 0x953b
 104:	00000a38 	andeq	r0, r0, r8, lsr sl
 108:	27011516 	smladcs	r1, r6, r5, r1
 10c:	0113490c 	tsteq	r3, ip, lsl #18
 110:	17000013 	smladne	r0, r3, r0, r0
 114:	13490005 	movtne	r0, #36869	; 0x9005
 118:	13180000 	tstne	r8, #0
 11c:	3c0e0300 	stccc	3, cr0, [lr], {-0}
 120:	1900000c 	stmdbne	r0, {r2, r3}
 124:	0c270115 	stfeqs	f0, [r7], #-84	; 0xffffffac
 128:	00001301 	andeq	r1, r0, r1, lsl #6
 12c:	0300341a 	movweq	r3, #1050	; 0x41a
 130:	3b0b3a0e 	blcc	2ce970 <_Min_Stack_Size+0x2ce570>
 134:	3f134905 	svccc	0x00134905
 138:	000c3c0c 	andeq	r3, ip, ip, lsl #24
 13c:	00341b00 	eorseq	r1, r4, r0, lsl #22
 140:	0b3a0e03 	bleq	e83954 <_Min_Stack_Size+0xe83554>
 144:	13490b3b 	movtne	r0, #39739	; 0x9b3b
 148:	0c3c0c3f 	ldceq	12, cr0, [ip], #-252	; 0xffffff04
 14c:	351c0000 	ldrcc	r0, [ip, #-0]
 150:	00134900 	andseq	r4, r3, r0, lsl #18
 154:	00341d00 	eorseq	r1, r4, r0, lsl #26
 158:	0b3a0e03 	bleq	e8396c <_Min_Stack_Size+0xe8356c>
 15c:	13490b3b 	movtne	r0, #39739	; 0x9b3b
 160:	0a020c3f 	beq	83264 <_Min_Stack_Size+0x82e64>
 164:	041e0000 	ldreq	r0, [lr], #-0
 168:	3e0e0301 	cdpcc	3, 0, cr0, cr14, cr1, {0}
 16c:	490b0b0b 	stmdbmi	fp, {r0, r1, r3, r8, r9, fp}
 170:	3b0b3a13 	blcc	2ce9c4 <_Min_Stack_Size+0x2ce5c4>
 174:	0013010b 	andseq	r0, r3, fp, lsl #2
 178:	00281f00 	eoreq	r1, r8, r0, lsl #30
 17c:	0b1c0e03 	bleq	703990 <_Min_Stack_Size+0x703590>
 180:	2e200000 	cdpcs	0, 2, cr0, cr0, cr0, {0}
 184:	030c3f01 	movweq	r3, #52993	; 0xcf01
 188:	3b0b3a0e 	blcc	2ce9c8 <_Min_Stack_Size+0x2ce5c8>
 18c:	490c270b 	stmdbmi	ip, {r0, r1, r3, r8, r9, sl, sp}
 190:	12011113 	andne	r1, r1, #-1073741820	; 0xc0000004
 194:	96064001 	strls	r4, [r6], -r1
 198:	13010c42 	movwne	r0, #7234	; 0x1c42
 19c:	34210000 	strtcc	r0, [r1], #-0
 1a0:	3a0e0300 	bcc	380da8 <_Min_Stack_Size+0x3809a8>
 1a4:	490b3b0b 	stmdbmi	fp, {r0, r1, r3, r8, r9, fp, ip, sp}
 1a8:	000a0213 	andeq	r0, sl, r3, lsl r2
 1ac:	002e2200 	eoreq	r2, lr, r0, lsl #4
 1b0:	0e030c3f 	mcreq	12, 0, r0, cr3, cr15, {1}
 1b4:	0b3b0b3a 	bleq	ec2ea4 <_Min_Stack_Size+0xec2aa4>
 1b8:	01110c27 	tsteq	r1, r7, lsr #24
 1bc:	06400112 			; <UNDEFINED> instruction: 0x06400112
 1c0:	000c4296 	muleq	ip, r6, r2
 1c4:	012e2300 			; <UNDEFINED> instruction: 0x012e2300
 1c8:	0e030c3f 	mcreq	12, 0, r0, cr3, cr15, {1}
 1cc:	0b3b0b3a 	bleq	ec2ebc <_Min_Stack_Size+0xec2abc>
 1d0:	01110c27 	tsteq	r1, r7, lsr #24
 1d4:	06400112 			; <UNDEFINED> instruction: 0x06400112
 1d8:	010c4297 			; <UNDEFINED> instruction: 0x010c4297
 1dc:	24000013 	strcs	r0, [r0], #-19	; 0xffffffed
 1e0:	0e030005 	cdpeq	0, 0, cr0, cr3, cr5, {0}
 1e4:	0b3b0b3a 	bleq	ec2ed4 <_Min_Stack_Size+0xec2ad4>
 1e8:	0a021349 	beq	84f14 <_Min_Stack_Size+0x84b14>
 1ec:	2e250000 	cdpcs	0, 2, cr0, cr5, cr0, {0}
 1f0:	030c3f00 	movweq	r3, #52992	; 0xcf00
 1f4:	3b0b3a0e 	blcc	2cea34 <_Min_Stack_Size+0x2ce634>
 1f8:	1201110b 	andne	r1, r1, #-1073741822	; 0xc0000002
 1fc:	97064001 	strls	r4, [r6, -r1]
 200:	00000c42 	andeq	r0, r0, r2, asr #24
 204:	00110100 	andseq	r0, r1, r0, lsl #2
 208:	06550610 			; <UNDEFINED> instruction: 0x06550610
 20c:	0e1b0e03 	cdpeq	14, 1, cr0, cr11, cr3, {0}
 210:	05130e25 	ldreq	r0, [r3, #-3621]	; 0xfffff1db
 214:	01000000 	mrseq	r0, (UNDEF: 0)
 218:	0e250111 	mcreq	1, 1, r0, cr5, cr1, {0}
 21c:	0e030b13 	vmoveq.32	d3[0], r0
 220:	06550e1b 			; <UNDEFINED> instruction: 0x06550e1b
 224:	01520111 	cmpeq	r2, r1, lsl r1
 228:	42990610 	addsmi	r0, r9, #16, 12	; 0x1000000
 22c:	02000006 	andeq	r0, r0, #6
 230:	0b0b0024 	bleq	2c02c8 <_Min_Stack_Size+0x2bfec8>
 234:	0e030b3e 	vmoveq.16	d3[0], r0
 238:	24030000 	strcs	r0, [r3], #-0
 23c:	3e0b0b00 	vmlacc.f64	d0, d11, d0
 240:	0008030b 	andeq	r0, r8, fp, lsl #6
 244:	00160400 	andseq	r0, r6, r0, lsl #8
 248:	0b3a0e03 	bleq	e83a5c <_Min_Stack_Size+0xe8365c>
 24c:	13490b3b 	movtne	r0, #39739	; 0x9b3b
 250:	16050000 	strne	r0, [r5], -r0
 254:	3a0e0300 	bcc	380e5c <_Min_Stack_Size+0x380a5c>
 258:	49053b0b 	stmdbmi	r5, {r0, r1, r3, r8, r9, fp, ip, sp}
 25c:	06000013 			; <UNDEFINED> instruction: 0x06000013
 260:	0b0b0117 	bleq	2c06c4 <_Min_Stack_Size+0x2c02c4>
 264:	0b3b0b3a 	bleq	ec2f54 <_Min_Stack_Size+0xec2b54>
 268:	00001301 	andeq	r1, r0, r1, lsl #6
 26c:	03000d07 	movweq	r0, #3335	; 0xd07
 270:	3b0b3a0e 	blcc	2ceab0 <_Min_Stack_Size+0x2ce6b0>
 274:	0013490b 	andseq	r4, r3, fp, lsl #18
 278:	01010800 	tsteq	r1, r0, lsl #16
 27c:	13011349 	movwne	r1, #4937	; 0x1349
 280:	21090000 	mrscs	r0, (UNDEF: 9)
 284:	2f134900 	svccs	0x00134900
 288:	0a00000b 	beq	2bc <_Min_Heap_Size+0xbc>
 28c:	0b0b0113 	bleq	2c06e0 <_Min_Stack_Size+0x2c02e0>
 290:	0b3b0b3a 	bleq	ec2f80 <_Min_Stack_Size+0xec2b80>
 294:	00001301 	andeq	r1, r0, r1, lsl #6
 298:	03000d0b 	movweq	r0, #3339	; 0xd0b
 29c:	3b0b3a0e 	blcc	2ceadc <_Min_Stack_Size+0x2ce6dc>
 2a0:	3813490b 	ldmdacc	r3, {r0, r1, r3, r8, fp, lr}
 2a4:	0c00000a 	stceq	0, cr0, [r0], {10}
 2a8:	0b0b000f 	bleq	2c02ec <_Min_Stack_Size+0x2bfeec>
 2ac:	0f0d0000 	svceq	0x000d0000
 2b0:	490b0b00 	stmdbmi	fp, {r8, r9, fp}
 2b4:	0e000013 	mcreq	0, 0, r0, cr0, cr3, {0}
 2b8:	13490026 	movtne	r0, #36902	; 0x9026
 2bc:	130f0000 	movwne	r0, #61440	; 0xf000
 2c0:	0b0e0301 	bleq	380ecc <_Min_Stack_Size+0x380acc>
 2c4:	3b0b3a0b 	blcc	2ceaf8 <_Min_Stack_Size+0x2ce6f8>
 2c8:	0013010b 	andseq	r0, r3, fp, lsl #2
 2cc:	000d1000 	andeq	r1, sp, r0
 2d0:	0b3a0803 	bleq	e822e4 <_Min_Stack_Size+0xe81ee4>
 2d4:	13490b3b 	movtne	r0, #39739	; 0x9b3b
 2d8:	00000a38 	andeq	r0, r0, r8, lsr sl
 2dc:	03011311 	movweq	r1, #4881	; 0x1311
 2e0:	3a050b0e 	bcc	142f20 <_Min_Stack_Size+0x142b20>
 2e4:	010b3b0b 	tsteq	fp, fp, lsl #22
 2e8:	12000013 	andne	r0, r0, #19
 2ec:	0c270015 	stceq	0, cr0, [r7], #-84	; 0xffffffac
 2f0:	13130000 	tstne	r3, #0
 2f4:	0b0e0301 	bleq	380f00 <_Min_Stack_Size+0x380b00>
 2f8:	3b0b3a0b 	blcc	2ceb2c <_Min_Stack_Size+0x2ce72c>
 2fc:	00130105 	andseq	r0, r3, r5, lsl #2
 300:	000d1400 	andeq	r1, sp, r0, lsl #8
 304:	0b3a0e03 	bleq	e83b18 <_Min_Stack_Size+0xe83718>
 308:	1349053b 	movtne	r0, #38203	; 0x953b
 30c:	00000a38 	andeq	r0, r0, r8, lsr sl
 310:	03000d15 	movweq	r0, #3349	; 0xd15
 314:	3b0b3a08 	blcc	2ceb3c <_Min_Stack_Size+0x2ce73c>
 318:	38134905 	ldmdacc	r3, {r0, r2, r8, fp, lr}
 31c:	1600000a 	strne	r0, [r0], -sl
 320:	0c270115 	stfeqs	f0, [r7], #-84	; 0xffffffac
 324:	13011349 	movwne	r1, #4937	; 0x1349
 328:	05170000 	ldreq	r0, [r7, #-0]
 32c:	00134900 	andseq	r4, r3, r0, lsl #18
 330:	00131800 	andseq	r1, r3, r0, lsl #16
 334:	0c3c0e03 	ldceq	14, cr0, [ip], #-12
 338:	15190000 	ldrne	r0, [r9, #-0]
 33c:	010c2701 	tsteq	ip, r1, lsl #14
 340:	1a000013 	bne	394 <_Min_Heap_Size+0x194>
 344:	0e030034 	mcreq	0, 0, r0, cr3, cr4, {1}
 348:	053b0b3a 	ldreq	r0, [fp, #-2874]!	; 0xfffff4c6
 34c:	0c3f1349 	ldceq	3, cr1, [pc], #-292	; 230 <_Min_Heap_Size+0x30>
 350:	00000c3c 	andeq	r0, r0, ip, lsr ip
 354:	0300341b 	movweq	r3, #1051	; 0x41b
 358:	3b0b3a0e 	blcc	2ceb98 <_Min_Stack_Size+0x2ce798>
 35c:	3f13490b 	svccc	0x0013490b
 360:	000c3c0c 	andeq	r3, ip, ip, lsl #24
 364:	00351c00 	eorseq	r1, r5, r0, lsl #24
 368:	00001349 	andeq	r1, r0, r9, asr #6
 36c:	3f012e1d 	svccc	0x00012e1d
 370:	3a0e030c 	bcc	380fa8 <_Min_Stack_Size+0x380ba8>
 374:	27053b0b 	strcs	r3, [r5, -fp, lsl #22]
 378:	1113490c 	tstne	r3, ip, lsl #18
 37c:	40011201 	andmi	r1, r1, r1, lsl #4
 380:	0c429706 	mcrreq	7, 0, r9, r2, cr6
 384:	00001301 	andeq	r1, r0, r1, lsl #6
 388:	0300051e 	movweq	r0, #1310	; 0x51e
 38c:	3b0b3a0e 	blcc	2cebcc <_Min_Stack_Size+0x2ce7cc>
 390:	02134905 	andseq	r4, r3, #81920	; 0x14000
 394:	1f00000a 	svcne	0x0000000a
 398:	08030034 	stmdaeq	r3, {r2, r4, r5}
 39c:	053b0b3a 	ldreq	r0, [fp, #-2874]!	; 0xfffff4c6
 3a0:	0a021349 	beq	850cc <_Min_Stack_Size+0x84ccc>
 3a4:	2e200000 	cdpcs	0, 2, cr0, cr0, cr0, {0}
 3a8:	030c3f01 	movweq	r3, #52993	; 0xcf01
 3ac:	3b0b3a0e 	blcc	2cebec <_Min_Stack_Size+0x2ce7ec>
 3b0:	110c2705 	tstne	ip, r5, lsl #14
 3b4:	40011201 	andmi	r1, r1, r1, lsl #4
 3b8:	0c429706 	mcrreq	7, 0, r9, r2, cr6
 3bc:	00001301 	andeq	r1, r0, r1, lsl #6
 3c0:	3f012e21 	svccc	0x00012e21
 3c4:	3a0e030c 	bcc	380ffc <_Min_Stack_Size+0x380bfc>
 3c8:	270b3b0b 	strcs	r3, [fp, -fp, lsl #22]
 3cc:	1201110c 	andne	r1, r1, #12, 2
 3d0:	97064001 	strls	r4, [r6, -r1]
 3d4:	13010c42 	movwne	r0, #7234	; 0x1c42
 3d8:	05220000 	streq	r0, [r2, #-0]!
 3dc:	3a0e0300 	bcc	380fe4 <_Min_Stack_Size+0x380be4>
 3e0:	490b3b0b 	stmdbmi	fp, {r0, r1, r3, r8, r9, fp, ip, sp}
 3e4:	000a0213 	andeq	r0, sl, r3, lsl r2
 3e8:	012e2300 			; <UNDEFINED> instruction: 0x012e2300
 3ec:	0e030c3f 	mcreq	12, 0, r0, cr3, cr15, {1}
 3f0:	0b3b0b3a 	bleq	ec30e0 <_Min_Stack_Size+0xec2ce0>
 3f4:	13490c27 	movtne	r0, #39975	; 0x9c27
 3f8:	01120111 	tsteq	r2, r1, lsl r1
 3fc:	42970640 	addsmi	r0, r7, #64, 12	; 0x4000000
 400:	0013010c 	andseq	r0, r3, ip, lsl #2
 404:	00342400 	eorseq	r2, r4, r0, lsl #8
 408:	0b3a0e03 	bleq	e83c1c <_Min_Stack_Size+0xe8381c>
 40c:	13490b3b 	movtne	r0, #39739	; 0x9b3b
 410:	00000a02 	andeq	r0, r0, r2, lsl #20
 414:	3f012e25 	svccc	0x00012e25
 418:	3a0e030c 	bcc	381050 <_Min_Stack_Size+0x380c50>
 41c:	270b3b0b 	strcs	r3, [fp, -fp, lsl #22]
 420:	1201110c 	andne	r1, r1, #12, 2
 424:	96064001 	strls	r4, [r6], -r1
 428:	13010c42 	movwne	r0, #7234	; 0x1c42
 42c:	2e260000 	cdpcs	0, 2, cr0, cr6, cr0, {0}
 430:	030c3f01 	movweq	r3, #52993	; 0xcf01
 434:	3b0b3a0e 	blcc	2cec74 <_Min_Stack_Size+0x2ce874>
 438:	490c270b 	stmdbmi	ip, {r0, r1, r3, r8, r9, sl, sp}
 43c:	12011113 	andne	r1, r1, #-1073741820	; 0xc0000004
 440:	97064001 	strls	r4, [r6, -r1]
 444:	00000c42 	andeq	r0, r0, r2, asr #24
 448:	01110100 	tsteq	r1, r0, lsl #2
 44c:	0b130e25 	bleq	4c3ce8 <_Min_Stack_Size+0x4c38e8>
 450:	0e1b0e03 	cdpeq	14, 1, cr0, cr11, cr3, {0}
 454:	01110655 	tsteq	r1, r5, asr r6
 458:	06100152 			; <UNDEFINED> instruction: 0x06100152
 45c:	00064299 	muleq	r6, r9, r2
 460:	00240200 	eoreq	r0, r4, r0, lsl #4
 464:	0b3e0b0b 	bleq	f83098 <_Min_Stack_Size+0xf82c98>
 468:	00000e03 	andeq	r0, r0, r3, lsl #28
 46c:	0b002403 	bleq	9480 <_Min_Stack_Size+0x9080>
 470:	030b3e0b 	movweq	r3, #48651	; 0xbe0b
 474:	04000008 	streq	r0, [r0], #-8
 478:	0e030016 	mcreq	0, 0, r0, cr3, cr6, {0}
 47c:	0b3b0b3a 	bleq	ec316c <_Min_Stack_Size+0xec2d6c>
 480:	00001349 	andeq	r1, r0, r9, asr #6
 484:	03001605 	movweq	r1, #1541	; 0x605
 488:	3b0b3a0e 	blcc	2cecc8 <_Min_Stack_Size+0x2ce8c8>
 48c:	00134905 	andseq	r4, r3, r5, lsl #18
 490:	01170600 	tsteq	r7, r0, lsl #12
 494:	0b3a0b0b 	bleq	e830c8 <_Min_Stack_Size+0xe82cc8>
 498:	13010b3b 	movwne	r0, #6971	; 0x1b3b
 49c:	0d070000 	stceq	0, cr0, [r7, #-0]
 4a0:	3a0e0300 	bcc	3810a8 <_Min_Stack_Size+0x380ca8>
 4a4:	490b3b0b 	stmdbmi	fp, {r0, r1, r3, r8, r9, fp, ip, sp}
 4a8:	08000013 	stmdaeq	r0, {r0, r1, r4}
 4ac:	13490101 	movtne	r0, #37121	; 0x9101
 4b0:	00001301 	andeq	r1, r0, r1, lsl #6
 4b4:	49002109 	stmdbmi	r0, {r0, r3, r8, sp}
 4b8:	000b2f13 	andeq	r2, fp, r3, lsl pc
 4bc:	01130a00 	tsteq	r3, r0, lsl #20
 4c0:	0b3a0b0b 	bleq	e830f4 <_Min_Stack_Size+0xe82cf4>
 4c4:	13010b3b 	movwne	r0, #6971	; 0x1b3b
 4c8:	0d0b0000 	stceq	0, cr0, [fp, #-0]
 4cc:	3a0e0300 	bcc	3810d4 <_Min_Stack_Size+0x380cd4>
 4d0:	490b3b0b 	stmdbmi	fp, {r0, r1, r3, r8, r9, fp, ip, sp}
 4d4:	000a3813 	andeq	r3, sl, r3, lsl r8
 4d8:	000f0c00 	andeq	r0, pc, r0, lsl #24
 4dc:	00000b0b 	andeq	r0, r0, fp, lsl #22
 4e0:	0b000f0d 	bleq	411c <_Min_Stack_Size+0x3d1c>
 4e4:	0013490b 	andseq	r4, r3, fp, lsl #18
 4e8:	00260e00 	eoreq	r0, r6, r0, lsl #28
 4ec:	00001349 	andeq	r1, r0, r9, asr #6
 4f0:	0301130f 	movweq	r1, #4879	; 0x130f
 4f4:	3a0b0b0e 	bcc	2c3134 <_Min_Stack_Size+0x2c2d34>
 4f8:	010b3b0b 	tsteq	fp, fp, lsl #22
 4fc:	10000013 	andne	r0, r0, r3, lsl r0
 500:	0803000d 	stmdaeq	r3, {r0, r2, r3}
 504:	0b3b0b3a 	bleq	ec31f4 <_Min_Stack_Size+0xec2df4>
 508:	0a381349 	beq	e05234 <_Min_Stack_Size+0xe04e34>
 50c:	13110000 	tstne	r1, #0
 510:	0b0e0301 	bleq	38111c <_Min_Stack_Size+0x380d1c>
 514:	3b0b3a05 	blcc	2ced30 <_Min_Stack_Size+0x2ce930>
 518:	0013010b 	andseq	r0, r3, fp, lsl #2
 51c:	00151200 	andseq	r1, r5, r0, lsl #4
 520:	00000c27 	andeq	r0, r0, r7, lsr #24
 524:	03011313 	movweq	r1, #4883	; 0x1313
 528:	3a0b0b0e 	bcc	2c3168 <_Min_Stack_Size+0x2c2d68>
 52c:	01053b0b 	tsteq	r5, fp, lsl #22
 530:	14000013 	strne	r0, [r0], #-19	; 0xffffffed
 534:	0e03000d 	cdpeq	0, 0, cr0, cr3, cr13, {0}
 538:	053b0b3a 	ldreq	r0, [fp, #-2874]!	; 0xfffff4c6
 53c:	0a381349 	beq	e05268 <_Min_Stack_Size+0xe04e68>
 540:	0d150000 	ldceq	0, cr0, [r5, #-0]
 544:	3a080300 	bcc	20114c <_Min_Stack_Size+0x200d4c>
 548:	49053b0b 	stmdbmi	r5, {r0, r1, r3, r8, r9, fp, ip, sp}
 54c:	000a3813 	andeq	r3, sl, r3, lsl r8
 550:	01151600 	tsteq	r5, r0, lsl #12
 554:	13490c27 	movtne	r0, #39975	; 0x9c27
 558:	00001301 	andeq	r1, r0, r1, lsl #6
 55c:	49000517 	stmdbmi	r0, {r0, r1, r2, r4, r8, sl}
 560:	18000013 	stmdane	r0, {r0, r1, r4}
 564:	0e030013 	mcreq	0, 0, r0, cr3, cr3, {0}
 568:	00000c3c 	andeq	r0, r0, ip, lsr ip
 56c:	27011519 	smladcs	r1, r9, r5, r1
 570:	0013010c 	andseq	r0, r3, ip, lsl #2
 574:	00341a00 	eorseq	r1, r4, r0, lsl #20
 578:	0b3a0e03 	bleq	e83d8c <_Min_Stack_Size+0xe8398c>
 57c:	1349053b 	movtne	r0, #38203	; 0x953b
 580:	0c3c0c3f 	ldceq	12, cr0, [ip], #-252	; 0xffffff04
 584:	341b0000 	ldrcc	r0, [fp], #-0
 588:	3a0e0300 	bcc	381190 <_Min_Stack_Size+0x380d90>
 58c:	490b3b0b 	stmdbmi	fp, {r0, r1, r3, r8, r9, fp, ip, sp}
 590:	3c0c3f13 	stccc	15, cr3, [ip], {19}
 594:	1c00000c 	stcne	0, cr0, [r0], {12}
 598:	13490035 	movtne	r0, #36917	; 0x9035
 59c:	341d0000 	ldrcc	r0, [sp], #-0
 5a0:	3a0e0300 	bcc	3811a8 <_Min_Stack_Size+0x380da8>
 5a4:	490b3b0b 	stmdbmi	fp, {r0, r1, r3, r8, r9, fp, ip, sp}
 5a8:	020c3f13 	andeq	r3, ip, #19, 30	; 0x4c
 5ac:	1e00000a 	cdpne	0, 0, cr0, cr0, cr10, {0}
 5b0:	0c3f002e 	ldceq	0, cr0, [pc], #-184	; 500 <_Min_Stack_Size+0x100>
 5b4:	0b3a0e03 	bleq	e83dc8 <_Min_Stack_Size+0xe839c8>
 5b8:	0c27053b 	cfstr32eq	mvfx0, [r7], #-236	; 0xffffff14
 5bc:	01120111 	tsteq	r2, r1, lsl r1
 5c0:	42960640 	addsmi	r0, r6, #64, 12	; 0x4000000
 5c4:	1f00000c 	svcne	0x0000000c
 5c8:	0c3f002e 	ldceq	0, cr0, [pc], #-184	; 518 <_Min_Stack_Size+0x118>
 5cc:	0b3a0e03 	bleq	e83de0 <_Min_Stack_Size+0xe839e0>
 5d0:	0c270b3b 			; <UNDEFINED> instruction: 0x0c270b3b
 5d4:	01120111 	tsteq	r2, r1, lsl r1
 5d8:	42960640 	addsmi	r0, r6, #64, 12	; 0x4000000
 5dc:	2000000c 	andcs	r0, r0, ip
 5e0:	0c3f012e 	ldfeqs	f0, [pc], #-184	; 530 <_Min_Stack_Size+0x130>
 5e4:	0b3a0e03 	bleq	e83df8 <_Min_Stack_Size+0xe839f8>
 5e8:	0c270b3b 			; <UNDEFINED> instruction: 0x0c270b3b
 5ec:	01120111 	tsteq	r2, r1, lsl r1
 5f0:	42960640 	addsmi	r0, r6, #64, 12	; 0x4000000
 5f4:	0013010c 	andseq	r0, r3, ip, lsl #2
 5f8:	00052100 	andeq	r2, r5, r0, lsl #2
 5fc:	0b3a0e03 	bleq	e83e10 <_Min_Stack_Size+0xe83a10>
 600:	13490b3b 	movtne	r0, #39739	; 0x9b3b
 604:	00000a02 	andeq	r0, r0, r2, lsl #20
 608:	3f002e22 	svccc	0x00002e22
 60c:	3a0e030c 	bcc	381244 <_Min_Stack_Size+0x380e44>
 610:	270b3b0b 	strcs	r3, [fp, -fp, lsl #22]
 614:	1201110c 	andne	r1, r1, #12, 2
 618:	97064001 	strls	r4, [r6, -r1]
 61c:	00000c42 	andeq	r0, r0, r2, asr #24
 620:	03003423 	movweq	r3, #1059	; 0x423
 624:	3b0b3a0e 	blcc	2cee64 <_Min_Stack_Size+0x2cea64>
 628:	0213490b 	andseq	r4, r3, #180224	; 0x2c000
 62c:	2400000a 	strcs	r0, [r0], #-10
 630:	0c3f012e 	ldfeqs	f0, [pc], #-184	; 580 <_Min_Stack_Size+0x180>
 634:	0b3a0e03 	bleq	e83e48 <_Min_Stack_Size+0xe83a48>
 638:	0c270b3b 			; <UNDEFINED> instruction: 0x0c270b3b
 63c:	01120111 	tsteq	r2, r1, lsl r1
 640:	42970640 	addsmi	r0, r7, #64, 12	; 0x4000000
 644:	0013010c 	andseq	r0, r3, ip, lsl #2
 648:	00052500 	andeq	r2, r5, r0, lsl #10
 64c:	0b3a0803 	bleq	e82660 <_Min_Stack_Size+0xe82260>
 650:	13490b3b 	movtne	r0, #39739	; 0x9b3b
 654:	00000a02 	andeq	r0, r0, r2, lsl #20
 658:	3f012e26 	svccc	0x00012e26
 65c:	3a0e030c 	bcc	381294 <_Min_Stack_Size+0x380e94>
 660:	270b3b0b 	strcs	r3, [fp, -fp, lsl #22]
 664:	1201110c 	andne	r1, r1, #12, 2
 668:	97064001 	strls	r4, [r6, -r1]
 66c:	00000c42 	andeq	r0, r0, r2, asr #24
	...

Disassembly of section .debug_loc:

00000000 <.debug_loc>:
   0:	080001ec 	stmdaeq	r0, {r2, r3, r5, r6, r7, r8}
   4:	080001ee 	stmdaeq	r0, {r1, r2, r3, r5, r6, r7, r8}
   8:	007d0002 	rsbseq	r0, sp, r2
   c:	080001ee 	stmdaeq	r0, {r1, r2, r3, r5, r6, r7, r8}
  10:	080001f0 	stmdaeq	r0, {r4, r5, r6, r7, r8}
  14:	087d0002 	ldmdaeq	sp!, {r1}^
  18:	080001f0 	stmdaeq	r0, {r4, r5, r6, r7, r8}
  1c:	080001f2 	stmdaeq	r0, {r1, r4, r5, r6, r7, r8}
  20:	207d0002 	rsbscs	r0, sp, r2
  24:	080001f2 	stmdaeq	r0, {r1, r4, r5, r6, r7, r8}
  28:	08000260 	stmdaeq	r0, {r5, r6, r9}
  2c:	20770002 	rsbscs	r0, r7, r2
	...
  38:	080001d4 	stmdaeq	r0, {r2, r4, r6, r7, r8}
  3c:	080001d6 	stmdaeq	r0, {r1, r2, r4, r6, r7, r8}
  40:	007d0002 	rsbseq	r0, sp, r2
  44:	080001d6 	stmdaeq	r0, {r1, r2, r4, r6, r7, r8}
  48:	080001d8 	stmdaeq	r0, {r3, r4, r6, r7, r8}
  4c:	087d0002 	ldmdaeq	sp!, {r1}^
  50:	080001d8 	stmdaeq	r0, {r3, r4, r6, r7, r8}
  54:	080001ec 	stmdaeq	r0, {r2, r3, r5, r6, r7, r8}
  58:	08770002 	ldmdaeq	r7!, {r1}^
	...
  64:	08000194 	stmdaeq	r0, {r2, r4, r7, r8}
  68:	08000196 	stmdaeq	r0, {r1, r2, r4, r7, r8}
  6c:	007d0002 	rsbseq	r0, sp, r2
  70:	08000196 	stmdaeq	r0, {r1, r2, r4, r7, r8}
  74:	08000198 	stmdaeq	r0, {r3, r4, r7, r8}
  78:	047d0002 	ldrbteq	r0, [sp], #-2
  7c:	08000198 	stmdaeq	r0, {r3, r4, r7, r8}
  80:	0800019a 	stmdaeq	r0, {r1, r3, r4, r7, r8}
  84:	107d0002 	rsbsne	r0, sp, r2
  88:	0800019a 	stmdaeq	r0, {r1, r3, r4, r7, r8}
  8c:	080001ce 	stmdaeq	r0, {r1, r2, r3, r6, r7, r8}
  90:	10770002 	rsbsne	r0, r7, r2
  94:	080001ce 	stmdaeq	r0, {r1, r2, r3, r6, r7, r8}
  98:	080001d0 	stmdaeq	r0, {r4, r6, r7, r8}
  9c:	04770002 	ldrbteq	r0, [r7], #-2
  a0:	080001d0 	stmdaeq	r0, {r4, r6, r7, r8}
  a4:	080001d2 	stmdaeq	r0, {r1, r4, r6, r7, r8}
  a8:	047d0002 	ldrbteq	r0, [sp], #-2
  ac:	080001d2 	stmdaeq	r0, {r1, r4, r6, r7, r8}
  b0:	080001d4 	stmdaeq	r0, {r2, r4, r6, r7, r8}
  b4:	007d0002 	rsbseq	r0, sp, r2
	...
  c0:	08000188 	stmdaeq	r0, {r3, r7, r8}
  c4:	0800018a 	stmdaeq	r0, {r1, r3, r7, r8}
  c8:	007d0002 	rsbseq	r0, sp, r2
  cc:	0800018a 	stmdaeq	r0, {r1, r3, r7, r8}
  d0:	0800018c 	stmdaeq	r0, {r2, r3, r7, r8}
  d4:	047d0002 	ldrbteq	r0, [sp], #-2
  d8:	0800018c 	stmdaeq	r0, {r2, r3, r7, r8}
  dc:	08000190 	stmdaeq	r0, {r4, r7, r8}
  e0:	04770002 	ldrbteq	r0, [r7], #-2
  e4:	08000190 	stmdaeq	r0, {r4, r7, r8}
  e8:	08000192 	stmdaeq	r0, {r1, r4, r7, r8}
  ec:	047d0002 	ldrbteq	r0, [sp], #-2
  f0:	08000192 	stmdaeq	r0, {r1, r4, r7, r8}
  f4:	08000194 	stmdaeq	r0, {r2, r4, r7, r8}
  f8:	007d0002 	rsbseq	r0, sp, r2
	...
 104:	0800017c 	stmdaeq	r0, {r2, r3, r4, r5, r6, r8}
 108:	0800017e 	stmdaeq	r0, {r1, r2, r3, r4, r5, r6, r8}
 10c:	007d0002 	rsbseq	r0, sp, r2
 110:	0800017e 	stmdaeq	r0, {r1, r2, r3, r4, r5, r6, r8}
 114:	08000180 	stmdaeq	r0, {r7, r8}
 118:	047d0002 	ldrbteq	r0, [sp], #-2
 11c:	08000180 	stmdaeq	r0, {r7, r8}
 120:	08000184 	stmdaeq	r0, {r2, r7, r8}
 124:	04770002 	ldrbteq	r0, [r7], #-2
 128:	08000184 	stmdaeq	r0, {r2, r7, r8}
 12c:	08000186 	stmdaeq	r0, {r1, r2, r7, r8}
 130:	047d0002 	ldrbteq	r0, [sp], #-2
 134:	08000186 	stmdaeq	r0, {r1, r2, r7, r8}
 138:	08000188 	stmdaeq	r0, {r3, r7, r8}
 13c:	007d0002 	rsbseq	r0, sp, r2
	...
 148:	08000170 	stmdaeq	r0, {r4, r5, r6, r8}
 14c:	08000172 	stmdaeq	r0, {r1, r4, r5, r6, r8}
 150:	007d0002 	rsbseq	r0, sp, r2
 154:	08000172 	stmdaeq	r0, {r1, r4, r5, r6, r8}
 158:	08000174 	stmdaeq	r0, {r2, r4, r5, r6, r8}
 15c:	047d0002 	ldrbteq	r0, [sp], #-2
 160:	08000174 	stmdaeq	r0, {r2, r4, r5, r6, r8}
 164:	08000178 	stmdaeq	r0, {r3, r4, r5, r6, r8}
 168:	04770002 	ldrbteq	r0, [r7], #-2
 16c:	08000178 	stmdaeq	r0, {r3, r4, r5, r6, r8}
 170:	0800017a 	stmdaeq	r0, {r1, r3, r4, r5, r6, r8}
 174:	047d0002 	ldrbteq	r0, [sp], #-2
 178:	0800017a 	stmdaeq	r0, {r1, r3, r4, r5, r6, r8}
 17c:	0800017c 	stmdaeq	r0, {r2, r3, r4, r5, r6, r8}
 180:	007d0002 	rsbseq	r0, sp, r2
	...
 194:	007d0002 	rsbseq	r0, sp, r2
	...
 1a0:	047d0002 	ldrbteq	r0, [sp], #-2
	...
 1ac:	187d0002 	ldmdane	sp!, {r1}^
	...
 1b8:	18770002 	ldmdane	r7!, {r1}^
	...
 1c4:	04770002 	ldrbteq	r0, [r7], #-2
	...
 1d0:	047d0002 	ldrbteq	r0, [sp], #-2
	...
 1dc:	007d0002 	rsbseq	r0, sp, r2
	...
 1f0:	007d0002 	rsbseq	r0, sp, r2
	...
 1fc:	047d0002 	ldrbteq	r0, [sp], #-2
	...
 208:	107d0002 	rsbsne	r0, sp, r2
	...
 214:	10770002 	rsbsne	r0, r7, r2
	...
 220:	04770002 	ldrbteq	r0, [r7], #-2
	...
 22c:	047d0002 	ldrbteq	r0, [sp], #-2
	...
 238:	007d0002 	rsbseq	r0, sp, r2
	...
 24c:	007d0002 	rsbseq	r0, sp, r2
	...
 258:	047d0002 	ldrbteq	r0, [sp], #-2
	...
 264:	107d0002 	rsbsne	r0, sp, r2
	...
 270:	10770002 	rsbsne	r0, r7, r2
	...
 27c:	04770002 	ldrbteq	r0, [r7], #-2
	...
 288:	047d0002 	ldrbteq	r0, [sp], #-2
	...
 294:	007d0002 	rsbseq	r0, sp, r2
	...
 2a8:	007d0002 	rsbseq	r0, sp, r2
	...
 2b4:	047d0002 	ldrbteq	r0, [sp], #-2
	...
 2c0:	107d0002 	rsbsne	r0, sp, r2
	...
 2cc:	10770002 	rsbsne	r0, r7, r2
	...
 2d8:	04770002 	ldrbteq	r0, [r7], #-2
	...
 2e4:	047d0002 	ldrbteq	r0, [sp], #-2
	...
 2f0:	007d0002 	rsbseq	r0, sp, r2
	...
 304:	007d0002 	rsbseq	r0, sp, r2
	...
 310:	047d0002 	ldrbteq	r0, [sp], #-2
	...
 31c:	187d0002 	ldmdane	sp!, {r1}^
	...
 328:	18770002 	ldmdane	r7!, {r1}^
	...
 334:	04770002 	ldrbteq	r0, [r7], #-2
	...
 340:	047d0002 	ldrbteq	r0, [sp], #-2
	...
 34c:	007d0002 	rsbseq	r0, sp, r2
	...
 360:	007d0002 	rsbseq	r0, sp, r2
	...
 36c:	047d0002 	ldrbteq	r0, [sp], #-2
	...
 378:	187d0002 	ldmdane	sp!, {r1}^
	...
 384:	18770002 	ldmdane	r7!, {r1}^
	...
 390:	04770002 	ldrbteq	r0, [r7], #-2
	...
 39c:	047d0002 	ldrbteq	r0, [sp], #-2
	...
 3a8:	007d0002 	rsbseq	r0, sp, r2
	...
 3bc:	007d0002 	rsbseq	r0, sp, r2
	...
 3c8:	047d0002 	ldrbteq	r0, [sp], #-2
	...
 3d4:	107d0002 	rsbsne	r0, sp, r2
	...
 3e0:	10770002 	rsbsne	r0, r7, r2
	...
 3ec:	04770002 	ldrbteq	r0, [r7], #-2
	...
 3f8:	047d0002 	ldrbteq	r0, [sp], #-2
	...
 404:	007d0002 	rsbseq	r0, sp, r2
	...
 410:	08000378 	stmdaeq	r0, {r3, r4, r5, r6, r8, r9}
 414:	0800037a 	stmdaeq	r0, {r1, r3, r4, r5, r6, r8, r9}
 418:	007d0002 	rsbseq	r0, sp, r2
 41c:	0800037a 	stmdaeq	r0, {r1, r3, r4, r5, r6, r8, r9}
 420:	0800037c 	stmdaeq	r0, {r2, r3, r4, r5, r6, r8, r9}
 424:	0c7d0002 	ldcleq	0, cr0, [sp], #-8
 428:	0800037c 	stmdaeq	r0, {r2, r3, r4, r5, r6, r8, r9}
 42c:	0800037e 	stmdaeq	r0, {r1, r2, r3, r4, r5, r6, r8, r9}
 430:	207d0002 	rsbscs	r0, sp, r2
 434:	0800037e 	stmdaeq	r0, {r1, r2, r3, r4, r5, r6, r8, r9}
 438:	08000472 	stmdaeq	r0, {r1, r4, r5, r6, sl}
 43c:	20770002 	rsbscs	r0, r7, r2
 440:	08000472 	stmdaeq	r0, {r1, r4, r5, r6, sl}
 444:	08000474 	stmdaeq	r0, {r2, r4, r5, r6, sl}
 448:	0c770002 	ldcleq	0, cr0, [r7], #-8
 44c:	08000474 	stmdaeq	r0, {r2, r4, r5, r6, sl}
 450:	08000476 	stmdaeq	r0, {r1, r2, r4, r5, r6, sl}
 454:	0c7d0002 	ldcleq	0, cr0, [sp], #-8
	...
 460:	080002b2 	stmdaeq	r0, {r1, r4, r5, r7, r9}
 464:	080002b4 	stmdaeq	r0, {r2, r4, r5, r7, r9}
 468:	007d0002 	rsbseq	r0, sp, r2
 46c:	080002b4 	stmdaeq	r0, {r2, r4, r5, r7, r9}
 470:	080002b6 	stmdaeq	r0, {r1, r2, r4, r5, r7, r9}
 474:	047d0002 	ldrbteq	r0, [sp], #-2
 478:	080002b6 	stmdaeq	r0, {r1, r2, r4, r5, r7, r9}
 47c:	080002b8 	stmdaeq	r0, {r3, r4, r5, r7, r9}
 480:	107d0002 	rsbsne	r0, sp, r2
 484:	080002b8 	stmdaeq	r0, {r3, r4, r5, r7, r9}
 488:	08000372 	stmdaeq	r0, {r1, r4, r5, r6, r8, r9}
 48c:	10770002 	rsbsne	r0, r7, r2
 490:	08000372 	stmdaeq	r0, {r1, r4, r5, r6, r8, r9}
 494:	08000374 	stmdaeq	r0, {r2, r4, r5, r6, r8, r9}
 498:	04770002 	ldrbteq	r0, [r7], #-2
 49c:	08000374 	stmdaeq	r0, {r2, r4, r5, r6, r8, r9}
 4a0:	08000376 	stmdaeq	r0, {r1, r2, r4, r5, r6, r8, r9}
 4a4:	047d0002 	ldrbteq	r0, [sp], #-2
 4a8:	08000376 	stmdaeq	r0, {r1, r2, r4, r5, r6, r8, r9}
 4ac:	08000378 	stmdaeq	r0, {r3, r4, r5, r6, r8, r9}
 4b0:	007d0002 	rsbseq	r0, sp, r2
	...
 4bc:	0800095c 	stmdaeq	r0, {r2, r3, r4, r6, r8, fp}
 4c0:	0800095e 	stmdaeq	r0, {r1, r2, r3, r4, r6, r8, fp}
 4c4:	007d0002 	rsbseq	r0, sp, r2
 4c8:	0800095e 	stmdaeq	r0, {r1, r2, r3, r4, r6, r8, fp}
 4cc:	08000960 	stmdaeq	r0, {r5, r6, r8, fp}
 4d0:	087d0002 	ldmdaeq	sp!, {r1}^
 4d4:	08000960 	stmdaeq	r0, {r5, r6, r8, fp}
 4d8:	08000a20 	stmdaeq	r0, {r5, r9, fp}
 4dc:	08770002 	ldmdaeq	r7!, {r1}^
	...
 4e8:	080008b4 	stmdaeq	r0, {r2, r4, r5, r7, fp}
 4ec:	080008b6 	stmdaeq	r0, {r1, r2, r4, r5, r7, fp}
 4f0:	007d0002 	rsbseq	r0, sp, r2
 4f4:	080008b6 	stmdaeq	r0, {r1, r2, r4, r5, r7, fp}
 4f8:	080008b8 	stmdaeq	r0, {r3, r4, r5, r7, fp}
 4fc:	087d0002 	ldmdaeq	sp!, {r1}^
 500:	080008b8 	stmdaeq	r0, {r3, r4, r5, r7, fp}
 504:	0800095c 	stmdaeq	r0, {r2, r3, r4, r6, r8, fp}
 508:	08770002 	ldmdaeq	r7!, {r1}^
	...
 514:	08000890 	stmdaeq	r0, {r4, r7, fp}
 518:	08000892 	stmdaeq	r0, {r1, r4, r7, fp}
 51c:	007d0002 	rsbseq	r0, sp, r2
 520:	08000892 	stmdaeq	r0, {r1, r4, r7, fp}
 524:	08000894 	stmdaeq	r0, {r2, r4, r7, fp}
 528:	087d0002 	ldmdaeq	sp!, {r1}^
 52c:	08000894 	stmdaeq	r0, {r2, r4, r7, fp}
 530:	080008b4 	stmdaeq	r0, {r2, r4, r5, r7, fp}
 534:	08770002 	ldmdaeq	r7!, {r1}^
	...
 540:	0800086c 	stmdaeq	r0, {r2, r3, r5, r6, fp}
 544:	0800086e 	stmdaeq	r0, {r1, r2, r3, r5, r6, fp}
 548:	007d0002 	rsbseq	r0, sp, r2
 54c:	0800086e 	stmdaeq	r0, {r1, r2, r3, r5, r6, fp}
 550:	08000870 	stmdaeq	r0, {r4, r5, r6, fp}
 554:	087d0002 	ldmdaeq	sp!, {r1}^
 558:	08000870 	stmdaeq	r0, {r4, r5, r6, fp}
 55c:	08000890 	stmdaeq	r0, {r4, r7, fp}
 560:	08770002 	ldmdaeq	r7!, {r1}^
	...
 56c:	08000848 	stmdaeq	r0, {r3, r6, fp}
 570:	0800084a 	stmdaeq	r0, {r1, r3, r6, fp}
 574:	007d0002 	rsbseq	r0, sp, r2
 578:	0800084a 	stmdaeq	r0, {r1, r3, r6, fp}
 57c:	0800084c 	stmdaeq	r0, {r2, r3, r6, fp}
 580:	087d0002 	ldmdaeq	sp!, {r1}^
 584:	0800084c 	stmdaeq	r0, {r2, r3, r6, fp}
 588:	0800086c 	stmdaeq	r0, {r2, r3, r5, r6, fp}
 58c:	08770002 	ldmdaeq	r7!, {r1}^
	...
 598:	08000824 	stmdaeq	r0, {r2, r5, fp}
 59c:	08000826 	stmdaeq	r0, {r1, r2, r5, fp}
 5a0:	007d0002 	rsbseq	r0, sp, r2
 5a4:	08000826 	stmdaeq	r0, {r1, r2, r5, fp}
 5a8:	08000828 	stmdaeq	r0, {r3, r5, fp}
 5ac:	087d0002 	ldmdaeq	sp!, {r1}^
 5b0:	08000828 	stmdaeq	r0, {r3, r5, fp}
 5b4:	08000848 	stmdaeq	r0, {r3, r6, fp}
 5b8:	08770002 	ldmdaeq	r7!, {r1}^
	...
 5c4:	08000800 	stmdaeq	r0, {fp}
 5c8:	08000802 	stmdaeq	r0, {r1, fp}
 5cc:	007d0002 	rsbseq	r0, sp, r2
 5d0:	08000802 	stmdaeq	r0, {r1, fp}
 5d4:	08000804 	stmdaeq	r0, {r2, fp}
 5d8:	087d0002 	ldmdaeq	sp!, {r1}^
 5dc:	08000804 	stmdaeq	r0, {r2, fp}
 5e0:	08000824 	stmdaeq	r0, {r2, r5, fp}
 5e4:	08770002 	ldmdaeq	r7!, {r1}^
	...
 5f8:	007d0002 	rsbseq	r0, sp, r2
	...
 604:	087d0002 	ldmdaeq	sp!, {r1}^
	...
 610:	107d0002 	rsbsne	r0, sp, r2
	...
 61c:	10770002 	rsbsne	r0, r7, r2
	...
 628:	08770002 	ldmdaeq	r7!, {r1}^
	...
 634:	087d0002 	ldmdaeq	sp!, {r1}^
	...
 648:	007d0002 	rsbseq	r0, sp, r2
	...
 654:	047d0002 	ldrbteq	r0, [sp], #-2
	...
 660:	04770002 	ldrbteq	r0, [r7], #-2
	...
 66c:	047d0002 	ldrbteq	r0, [sp], #-2
	...
 678:	007d0002 	rsbseq	r0, sp, r2
	...
 684:	080007e8 	stmdaeq	r0, {r3, r5, r6, r7, r8, r9, sl}
 688:	080007ea 	stmdaeq	r0, {r1, r3, r5, r6, r7, r8, r9, sl}
 68c:	007d0002 	rsbseq	r0, sp, r2
 690:	080007ea 	stmdaeq	r0, {r1, r3, r5, r6, r7, r8, r9, sl}
 694:	080007ec 	stmdaeq	r0, {r2, r3, r5, r6, r7, r8, r9, sl}
 698:	087d0002 	ldmdaeq	sp!, {r1}^
 69c:	080007ec 	stmdaeq	r0, {r2, r3, r5, r6, r7, r8, r9, sl}
 6a0:	080007ee 	stmdaeq	r0, {r1, r2, r3, r5, r6, r7, r8, r9, sl}
 6a4:	107d0002 	rsbsne	r0, sp, r2
 6a8:	080007ee 	stmdaeq	r0, {r1, r2, r3, r5, r6, r7, r8, r9, sl}
 6ac:	080007fa 	stmdaeq	r0, {r1, r3, r4, r5, r6, r7, r8, r9, sl}
 6b0:	10770002 	rsbsne	r0, r7, r2
 6b4:	080007fa 	stmdaeq	r0, {r1, r3, r4, r5, r6, r7, r8, r9, sl}
 6b8:	080007fc 	stmdaeq	r0, {r2, r3, r4, r5, r6, r7, r8, r9, sl}
 6bc:	08770002 	ldmdaeq	r7!, {r1}^
 6c0:	080007fc 	stmdaeq	r0, {r2, r3, r4, r5, r6, r7, r8, r9, sl}
 6c4:	080007fe 	stmdaeq	r0, {r1, r2, r3, r4, r5, r6, r7, r8, r9, sl}
 6c8:	087d0002 	ldmdaeq	sp!, {r1}^
	...
 6d4:	08000610 	stmdaeq	r0, {r4, r9, sl}
 6d8:	08000612 	stmdaeq	r0, {r1, r4, r9, sl}
 6dc:	007d0002 	rsbseq	r0, sp, r2
 6e0:	08000612 	stmdaeq	r0, {r1, r4, r9, sl}
 6e4:	08000614 	stmdaeq	r0, {r2, r4, r9, sl}
 6e8:	087d0002 	ldmdaeq	sp!, {r1}^
 6ec:	08000614 	stmdaeq	r0, {r2, r4, r9, sl}
 6f0:	08000616 	stmdaeq	r0, {r1, r2, r4, r9, sl}
 6f4:	187d0002 	ldmdane	sp!, {r1}^
 6f8:	08000616 	stmdaeq	r0, {r1, r2, r4, r9, sl}
 6fc:	080007c8 	stmdaeq	r0, {r3, r6, r7, r8, r9, sl}
 700:	18770002 	ldmdane	r7!, {r1}^
 704:	080007c8 	stmdaeq	r0, {r3, r6, r7, r8, r9, sl}
 708:	080007ca 	stmdaeq	r0, {r1, r3, r6, r7, r8, r9, sl}
 70c:	08770002 	ldmdaeq	r7!, {r1}^
 710:	080007ca 	stmdaeq	r0, {r1, r3, r6, r7, r8, r9, sl}
 714:	080007e8 	stmdaeq	r0, {r3, r5, r6, r7, r8, r9, sl}
 718:	087d0002 	ldmdaeq	sp!, {r1}^
	...
 724:	08000544 	stmdaeq	r0, {r2, r6, r8, sl}
 728:	08000546 	stmdaeq	r0, {r1, r2, r6, r8, sl}
 72c:	007d0002 	rsbseq	r0, sp, r2
 730:	08000546 	stmdaeq	r0, {r1, r2, r6, r8, sl}
 734:	08000548 	stmdaeq	r0, {r3, r6, r8, sl}
 738:	047d0002 	ldrbteq	r0, [sp], #-2
 73c:	08000548 	stmdaeq	r0, {r3, r6, r8, sl}
 740:	0800054a 	stmdaeq	r0, {r1, r3, r6, r8, sl}
 744:	107d0002 	rsbsne	r0, sp, r2
 748:	0800054a 	stmdaeq	r0, {r1, r3, r6, r8, sl}
 74c:	08000602 	stmdaeq	r0, {r1, r9, sl}
 750:	10770002 	rsbsne	r0, r7, r2
 754:	08000602 	stmdaeq	r0, {r1, r9, sl}
 758:	08000604 	stmdaeq	r0, {r2, r9, sl}
 75c:	04770002 	ldrbteq	r0, [r7], #-2
 760:	08000604 	stmdaeq	r0, {r2, r9, sl}
 764:	08000606 	stmdaeq	r0, {r1, r2, r9, sl}
 768:	047d0002 	ldrbteq	r0, [sp], #-2
 76c:	08000606 	stmdaeq	r0, {r1, r2, r9, sl}
 770:	08000610 	stmdaeq	r0, {r4, r9, sl}
 774:	007d0002 	rsbseq	r0, sp, r2
	...
 780:	08000478 	stmdaeq	r0, {r3, r4, r5, r6, sl}
 784:	0800047a 	stmdaeq	r0, {r1, r3, r4, r5, r6, sl}
 788:	007d0002 	rsbseq	r0, sp, r2
 78c:	0800047a 	stmdaeq	r0, {r1, r3, r4, r5, r6, sl}
 790:	0800047c 	stmdaeq	r0, {r2, r3, r4, r5, r6, sl}
 794:	047d0002 	ldrbteq	r0, [sp], #-2
 798:	0800047c 	stmdaeq	r0, {r2, r3, r4, r5, r6, sl}
 79c:	0800047e 	stmdaeq	r0, {r1, r2, r3, r4, r5, r6, sl}
 7a0:	107d0002 	rsbsne	r0, sp, r2
 7a4:	0800047e 	stmdaeq	r0, {r1, r2, r3, r4, r5, r6, sl}
 7a8:	08000536 	stmdaeq	r0, {r1, r2, r4, r5, r8, sl}
 7ac:	10770002 	rsbsne	r0, r7, r2
 7b0:	08000536 	stmdaeq	r0, {r1, r2, r4, r5, r8, sl}
 7b4:	08000538 	stmdaeq	r0, {r3, r4, r5, r8, sl}
 7b8:	04770002 	ldrbteq	r0, [r7], #-2
 7bc:	08000538 	stmdaeq	r0, {r3, r4, r5, r8, sl}
 7c0:	0800053a 	stmdaeq	r0, {r1, r3, r4, r5, r8, sl}
 7c4:	047d0002 	ldrbteq	r0, [sp], #-2
 7c8:	0800053a 	stmdaeq	r0, {r1, r3, r4, r5, r8, sl}
 7cc:	08000544 	stmdaeq	r0, {r2, r6, r8, sl}
 7d0:	007d0002 	rsbseq	r0, sp, r2
	...

Disassembly of section .debug_aranges:

00000000 <.debug_aranges>:
   0:	00000044 	andeq	r0, r0, r4, asr #32
   4:	00000002 	andeq	r0, r0, r2
   8:	00040000 	andeq	r0, r4, r0
   c:	00000000 	andeq	r0, r0, r0
  10:	08000170 	stmdaeq	r0, {r4, r5, r6, r8}
  14:	0000000c 	andeq	r0, r0, ip
  18:	0800017c 	stmdaeq	r0, {r2, r3, r4, r5, r6, r8}
  1c:	0000000c 	andeq	r0, r0, ip
  20:	08000188 	stmdaeq	r0, {r3, r7, r8}
  24:	0000000c 	andeq	r0, r0, ip
  28:	08000194 	stmdaeq	r0, {r2, r4, r7, r8}
  2c:	00000040 	andeq	r0, r0, r0, asr #32
  30:	080001d4 	stmdaeq	r0, {r2, r4, r6, r7, r8}
  34:	00000018 	andeq	r0, r0, r8, lsl r0
  38:	080001ec 	stmdaeq	r0, {r2, r3, r5, r6, r7, r8}
  3c:	00000074 	andeq	r0, r0, r4, ror r0
	...
  48:	00000024 	andeq	r0, r0, r4, lsr #32
  4c:	0c530002 	mrrceq	0, 0, r0, r3, cr2
  50:	00040000 	andeq	r0, r4, r0
  54:	00000000 	andeq	r0, r0, r0
  58:	08000260 	stmdaeq	r0, {r5, r6, r9}
  5c:	00000050 	andeq	r0, r0, r0, asr r0
  60:	080002b0 	stmdaeq	r0, {r4, r5, r7, r9}
  64:	00000002 	andeq	r0, r0, r2
	...
  70:	0000005c 	andeq	r0, r0, ip, asr r0
  74:	0c750002 	ldcleq	0, cr0, [r5], #-8
  78:	00040000 	andeq	r0, r4, r0
  7c:	00000000 	andeq	r0, r0, r0
  80:	080002b2 	stmdaeq	r0, {r1, r4, r5, r7, r9}
  84:	000000c6 	andeq	r0, r0, r6, asr #1
  88:	08000378 	stmdaeq	r0, {r3, r4, r5, r6, r8, r9}
  8c:	000000fe 	strdeq	r0, [r0], -lr
  90:	00000000 	andeq	r0, r0, r0
  94:	000000d4 	ldrdeq	r0, [r0], -r4
  98:	00000000 	andeq	r0, r0, r0
  9c:	0000002e 	andeq	r0, r0, lr, lsr #32
  a0:	00000000 	andeq	r0, r0, r0
  a4:	0000001a 	andeq	r0, r0, sl, lsl r0
  a8:	00000000 	andeq	r0, r0, r0
  ac:	0000002e 	andeq	r0, r0, lr, lsr #32
  b0:	00000000 	andeq	r0, r0, r0
  b4:	0000001c 	andeq	r0, r0, ip, lsl r0
  b8:	00000000 	andeq	r0, r0, r0
  bc:	00000022 	andeq	r0, r0, r2, lsr #32
  c0:	00000000 	andeq	r0, r0, r0
  c4:	0000004e 	andeq	r0, r0, lr, asr #32
	...
  d0:	0000007c 	andeq	r0, r0, ip, ror r0
  d4:	19ce0002 	stmibne	lr, {r1}^
  d8:	00040000 	andeq	r0, r4, r0
  dc:	00000000 	andeq	r0, r0, r0
  e0:	08000478 	stmdaeq	r0, {r3, r4, r5, r6, sl}
  e4:	000000cc 	andeq	r0, r0, ip, asr #1
  e8:	08000544 	stmdaeq	r0, {r2, r6, r8, sl}
  ec:	000000cc 	andeq	r0, r0, ip, asr #1
  f0:	08000610 	stmdaeq	r0, {r4, r9, sl}
  f4:	000001d8 	ldrdeq	r0, [r0], -r8
  f8:	080007e8 	stmdaeq	r0, {r3, r5, r6, r7, r8, r9, sl}
  fc:	00000016 	andeq	r0, r0, r6, lsl r0
 100:	00000000 	andeq	r0, r0, r0
 104:	00000094 	muleq	r0, r4, r0
 108:	00000000 	andeq	r0, r0, r0
 10c:	00000016 	andeq	r0, r0, r6, lsl r0
 110:	08000800 	stmdaeq	r0, {fp}
 114:	00000024 	andeq	r0, r0, r4, lsr #32
 118:	08000824 	stmdaeq	r0, {r2, r5, fp}
 11c:	00000024 	andeq	r0, r0, r4, lsr #32
 120:	08000848 	stmdaeq	r0, {r3, r6, fp}
 124:	00000024 	andeq	r0, r0, r4, lsr #32
 128:	0800086c 	stmdaeq	r0, {r2, r3, r5, r6, fp}
 12c:	00000024 	andeq	r0, r0, r4, lsr #32
 130:	08000890 	stmdaeq	r0, {r4, r7, fp}
 134:	00000024 	andeq	r0, r0, r4, lsr #32
 138:	080008b4 	stmdaeq	r0, {r2, r4, r5, r7, fp}
 13c:	000000a8 	andeq	r0, r0, r8, lsr #1
 140:	0800095c 	stmdaeq	r0, {r2, r3, r4, r6, r8, fp}
 144:	000000c4 	andeq	r0, r0, r4, asr #1
	...

Disassembly of section .debug_ranges:

00000000 <.debug_ranges>:
   0:	08000170 	stmdaeq	r0, {r4, r5, r6, r8}
   4:	0800017c 	stmdaeq	r0, {r2, r3, r4, r5, r6, r8}
   8:	0800017c 	stmdaeq	r0, {r2, r3, r4, r5, r6, r8}
   c:	08000188 	stmdaeq	r0, {r3, r7, r8}
  10:	08000188 	stmdaeq	r0, {r3, r7, r8}
  14:	08000194 	stmdaeq	r0, {r2, r4, r7, r8}
  18:	08000194 	stmdaeq	r0, {r2, r4, r7, r8}
  1c:	080001d4 	stmdaeq	r0, {r2, r4, r6, r7, r8}
  20:	080001d4 	stmdaeq	r0, {r2, r4, r6, r7, r8}
  24:	080001ec 	stmdaeq	r0, {r2, r3, r5, r6, r7, r8}
  28:	080001ec 	stmdaeq	r0, {r2, r3, r5, r6, r7, r8}
  2c:	08000260 	stmdaeq	r0, {r5, r6, r9}
	...
  38:	ffffffff 			; <UNDEFINED> instruction: 0xffffffff
  3c:	00000000 	andeq	r0, r0, r0
  40:	08000260 	stmdaeq	r0, {r5, r6, r9}
  44:	080002b0 	stmdaeq	r0, {r4, r5, r7, r9}
  48:	080002b0 	stmdaeq	r0, {r4, r5, r7, r9}
  4c:	080002b2 	stmdaeq	r0, {r1, r4, r5, r7, r9}
	...
  58:	080002b2 	stmdaeq	r0, {r1, r4, r5, r7, r9}
  5c:	08000378 	stmdaeq	r0, {r3, r4, r5, r6, r8, r9}
  60:	08000378 	stmdaeq	r0, {r3, r4, r5, r6, r8, r9}
  64:	08000476 	stmdaeq	r0, {r1, r2, r4, r5, r6, sl}
  68:	00000001 	andeq	r0, r0, r1
  6c:	00000001 	andeq	r0, r0, r1
  70:	00000001 	andeq	r0, r0, r1
  74:	00000001 	andeq	r0, r0, r1
  78:	00000001 	andeq	r0, r0, r1
  7c:	00000001 	andeq	r0, r0, r1
  80:	00000001 	andeq	r0, r0, r1
  84:	00000001 	andeq	r0, r0, r1
  88:	00000001 	andeq	r0, r0, r1
  8c:	00000001 	andeq	r0, r0, r1
  90:	00000001 	andeq	r0, r0, r1
  94:	00000001 	andeq	r0, r0, r1
  98:	00000001 	andeq	r0, r0, r1
  9c:	00000001 	andeq	r0, r0, r1
	...
  a8:	08000478 	stmdaeq	r0, {r3, r4, r5, r6, sl}
  ac:	08000544 	stmdaeq	r0, {r2, r6, r8, sl}
  b0:	08000544 	stmdaeq	r0, {r2, r6, r8, sl}
  b4:	08000610 	stmdaeq	r0, {r4, r9, sl}
  b8:	08000610 	stmdaeq	r0, {r4, r9, sl}
  bc:	080007e8 	stmdaeq	r0, {r3, r5, r6, r7, r8, r9, sl}
  c0:	080007e8 	stmdaeq	r0, {r3, r5, r6, r7, r8, r9, sl}
  c4:	080007fe 	stmdaeq	r0, {r1, r2, r3, r4, r5, r6, r7, r8, r9, sl}
  c8:	00000001 	andeq	r0, r0, r1
  cc:	00000001 	andeq	r0, r0, r1
  d0:	00000001 	andeq	r0, r0, r1
  d4:	00000001 	andeq	r0, r0, r1
  d8:	08000800 	stmdaeq	r0, {fp}
  dc:	08000824 	stmdaeq	r0, {r2, r5, fp}
  e0:	08000824 	stmdaeq	r0, {r2, r5, fp}
  e4:	08000848 	stmdaeq	r0, {r3, r6, fp}
  e8:	08000848 	stmdaeq	r0, {r3, r6, fp}
  ec:	0800086c 	stmdaeq	r0, {r2, r3, r5, r6, fp}
  f0:	0800086c 	stmdaeq	r0, {r2, r3, r5, r6, fp}
  f4:	08000890 	stmdaeq	r0, {r4, r7, fp}
  f8:	08000890 	stmdaeq	r0, {r4, r7, fp}
  fc:	080008b4 	stmdaeq	r0, {r2, r4, r5, r7, fp}
 100:	080008b4 	stmdaeq	r0, {r2, r4, r5, r7, fp}
 104:	0800095c 	stmdaeq	r0, {r2, r3, r4, r6, r8, fp}
 108:	0800095c 	stmdaeq	r0, {r2, r3, r4, r6, r8, fp}
 10c:	08000a20 	stmdaeq	r0, {r5, r9, fp}
	...

Disassembly of section .debug_macro:

00000000 <.debug_macro>:
   0:	00020004 	andeq	r0, r2, r4
   4:	07000000 	streq	r0, [r0, -r0]
   8:	00000000 	andeq	r0, r0, r0
   c:	03010003 	movweq	r0, #4099	; 0x1003
  10:	09050b18 	stmdbeq	r5, {r3, r4, r8, r9, fp}
  14:	00004bda 	ldrdeq	r4, [r0], -sl
  18:	05090e03 	streq	r0, [r9, #-3587]	; 0xfffff1fd
  1c:	00012009 	andeq	r2, r1, r9
  20:	070e0300 	streq	r0, [lr, -r0, lsl #6]
  24:	6ff10805 	svcvs	0x00f10805
  28:	0a030000 	beq	c0030 <_Min_Stack_Size+0xbfc30>
  2c:	0000070c 	andeq	r0, r0, ip, lsl #14
  30:	03040000 	movweq	r0, #16384	; 0x4000
  34:	08050d0b 	stmdaeq	r5, {r0, r1, r3, r8, sl, fp}
  38:	0000525c 	andeq	r5, r0, ip, asr r2
  3c:	050e0a03 	streq	r0, [lr, #-2563]	; 0xfffff5fd
  40:	0012ac08 	andseq	sl, r2, r8, lsl #24
  44:	0f0e0300 	svceq	0x000e0300
  48:	00000007 	andeq	r0, r0, r7
  4c:	00070400 	andeq	r0, r7, r0, lsl #8
  50:	04000000 	streq	r0, [r0], #-0
  54:	05100b03 	ldreq	r0, [r0, #-2819]	; 0xfffff4fd
  58:	0079d402 	rsbseq	sp, r9, r2, lsl #8
  5c:	0c040300 	stceq	3, cr0, [r4], {-0}
  60:	11050304 	tstne	r5, r4, lsl #6
  64:	00000007 	andeq	r0, r0, r7
  68:	00070400 	andeq	r0, r7, r0, lsl #8
  6c:	04000000 	streq	r0, [r0], #-0
  70:	00000007 	andeq	r0, r0, r7
  74:	00070400 	andeq	r0, r7, r0, lsl #8
  78:	03000000 	movweq	r0, #0
  7c:	00070510 	andeq	r0, r7, r0, lsl r5
  80:	04000000 	streq	r0, [r0], #-0
  84:	05061203 	streq	r1, [r6, #-515]	; 0xfffffdfd
  88:	0055800b 	subseq	r8, r5, fp
  8c:	0d0d0300 	stceq	3, cr0, [sp, #-0]
  90:	050e0304 	streq	r0, [lr, #-772]	; 0xfffffcfc
  94:	00000007 	andeq	r0, r0, r7
  98:	0f030400 	svceq	0x00030400
  9c:	2f140504 	svccs	0x00140504
  a0:	0300007e 	movweq	r0, #126	; 0x7e
  a4:	06051218 			; <UNDEFINED> instruction: 0x06051218
  a8:	00007091 	muleq	r0, r1, r0
  ac:	07020703 	streq	r0, [r2, -r3, lsl #14]
  b0:	00000000 	andeq	r0, r0, r0
  b4:	19030404 	stmdbne	r3, {r2, sl}
  b8:	00000703 	andeq	r0, r0, r3, lsl #14
  bc:	07040000 	streq	r0, [r4, -r0]
  c0:	00000000 	andeq	r0, r0, r0
  c4:	05019f03 	streq	r9, [r1, #-3843]	; 0xfffff0fd
  c8:	00000007 	andeq	r0, r0, r7
  cc:	00070400 	andeq	r0, r7, r0, lsl #8
  d0:	04000000 	streq	r0, [r0], #-0
  d4:	00000007 	andeq	r0, r0, r7
  d8:	13030400 	movwne	r0, #13312	; 0x3400
  dc:	ff290513 			; <UNDEFINED> instruction: 0xff290513
  e0:	03000085 	movweq	r0, #133	; 0x85
  e4:	0704052d 	streq	r0, [r4, -sp, lsr #10]
  e8:	00000000 	andeq	r0, r0, r0
  ec:	14140304 	ldrne	r0, [r4], #-772	; 0xfffffcfc
  f0:	25dc0205 	ldrbcs	r0, [ip, #517]	; 0x205
  f4:	03040000 	movweq	r0, #16384	; 0x4000
  f8:	00071516 	andeq	r1, r7, r6, lsl r5
  fc:	04000000 	streq	r0, [r0], #-0
 100:	00000007 	andeq	r0, r0, r7
 104:	0f030400 	svceq	0x00030400
 108:	17090316 	smladne	r9, r6, r3, r0
 10c:	07b90a05 	ldreq	r0, [r9, r5, lsl #20]!
 110:	0d030000 	stceq	0, cr0, [r3, #-0]
 114:	00000718 	andeq	r0, r0, r8, lsl r7
 118:	03040000 	movweq	r0, #16384	; 0x4000
 11c:	0007080e 	andeq	r0, r7, lr, lsl #16
 120:	04000000 	streq	r0, [r0], #-0
 124:	00000007 	andeq	r0, r0, r7
 128:	0d050400 	cfstrseq	mvf0, [r5, #-0]
 12c:	000007b0 			; <UNDEFINED> instruction: 0x000007b0
 130:	00000704 	andeq	r0, r0, r4, lsl #14
 134:	07040000 	streq	r0, [r4, -r0]
 138:	00000000 	andeq	r0, r0, r0
 13c:	0a190304 	beq	640d54 <_Min_Stack_Size+0x640954>
 140:	1a810905 	bne	fe04255c <_estack+0xde03fd5c>
 144:	0f030000 	svceq	0x00030000
 148:	5207040b 	andpl	r0, r7, #184549376	; 0xb000000
 14c:	04000001 	streq	r0, [r0], #-1
 150:	00040004 	andeq	r0, r4, r4
 154:	06320500 	ldrteq	r0, [r2], -r0, lsl #10
 158:	05000032 	streq	r0, [r0, #-50]	; 0xffffffce
 15c:	0052e233 	subseq	lr, r2, r3, lsr r2
 160:	4d340500 	cfldr32mi	mvfx0, [r4, #-0]
 164:	0500006c 	streq	r0, [r0, #-108]	; 0xffffff94
 168:	004e0935 	subeq	r0, lr, r5, lsr r9
 16c:	e7360500 	ldr	r0, [r6, -r0, lsl #10]!
 170:	0500005e 	streq	r0, [r0, #-94]	; 0xffffffa2
 174:	0032b537 	eorseq	fp, r2, r7, lsr r5
 178:	d7380500 	ldrle	r0, [r8, -r0, lsl #10]!
 17c:	05000053 	streq	r0, [r0, #-83]	; 0xffffffad
 180:	007b0f39 	rsbseq	r0, fp, r9, lsr pc
 184:	793a0500 	ldmdbvc	sl!, {r8, sl}
 188:	05000088 	streq	r0, [r0, #-136]	; 0xffffff78
 18c:	0019863b 	andseq	r8, r9, fp, lsr r6
 190:	1f3c0500 	svcne	0x003c0500
 194:	0500000d 	streq	r0, [r0, #-13]
 198:	0057fe3d 	subseq	pc, r7, sp, lsr lr	; <UNPREDICTABLE>
 19c:	263e0500 	ldrtcs	r0, [lr], -r0, lsl #10
 1a0:	0500000e 	streq	r0, [r0, #-14]
 1a4:	0087473f 	addeq	r4, r7, pc, lsr r7
 1a8:	db400500 	blle	10015b0 <_Min_Stack_Size+0x10011b0>
 1ac:	0500000f 	streq	r0, [r0, #-15]
 1b0:	005aaf41 	subseq	sl, sl, r1, asr #30
 1b4:	2f460500 	svccs	0x00460500
 1b8:	0500004f 	streq	r0, [r0, #-79]	; 0xffffffb1
 1bc:	00156647 	andseq	r6, r5, r7, asr #12
 1c0:	43480500 	movtmi	r0, #34048	; 0x8500
 1c4:	05000026 	streq	r0, [r0, #-38]	; 0xffffffda
 1c8:	0067ee49 	rsbeq	lr, r7, r9, asr #28
 1cc:	224c0500 	subcs	r0, ip, #0, 10
 1d0:	0500007f 	streq	r0, [r0, #-127]	; 0xffffff81
 1d4:	0077b74d 	rsbseq	fp, r7, sp, asr #14
 1d8:	ca4e0500 	bgt	13815e0 <_Min_Stack_Size+0x13811e0>
 1dc:	05000047 	streq	r0, [r0, #-71]	; 0xffffffb9
 1e0:	001e664f 	andseq	r6, lr, pc, asr #12
 1e4:	e9530500 	ldmdb	r3, {r8, sl}^
 1e8:	0500008c 	streq	r0, [r0, #-140]	; 0xffffff74
 1ec:	001f1154 	andseq	r1, pc, r4, asr r1	; <UNPREDICTABLE>
 1f0:	08550500 	ldmdaeq	r5, {r8, sl}^
 1f4:	05000065 	streq	r0, [r0, #-101]	; 0xffffff9b
 1f8:	0014bb56 	andseq	fp, r4, r6, asr fp
 1fc:	865a0500 	ldrbhi	r0, [sl], -r0, lsl #10
 200:	05000028 	streq	r0, [r0, #-40]	; 0xffffffd8
 204:	0018315b 	andseq	r3, r8, fp, asr r1
 208:	8d5c0500 	cfldr64hi	mvdx0, [ip, #-0]
 20c:	05000024 	streq	r0, [r0, #-36]	; 0xffffffdc
 210:	0048525d 	subeq	r5, r8, sp, asr r2
 214:	09610500 	stmdbeq	r1!, {r8, sl}^
 218:	0500008a 	streq	r0, [r0, #-138]	; 0xffffff76
 21c:	00826762 	addeq	r6, r2, r2, ror #14
 220:	78630500 	stmdavc	r3!, {r8, sl}^
 224:	05000052 	streq	r0, [r0, #-82]	; 0xffffffae
 228:	004c9064 	subeq	r9, ip, r4, rrx
 22c:	36680500 	strbtcc	r0, [r8], -r0, lsl #10
 230:	05000062 	streq	r0, [r0, #-98]	; 0xffffff9e
 234:	005bc369 	subseq	ip, fp, r9, ror #6
 238:	b56a0500 	strblt	r0, [sl, #-1280]!	; 0xfffffb00
 23c:	05000081 	streq	r0, [r0, #-129]	; 0xffffff7f
 240:	005e576b 	subseq	r5, lr, fp, ror #14
 244:	946f0500 	strbtls	r0, [pc], #-1280	; 24c <_Min_Heap_Size+0x4c>
 248:	0500002d 	streq	r0, [r0, #-45]	; 0xffffffd3
 24c:	0005b770 	andeq	fp, r5, r0, ror r7
 250:	df710500 	svcle	0x00710500
 254:	05000053 	streq	r0, [r0, #-83]	; 0xffffffad
 258:	0088ce72 	addeq	ip, r8, r2, ror lr
 25c:	0f760500 	svceq	0x00760500
 260:	05000077 	streq	r0, [r0, #-119]	; 0xffffff89
 264:	00339a77 	eorseq	r9, r3, r7, ror sl
 268:	a3780500 	cmnge	r8, #0, 10
 26c:	05000049 	streq	r0, [r0, #-73]	; 0xffffffb7
 270:	0024d279 	eoreq	sp, r4, r9, ror r2
 274:	d37d0500 	cmnle	sp, #0, 10
 278:	05000056 	streq	r0, [r0, #-86]	; 0xffffffaa
 27c:	0065da7e 	rsbeq	sp, r5, lr, ror sl
 280:	e07f0500 	rsbs	r0, pc, r0, lsl #10
 284:	0500002e 	streq	r0, [r0, #-46]	; 0xffffffd2
 288:	5d060180 	stfpls	f0, [r6, #-512]	; 0xfffffe00
 28c:	84050000 	strhi	r0, [r5], #-0
 290:	00805901 	addeq	r5, r0, r1, lsl #18
 294:	01850500 	orreq	r0, r5, r0, lsl #10
 298:	00000b92 	muleq	r0, r2, fp
 29c:	da018605 	ble	61ab8 <_Min_Stack_Size+0x616b8>
 2a0:	05000002 	streq	r0, [r0, #-2]
 2a4:	87670187 	strbhi	r0, [r7, -r7, lsl #3]!
 2a8:	8b050000 	blhi	1402b0 <_Min_Stack_Size+0x13feb0>
 2ac:	0082bc01 	addeq	fp, r2, r1, lsl #24
 2b0:	018c0500 	orreq	r0, ip, r0, lsl #10
 2b4:	00000d29 	andeq	r0, r0, r9, lsr #26
 2b8:	93018d05 	movwls	r8, #7429	; 0x1d05
 2bc:	05000004 	streq	r0, [r0, #-4]
 2c0:	49f2018e 	ldmibmi	r2!, {r1, r2, r3, r7, r8}^
 2c4:	92050000 	andls	r0, r5, #0
 2c8:	00310a01 	eorseq	r0, r1, r1, lsl #20
 2cc:	01930500 	orrseq	r0, r3, r0, lsl #10
 2d0:	000069f6 	strdeq	r6, [r0], -r6	; <UNPREDICTABLE>
 2d4:	a4019405 	strge	r9, [r1], #-1029	; 0xfffffbfb
 2d8:	0500000e 	streq	r0, [r0, #-14]
 2dc:	25920195 	ldrcs	r0, [r2, #405]	; 0x195
 2e0:	99050000 	stmdbls	r5, {}	; <UNPREDICTABLE>
 2e4:	00119501 	andseq	r9, r1, r1, lsl #10
 2e8:	019a0500 	orrseq	r0, sl, r0, lsl #10
 2ec:	00005536 	andeq	r5, r0, r6, lsr r5
 2f0:	67019b05 	strvs	r9, [r1, -r5, lsl #22]
 2f4:	05000061 	streq	r0, [r0, #-97]	; 0xffffff9f
 2f8:	6f64019c 	svcvs	0x0064019c
 2fc:	a0050000 	andge	r0, r5, r0
 300:	0087ac01 	addeq	sl, r7, r1, lsl #24
 304:	01a10500 			; <UNDEFINED> instruction: 0x01a10500
 308:	00003ef6 	strdeq	r3, [r0], -r6
 30c:	ae01a205 	cdpge	2, 0, cr10, cr1, cr5, {0}
 310:	05000030 	streq	r0, [r0, #-48]	; 0xffffffd0
 314:	8d4001a3 	stfhie	f0, [r0, #-652]	; 0xfffffd74
 318:	a7050000 	strge	r0, [r5, -r0]
 31c:	00581501 	subseq	r1, r8, r1, lsl #10
 320:	01a80500 			; <UNDEFINED> instruction: 0x01a80500
 324:	00001721 	andeq	r1, r0, r1, lsr #14
 328:	4701a905 	strmi	sl, [r1, -r5, lsl #18]
 32c:	05000036 	streq	r0, [r0, #-54]	; 0xffffffca
 330:	2f3a01aa 	svccs	0x003a01aa
 334:	ae050000 	cdpge	0, 0, cr0, cr5, cr0, {0}
 338:	00372e01 	eorseq	r2, r7, r1, lsl #28
 33c:	01af0500 			; <UNDEFINED> instruction: 0x01af0500
 340:	00000d9b 	muleq	r0, fp, sp
 344:	df01b005 	svcle	0x0001b005
 348:	05000011 	streq	r0, [r0, #-17]	; 0xffffffef
 34c:	008b01b1 			; <UNDEFINED> instruction: 0x008b01b1
 350:	b6050000 	strlt	r0, [r5], -r0
 354:	00319601 	eorseq	r9, r1, r1, lsl #12
 358:	01b70500 			; <UNDEFINED> instruction: 0x01b70500
 35c:	00001eea 	andeq	r1, r0, sl, ror #29
 360:	9a01b805 	bls	6e37c <_Min_Stack_Size+0x6df7c>
 364:	0500006b 	streq	r0, [r0, #-107]	; 0xffffff95
 368:	15d801bc 	ldrbne	r0, [r8, #444]	; 0x1bc
 36c:	bd050000 	stclt	0, cr0, [r5, #-0]
 370:	0036aa01 	eorseq	sl, r6, r1, lsl #20
 374:	00040000 	andeq	r0, r4, r0
 378:	00066902 	andeq	r6, r6, r2, lsl #18
 37c:	00000700 	andeq	r0, r0, r0, lsl #14
 380:	00030000 	andeq	r0, r3, r0
 384:	0a080301 	beq	200f90 <_Min_Stack_Size+0x200b90>
 388:	4bda0905 	blmi	ff6827a4 <_estack+0xdf67ffa4>
 38c:	0e030000 	cdpeq	0, 0, cr0, cr3, cr0, {0}
 390:	20090509 	andcs	r0, r9, r9, lsl #10
 394:	03000001 	movweq	r0, #1
 398:	0805070e 	stmdaeq	r5, {r1, r2, r3, r8, r9, sl}
 39c:	00006ff1 	strdeq	r6, [r0], -r1
 3a0:	070b0a03 	streq	r0, [fp, -r3, lsl #20]
 3a4:	00000000 	andeq	r0, r0, r0
 3a8:	0c0b0304 	stceq	3, cr0, [fp], {4}
 3ac:	525c0805 	subspl	r0, ip, #327680	; 0x50000
 3b0:	0a030000 	beq	c03b8 <_Min_Stack_Size+0xbffb8>
 3b4:	ac08050d 	cfstr32ge	mvfx0, [r8], {13}
 3b8:	03000012 	movweq	r0, #18
 3bc:	00070e0e 	andeq	r0, r7, lr, lsl #28
 3c0:	04000000 	streq	r0, [r0], #-0
 3c4:	00000007 	andeq	r0, r0, r7
 3c8:	0b030400 	bleq	c13d0 <_Min_Stack_Size+0xc0fd0>
 3cc:	d402050f 	strle	r0, [r2], #-1295	; 0xfffffaf1
 3d0:	03000079 	movweq	r0, #121	; 0x79
 3d4:	03040b04 	movweq	r0, #19204	; 0x4b04
 3d8:	00071005 	andeq	r1, r7, r5
 3dc:	04000000 	streq	r0, [r0], #-0
 3e0:	00000007 	andeq	r0, r0, r7
 3e4:	00070400 	andeq	r0, r7, r0, lsl #8
 3e8:	04000000 	streq	r0, [r0], #-0
 3ec:	00000007 	andeq	r0, r0, r7
 3f0:	05100300 	ldreq	r0, [r0, #-768]	; 0xfffffd00
 3f4:	00000007 	andeq	r0, r0, r7
 3f8:	12030400 	andne	r0, r3, #0, 8
 3fc:	800b0506 	andhi	r0, fp, r6, lsl #10
 400:	03000055 	movweq	r0, #85	; 0x55
 404:	03040c0d 	movweq	r0, #19469	; 0x4c0d
 408:	0007050e 	andeq	r0, r7, lr, lsl #10
 40c:	04000000 	streq	r0, [r0], #-0
 410:	05040f03 	streq	r0, [r4, #-3843]	; 0xfffff0fd
 414:	007e2f14 	rsbseq	r2, lr, r4, lsl pc
 418:	11180300 	tstne	r8, r0, lsl #6
 41c:	70910605 	addsvc	r0, r1, r5, lsl #12
 420:	07030000 	streq	r0, [r3, -r0]
 424:	00000702 	andeq	r0, r0, r2, lsl #14
 428:	04040000 	streq	r0, [r4], #-0
 42c:	07031903 	streq	r1, [r3, -r3, lsl #18]
 430:	00000000 	andeq	r0, r0, r0
 434:	00000704 	andeq	r0, r0, r4, lsl #14
 438:	9f030000 	svcls	0x00030000
 43c:	00070501 	andeq	r0, r7, r1, lsl #10
 440:	04000000 	streq	r0, [r0], #-0
 444:	00000007 	andeq	r0, r0, r7
 448:	00070400 	andeq	r0, r7, r0, lsl #8
 44c:	04000000 	streq	r0, [r0], #-0
 450:	05121303 	ldreq	r1, [r2, #-771]	; 0xfffffcfd
 454:	0085ff29 	addeq	pc, r5, r9, lsr #30
 458:	052d0300 	streq	r0, [sp, #-768]!	; 0xfffffd00
 45c:	00000704 	andeq	r0, r0, r4, lsl #14
 460:	03040000 	movweq	r0, #16384	; 0x4000
 464:	02051314 	andeq	r1, r5, #20, 6	; 0x50000000
 468:	000025dc 	ldrdeq	r2, [r0], -ip
 46c:	14160304 	ldrne	r0, [r6], #-772	; 0xfffffcfc
 470:	00000007 	andeq	r0, r0, r7
 474:	00070400 	andeq	r0, r7, r0, lsl #8
 478:	04000000 	streq	r0, [r0], #-0
 47c:	03150f03 	tsteq	r5, #3, 30
 480:	0a051609 	beq	145cac <_Min_Stack_Size+0x1458ac>
 484:	000007b9 			; <UNDEFINED> instruction: 0x000007b9
 488:	07170d03 	ldreq	r0, [r7, -r3, lsl #26]
 48c:	00000000 	andeq	r0, r0, r0
 490:	080e0304 	stmdaeq	lr, {r2, r8, r9}
 494:	00000007 	andeq	r0, r0, r7
 498:	00070400 	andeq	r0, r7, r0, lsl #8
 49c:	04000000 	streq	r0, [r0], #-0
 4a0:	07b00d05 	ldreq	r0, [r0, r5, lsl #26]!
 4a4:	07040000 	streq	r0, [r4, -r0]
 4a8:	00000000 	andeq	r0, r0, r0
 4ac:	00000704 	andeq	r0, r0, r4, lsl #14
 4b0:	04040000 	streq	r0, [r4], #-0
 4b4:	02000400 	andeq	r0, r0, #0, 8
 4b8:	00000d08 	andeq	r0, r0, r8, lsl #26
 4bc:	00000007 	andeq	r0, r0, r7
 4c0:	01000300 	mrseq	r0, LR_irq
 4c4:	050b0803 	streq	r0, [fp, #-2051]	; 0xfffff7fd
 4c8:	001a8109 	andseq	r8, sl, r9, lsl #2
 4cc:	090e0300 	stmdbeq	lr, {r8, r9}
 4d0:	01200905 			; <UNDEFINED> instruction: 0x01200905
 4d4:	0e030000 	cdpeq	0, 0, cr0, cr3, cr0, {0}
 4d8:	f1080507 			; <UNDEFINED> instruction: 0xf1080507
 4dc:	0300006f 	movweq	r0, #111	; 0x6f
 4e0:	00070c0a 	andeq	r0, r7, sl, lsl #24
 4e4:	04000000 	streq	r0, [r0], #-0
 4e8:	050d0b03 	streq	r0, [sp, #-2819]	; 0xfffff4fd
 4ec:	00525c08 	subseq	r5, r2, r8, lsl #24
 4f0:	0e0a0300 	cdpeq	3, 0, cr0, cr10, cr0, {0}
 4f4:	12ac0805 	adcne	r0, ip, #327680	; 0x50000
 4f8:	0e030000 	cdpeq	0, 0, cr0, cr3, cr0, {0}
 4fc:	0000070f 	andeq	r0, r0, pc, lsl #14
 500:	07040000 	streq	r0, [r4, -r0]
 504:	00000000 	andeq	r0, r0, r0
 508:	100b0304 	andne	r0, fp, r4, lsl #6
 50c:	79d40205 	ldmibvc	r4, {r0, r2, r9}^
 510:	04030000 	streq	r0, [r3], #-0
 514:	0503040c 	streq	r0, [r3, #-1036]	; 0xfffffbf4
 518:	00000711 	andeq	r0, r0, r1, lsl r7
 51c:	07040000 	streq	r0, [r4, -r0]
 520:	00000000 	andeq	r0, r0, r0
 524:	00000704 	andeq	r0, r0, r4, lsl #14
 528:	07040000 	streq	r0, [r4, -r0]
 52c:	00000000 	andeq	r0, r0, r0
 530:	07051003 	streq	r1, [r5, -r3]
 534:	00000000 	andeq	r0, r0, r0
 538:	06120304 	ldreq	r0, [r2], -r4, lsl #6
 53c:	55800b05 	strpl	r0, [r0, #2821]	; 0xb05
 540:	0d030000 	stceq	0, cr0, [r3, #-0]
 544:	0e03040d 	cdpeq	4, 0, cr0, cr3, cr13, {0}
 548:	00000705 	andeq	r0, r0, r5, lsl #14
 54c:	03040000 	movweq	r0, #16384	; 0x4000
 550:	1405040f 	strne	r0, [r5], #-1039	; 0xfffffbf1
 554:	00007e2f 	andeq	r7, r0, pc, lsr #28
 558:	05121803 	ldreq	r1, [r2, #-2051]	; 0xfffff7fd
 55c:	00709106 	rsbseq	r9, r0, r6, lsl #2
 560:	02070300 	andeq	r0, r7, #0, 6
 564:	00000007 	andeq	r0, r0, r7
 568:	03040400 	movweq	r0, #17408	; 0x4400
 56c:	00070319 	andeq	r0, r7, r9, lsl r3
 570:	04000000 	streq	r0, [r0], #-0
 574:	00000007 	andeq	r0, r0, r7
 578:	019f0300 	orrseq	r0, pc, r0, lsl #6
 57c:	00000705 	andeq	r0, r0, r5, lsl #14
 580:	07040000 	streq	r0, [r4, -r0]
 584:	00000000 	andeq	r0, r0, r0
 588:	00000704 	andeq	r0, r0, r4, lsl #14
 58c:	03040000 	movweq	r0, #16384	; 0x4000
 590:	29051313 	stmdbcs	r5, {r0, r1, r4, r8, r9, ip}
 594:	000085ff 	strdeq	r8, [r0], -pc	; <UNPREDICTABLE>
 598:	04052d03 	streq	r2, [r5], #-3331	; 0xfffff2fd
 59c:	00000007 	andeq	r0, r0, r7
 5a0:	14030400 	strne	r0, [r3], #-1024	; 0xfffffc00
 5a4:	dc020514 	cfstr32le	mvfx0, [r2], {20}
 5a8:	04000025 	streq	r0, [r0], #-37	; 0xffffffdb
 5ac:	07151603 	ldreq	r1, [r5, -r3, lsl #12]
 5b0:	00000000 	andeq	r0, r0, r0
 5b4:	00000704 	andeq	r0, r0, r4, lsl #14
 5b8:	03040000 	movweq	r0, #16384	; 0x4000
 5bc:	0903160f 	stmdbeq	r3, {r0, r1, r2, r3, r9, sl, ip}
 5c0:	b90a0517 	stmdblt	sl, {r0, r1, r2, r4, r8, sl}
 5c4:	03000007 	movweq	r0, #7
 5c8:	0007180d 	andeq	r1, r7, sp, lsl #16
 5cc:	04000000 	streq	r0, [r0], #-0
 5d0:	07080e03 	streq	r0, [r8, -r3, lsl #28]
 5d4:	00000000 	andeq	r0, r0, r0
 5d8:	00000704 	andeq	r0, r0, r4, lsl #14
 5dc:	05040000 	streq	r0, [r4, #-0]
 5e0:	0007b00d 	andeq	fp, r7, sp
 5e4:	00070400 	andeq	r0, r7, r0, lsl #8
 5e8:	04000000 	streq	r0, [r0], #-0
 5ec:	070a0f03 	streq	r0, [sl, -r3, lsl #30]
 5f0:	00000603 	andeq	r0, r0, r3, lsl #12
 5f4:	01520704 	cmpeq	r2, r4, lsl #14
 5f8:	05040000 	streq	r0, [r4, #-0]
 5fc:	008fca14 	addeq	ip, pc, r4, lsl sl	; <UNPREDICTABLE>
 600:	04000400 	streq	r0, [r0], #-1024	; 0xfffffc00
 604:	09050000 	stmdbeq	r5, {}	; <UNPREDICTABLE>
 608:	00004bda 	ldrdeq	r4, [r0], -sl
 60c:	15f82405 	ldrbne	r2, [r8, #1029]!	; 0x405
 610:	25050000 	strcs	r0, [r5, #-0]
 614:	00000eee 	andeq	r0, r0, lr, ror #29
 618:	4cd52605 	ldclmi	6, cr2, [r5], {5}
 61c:	27050000 	strcs	r0, [r5, -r0]
 620:	000025ec 	andeq	r2, r0, ip, ror #11
 624:	0adf2805 	beq	ff7ca640 <_estack+0xdf7c7e40>
 628:	29050000 	stmdbcs	r5, {}	; <UNPREDICTABLE>
 62c:	00006663 	andeq	r6, r0, r3, ror #12
 630:	67742a05 	ldrbvs	r2, [r4, -r5, lsl #20]!
 634:	2b050000 	blcs	14063c <_Min_Stack_Size+0x14023c>
 638:	0000702d 	andeq	r7, r0, sp, lsr #32
 63c:	10932c05 	addsne	r2, r3, r5, lsl #24
 640:	2d050000 	stccs	0, cr0, [r5, #-0]
 644:	000043d3 	ldrdeq	r4, [r0], -r3
 648:	4dc02e05 	stclmi	14, cr2, [r0, #20]
 64c:	2f050000 	svccs	0x00050000
 650:	00008881 	andeq	r8, r0, r1, lsl #17
 654:	1ecb3005 	cdpne	0, 12, cr3, cr11, cr5, {0}
 658:	31050000 	mrscc	r0, (UNDEF: 5)
 65c:	00004b68 	andeq	r4, r0, r8, ror #22
 660:	5ab93205 	bpl	fee4ce7c <_estack+0xdee4a67c>
 664:	33050000 	movwcc	r0, #20480	; 0x5000
 668:	00007a29 	andeq	r7, r0, r9, lsr #20
 66c:	0b0a3405 	bleq	28d688 <_Min_Stack_Size+0x28d288>
 670:	36050000 	strcc	r0, [r5], -r0
 674:	000072f8 	strdeq	r7, [r0], -r8
 678:	20504505 	subscs	r4, r0, r5, lsl #10
 67c:	46050000 	strmi	r0, [r5], -r0
 680:	000019b7 			; <UNDEFINED> instruction: 0x000019b7
 684:	57184705 	ldrpl	r4, [r8, -r5, lsl #14]
 688:	48050000 	stmdami	r5, {}	; <UNPREDICTABLE>
 68c:	00000ff4 	strdeq	r0, [r0], -r4
 690:	71d04905 	bicsvc	r4, r0, r5, lsl #18
 694:	4a050000 	bmi	14069c <_Min_Stack_Size+0x14029c>
 698:	000086d7 	ldrdeq	r8, [r0], -r7
 69c:	7df34b05 			; <UNDEFINED> instruction: 0x7df34b05
 6a0:	4c050000 	stcmi	0, cr0, [r5], {-0}
 6a4:	000061fc 	strdeq	r6, [r0], -ip
 6a8:	810c4d05 	tsthi	ip, r5, lsl #26
 6ac:	57050000 	strpl	r0, [r5, -r0]
 6b0:	000060dd 	ldrdeq	r6, [r0], -sp
 6b4:	85e55805 	strbhi	r5, [r5, #2053]!	; 0x805
 6b8:	59050000 	stmdbpl	r5, {}	; <UNPREDICTABLE>
 6bc:	00003e27 	andeq	r3, r0, r7, lsr #28
 6c0:	23575d05 	cmpcs	r7, #320	; 0x140
 6c4:	5e050000 	cdppl	0, 0, cr0, cr5, cr0, {0}
 6c8:	00008583 	andeq	r8, r0, r3, lsl #11
 6cc:	7ac56205 	bvc	ff158ee8 <_estack+0xdf1566e8>
 6d0:	63050000 	movwvs	r0, #20480	; 0x5000
 6d4:	00000f0c 	andeq	r0, r0, ip, lsl #30
	...

Disassembly of section .debug_line:

00000000 <.debug_line>:
       0:	000005e1 	andeq	r0, r0, r1, ror #11
       4:	05610002 	strbeq	r0, [r1, #-2]!
       8:	01020000 	mrseq	r0, (UNDEF: 2)
       c:	000d0efb 	strdeq	r0, [sp], -fp
      10:	01010101 	tsteq	r1, r1, lsl #2
      14:	01000000 	mrseq	r0, (UNDEF: 0)
      18:	2e010000 	cdpcs	0, 0, cr0, cr1, cr0, {0}
      1c:	72532f2e 	subsvc	r2, r3, #46, 30	; 0xb8
      20:	3a630063 	bcc	18c01b4 <_Min_Stack_Size+0x18bfdb4>
      24:	5c74735c 	ldclpl	3, cr7, [r4], #-368	; 0xfffffe90
      28:	336d7473 	cmncc	sp, #1929379840	; 0x73000000
      2c:	62756332 	rsbsvs	r6, r5, #-939524096	; 0xc8000000
      30:	65646965 	strbvs	r6, [r4, #-2405]!	; 0xfffff69b
      34:	342e315f 	strtcc	r3, [lr], #-351	; 0xfffffea1
      38:	735c302e 	cmpvc	ip, #46	; 0x2e
      3c:	32336d74 	eorscc	r6, r3, #116, 26	; 0x1d00
      40:	65627563 	strbvs	r7, [r2, #-1379]!	; 0xfffffa9d
      44:	5c656469 	cfstrdpl	mvd6, [r5], #-420	; 0xfffffe5c
      48:	67756c70 			; <UNDEFINED> instruction: 0x67756c70
      4c:	5c736e69 	ldclpl	14, cr6, [r3], #-420	; 0xfffffe5c
      50:	2e6d6f63 	cdpcs	15, 6, cr6, cr13, cr3, {3}
      54:	732e7473 			; <UNDEFINED> instruction: 0x732e7473
      58:	32336d74 	eorscc	r6, r3, #116, 26	; 0x1d00
      5c:	65627563 	strbvs	r7, [r2, #-1379]!	; 0xfffffa9d
      60:	6564692e 	strbvs	r6, [r4, #-2350]!	; 0xfffff6d2
      64:	75636d2e 	strbvc	r6, [r3, #-3374]!	; 0xfffff2d2
      68:	7478652e 	ldrbtvc	r6, [r8], #-1326	; 0xfffffad2
      6c:	616e7265 	cmnvs	lr, r5, ror #4
      70:	6f6f746c 	svcvs	0x006f746c
      74:	672e736c 	strvs	r7, [lr, -ip, ror #6]!
      78:	742d756e 	strtvc	r7, [sp], #-1390	; 0xfffffa92
      7c:	736c6f6f 	cmnvc	ip, #444	; 0x1bc
      80:	726f662d 	rsbvc	r6, pc, #47185920	; 0x2d00000
      84:	6d74732d 	ldclvs	3, cr7, [r4, #-180]!	; 0xffffff4c
      88:	372e3233 			; <UNDEFINED> instruction: 0x372e3233
      8c:	3130322d 	teqcc	r0, sp, lsr #4
      90:	32712d38 	rsbscc	r2, r1, #56, 26	; 0xe00
      94:	6470752d 	ldrbtvs	r7, [r0], #-1325	; 0xfffffad3
      98:	2e657461 	cdpcs	4, 6, cr7, cr5, cr1, {3}
      9c:	336e6977 	cmncc	lr, #1949696	; 0x1dc000
      a0:	2e315f32 	mrccs	15, 1, r5, cr1, cr2, {1}
      a4:	2e302e34 	mrccs	14, 1, r2, cr0, cr4, {1}
      a8:	30323032 	eorscc	r3, r2, r2, lsr r0
      ac:	38303730 	ldmdacc	r0!, {r4, r5, r8, r9, sl, ip, sp}
      b0:	38303231 	ldmdacc	r0!, {r0, r4, r5, r9, ip, sp}
      b4:	6f6f745c 	svcvs	0x006f745c
      b8:	615c736c 	cmpvs	ip, ip, ror #6
      bc:	6e2d6d72 	mcrvs	13, 1, r6, cr13, cr2, {3}
      c0:	2d656e6f 	stclcs	14, cr6, [r5, #-444]!	; 0xfffffe44
      c4:	69626165 	stmdbvs	r2!, {r0, r2, r5, r6, r8, sp, lr}^
      c8:	636e695c 	cmnvs	lr, #92, 18	; 0x170000
      cc:	6564756c 	strbvs	r7, [r4, #-1388]!	; 0xfffffa94
      d0:	63616d5c 	cmnvs	r1, #92, 26	; 0x1700
      d4:	656e6968 	strbvs	r6, [lr, #-2408]!	; 0xfffff698
      d8:	5c3a6300 	ldcpl	3, cr6, [sl], #-0
      dc:	735c7473 	cmpvc	ip, #1929379840	; 0x73000000
      e0:	32336d74 	eorscc	r6, r3, #116, 26	; 0x1d00
      e4:	65627563 	strbvs	r7, [r2, #-1379]!	; 0xfffffa9d
      e8:	5f656469 	svcpl	0x00656469
      ec:	2e342e31 	mrccs	14, 1, r2, cr4, cr1, {1}
      f0:	74735c30 	ldrbtvc	r5, [r3], #-3120	; 0xfffff3d0
      f4:	6332336d 	teqvs	r2, #-1275068415	; 0xb4000001
      f8:	69656275 	stmdbvs	r5!, {r0, r2, r4, r5, r6, r9, sp, lr}^
      fc:	705c6564 	subsvc	r6, ip, r4, ror #10
     100:	6967756c 	stmdbvs	r7!, {r2, r3, r5, r6, r8, sl, ip, sp, lr}^
     104:	635c736e 	cmpvs	ip, #-1207959551	; 0xb8000001
     108:	732e6d6f 			; <UNDEFINED> instruction: 0x732e6d6f
     10c:	74732e74 	ldrbtvc	r2, [r3], #-3700	; 0xfffff18c
     110:	6332336d 	teqvs	r2, #-1275068415	; 0xb4000001
     114:	2e656275 	mcrcs	2, 3, r6, cr5, cr5, {3}
     118:	2e656469 	cdpcs	4, 6, cr6, cr5, cr9, {3}
     11c:	2e75636d 	cdpcs	3, 7, cr6, cr5, cr13, {3}
     120:	65747865 	ldrbvs	r7, [r4, #-2149]!	; 0xfffff79b
     124:	6c616e72 	stclvs	14, cr6, [r1], #-456	; 0xfffffe38
     128:	6c6f6f74 	stclvs	15, cr6, [pc], #-464	; ffffff60 <_estack+0xdfffd760>
     12c:	6e672e73 	mcrvs	14, 3, r2, cr7, cr3, {3}
     130:	6f742d75 	svcvs	0x00742d75
     134:	2d736c6f 	ldclcs	12, cr6, [r3, #-444]!	; 0xfffffe44
     138:	2d726f66 	ldclcs	15, cr6, [r2, #-408]!	; 0xfffffe68
     13c:	336d7473 	cmncc	sp, #1929379840	; 0x73000000
     140:	2d372e32 	ldccs	14, cr2, [r7, #-200]!	; 0xffffff38
     144:	38313032 	ldmdacc	r1!, {r1, r4, r5, ip, sp}
     148:	2d32712d 	ldfcss	f7, [r2, #-180]!	; 0xffffff4c
     14c:	61647075 	smcvs	18181	; 0x4705
     150:	772e6574 			; <UNDEFINED> instruction: 0x772e6574
     154:	32336e69 	eorscc	r6, r3, #1680	; 0x690
     158:	342e315f 	strtcc	r3, [lr], #-351	; 0xfffffea1
     15c:	322e302e 	eorcc	r3, lr, #46	; 0x2e
     160:	30303230 	eorscc	r3, r0, r0, lsr r2
     164:	31383037 	teqcc	r8, r7, lsr r0
     168:	5c383032 	ldcpl	0, cr3, [r8], #-200	; 0xffffff38
     16c:	6c6f6f74 	stclvs	15, cr6, [pc], #-464	; ffffffa4 <_estack+0xdfffd7a4>
     170:	72615c73 	rsbvc	r5, r1, #29440	; 0x7300
     174:	6f6e2d6d 	svcvs	0x006e2d6d
     178:	652d656e 	strvs	r6, [sp, #-1390]!	; 0xfffffa92
     17c:	5c696261 	sfmpl	f6, 2, [r9], #-388	; 0xfffffe7c
     180:	6c636e69 	stclvs	14, cr6, [r3], #-420	; 0xfffffe5c
     184:	5c656475 	cfstrdpl	mvd6, [r5], #-468	; 0xfffffe2c
     188:	00737973 	rsbseq	r7, r3, r3, ror r9
     18c:	735c3a63 	cmpvc	ip, #405504	; 0x63000
     190:	74735c74 	ldrbtvc	r5, [r3], #-3188	; 0xfffff38c
     194:	6332336d 	teqvs	r2, #-1275068415	; 0xb4000001
     198:	69656275 	stmdbvs	r5!, {r0, r2, r4, r5, r6, r9, sp, lr}^
     19c:	315f6564 	cmpcc	pc, r4, ror #10
     1a0:	302e342e 	eorcc	r3, lr, lr, lsr #8
     1a4:	6d74735c 	ldclvs	3, cr7, [r4, #-368]!	; 0xfffffe90
     1a8:	75633233 	strbvc	r3, [r3, #-563]!	; 0xfffffdcd
     1ac:	64696562 	strbtvs	r6, [r9], #-1378	; 0xfffffa9e
     1b0:	6c705c65 	ldclvs	12, cr5, [r0], #-404	; 0xfffffe6c
     1b4:	6e696775 	mcrvs	7, 3, r6, cr9, cr5, {3}
     1b8:	6f635c73 	svcvs	0x00635c73
     1bc:	74732e6d 	ldrbtvc	r2, [r3], #-3693	; 0xfffff193
     1c0:	6d74732e 	ldclvs	3, cr7, [r4, #-184]!	; 0xffffff48
     1c4:	75633233 	strbvc	r3, [r3, #-563]!	; 0xfffffdcd
     1c8:	692e6562 	stmdbvs	lr!, {r1, r5, r6, r8, sl, sp, lr}
     1cc:	6d2e6564 	cfstr32vs	mvfx6, [lr, #-400]!	; 0xfffffe70
     1d0:	652e7563 	strvs	r7, [lr, #-1379]!	; 0xfffffa9d
     1d4:	72657478 	rsbvc	r7, r5, #120, 8	; 0x78000000
     1d8:	746c616e 	strbtvc	r6, [ip], #-366	; 0xfffffe92
     1dc:	736c6f6f 	cmnvc	ip, #444	; 0x1bc
     1e0:	756e672e 	strbvc	r6, [lr, #-1838]!	; 0xfffff8d2
     1e4:	6f6f742d 	svcvs	0x006f742d
     1e8:	662d736c 	strtvs	r7, [sp], -ip, ror #6
     1ec:	732d726f 			; <UNDEFINED> instruction: 0x732d726f
     1f0:	32336d74 	eorscc	r6, r3, #116, 26	; 0x1d00
     1f4:	322d372e 	eorcc	r3, sp, #12058624	; 0xb80000
     1f8:	2d383130 	ldfcss	f3, [r8, #-192]!	; 0xffffff40
     1fc:	752d3271 	strvc	r3, [sp, #-625]!	; 0xfffffd8f
     200:	74616470 	strbtvc	r6, [r1], #-1136	; 0xfffffb90
     204:	69772e65 	ldmdbvs	r7!, {r0, r2, r5, r6, r9, sl, fp, sp}^
     208:	5f32336e 	svcpl	0x0032336e
     20c:	2e342e31 	mrccs	14, 1, r2, cr4, cr1, {1}
     210:	30322e30 	eorscc	r2, r2, r0, lsr lr
     214:	37303032 			; <UNDEFINED> instruction: 0x37303032
     218:	32313830 	eorscc	r3, r1, #48, 16	; 0x300000
     21c:	745c3830 	ldrbvc	r3, [ip], #-2096	; 0xfffff7d0
     220:	736c6f6f 	cmnvc	ip, #444	; 0x1bc
     224:	62696c5c 	rsbvs	r6, r9, #92, 24	; 0x5c00
     228:	6363675c 	cmnvs	r3, #92, 14	; 0x1700000
     22c:	6d72615c 	ldfvse	f6, [r2, #-368]!	; 0xfffffe90
     230:	6e6f6e2d 	cdpvs	14, 6, cr6, cr15, cr13, {1}
     234:	61652d65 	cmnvs	r5, r5, ror #26
     238:	375c6962 	ldrbcc	r6, [ip, -r2, ror #18]
     23c:	312e332e 			; <UNDEFINED> instruction: 0x312e332e
     240:	636e695c 	cmnvs	lr, #92, 18	; 0x170000
     244:	6564756c 	strbvs	r7, [r4, #-1388]!	; 0xfffffa94
     248:	5c3a6300 	ldcpl	3, cr6, [sl], #-0
     24c:	735c7473 	cmpvc	ip, #1929379840	; 0x73000000
     250:	32336d74 	eorscc	r6, r3, #116, 26	; 0x1d00
     254:	65627563 	strbvs	r7, [r2, #-1379]!	; 0xfffffa9d
     258:	5f656469 	svcpl	0x00656469
     25c:	2e342e31 	mrccs	14, 1, r2, cr4, cr1, {1}
     260:	74735c30 	ldrbtvc	r5, [r3], #-3120	; 0xfffff3d0
     264:	6332336d 	teqvs	r2, #-1275068415	; 0xb4000001
     268:	69656275 	stmdbvs	r5!, {r0, r2, r4, r5, r6, r9, sp, lr}^
     26c:	705c6564 	subsvc	r6, ip, r4, ror #10
     270:	6967756c 	stmdbvs	r7!, {r2, r3, r5, r6, r8, sl, ip, sp, lr}^
     274:	635c736e 	cmpvs	ip, #-1207959551	; 0xb8000001
     278:	732e6d6f 			; <UNDEFINED> instruction: 0x732e6d6f
     27c:	74732e74 	ldrbtvc	r2, [r3], #-3700	; 0xfffff18c
     280:	6332336d 	teqvs	r2, #-1275068415	; 0xb4000001
     284:	2e656275 	mcrcs	2, 3, r6, cr5, cr5, {3}
     288:	2e656469 	cdpcs	4, 6, cr6, cr5, cr9, {3}
     28c:	2e75636d 	cdpcs	3, 7, cr6, cr5, cr13, {3}
     290:	65747865 	ldrbvs	r7, [r4, #-2149]!	; 0xfffff79b
     294:	6c616e72 	stclvs	14, cr6, [r1], #-456	; 0xfffffe38
     298:	6c6f6f74 	stclvs	15, cr6, [pc], #-464	; d0 <_Min_Heap_Size-0x130>
     29c:	6e672e73 	mcrvs	14, 3, r2, cr7, cr3, {3}
     2a0:	6f742d75 	svcvs	0x00742d75
     2a4:	2d736c6f 	ldclcs	12, cr6, [r3, #-444]!	; 0xfffffe44
     2a8:	2d726f66 	ldclcs	15, cr6, [r2, #-408]!	; 0xfffffe68
     2ac:	336d7473 	cmncc	sp, #1929379840	; 0x73000000
     2b0:	2d372e32 	ldccs	14, cr2, [r7, #-200]!	; 0xffffff38
     2b4:	38313032 	ldmdacc	r1!, {r1, r4, r5, ip, sp}
     2b8:	2d32712d 	ldfcss	f7, [r2, #-180]!	; 0xffffff4c
     2bc:	61647075 	smcvs	18181	; 0x4705
     2c0:	772e6574 			; <UNDEFINED> instruction: 0x772e6574
     2c4:	32336e69 	eorscc	r6, r3, #1680	; 0x690
     2c8:	342e315f 	strtcc	r3, [lr], #-351	; 0xfffffea1
     2cc:	322e302e 	eorcc	r3, lr, #46	; 0x2e
     2d0:	30303230 	eorscc	r3, r0, r0, lsr r2
     2d4:	31383037 	teqcc	r8, r7, lsr r0
     2d8:	5c383032 	ldcpl	0, cr3, [r8], #-200	; 0xffffff38
     2dc:	6c6f6f74 	stclvs	15, cr6, [pc], #-464	; 114 <_Min_Heap_Size-0xec>
     2e0:	72615c73 	rsbvc	r5, r1, #29440	; 0x7300
     2e4:	6f6e2d6d 	svcvs	0x006e2d6d
     2e8:	652d656e 	strvs	r6, [sp, #-1390]!	; 0xfffffa92
     2ec:	5c696261 	sfmpl	f6, 2, [r9], #-388	; 0xfffffe7c
     2f0:	6c636e69 	stclvs	14, cr6, [r3], #-420	; 0xfffffe5c
     2f4:	00656475 	rsbeq	r6, r5, r5, ror r4
     2f8:	4d2f3a44 	vstmdbmi	pc!, {s6-s73}
     2fc:	65747361 	ldrbvs	r7, [r4, #-865]!	; 0xfffffc9f
     300:	676e6972 			; <UNDEFINED> instruction: 0x676e6972
     304:	626d4520 	rsbvs	r4, sp, #32, 10	; 0x8000000
     308:	65646465 	strbvs	r6, [r4, #-1125]!	; 0xfffffb9b
     30c:	79532064 	ldmdbvc	r3, {r2, r5, r6, sp}^
     310:	6d657473 	cfstrdvs	mvd7, [r5, #-460]!	; 0xfffffe34
     314:	6e552f73 	mrcvs	15, 2, r2, cr5, cr3, {3}
     318:	31207469 			; <UNDEFINED> instruction: 0x31207469
     31c:	52412034 	subpl	r2, r1, #52	; 0x34
     320:	6e752f4d 	cdpvs	15, 7, cr2, cr5, cr13, {2}
     324:	34317469 	ldrtcc	r7, [r1], #-1129	; 0xfffffb97
     328:	73656c5f 	cmnvc	r5, #24320	; 0x5f00
     32c:	326e6f73 	rsbcc	r6, lr, #460	; 0x1cc
     330:	62616c5f 	rsbvs	r6, r1, #24320	; 0x5f00
     334:	72442f31 	subvc	r2, r4, #49, 30	; 0xc4
     338:	72657669 	rsbvc	r7, r5, #110100480	; 0x6900000
     33c:	74532f73 	ldrbvc	r2, [r3], #-3955	; 0xfffff08d
     340:	5f32336d 	svcpl	0x0032336d
     344:	33303146 	teqcc	r0, #-2147483631	; 0x80000011
     348:	445f3643 	ldrbmi	r3, [pc], #-1603	; 350 <_Min_Heap_Size+0x150>
     34c:	65766972 	ldrbvs	r6, [r6, #-2418]!	; 0xfffff68e
     350:	692f7372 	stmdbvs	pc!, {r1, r4, r5, r6, r8, r9, ip, sp, lr}	; <UNPREDICTABLE>
     354:	6300636e 	movwvs	r6, #878	; 0x36e
     358:	74735c3a 	ldrbtvc	r5, [r3], #-3130	; 0xfffff3c6
     35c:	6d74735c 	ldclvs	3, cr7, [r4, #-368]!	; 0xfffffe90
     360:	75633233 	strbvc	r3, [r3, #-563]!	; 0xfffffdcd
     364:	64696562 	strbtvs	r6, [r9], #-1378	; 0xfffffa9e
     368:	2e315f65 	cdpcs	15, 3, cr5, cr1, cr5, {3}
     36c:	5c302e34 	ldcpl	14, cr2, [r0], #-208	; 0xffffff30
     370:	336d7473 	cmncc	sp, #1929379840	; 0x73000000
     374:	62756332 	rsbsvs	r6, r5, #-939524096	; 0xc8000000
     378:	65646965 	strbvs	r6, [r4, #-2405]!	; 0xfffff69b
     37c:	756c705c 	strbvc	r7, [ip, #-92]!	; 0xffffffa4
     380:	736e6967 	cmnvc	lr, #1687552	; 0x19c000
     384:	6d6f635c 	stclvs	3, cr6, [pc, #-368]!	; 21c <_Min_Heap_Size+0x1c>
     388:	2e74732e 	cdpcs	3, 7, cr7, cr4, cr14, {1}
     38c:	336d7473 	cmncc	sp, #1929379840	; 0x73000000
     390:	62756332 	rsbsvs	r6, r5, #-939524096	; 0xc8000000
     394:	64692e65 	strbtvs	r2, [r9], #-3685	; 0xfffff19b
     398:	636d2e65 	cmnvs	sp, #1616	; 0x650
     39c:	78652e75 	stmdavc	r5!, {r0, r2, r4, r5, r6, r9, sl, fp, sp}^
     3a0:	6e726574 	mrcvs	5, 3, r6, cr2, cr4, {3}
     3a4:	6f746c61 	svcvs	0x00746c61
     3a8:	2e736c6f 	cdpcs	12, 7, cr6, cr3, cr15, {3}
     3ac:	2d756e67 	ldclcs	14, cr6, [r5, #-412]!	; 0xfffffe64
     3b0:	6c6f6f74 	stclvs	15, cr6, [pc], #-464	; 1e8 <_Min_Heap_Size-0x18>
     3b4:	6f662d73 	svcvs	0x00662d73
     3b8:	74732d72 	ldrbtvc	r2, [r3], #-3442	; 0xfffff28e
     3bc:	2e32336d 	cdpcs	3, 3, cr3, cr2, cr13, {3}
     3c0:	30322d37 	eorscc	r2, r2, r7, lsr sp
     3c4:	712d3831 			; <UNDEFINED> instruction: 0x712d3831
     3c8:	70752d32 	rsbsvc	r2, r5, r2, lsr sp
     3cc:	65746164 	ldrbvs	r6, [r4, #-356]!	; 0xfffffe9c
     3d0:	6e69772e 	cdpvs	7, 6, cr7, cr9, cr14, {1}
     3d4:	315f3233 	cmpcc	pc, r3, lsr r2	; <UNPREDICTABLE>
     3d8:	302e342e 	eorcc	r3, lr, lr, lsr #8
     3dc:	3230322e 	eorscc	r3, r0, #-536870910	; 0xe0000002
     3e0:	30373030 	eorscc	r3, r7, r0, lsr r0
     3e4:	30323138 	eorscc	r3, r2, r8, lsr r1
     3e8:	6f745c38 	svcvs	0x00745c38
     3ec:	5c736c6f 	ldclpl	12, cr6, [r3], #-444	; 0xfffffe44
     3f0:	2d6d7261 	sfmcs	f7, 2, [sp, #-388]!	; 0xfffffe7c
     3f4:	656e6f6e 	strbvs	r6, [lr, #-3950]!	; 0xfffff092
     3f8:	6261652d 	rsbvs	r6, r1, #188743680	; 0xb400000
     3fc:	6e695c69 	cdpvs	12, 6, cr5, cr9, cr9, {3}
     400:	64756c63 	ldrbtvs	r6, [r5], #-3171	; 0xfffff39d
     404:	656e5c65 	strbvs	r5, [lr, #-3173]!	; 0xfffff39b
     408:	62696c77 	rsbvs	r6, r9, #30464	; 0x7700
     40c:	6e616e2d 	cdpvs	14, 6, cr6, cr1, cr13, {1}
     410:	6d00006f 	stcvs	0, cr0, [r0, #-444]	; 0xfffffe44
     414:	2e6e6961 	vnmulcs.f16	s13, s28, s3	; <UNPREDICTABLE>
     418:	00010063 	andeq	r0, r1, r3, rrx
     41c:	65645f00 	strbvs	r5, [r4, #-3840]!	; 0xfffff100
     420:	6c756166 	ldfvse	f6, [r5], #-408	; 0xfffffe68
     424:	79745f74 	ldmdbvc	r4!, {r2, r4, r5, r6, r8, r9, sl, fp, ip, lr}^
     428:	2e736570 	mrccs	5, 3, r6, cr3, cr0, {3}
     42c:	00020068 	andeq	r0, r2, r8, rrx
     430:	636f6c00 	cmnvs	pc, #0, 24
     434:	00682e6b 	rsbeq	r2, r8, fp, ror #28
     438:	5f000003 	svcpl	0x00000003
     43c:	65707974 	ldrbvs	r7, [r0, #-2420]!	; 0xfffff68c
     440:	00682e73 	rsbeq	r2, r8, r3, ror lr
     444:	73000003 	movwvc	r0, #3
     448:	65646474 	strbvs	r6, [r4, #-1140]!	; 0xfffffb8c
     44c:	00682e66 	rsbeq	r2, r8, r6, ror #28
     450:	72000004 	andvc	r0, r0, #4
     454:	746e6565 	strbtvc	r6, [lr], #-1381	; 0xfffffa9b
     458:	0300682e 	movweq	r6, #2094	; 0x82e
     45c:	74730000 	ldrbtvc	r0, [r3], #-0
     460:	62696c64 	rsbvs	r6, r9, #100, 24	; 0x6400
     464:	0500682e 	streq	r6, [r0, #-2094]	; 0xfffff7d2
     468:	735f0000 	cmpvc	pc, #0
     46c:	6e696474 	mcrvs	4, 3, r6, cr9, cr4, {3}
     470:	00682e74 	rsbeq	r2, r8, r4, ror lr
     474:	73000003 	movwvc	r0, #3
     478:	32336d74 	eorscc	r6, r3, #116, 26	; 0x1d00
     47c:	33303166 	teqcc	r0, #-2147483623	; 0x80000019
     480:	682e3878 	stmdavs	lr!, {r3, r4, r5, r6, fp, ip, sp}
     484:	00000600 	andeq	r0, r0, r0, lsl #12
     488:	336d7453 	cmncc	sp, #1392508928	; 0x53000000
     48c:	31465f32 	cmpcc	r6, r2, lsr pc
     490:	36433330 			; <UNDEFINED> instruction: 0x36433330
     494:	5458455f 	ldrbpl	r4, [r8], #-1375	; 0xfffffaa1
     498:	72645f49 	rsbvc	r5, r4, #292	; 0x124
     49c:	72657669 	rsbvc	r7, r5, #110100480	; 0x6900000
     4a0:	0600682e 	streq	r6, [r0], -lr, lsr #16
     4a4:	74530000 	ldrbvc	r0, [r3], #-0
     4a8:	5f32336d 	svcpl	0x0032336d
     4ac:	33303146 	teqcc	r0, #-2147483631	; 0x80000011
     4b0:	675f3643 	ldrbvs	r3, [pc, -r3, asr #12]
     4b4:	5f6f6970 	svcpl	0x006f6970
     4b8:	76697264 	strbtvc	r7, [r9], -r4, ror #4
     4bc:	682e7265 	stmdavs	lr!, {r0, r2, r5, r6, r9, ip, sp, lr}
     4c0:	00000600 	andeq	r0, r0, r0, lsl #12
     4c4:	65656569 	strbvs	r6, [r5, #-1385]!	; 0xfffffa97
     4c8:	682e7066 	stmdavs	lr!, {r1, r2, r5, r6, ip, sp, lr}
     4cc:	00000200 	andeq	r0, r0, r0, lsl #4
     4d0:	736e615f 	cmnvc	lr, #-1073741801	; 0xc0000017
     4d4:	00682e69 	rsbeq	r2, r8, r9, ror #28
     4d8:	6e000005 	cdpvs	0, 0, cr0, cr0, cr5, {0}
     4dc:	696c7765 	stmdbvs	ip!, {r0, r2, r5, r6, r8, r9, sl, ip, sp, lr}^
     4e0:	00682e62 	rsbeq	r2, r8, r2, ror #28
     4e4:	5f000007 	svcpl	0x00000007
     4e8:	6c77656e 	cfldr64vs	mvdx6, [r7], #-440	; 0xfffffe48
     4ec:	765f6269 	ldrbvc	r6, [pc], -r9, ror #4
     4f0:	69737265 	ldmdbvs	r3!, {r0, r2, r5, r6, r9, ip, sp, lr}^
     4f4:	682e6e6f 	stmdavs	lr!, {r0, r1, r2, r3, r5, r6, r9, sl, fp, sp, lr}
     4f8:	00000500 	andeq	r0, r0, r0, lsl #10
     4fc:	666e6f63 	strbtvs	r6, [lr], -r3, ror #30
     500:	682e6769 	stmdavs	lr!, {r0, r3, r5, r6, r8, r9, sl, sp, lr}
     504:	00000300 	andeq	r0, r0, r0, lsl #6
     508:	74616566 	strbtvc	r6, [r1], #-1382	; 0xfffffa9a
     50c:	73657275 	cmnvc	r5, #1342177287	; 0x50000007
     510:	0300682e 	movweq	r6, #2094	; 0x82e
     514:	745f0000 	ldrbvc	r0, [pc], #-0	; 51c <_Min_Stack_Size+0x11c>
     518:	73657079 	cmnvc	r5, #121	; 0x79
     51c:	0200682e 	andeq	r6, r0, #3014656	; 0x2e0000
     520:	64630000 	strbtvs	r0, [r3], #-0
     524:	2e736665 	cdpcs	6, 7, cr6, cr3, cr5, {3}
     528:	00030068 	andeq	r0, r3, r8, rrx
     52c:	64747300 	ldrbtvs	r7, [r4], #-768	; 0xfffffd00
     530:	2e62696c 	vnmulcs.f16	s13, s4, s25	; <UNPREDICTABLE>
     534:	00020068 	andeq	r0, r2, r8, rrx
     538:	6c6c6100 	stfvse	f6, [ip], #-0
     53c:	2e61636f 	cdpcs	3, 6, cr6, cr1, cr15, {3}
     540:	00050068 	andeq	r0, r5, r8, rrx
     544:	64747300 	ldrbtvs	r7, [r4], #-768	; 0xfffffd00
     548:	2e746e69 	cdpcs	14, 7, cr6, cr4, cr9, {3}
     54c:	00040068 	andeq	r0, r4, r8, rrx
     550:	64747300 	ldrbtvs	r7, [r4], #-768	; 0xfffffd00
     554:	2e746e69 	cdpcs	14, 7, cr6, cr4, cr9, {3}
     558:	00050068 	andeq	r0, r5, r8, rrx
     55c:	6e695f00 	cdpvs	15, 6, cr5, cr9, cr0, {0}
     560:	70757374 	rsbsvc	r7, r5, r4, ror r3
     564:	0300682e 	movweq	r6, #2094	; 0x82e
     568:	00000000 	andeq	r0, r0, r0
     56c:	01700205 	cmneq	r0, r5, lsl #4
     570:	1b030800 	blne	c2578 <_Min_Stack_Size+0xc2178>
     574:	04023001 	streq	r3, [r2], #-1
     578:	00010100 	andeq	r0, r1, r0, lsl #2
     57c:	017c0205 	cmneq	ip, r5, lsl #4
     580:	20030800 	andcs	r0, r3, r0, lsl #16
     584:	04023001 	streq	r3, [r2], #-1
     588:	00010100 	andeq	r0, r1, r0, lsl #2
     58c:	01880205 	orreq	r0, r8, r5, lsl #4
     590:	25030800 	strcs	r0, [r3, #-2048]	; 0xfffff800
     594:	04023001 	streq	r3, [r2], #-1
     598:	00010100 	andeq	r0, r1, r0, lsl #2
     59c:	01940205 	orrseq	r0, r4, r5, lsl #4
     5a0:	34030800 	strcc	r0, [r3], #-2048	; 0xfffff800
     5a4:	12035901 	andne	r5, r3, #16384	; 0x4000
     5a8:	20720358 	rsbscs	r0, r2, r8, asr r3
     5ac:	22692586 	rsbcs	r2, r9, #562036736	; 0x21800000
     5b0:	01000502 	tsteq	r0, r2, lsl #10
     5b4:	02050001 	andeq	r0, r5, #1
     5b8:	080001d4 	stmdaeq	r0, {r2, r4, r6, r7, r8}
     5bc:	0100cb03 	tsteq	r0, r3, lsl #22
     5c0:	023d3e30 	eorseq	r3, sp, #48, 28	; 0x300
     5c4:	01010004 	tsteq	r1, r4
     5c8:	ec020500 	cfstr32	mvfx0, [r2], {-0}
     5cc:	03080001 	movweq	r0, #32769	; 0x8001
     5d0:	3e0100d3 	mcrcc	0, 0, r0, cr1, cr3, {6}
     5d4:	59696767 	stmdbpl	r9!, {r0, r1, r2, r5, r6, r8, r9, sl, sp, lr}^
     5d8:	4c302f2f 	ldcmi	15, cr2, [r0], #-188	; 0xffffff44
     5dc:	3a4c423e 	bcc	1310edc <_Min_Stack_Size+0x1310adc>
     5e0:	01000902 	tsteq	r0, r2, lsl #18
     5e4:	00008001 	andeq	r8, r0, r1
     5e8:	39000200 	stmdbcc	r0, {r9}
     5ec:	02000000 	andeq	r0, r0, #0
     5f0:	0d0efb01 	vstreq	d15, [lr, #-4]
     5f4:	01010100 	mrseq	r0, (UNDEF: 17)
     5f8:	00000001 	andeq	r0, r0, r1
     5fc:	01000001 	tsteq	r0, r1
     600:	532f2e2e 			; <UNDEFINED> instruction: 0x532f2e2e
     604:	74726174 	ldrbtvc	r6, [r2], #-372	; 0xfffffe8c
     608:	00007075 	andeq	r7, r0, r5, ror r0
     60c:	72617473 	rsbvc	r7, r1, #1929379840	; 0x73000000
     610:	5f707574 	svcpl	0x00707574
     614:	336d7473 	cmncc	sp, #1929379840	; 0x73000000
     618:	30316632 	eorscc	r6, r1, r2, lsr r6
     61c:	74366333 	ldrtvc	r6, [r6], #-819	; 0xfffffccd
     620:	00732e78 	rsbseq	r2, r3, r8, ror lr
     624:	00000001 	andeq	r0, r0, r1
     628:	60020500 	andvs	r0, r2, r0, lsl #10
     62c:	03080002 	movweq	r0, #32770	; 0x8002
     630:	2221013a 	eorcs	r0, r1, #-2147483634	; 0x8000000e
     634:	21212131 			; <UNDEFINED> instruction: 0x21212131
     638:	21212321 			; <UNDEFINED> instruction: 0x21212321
     63c:	23212123 			; <UNDEFINED> instruction: 0x23212123
     640:	23212121 			; <UNDEFINED> instruction: 0x23212121
     644:	23212321 			; <UNDEFINED> instruction: 0x23212321
     648:	56033130 			; <UNDEFINED> instruction: 0x56033130
     64c:	2f2f3420 	svccs	0x002f3420
     650:	2f2e0f03 	svccs	0x002e0f03
     654:	01000202 	tsteq	r0, r2, lsl #4
     658:	02050001 	andeq	r0, r5, #1
     65c:	080002b0 	stmdaeq	r0, {r4, r5, r7, r9}
     660:	0100f303 	tsteq	r0, r3, lsl #6	; <UNPREDICTABLE>
     664:	01000102 	tsteq	r0, r2, lsl #2
     668:	00069b01 	andeq	r9, r6, r1, lsl #22
     66c:	6d000200 	sfmvs	f0, 4, [r0, #-0]
     670:	02000005 	andeq	r0, r0, #5
     674:	0d0efb01 	vstreq	d15, [lr, #-4]
     678:	01010100 	mrseq	r0, (UNDEF: 17)
     67c:	00000001 	andeq	r0, r0, r1
     680:	01000001 	tsteq	r0, r1
     684:	532f2e2e 			; <UNDEFINED> instruction: 0x532f2e2e
     688:	32336d74 	eorscc	r6, r3, #116, 26	; 0x1d00
     68c:	3031465f 	eorscc	r4, r1, pc, asr r6
     690:	5f364333 	svcpl	0x00364333
     694:	76697244 	strbtvc	r7, [r9], -r4, asr #4
     698:	2f737265 	svccs	0x00737265
     69c:	4f495047 	svcmi	0x00495047
     6a0:	5c3a6300 	ldcpl	3, cr6, [sl], #-0
     6a4:	735c7473 	cmpvc	ip, #1929379840	; 0x73000000
     6a8:	32336d74 	eorscc	r6, r3, #116, 26	; 0x1d00
     6ac:	65627563 	strbvs	r7, [r2, #-1379]!	; 0xfffffa9d
     6b0:	5f656469 	svcpl	0x00656469
     6b4:	2e342e31 	mrccs	14, 1, r2, cr4, cr1, {1}
     6b8:	74735c30 	ldrbtvc	r5, [r3], #-3120	; 0xfffff3d0
     6bc:	6332336d 	teqvs	r2, #-1275068415	; 0xb4000001
     6c0:	69656275 	stmdbvs	r5!, {r0, r2, r4, r5, r6, r9, sp, lr}^
     6c4:	705c6564 	subsvc	r6, ip, r4, ror #10
     6c8:	6967756c 	stmdbvs	r7!, {r2, r3, r5, r6, r8, sl, ip, sp, lr}^
     6cc:	635c736e 	cmpvs	ip, #-1207959551	; 0xb8000001
     6d0:	732e6d6f 			; <UNDEFINED> instruction: 0x732e6d6f
     6d4:	74732e74 	ldrbtvc	r2, [r3], #-3700	; 0xfffff18c
     6d8:	6332336d 	teqvs	r2, #-1275068415	; 0xb4000001
     6dc:	2e656275 	mcrcs	2, 3, r6, cr5, cr5, {3}
     6e0:	2e656469 	cdpcs	4, 6, cr6, cr5, cr9, {3}
     6e4:	2e75636d 	cdpcs	3, 7, cr6, cr5, cr13, {3}
     6e8:	65747865 	ldrbvs	r7, [r4, #-2149]!	; 0xfffff79b
     6ec:	6c616e72 	stclvs	14, cr6, [r1], #-456	; 0xfffffe38
     6f0:	6c6f6f74 	stclvs	15, cr6, [pc], #-464	; 528 <_Min_Stack_Size+0x128>
     6f4:	6e672e73 	mcrvs	14, 3, r2, cr7, cr3, {3}
     6f8:	6f742d75 	svcvs	0x00742d75
     6fc:	2d736c6f 	ldclcs	12, cr6, [r3, #-444]!	; 0xfffffe44
     700:	2d726f66 	ldclcs	15, cr6, [r2, #-408]!	; 0xfffffe68
     704:	336d7473 	cmncc	sp, #1929379840	; 0x73000000
     708:	2d372e32 	ldccs	14, cr2, [r7, #-200]!	; 0xffffff38
     70c:	38313032 	ldmdacc	r1!, {r1, r4, r5, ip, sp}
     710:	2d32712d 	ldfcss	f7, [r2, #-180]!	; 0xffffff4c
     714:	61647075 	smcvs	18181	; 0x4705
     718:	772e6574 			; <UNDEFINED> instruction: 0x772e6574
     71c:	32336e69 	eorscc	r6, r3, #1680	; 0x690
     720:	342e315f 	strtcc	r3, [lr], #-351	; 0xfffffea1
     724:	322e302e 	eorcc	r3, lr, #46	; 0x2e
     728:	30303230 	eorscc	r3, r0, r0, lsr r2
     72c:	31383037 	teqcc	r8, r7, lsr r0
     730:	5c383032 	ldcpl	0, cr3, [r8], #-200	; 0xffffff38
     734:	6c6f6f74 	stclvs	15, cr6, [pc], #-464	; 56c <_Min_Stack_Size+0x16c>
     738:	72615c73 	rsbvc	r5, r1, #29440	; 0x7300
     73c:	6f6e2d6d 	svcvs	0x006e2d6d
     740:	652d656e 	strvs	r6, [sp, #-1390]!	; 0xfffffa92
     744:	5c696261 	sfmpl	f6, 2, [r9], #-388	; 0xfffffe7c
     748:	6c636e69 	stclvs	14, cr6, [r3], #-420	; 0xfffffe5c
     74c:	5c656475 	cfstrdpl	mvd6, [r5], #-468	; 0xfffffe2c
     750:	6863616d 	stmdavs	r3!, {r0, r2, r3, r5, r6, r8, sp, lr}^
     754:	00656e69 	rsbeq	r6, r5, r9, ror #28
     758:	735c3a63 	cmpvc	ip, #405504	; 0x63000
     75c:	74735c74 	ldrbtvc	r5, [r3], #-3188	; 0xfffff38c
     760:	6332336d 	teqvs	r2, #-1275068415	; 0xb4000001
     764:	69656275 	stmdbvs	r5!, {r0, r2, r4, r5, r6, r9, sp, lr}^
     768:	315f6564 	cmpcc	pc, r4, ror #10
     76c:	302e342e 	eorcc	r3, lr, lr, lsr #8
     770:	6d74735c 	ldclvs	3, cr7, [r4, #-368]!	; 0xfffffe90
     774:	75633233 	strbvc	r3, [r3, #-563]!	; 0xfffffdcd
     778:	64696562 	strbtvs	r6, [r9], #-1378	; 0xfffffa9e
     77c:	6c705c65 	ldclvs	12, cr5, [r0], #-404	; 0xfffffe6c
     780:	6e696775 	mcrvs	7, 3, r6, cr9, cr5, {3}
     784:	6f635c73 	svcvs	0x00635c73
     788:	74732e6d 	ldrbtvc	r2, [r3], #-3693	; 0xfffff193
     78c:	6d74732e 	ldclvs	3, cr7, [r4, #-184]!	; 0xffffff48
     790:	75633233 	strbvc	r3, [r3, #-563]!	; 0xfffffdcd
     794:	692e6562 	stmdbvs	lr!, {r1, r5, r6, r8, sl, sp, lr}
     798:	6d2e6564 	cfstr32vs	mvfx6, [lr, #-400]!	; 0xfffffe70
     79c:	652e7563 	strvs	r7, [lr, #-1379]!	; 0xfffffa9d
     7a0:	72657478 	rsbvc	r7, r5, #120, 8	; 0x78000000
     7a4:	746c616e 	strbtvc	r6, [ip], #-366	; 0xfffffe92
     7a8:	736c6f6f 	cmnvc	ip, #444	; 0x1bc
     7ac:	756e672e 	strbvc	r6, [lr, #-1838]!	; 0xfffff8d2
     7b0:	6f6f742d 	svcvs	0x006f742d
     7b4:	662d736c 	strtvs	r7, [sp], -ip, ror #6
     7b8:	732d726f 			; <UNDEFINED> instruction: 0x732d726f
     7bc:	32336d74 	eorscc	r6, r3, #116, 26	; 0x1d00
     7c0:	322d372e 	eorcc	r3, sp, #12058624	; 0xb80000
     7c4:	2d383130 	ldfcss	f3, [r8, #-192]!	; 0xffffff40
     7c8:	752d3271 	strvc	r3, [sp, #-625]!	; 0xfffffd8f
     7cc:	74616470 	strbtvc	r6, [r1], #-1136	; 0xfffffb90
     7d0:	69772e65 	ldmdbvs	r7!, {r0, r2, r5, r6, r9, sl, fp, sp}^
     7d4:	5f32336e 	svcpl	0x0032336e
     7d8:	2e342e31 	mrccs	14, 1, r2, cr4, cr1, {1}
     7dc:	30322e30 	eorscc	r2, r2, r0, lsr lr
     7e0:	37303032 			; <UNDEFINED> instruction: 0x37303032
     7e4:	32313830 	eorscc	r3, r1, #48, 16	; 0x300000
     7e8:	745c3830 	ldrbvc	r3, [ip], #-2096	; 0xfffff7d0
     7ec:	736c6f6f 	cmnvc	ip, #444	; 0x1bc
     7f0:	6d72615c 	ldfvse	f6, [r2, #-368]!	; 0xfffffe90
     7f4:	6e6f6e2d 	cdpvs	14, 6, cr6, cr15, cr13, {1}
     7f8:	61652d65 	cmnvs	r5, r5, ror #26
     7fc:	695c6962 	ldmdbvs	ip, {r1, r5, r6, r8, fp, sp, lr}^
     800:	756c636e 	strbvc	r6, [ip, #-878]!	; 0xfffffc92
     804:	735c6564 	cmpvc	ip, #100, 10	; 0x19000000
     808:	63007379 	movwvs	r7, #889	; 0x379
     80c:	74735c3a 	ldrbtvc	r5, [r3], #-3130	; 0xfffff3c6
     810:	6d74735c 	ldclvs	3, cr7, [r4, #-368]!	; 0xfffffe90
     814:	75633233 	strbvc	r3, [r3, #-563]!	; 0xfffffdcd
     818:	64696562 	strbtvs	r6, [r9], #-1378	; 0xfffffa9e
     81c:	2e315f65 	cdpcs	15, 3, cr5, cr1, cr5, {3}
     820:	5c302e34 	ldcpl	14, cr2, [r0], #-208	; 0xffffff30
     824:	336d7473 	cmncc	sp, #1929379840	; 0x73000000
     828:	62756332 	rsbsvs	r6, r5, #-939524096	; 0xc8000000
     82c:	65646965 	strbvs	r6, [r4, #-2405]!	; 0xfffff69b
     830:	756c705c 	strbvc	r7, [ip, #-92]!	; 0xffffffa4
     834:	736e6967 	cmnvc	lr, #1687552	; 0x19c000
     838:	6d6f635c 	stclvs	3, cr6, [pc, #-368]!	; 6d0 <_Min_Stack_Size+0x2d0>
     83c:	2e74732e 	cdpcs	3, 7, cr7, cr4, cr14, {1}
     840:	336d7473 	cmncc	sp, #1929379840	; 0x73000000
     844:	62756332 	rsbsvs	r6, r5, #-939524096	; 0xc8000000
     848:	64692e65 	strbtvs	r2, [r9], #-3685	; 0xfffff19b
     84c:	636d2e65 	cmnvs	sp, #1616	; 0x650
     850:	78652e75 	stmdavc	r5!, {r0, r2, r4, r5, r6, r9, sl, fp, sp}^
     854:	6e726574 	mrcvs	5, 3, r6, cr2, cr4, {3}
     858:	6f746c61 	svcvs	0x00746c61
     85c:	2e736c6f 	cdpcs	12, 7, cr6, cr3, cr15, {3}
     860:	2d756e67 	ldclcs	14, cr6, [r5, #-412]!	; 0xfffffe64
     864:	6c6f6f74 	stclvs	15, cr6, [pc], #-464	; 69c <_Min_Stack_Size+0x29c>
     868:	6f662d73 	svcvs	0x00662d73
     86c:	74732d72 	ldrbtvc	r2, [r3], #-3442	; 0xfffff28e
     870:	2e32336d 	cdpcs	3, 3, cr3, cr2, cr13, {3}
     874:	30322d37 	eorscc	r2, r2, r7, lsr sp
     878:	712d3831 			; <UNDEFINED> instruction: 0x712d3831
     87c:	70752d32 	rsbsvc	r2, r5, r2, lsr sp
     880:	65746164 	ldrbvs	r6, [r4, #-356]!	; 0xfffffe9c
     884:	6e69772e 	cdpvs	7, 6, cr7, cr9, cr14, {1}
     888:	315f3233 	cmpcc	pc, r3, lsr r2	; <UNPREDICTABLE>
     88c:	302e342e 	eorcc	r3, lr, lr, lsr #8
     890:	3230322e 	eorscc	r3, r0, #-536870910	; 0xe0000002
     894:	30373030 	eorscc	r3, r7, r0, lsr r0
     898:	30323138 	eorscc	r3, r2, r8, lsr r1
     89c:	6f745c38 	svcvs	0x00745c38
     8a0:	5c736c6f 	ldclpl	12, cr6, [r3], #-444	; 0xfffffe44
     8a4:	5c62696c 			; <UNDEFINED> instruction: 0x5c62696c
     8a8:	5c636367 	stclpl	3, cr6, [r3], #-412	; 0xfffffe64
     8ac:	2d6d7261 	sfmcs	f7, 2, [sp, #-388]!	; 0xfffffe7c
     8b0:	656e6f6e 	strbvs	r6, [lr, #-3950]!	; 0xfffff092
     8b4:	6261652d 	rsbvs	r6, r1, #188743680	; 0xb400000
     8b8:	2e375c69 	cdpcs	12, 3, cr5, cr7, cr9, {3}
     8bc:	5c312e33 	ldcpl	14, cr2, [r1], #-204	; 0xffffff34
     8c0:	6c636e69 	stclvs	14, cr6, [r3], #-420	; 0xfffffe5c
     8c4:	00656475 	rsbeq	r6, r5, r5, ror r4
     8c8:	735c3a63 	cmpvc	ip, #405504	; 0x63000
     8cc:	74735c74 	ldrbtvc	r5, [r3], #-3188	; 0xfffff38c
     8d0:	6332336d 	teqvs	r2, #-1275068415	; 0xb4000001
     8d4:	69656275 	stmdbvs	r5!, {r0, r2, r4, r5, r6, r9, sp, lr}^
     8d8:	315f6564 	cmpcc	pc, r4, ror #10
     8dc:	302e342e 	eorcc	r3, lr, lr, lsr #8
     8e0:	6d74735c 	ldclvs	3, cr7, [r4, #-368]!	; 0xfffffe90
     8e4:	75633233 	strbvc	r3, [r3, #-563]!	; 0xfffffdcd
     8e8:	64696562 	strbtvs	r6, [r9], #-1378	; 0xfffffa9e
     8ec:	6c705c65 	ldclvs	12, cr5, [r0], #-404	; 0xfffffe6c
     8f0:	6e696775 	mcrvs	7, 3, r6, cr9, cr5, {3}
     8f4:	6f635c73 	svcvs	0x00635c73
     8f8:	74732e6d 	ldrbtvc	r2, [r3], #-3693	; 0xfffff193
     8fc:	6d74732e 	ldclvs	3, cr7, [r4, #-184]!	; 0xffffff48
     900:	75633233 	strbvc	r3, [r3, #-563]!	; 0xfffffdcd
     904:	692e6562 	stmdbvs	lr!, {r1, r5, r6, r8, sl, sp, lr}
     908:	6d2e6564 	cfstr32vs	mvfx6, [lr, #-400]!	; 0xfffffe70
     90c:	652e7563 	strvs	r7, [lr, #-1379]!	; 0xfffffa9d
     910:	72657478 	rsbvc	r7, r5, #120, 8	; 0x78000000
     914:	746c616e 	strbtvc	r6, [ip], #-366	; 0xfffffe92
     918:	736c6f6f 	cmnvc	ip, #444	; 0x1bc
     91c:	756e672e 	strbvc	r6, [lr, #-1838]!	; 0xfffff8d2
     920:	6f6f742d 	svcvs	0x006f742d
     924:	662d736c 	strtvs	r7, [sp], -ip, ror #6
     928:	732d726f 			; <UNDEFINED> instruction: 0x732d726f
     92c:	32336d74 	eorscc	r6, r3, #116, 26	; 0x1d00
     930:	322d372e 	eorcc	r3, sp, #12058624	; 0xb80000
     934:	2d383130 	ldfcss	f3, [r8, #-192]!	; 0xffffff40
     938:	752d3271 	strvc	r3, [sp, #-625]!	; 0xfffffd8f
     93c:	74616470 	strbtvc	r6, [r1], #-1136	; 0xfffffb90
     940:	69772e65 	ldmdbvs	r7!, {r0, r2, r5, r6, r9, sl, fp, sp}^
     944:	5f32336e 	svcpl	0x0032336e
     948:	2e342e31 	mrccs	14, 1, r2, cr4, cr1, {1}
     94c:	30322e30 	eorscc	r2, r2, r0, lsr lr
     950:	37303032 			; <UNDEFINED> instruction: 0x37303032
     954:	32313830 	eorscc	r3, r1, #48, 16	; 0x300000
     958:	745c3830 	ldrbvc	r3, [ip], #-2096	; 0xfffff7d0
     95c:	736c6f6f 	cmnvc	ip, #444	; 0x1bc
     960:	6d72615c 	ldfvse	f6, [r2, #-368]!	; 0xfffffe90
     964:	6e6f6e2d 	cdpvs	14, 6, cr6, cr15, cr13, {1}
     968:	61652d65 	cmnvs	r5, r5, ror #26
     96c:	695c6962 	ldmdbvs	ip, {r1, r5, r6, r8, fp, sp, lr}^
     970:	756c636e 	strbvc	r6, [ip, #-878]!	; 0xfffffc92
     974:	44006564 	strmi	r6, [r0], #-1380	; 0xfffffa9c
     978:	614d2f3a 	cmpvs	sp, sl, lsr pc
     97c:	72657473 	rsbvc	r7, r5, #1929379840	; 0x73000000
     980:	20676e69 	rsbcs	r6, r7, r9, ror #28
     984:	65626d45 	strbvs	r6, [r2, #-3397]!	; 0xfffff2bb
     988:	64656464 	strbtvs	r6, [r5], #-1124	; 0xfffffb9c
     98c:	73795320 	cmnvc	r9, #32, 6	; 0x80000000
     990:	736d6574 	cmnvc	sp, #116, 10	; 0x1d000000
     994:	696e552f 	stmdbvs	lr!, {r0, r1, r2, r3, r5, r8, sl, ip, lr}^
     998:	34312074 	ldrtcc	r2, [r1], #-116	; 0xffffff8c
     99c:	4d524120 	ldfmie	f4, [r2, #-128]	; 0xffffff80
     9a0:	696e752f 	stmdbvs	lr!, {r0, r1, r2, r3, r5, r8, sl, ip, sp, lr}^
     9a4:	5f343174 	svcpl	0x00343174
     9a8:	7373656c 	cmnvc	r3, #108, 10	; 0x1b000000
     9ac:	5f326e6f 	svcpl	0x00326e6f
     9b0:	3162616c 	cmncc	r2, ip, ror #2
     9b4:	6972442f 	ldmdbvs	r2!, {r0, r1, r2, r3, r5, sl, lr}^
     9b8:	73726576 	cmnvc	r2, #494927872	; 0x1d800000
     9bc:	6d74532f 	ldclvs	3, cr5, [r4, #-188]!	; 0xffffff44
     9c0:	465f3233 			; <UNDEFINED> instruction: 0x465f3233
     9c4:	43333031 	teqmi	r3, #49	; 0x31
     9c8:	72445f36 	subvc	r5, r4, #54, 30	; 0xd8
     9cc:	72657669 	rsbvc	r7, r5, #110100480	; 0x6900000
     9d0:	6e692f73 	mcrvs	15, 3, r2, cr9, cr3, {3}
     9d4:	3a630063 	bcc	18c0b68 <_Min_Stack_Size+0x18c0768>
     9d8:	5c74735c 	ldclpl	3, cr7, [r4], #-368	; 0xfffffe90
     9dc:	336d7473 	cmncc	sp, #1929379840	; 0x73000000
     9e0:	62756332 	rsbsvs	r6, r5, #-939524096	; 0xc8000000
     9e4:	65646965 	strbvs	r6, [r4, #-2405]!	; 0xfffff69b
     9e8:	342e315f 	strtcc	r3, [lr], #-351	; 0xfffffea1
     9ec:	735c302e 	cmpvc	ip, #46	; 0x2e
     9f0:	32336d74 	eorscc	r6, r3, #116, 26	; 0x1d00
     9f4:	65627563 	strbvs	r7, [r2, #-1379]!	; 0xfffffa9d
     9f8:	5c656469 	cfstrdpl	mvd6, [r5], #-420	; 0xfffffe5c
     9fc:	67756c70 			; <UNDEFINED> instruction: 0x67756c70
     a00:	5c736e69 	ldclpl	14, cr6, [r3], #-420	; 0xfffffe5c
     a04:	2e6d6f63 	cdpcs	15, 6, cr6, cr13, cr3, {3}
     a08:	732e7473 			; <UNDEFINED> instruction: 0x732e7473
     a0c:	32336d74 	eorscc	r6, r3, #116, 26	; 0x1d00
     a10:	65627563 	strbvs	r7, [r2, #-1379]!	; 0xfffffa9d
     a14:	6564692e 	strbvs	r6, [r4, #-2350]!	; 0xfffff6d2
     a18:	75636d2e 	strbvc	r6, [r3, #-3374]!	; 0xfffff2d2
     a1c:	7478652e 	ldrbtvc	r6, [r8], #-1326	; 0xfffffad2
     a20:	616e7265 	cmnvs	lr, r5, ror #4
     a24:	6f6f746c 	svcvs	0x006f746c
     a28:	672e736c 	strvs	r7, [lr, -ip, ror #6]!
     a2c:	742d756e 	strtvc	r7, [sp], #-1390	; 0xfffffa92
     a30:	736c6f6f 	cmnvc	ip, #444	; 0x1bc
     a34:	726f662d 	rsbvc	r6, pc, #47185920	; 0x2d00000
     a38:	6d74732d 	ldclvs	3, cr7, [r4, #-180]!	; 0xffffff4c
     a3c:	372e3233 			; <UNDEFINED> instruction: 0x372e3233
     a40:	3130322d 	teqcc	r0, sp, lsr #4
     a44:	32712d38 	rsbscc	r2, r1, #56, 26	; 0xe00
     a48:	6470752d 	ldrbtvs	r7, [r0], #-1325	; 0xfffffad3
     a4c:	2e657461 	cdpcs	4, 6, cr7, cr5, cr1, {3}
     a50:	336e6977 	cmncc	lr, #1949696	; 0x1dc000
     a54:	2e315f32 	mrccs	15, 1, r5, cr1, cr2, {1}
     a58:	2e302e34 	mrccs	14, 1, r2, cr0, cr4, {1}
     a5c:	30323032 	eorscc	r3, r2, r2, lsr r0
     a60:	38303730 	ldmdacc	r0!, {r4, r5, r8, r9, sl, ip, sp}
     a64:	38303231 	ldmdacc	r0!, {r0, r4, r5, r9, ip, sp}
     a68:	6f6f745c 	svcvs	0x006f745c
     a6c:	615c736c 	cmpvs	ip, ip, ror #6
     a70:	6e2d6d72 	mcrvs	13, 1, r6, cr13, cr2, {3}
     a74:	2d656e6f 	stclcs	14, cr6, [r5, #-444]!	; 0xfffffe44
     a78:	69626165 	stmdbvs	r2!, {r0, r2, r5, r6, r8, sp, lr}^
     a7c:	636e695c 	cmnvs	lr, #92, 18	; 0x170000
     a80:	6564756c 	strbvs	r7, [r4, #-1388]!	; 0xfffffa94
     a84:	77656e5c 			; <UNDEFINED> instruction: 0x77656e5c
     a88:	2d62696c 			; <UNDEFINED> instruction: 0x2d62696c
     a8c:	6f6e616e 	svcvs	0x006e616e
     a90:	74530000 	ldrbvc	r0, [r3], #-0
     a94:	5f32336d 	svcpl	0x0032336d
     a98:	33303146 	teqcc	r0, #-2147483631	; 0x80000011
     a9c:	675f3643 	ldrbvs	r3, [pc, -r3, asr #12]
     aa0:	5f6f6970 	svcpl	0x006f6970
     aa4:	76697264 	strbtvc	r7, [r9], -r4, ror #4
     aa8:	632e7265 			; <UNDEFINED> instruction: 0x632e7265
     aac:	00000100 	andeq	r0, r0, r0, lsl #2
     ab0:	6665645f 			; <UNDEFINED> instruction: 0x6665645f
     ab4:	746c7561 	strbtvc	r7, [ip], #-1377	; 0xfffffa9f
     ab8:	7079745f 	rsbsvc	r7, r9, pc, asr r4
     abc:	682e7365 	stmdavs	lr!, {r0, r2, r5, r6, r8, r9, ip, sp, lr}
     ac0:	00000200 	andeq	r0, r0, r0, lsl #4
     ac4:	6b636f6c 	blvs	18dc87c <_Min_Stack_Size+0x18dc47c>
     ac8:	0300682e 	movweq	r6, #2094	; 0x82e
     acc:	745f0000 	ldrbvc	r0, [pc], #-0	; ad4 <_Min_Stack_Size+0x6d4>
     ad0:	73657079 	cmnvc	r5, #121	; 0x79
     ad4:	0300682e 	movweq	r6, #2094	; 0x82e
     ad8:	74730000 	ldrbtvc	r0, [r3], #-0
     adc:	66656464 	strbtvs	r6, [r5], -r4, ror #8
     ae0:	0400682e 	streq	r6, [r0], #-2094	; 0xfffff7d2
     ae4:	65720000 	ldrbvs	r0, [r2, #-0]!
     ae8:	2e746e65 	cdpcs	14, 7, cr6, cr4, cr5, {3}
     aec:	00030068 	andeq	r0, r3, r8, rrx
     af0:	64747300 	ldrbtvs	r7, [r4], #-768	; 0xfffffd00
     af4:	2e62696c 	vnmulcs.f16	s13, s4, s25	; <UNPREDICTABLE>
     af8:	00050068 	andeq	r0, r5, r8, rrx
     afc:	74735f00 	ldrbtvc	r5, [r3], #-3840	; 0xfffff100
     b00:	746e6964 	strbtvc	r6, [lr], #-2404	; 0xfffff69c
     b04:	0300682e 	movweq	r6, #2094	; 0x82e
     b08:	74730000 	ldrbtvc	r0, [r3], #-0
     b0c:	6632336d 	ldrtvs	r3, [r2], -sp, ror #6
     b10:	78333031 	ldmdavc	r3!, {r0, r4, r5, ip, sp}
     b14:	00682e38 	rsbeq	r2, r8, r8, lsr lr
     b18:	53000006 	movwpl	r0, #6
     b1c:	32336d74 	eorscc	r6, r3, #116, 26	; 0x1d00
     b20:	3031465f 	eorscc	r4, r1, pc, asr r6
     b24:	5f364333 	svcpl	0x00364333
     b28:	6f697067 	svcvs	0x00697067
     b2c:	6972645f 	ldmdbvs	r2!, {r0, r1, r2, r3, r4, r6, sl, sp, lr}^
     b30:	2e726576 	mrccs	5, 3, r6, cr2, cr6, {3}
     b34:	00060068 	andeq	r0, r6, r8, rrx
     b38:	65656900 	strbvs	r6, [r5, #-2304]!	; 0xfffff700
     b3c:	2e706665 	cdpcs	6, 7, cr6, cr0, cr5, {3}
     b40:	00020068 	andeq	r0, r2, r8, rrx
     b44:	6e615f00 	cdpvs	15, 6, cr5, cr1, cr0, {0}
     b48:	682e6973 	stmdavs	lr!, {r0, r1, r4, r5, r6, r8, fp, sp, lr}
     b4c:	00000500 	andeq	r0, r0, r0, lsl #10
     b50:	6c77656e 	cfldr64vs	mvdx6, [r7], #-440	; 0xfffffe48
     b54:	682e6269 	stmdavs	lr!, {r0, r3, r5, r6, r9, sp, lr}
     b58:	00000700 	andeq	r0, r0, r0, lsl #14
     b5c:	77656e5f 			; <UNDEFINED> instruction: 0x77656e5f
     b60:	5f62696c 	svcpl	0x0062696c
     b64:	73726576 	cmnvc	r2, #494927872	; 0x1d800000
     b68:	2e6e6f69 	cdpcs	15, 6, cr6, cr14, cr9, {3}
     b6c:	00050068 	andeq	r0, r5, r8, rrx
     b70:	6e6f6300 	cdpvs	3, 6, cr6, cr15, cr0, {0}
     b74:	2e676966 	vnmulcs.f16	s13, s14, s13	; <UNPREDICTABLE>
     b78:	00030068 	andeq	r0, r3, r8, rrx
     b7c:	61656600 	cmnvs	r5, r0, lsl #12
     b80:	65727574 	ldrbvs	r7, [r2, #-1396]!	; 0xfffffa8c
     b84:	00682e73 	rsbeq	r2, r8, r3, ror lr
     b88:	5f000003 	svcpl	0x00000003
     b8c:	65707974 	ldrbvs	r7, [r0, #-2420]!	; 0xfffff68c
     b90:	00682e73 	rsbeq	r2, r8, r3, ror lr
     b94:	63000002 	movwvs	r0, #2
     b98:	73666564 	cmnvc	r6, #100, 10	; 0x19000000
     b9c:	0300682e 	movweq	r6, #2094	; 0x82e
     ba0:	74730000 	ldrbtvc	r0, [r3], #-0
     ba4:	62696c64 	rsbvs	r6, r9, #100, 24	; 0x6400
     ba8:	0200682e 	andeq	r6, r0, #3014656	; 0x2e0000
     bac:	6c610000 	stclvs	0, cr0, [r1], #-0
     bb0:	61636f6c 	cmnvs	r3, ip, ror #30
     bb4:	0500682e 	streq	r6, [r0, #-2094]	; 0xfffff7d2
     bb8:	74730000 	ldrbtvc	r0, [r3], #-0
     bbc:	746e6964 	strbtvc	r6, [lr], #-2404	; 0xfffff69c
     bc0:	0400682e 	streq	r6, [r0], #-2094	; 0xfffff7d2
     bc4:	74730000 	ldrbtvc	r0, [r3], #-0
     bc8:	746e6964 	strbtvc	r6, [lr], #-2404	; 0xfffff69c
     bcc:	0500682e 	streq	r6, [r0, #-2094]	; 0xfffff7d2
     bd0:	695f0000 	ldmdbvs	pc, {}^	; <UNPREDICTABLE>
     bd4:	7573746e 	ldrbvc	r7, [r3, #-1134]!	; 0xfffffb92
     bd8:	00682e70 	rsbeq	r2, r8, r0, ror lr
     bdc:	00000003 	andeq	r0, r0, r3
     be0:	b2020500 	andlt	r0, r2, #0, 10
     be4:	03080002 	movweq	r0, #32770	; 0x8002
     be8:	0259010d 	subseq	r0, r9, #1073741827	; 0x40000003
     bec:	31311538 	teqcc	r1, r8, lsr r5
     bf0:	31313131 	teqcc	r1, r1, lsr r1
     bf4:	31313231 	teqcc	r1, r1, lsr r2
     bf8:	31313131 	teqcc	r1, r1, lsr r1
     bfc:	02213131 	eoreq	r3, r1, #1073741836	; 0x4000000c
     c00:	01010005 	tsteq	r1, r5
     c04:	78020500 	stmdavc	r2, {r8, sl}
     c08:	03080003 	movweq	r0, #32771	; 0x8003
     c0c:	5b0100d1 	blpl	40f58 <_Min_Stack_Size+0x40b58>
     c10:	02002f2f 	andeq	r2, r0, #47, 30	; 0xbc
     c14:	4a060104 	bmi	18102c <_Min_Stack_Size+0x180c2c>
     c18:	02040200 	andeq	r0, r4, #0, 4
     c1c:	0402002e 	streq	r0, [r2], #-46	; 0xffffffd2
     c20:	02002e04 	andeq	r2, r0, #4, 28	; 0x40
     c24:	23060404 	movwcs	r0, #25604	; 0x6404
     c28:	04040200 	streq	r0, [r4], #-512	; 0xfffffe00
     c2c:	040200e7 	streq	r0, [r2], #-231	; 0xffffff19
     c30:	004a0601 	subeq	r0, sl, r1, lsl #12
     c34:	4a020402 	bmi	81c44 <_Min_Stack_Size+0x81844>
     c38:	03040200 	movweq	r0, #16896	; 0x4200
     c3c:	ea4d064a 	b	134256c <_Min_Stack_Size+0x134216c>
     c40:	01040200 	mrseq	r0, R12_usr
     c44:	4d064a06 	vstrmi	s8, [r6, #-24]	; 0xffffffe8
     c48:	2f404d84 	svccs	0x00404d84
     c4c:	d787884d 	strle	r8, [r7, sp, asr #16]
     c50:	01000402 	tsteq	r0, r2, lsl #8
     c54:	02050001 	andeq	r0, r5, #1
     c58:	00000000 	andeq	r0, r0, r0
     c5c:	01018b03 	tsteq	r1, r3, lsl #22
     c60:	4c4a0c03 	mcrrmi	12, 0, r0, sl, cr3
     c64:	66160367 	ldrvs	r0, [r6], -r7, ror #6
     c68:	4c206c03 	stcmi	12, cr6, [r0], #-12
     c6c:	66110367 	ldrvs	r0, [r1], -r7, ror #6
     c70:	4c207103 	stfmis	f7, [r0], #-12
     c74:	660c0367 	strvs	r0, [ip], -r7, ror #6
     c78:	4c207603 	stcmi	6, cr7, [r0], #-12
     c7c:	4c1b6d67 	ldcmi	13, cr6, [fp], {103}	; 0x67
     c80:	12026867 	andne	r6, r2, #6750208	; 0x670000
     c84:	00010100 	andeq	r0, r1, r0, lsl #2
     c88:	00000205 	andeq	r0, r0, r5, lsl #4
     c8c:	bb030000 	bllt	c0c94 <_Min_Stack_Size+0xc0894>
     c90:	68680101 	stmdavs	r8!, {r0, r8}^
     c94:	02213040 	eoreq	r3, r1, #64	; 0x40
     c98:	01010005 	tsteq	r1, r5
     c9c:	00020500 	andeq	r0, r2, r0, lsl #10
     ca0:	03000000 	movweq	r0, #0
     ca4:	4c0101d1 	stfmis	f0, [r1], {209}	; 0xd1
     ca8:	0502213d 	streq	r2, [r2, #-317]	; 0xfffffec3
     cac:	00010100 	andeq	r0, r1, r0, lsl #2
     cb0:	00000205 	andeq	r0, r0, r5, lsl #4
     cb4:	e1030000 	mrs	r0, (UNDEF: 3)
     cb8:	03830101 	orreq	r0, r3, #1073741824	; 0x40000000
     cbc:	0b033c0a 	bleq	cfcec <_Min_Stack_Size+0xcf8ec>
     cc0:	023e1e3c 	eorseq	r1, lr, #60, 28	; 0x3c0
     cc4:	01010005 	tsteq	r1, r5
     cc8:	00020500 	andeq	r0, r2, r0, lsl #10
     ccc:	03000000 	movweq	r0, #0
     cd0:	67010281 	strvs	r0, [r1, -r1, lsl #5]
     cd4:	0005023d 	andeq	r0, r5, sp, lsr r2
     cd8:	05000101 	streq	r0, [r0, #-257]	; 0xfffffeff
     cdc:	00000002 	andeq	r0, r0, r2
     ce0:	028e0300 	addeq	r0, lr, #0, 6
     ce4:	02676701 	rsbeq	r6, r7, #262144	; 0x40000
     ce8:	01010005 	tsteq	r1, r5
     cec:	00020500 	andeq	r0, r2, r0, lsl #10
     cf0:	03000000 	movweq	r0, #0
     cf4:	0301029b 	movweq	r0, #4763	; 0x129b
     cf8:	513e6614 	teqpl	lr, r4, lsl r6
     cfc:	3d3d3d3d 	ldccc	13, cr3, [sp, #-244]!	; 0xffffff0c
     d00:	02223268 	eoreq	r3, r2, #104, 4	; 0x80000006
     d04:	01010005 	tsteq	r1, r5
     d08:	0000074e 	andeq	r0, r0, lr, asr #14
     d0c:	05860002 	streq	r0, [r6, #2]
     d10:	01020000 	mrseq	r0, (UNDEF: 2)
     d14:	000d0efb 	strdeq	r0, [sp], -fp
     d18:	01010101 	tsteq	r1, r1, lsl #2
     d1c:	01000000 	mrseq	r0, (UNDEF: 0)
     d20:	2e010000 	cdpcs	0, 0, cr0, cr1, cr0, {0}
     d24:	74532f2e 	ldrbvc	r2, [r3], #-3886	; 0xfffff0d2
     d28:	5f32336d 	svcpl	0x0032336d
     d2c:	33303146 	teqcc	r0, #-2147483631	; 0x80000011
     d30:	445f3643 	ldrbmi	r3, [pc], #-1603	; d38 <_Min_Stack_Size+0x938>
     d34:	65766972 	ldrbvs	r6, [r6, #-2418]!	; 0xfffff68e
     d38:	63007372 	movwvs	r7, #882	; 0x372
     d3c:	74735c3a 	ldrbtvc	r5, [r3], #-3130	; 0xfffff3c6
     d40:	6d74735c 	ldclvs	3, cr7, [r4, #-368]!	; 0xfffffe90
     d44:	75633233 	strbvc	r3, [r3, #-563]!	; 0xfffffdcd
     d48:	64696562 	strbtvs	r6, [r9], #-1378	; 0xfffffa9e
     d4c:	2e315f65 	cdpcs	15, 3, cr5, cr1, cr5, {3}
     d50:	5c302e34 	ldcpl	14, cr2, [r0], #-208	; 0xffffff30
     d54:	336d7473 	cmncc	sp, #1929379840	; 0x73000000
     d58:	62756332 	rsbsvs	r6, r5, #-939524096	; 0xc8000000
     d5c:	65646965 	strbvs	r6, [r4, #-2405]!	; 0xfffff69b
     d60:	756c705c 	strbvc	r7, [ip, #-92]!	; 0xffffffa4
     d64:	736e6967 	cmnvc	lr, #1687552	; 0x19c000
     d68:	6d6f635c 	stclvs	3, cr6, [pc, #-368]!	; c00 <_Min_Stack_Size+0x800>
     d6c:	2e74732e 	cdpcs	3, 7, cr7, cr4, cr14, {1}
     d70:	336d7473 	cmncc	sp, #1929379840	; 0x73000000
     d74:	62756332 	rsbsvs	r6, r5, #-939524096	; 0xc8000000
     d78:	64692e65 	strbtvs	r2, [r9], #-3685	; 0xfffff19b
     d7c:	636d2e65 	cmnvs	sp, #1616	; 0x650
     d80:	78652e75 	stmdavc	r5!, {r0, r2, r4, r5, r6, r9, sl, fp, sp}^
     d84:	6e726574 	mrcvs	5, 3, r6, cr2, cr4, {3}
     d88:	6f746c61 	svcvs	0x00746c61
     d8c:	2e736c6f 	cdpcs	12, 7, cr6, cr3, cr15, {3}
     d90:	2d756e67 	ldclcs	14, cr6, [r5, #-412]!	; 0xfffffe64
     d94:	6c6f6f74 	stclvs	15, cr6, [pc], #-464	; bcc <_Min_Stack_Size+0x7cc>
     d98:	6f662d73 	svcvs	0x00662d73
     d9c:	74732d72 	ldrbtvc	r2, [r3], #-3442	; 0xfffff28e
     da0:	2e32336d 	cdpcs	3, 3, cr3, cr2, cr13, {3}
     da4:	30322d37 	eorscc	r2, r2, r7, lsr sp
     da8:	712d3831 			; <UNDEFINED> instruction: 0x712d3831
     dac:	70752d32 	rsbsvc	r2, r5, r2, lsr sp
     db0:	65746164 	ldrbvs	r6, [r4, #-356]!	; 0xfffffe9c
     db4:	6e69772e 	cdpvs	7, 6, cr7, cr9, cr14, {1}
     db8:	315f3233 	cmpcc	pc, r3, lsr r2	; <UNPREDICTABLE>
     dbc:	302e342e 	eorcc	r3, lr, lr, lsr #8
     dc0:	3230322e 	eorscc	r3, r0, #-536870910	; 0xe0000002
     dc4:	30373030 	eorscc	r3, r7, r0, lsr r0
     dc8:	30323138 	eorscc	r3, r2, r8, lsr r1
     dcc:	6f745c38 	svcvs	0x00745c38
     dd0:	5c736c6f 	ldclpl	12, cr6, [r3], #-444	; 0xfffffe44
     dd4:	2d6d7261 	sfmcs	f7, 2, [sp, #-388]!	; 0xfffffe7c
     dd8:	656e6f6e 	strbvs	r6, [lr, #-3950]!	; 0xfffff092
     ddc:	6261652d 	rsbvs	r6, r1, #188743680	; 0xb400000
     de0:	6e695c69 	cdpvs	12, 6, cr5, cr9, cr9, {3}
     de4:	64756c63 	ldrbtvs	r6, [r5], #-3171	; 0xfffff39d
     de8:	616d5c65 	cmnvs	sp, r5, ror #24
     dec:	6e696863 	cdpvs	8, 6, cr6, cr9, cr3, {3}
     df0:	3a630065 	bcc	18c0f8c <_Min_Stack_Size+0x18c0b8c>
     df4:	5c74735c 	ldclpl	3, cr7, [r4], #-368	; 0xfffffe90
     df8:	336d7473 	cmncc	sp, #1929379840	; 0x73000000
     dfc:	62756332 	rsbsvs	r6, r5, #-939524096	; 0xc8000000
     e00:	65646965 	strbvs	r6, [r4, #-2405]!	; 0xfffff69b
     e04:	342e315f 	strtcc	r3, [lr], #-351	; 0xfffffea1
     e08:	735c302e 	cmpvc	ip, #46	; 0x2e
     e0c:	32336d74 	eorscc	r6, r3, #116, 26	; 0x1d00
     e10:	65627563 	strbvs	r7, [r2, #-1379]!	; 0xfffffa9d
     e14:	5c656469 	cfstrdpl	mvd6, [r5], #-420	; 0xfffffe5c
     e18:	67756c70 			; <UNDEFINED> instruction: 0x67756c70
     e1c:	5c736e69 	ldclpl	14, cr6, [r3], #-420	; 0xfffffe5c
     e20:	2e6d6f63 	cdpcs	15, 6, cr6, cr13, cr3, {3}
     e24:	732e7473 			; <UNDEFINED> instruction: 0x732e7473
     e28:	32336d74 	eorscc	r6, r3, #116, 26	; 0x1d00
     e2c:	65627563 	strbvs	r7, [r2, #-1379]!	; 0xfffffa9d
     e30:	6564692e 	strbvs	r6, [r4, #-2350]!	; 0xfffff6d2
     e34:	75636d2e 	strbvc	r6, [r3, #-3374]!	; 0xfffff2d2
     e38:	7478652e 	ldrbtvc	r6, [r8], #-1326	; 0xfffffad2
     e3c:	616e7265 	cmnvs	lr, r5, ror #4
     e40:	6f6f746c 	svcvs	0x006f746c
     e44:	672e736c 	strvs	r7, [lr, -ip, ror #6]!
     e48:	742d756e 	strtvc	r7, [sp], #-1390	; 0xfffffa92
     e4c:	736c6f6f 	cmnvc	ip, #444	; 0x1bc
     e50:	726f662d 	rsbvc	r6, pc, #47185920	; 0x2d00000
     e54:	6d74732d 	ldclvs	3, cr7, [r4, #-180]!	; 0xffffff4c
     e58:	372e3233 			; <UNDEFINED> instruction: 0x372e3233
     e5c:	3130322d 	teqcc	r0, sp, lsr #4
     e60:	32712d38 	rsbscc	r2, r1, #56, 26	; 0xe00
     e64:	6470752d 	ldrbtvs	r7, [r0], #-1325	; 0xfffffad3
     e68:	2e657461 	cdpcs	4, 6, cr7, cr5, cr1, {3}
     e6c:	336e6977 	cmncc	lr, #1949696	; 0x1dc000
     e70:	2e315f32 	mrccs	15, 1, r5, cr1, cr2, {1}
     e74:	2e302e34 	mrccs	14, 1, r2, cr0, cr4, {1}
     e78:	30323032 	eorscc	r3, r2, r2, lsr r0
     e7c:	38303730 	ldmdacc	r0!, {r4, r5, r8, r9, sl, ip, sp}
     e80:	38303231 	ldmdacc	r0!, {r0, r4, r5, r9, ip, sp}
     e84:	6f6f745c 	svcvs	0x006f745c
     e88:	615c736c 	cmpvs	ip, ip, ror #6
     e8c:	6e2d6d72 	mcrvs	13, 1, r6, cr13, cr2, {3}
     e90:	2d656e6f 	stclcs	14, cr6, [r5, #-444]!	; 0xfffffe44
     e94:	69626165 	stmdbvs	r2!, {r0, r2, r5, r6, r8, sp, lr}^
     e98:	636e695c 	cmnvs	lr, #92, 18	; 0x170000
     e9c:	6564756c 	strbvs	r7, [r4, #-1388]!	; 0xfffffa94
     ea0:	7379735c 	cmnvc	r9, #92, 6	; 0x70000001
     ea4:	5c3a6300 	ldcpl	3, cr6, [sl], #-0
     ea8:	735c7473 	cmpvc	ip, #1929379840	; 0x73000000
     eac:	32336d74 	eorscc	r6, r3, #116, 26	; 0x1d00
     eb0:	65627563 	strbvs	r7, [r2, #-1379]!	; 0xfffffa9d
     eb4:	5f656469 	svcpl	0x00656469
     eb8:	2e342e31 	mrccs	14, 1, r2, cr4, cr1, {1}
     ebc:	74735c30 	ldrbtvc	r5, [r3], #-3120	; 0xfffff3d0
     ec0:	6332336d 	teqvs	r2, #-1275068415	; 0xb4000001
     ec4:	69656275 	stmdbvs	r5!, {r0, r2, r4, r5, r6, r9, sp, lr}^
     ec8:	705c6564 	subsvc	r6, ip, r4, ror #10
     ecc:	6967756c 	stmdbvs	r7!, {r2, r3, r5, r6, r8, sl, ip, sp, lr}^
     ed0:	635c736e 	cmpvs	ip, #-1207959551	; 0xb8000001
     ed4:	732e6d6f 			; <UNDEFINED> instruction: 0x732e6d6f
     ed8:	74732e74 	ldrbtvc	r2, [r3], #-3700	; 0xfffff18c
     edc:	6332336d 	teqvs	r2, #-1275068415	; 0xb4000001
     ee0:	2e656275 	mcrcs	2, 3, r6, cr5, cr5, {3}
     ee4:	2e656469 	cdpcs	4, 6, cr6, cr5, cr9, {3}
     ee8:	2e75636d 	cdpcs	3, 7, cr6, cr5, cr13, {3}
     eec:	65747865 	ldrbvs	r7, [r4, #-2149]!	; 0xfffff79b
     ef0:	6c616e72 	stclvs	14, cr6, [r1], #-456	; 0xfffffe38
     ef4:	6c6f6f74 	stclvs	15, cr6, [pc], #-464	; d2c <_Min_Stack_Size+0x92c>
     ef8:	6e672e73 	mcrvs	14, 3, r2, cr7, cr3, {3}
     efc:	6f742d75 	svcvs	0x00742d75
     f00:	2d736c6f 	ldclcs	12, cr6, [r3, #-444]!	; 0xfffffe44
     f04:	2d726f66 	ldclcs	15, cr6, [r2, #-408]!	; 0xfffffe68
     f08:	336d7473 	cmncc	sp, #1929379840	; 0x73000000
     f0c:	2d372e32 	ldccs	14, cr2, [r7, #-200]!	; 0xffffff38
     f10:	38313032 	ldmdacc	r1!, {r1, r4, r5, ip, sp}
     f14:	2d32712d 	ldfcss	f7, [r2, #-180]!	; 0xffffff4c
     f18:	61647075 	smcvs	18181	; 0x4705
     f1c:	772e6574 			; <UNDEFINED> instruction: 0x772e6574
     f20:	32336e69 	eorscc	r6, r3, #1680	; 0x690
     f24:	342e315f 	strtcc	r3, [lr], #-351	; 0xfffffea1
     f28:	322e302e 	eorcc	r3, lr, #46	; 0x2e
     f2c:	30303230 	eorscc	r3, r0, r0, lsr r2
     f30:	31383037 	teqcc	r8, r7, lsr r0
     f34:	5c383032 	ldcpl	0, cr3, [r8], #-200	; 0xffffff38
     f38:	6c6f6f74 	stclvs	15, cr6, [pc], #-464	; d70 <_Min_Stack_Size+0x970>
     f3c:	696c5c73 	stmdbvs	ip!, {r0, r1, r4, r5, r6, sl, fp, ip, lr}^
     f40:	63675c62 	cmnvs	r7, #25088	; 0x6200
     f44:	72615c63 	rsbvc	r5, r1, #25344	; 0x6300
     f48:	6f6e2d6d 	svcvs	0x006e2d6d
     f4c:	652d656e 	strvs	r6, [sp, #-1390]!	; 0xfffffa92
     f50:	5c696261 	sfmpl	f6, 2, [r9], #-388	; 0xfffffe7c
     f54:	2e332e37 	mrccs	14, 1, r2, cr3, cr7, {1}
     f58:	6e695c31 	mcrvs	12, 3, r5, cr9, cr1, {1}
     f5c:	64756c63 	ldrbtvs	r6, [r5], #-3171	; 0xfffff39d
     f60:	3a630065 	bcc	18c10fc <_Min_Stack_Size+0x18c0cfc>
     f64:	5c74735c 	ldclpl	3, cr7, [r4], #-368	; 0xfffffe90
     f68:	336d7473 	cmncc	sp, #1929379840	; 0x73000000
     f6c:	62756332 	rsbsvs	r6, r5, #-939524096	; 0xc8000000
     f70:	65646965 	strbvs	r6, [r4, #-2405]!	; 0xfffff69b
     f74:	342e315f 	strtcc	r3, [lr], #-351	; 0xfffffea1
     f78:	735c302e 	cmpvc	ip, #46	; 0x2e
     f7c:	32336d74 	eorscc	r6, r3, #116, 26	; 0x1d00
     f80:	65627563 	strbvs	r7, [r2, #-1379]!	; 0xfffffa9d
     f84:	5c656469 	cfstrdpl	mvd6, [r5], #-420	; 0xfffffe5c
     f88:	67756c70 			; <UNDEFINED> instruction: 0x67756c70
     f8c:	5c736e69 	ldclpl	14, cr6, [r3], #-420	; 0xfffffe5c
     f90:	2e6d6f63 	cdpcs	15, 6, cr6, cr13, cr3, {3}
     f94:	732e7473 			; <UNDEFINED> instruction: 0x732e7473
     f98:	32336d74 	eorscc	r6, r3, #116, 26	; 0x1d00
     f9c:	65627563 	strbvs	r7, [r2, #-1379]!	; 0xfffffa9d
     fa0:	6564692e 	strbvs	r6, [r4, #-2350]!	; 0xfffff6d2
     fa4:	75636d2e 	strbvc	r6, [r3, #-3374]!	; 0xfffff2d2
     fa8:	7478652e 	ldrbtvc	r6, [r8], #-1326	; 0xfffffad2
     fac:	616e7265 	cmnvs	lr, r5, ror #4
     fb0:	6f6f746c 	svcvs	0x006f746c
     fb4:	672e736c 	strvs	r7, [lr, -ip, ror #6]!
     fb8:	742d756e 	strtvc	r7, [sp], #-1390	; 0xfffffa92
     fbc:	736c6f6f 	cmnvc	ip, #444	; 0x1bc
     fc0:	726f662d 	rsbvc	r6, pc, #47185920	; 0x2d00000
     fc4:	6d74732d 	ldclvs	3, cr7, [r4, #-180]!	; 0xffffff4c
     fc8:	372e3233 			; <UNDEFINED> instruction: 0x372e3233
     fcc:	3130322d 	teqcc	r0, sp, lsr #4
     fd0:	32712d38 	rsbscc	r2, r1, #56, 26	; 0xe00
     fd4:	6470752d 	ldrbtvs	r7, [r0], #-1325	; 0xfffffad3
     fd8:	2e657461 	cdpcs	4, 6, cr7, cr5, cr1, {3}
     fdc:	336e6977 	cmncc	lr, #1949696	; 0x1dc000
     fe0:	2e315f32 	mrccs	15, 1, r5, cr1, cr2, {1}
     fe4:	2e302e34 	mrccs	14, 1, r2, cr0, cr4, {1}
     fe8:	30323032 	eorscc	r3, r2, r2, lsr r0
     fec:	38303730 	ldmdacc	r0!, {r4, r5, r8, r9, sl, ip, sp}
     ff0:	38303231 	ldmdacc	r0!, {r0, r4, r5, r9, ip, sp}
     ff4:	6f6f745c 	svcvs	0x006f745c
     ff8:	615c736c 	cmpvs	ip, ip, ror #6
     ffc:	6e2d6d72 	mcrvs	13, 1, r6, cr13, cr2, {3}
    1000:	2d656e6f 	stclcs	14, cr6, [r5, #-444]!	; 0xfffffe44
    1004:	69626165 	stmdbvs	r2!, {r0, r2, r5, r6, r8, sp, lr}^
    1008:	636e695c 	cmnvs	lr, #92, 18	; 0x170000
    100c:	6564756c 	strbvs	r7, [r4, #-1388]!	; 0xfffffa94
    1010:	2f3a4400 	svccs	0x003a4400
    1014:	7473614d 	ldrbtvc	r6, [r3], #-333	; 0xfffffeb3
    1018:	6e697265 	cdpvs	2, 6, cr7, cr9, cr5, {3}
    101c:	6d452067 	stclvs	0, cr2, [r5, #-412]	; 0xfffffe64
    1020:	64646562 	strbtvs	r6, [r4], #-1378	; 0xfffffa9e
    1024:	53206465 			; <UNDEFINED> instruction: 0x53206465
    1028:	65747379 	ldrbvs	r7, [r4, #-889]!	; 0xfffffc87
    102c:	552f736d 	strpl	r7, [pc, #-877]!	; cc7 <_Min_Stack_Size+0x8c7>
    1030:	2074696e 	rsbscs	r6, r4, lr, ror #18
    1034:	41203431 			; <UNDEFINED> instruction: 0x41203431
    1038:	752f4d52 	strvc	r4, [pc, #-3410]!	; 2ee <_Min_Heap_Size+0xee>
    103c:	3174696e 	cmncc	r4, lr, ror #18
    1040:	656c5f34 	strbvs	r5, [ip, #-3892]!	; 0xfffff0cc
    1044:	6e6f7373 	mcrvs	3, 3, r7, cr15, cr3, {3}
    1048:	616c5f32 	cmnvs	ip, r2, lsr pc
    104c:	442f3162 	strtmi	r3, [pc], #-354	; 1054 <_Min_Stack_Size+0xc54>
    1050:	65766972 	ldrbvs	r6, [r6, #-2418]!	; 0xfffff68e
    1054:	532f7372 			; <UNDEFINED> instruction: 0x532f7372
    1058:	32336d74 	eorscc	r6, r3, #116, 26	; 0x1d00
    105c:	3031465f 	eorscc	r4, r1, pc, asr r6
    1060:	5f364333 	svcpl	0x00364333
    1064:	76697244 	strbtvc	r7, [r9], -r4, asr #4
    1068:	2f737265 	svccs	0x00737265
    106c:	00636e69 	rsbeq	r6, r3, r9, ror #28
    1070:	735c3a63 	cmpvc	ip, #405504	; 0x63000
    1074:	74735c74 	ldrbtvc	r5, [r3], #-3188	; 0xfffff38c
    1078:	6332336d 	teqvs	r2, #-1275068415	; 0xb4000001
    107c:	69656275 	stmdbvs	r5!, {r0, r2, r4, r5, r6, r9, sp, lr}^
    1080:	315f6564 	cmpcc	pc, r4, ror #10
    1084:	302e342e 	eorcc	r3, lr, lr, lsr #8
    1088:	6d74735c 	ldclvs	3, cr7, [r4, #-368]!	; 0xfffffe90
    108c:	75633233 	strbvc	r3, [r3, #-563]!	; 0xfffffdcd
    1090:	64696562 	strbtvs	r6, [r9], #-1378	; 0xfffffa9e
    1094:	6c705c65 	ldclvs	12, cr5, [r0], #-404	; 0xfffffe6c
    1098:	6e696775 	mcrvs	7, 3, r6, cr9, cr5, {3}
    109c:	6f635c73 	svcvs	0x00635c73
    10a0:	74732e6d 	ldrbtvc	r2, [r3], #-3693	; 0xfffff193
    10a4:	6d74732e 	ldclvs	3, cr7, [r4, #-184]!	; 0xffffff48
    10a8:	75633233 	strbvc	r3, [r3, #-563]!	; 0xfffffdcd
    10ac:	692e6562 	stmdbvs	lr!, {r1, r5, r6, r8, sl, sp, lr}
    10b0:	6d2e6564 	cfstr32vs	mvfx6, [lr, #-400]!	; 0xfffffe70
    10b4:	652e7563 	strvs	r7, [lr, #-1379]!	; 0xfffffa9d
    10b8:	72657478 	rsbvc	r7, r5, #120, 8	; 0x78000000
    10bc:	746c616e 	strbtvc	r6, [ip], #-366	; 0xfffffe92
    10c0:	736c6f6f 	cmnvc	ip, #444	; 0x1bc
    10c4:	756e672e 	strbvc	r6, [lr, #-1838]!	; 0xfffff8d2
    10c8:	6f6f742d 	svcvs	0x006f742d
    10cc:	662d736c 	strtvs	r7, [sp], -ip, ror #6
    10d0:	732d726f 			; <UNDEFINED> instruction: 0x732d726f
    10d4:	32336d74 	eorscc	r6, r3, #116, 26	; 0x1d00
    10d8:	322d372e 	eorcc	r3, sp, #12058624	; 0xb80000
    10dc:	2d383130 	ldfcss	f3, [r8, #-192]!	; 0xffffff40
    10e0:	752d3271 	strvc	r3, [sp, #-625]!	; 0xfffffd8f
    10e4:	74616470 	strbtvc	r6, [r1], #-1136	; 0xfffffb90
    10e8:	69772e65 	ldmdbvs	r7!, {r0, r2, r5, r6, r9, sl, fp, sp}^
    10ec:	5f32336e 	svcpl	0x0032336e
    10f0:	2e342e31 	mrccs	14, 1, r2, cr4, cr1, {1}
    10f4:	30322e30 	eorscc	r2, r2, r0, lsr lr
    10f8:	37303032 			; <UNDEFINED> instruction: 0x37303032
    10fc:	32313830 	eorscc	r3, r1, #48, 16	; 0x300000
    1100:	745c3830 	ldrbvc	r3, [ip], #-2096	; 0xfffff7d0
    1104:	736c6f6f 	cmnvc	ip, #444	; 0x1bc
    1108:	6d72615c 	ldfvse	f6, [r2, #-368]!	; 0xfffffe90
    110c:	6e6f6e2d 	cdpvs	14, 6, cr6, cr15, cr13, {1}
    1110:	61652d65 	cmnvs	r5, r5, ror #26
    1114:	695c6962 	ldmdbvs	ip, {r1, r5, r6, r8, fp, sp, lr}^
    1118:	756c636e 	strbvc	r6, [ip, #-878]!	; 0xfffffc92
    111c:	6e5c6564 	cdpvs	5, 5, cr6, cr12, cr4, {3}
    1120:	696c7765 	stmdbvs	ip!, {r0, r2, r5, r6, r8, r9, sl, ip, sp, lr}^
    1124:	616e2d62 	cmnvs	lr, r2, ror #26
    1128:	00006f6e 	andeq	r6, r0, lr, ror #30
    112c:	336d7453 	cmncc	sp, #1392508928	; 0x53000000
    1130:	31465f32 	cmpcc	r6, r2, lsr pc
    1134:	36433330 			; <UNDEFINED> instruction: 0x36433330
    1138:	5458455f 	ldrbpl	r4, [r8], #-1375	; 0xfffffaa1
    113c:	72645f49 	rsbvc	r5, r4, #292	; 0x124
    1140:	72657669 	rsbvc	r7, r5, #110100480	; 0x6900000
    1144:	0100632e 	tsteq	r0, lr, lsr #6
    1148:	645f0000 	ldrbvs	r0, [pc], #-0	; 1150 <_Min_Stack_Size+0xd50>
    114c:	75616665 	strbvc	r6, [r1, #-1637]!	; 0xfffff99b
    1150:	745f746c 	ldrbvc	r7, [pc], #-1132	; 1158 <_Min_Stack_Size+0xd58>
    1154:	73657079 	cmnvc	r5, #121	; 0x79
    1158:	0200682e 	andeq	r6, r0, #3014656	; 0x2e0000
    115c:	6f6c0000 	svcvs	0x006c0000
    1160:	682e6b63 	stmdavs	lr!, {r0, r1, r5, r6, r8, r9, fp, sp, lr}
    1164:	00000300 	andeq	r0, r0, r0, lsl #6
    1168:	7079745f 	rsbsvc	r7, r9, pc, asr r4
    116c:	682e7365 	stmdavs	lr!, {r0, r2, r5, r6, r8, r9, ip, sp, lr}
    1170:	00000300 	andeq	r0, r0, r0, lsl #6
    1174:	64647473 	strbtvs	r7, [r4], #-1139	; 0xfffffb8d
    1178:	682e6665 	stmdavs	lr!, {r0, r2, r5, r6, r9, sl, sp, lr}
    117c:	00000400 	andeq	r0, r0, r0, lsl #8
    1180:	6e656572 	mcrvs	5, 3, r6, cr5, cr2, {3}
    1184:	00682e74 	rsbeq	r2, r8, r4, ror lr
    1188:	73000003 	movwvc	r0, #3
    118c:	696c6474 	stmdbvs	ip!, {r2, r4, r5, r6, sl, sp, lr}^
    1190:	00682e62 	rsbeq	r2, r8, r2, ror #28
    1194:	5f000005 	svcpl	0x00000005
    1198:	69647473 	stmdbvs	r4!, {r0, r1, r4, r5, r6, sl, ip, sp, lr}^
    119c:	682e746e 	stmdavs	lr!, {r1, r2, r3, r5, r6, sl, ip, sp, lr}
    11a0:	00000300 	andeq	r0, r0, r0, lsl #6
    11a4:	336d7473 	cmncc	sp, #1929379840	; 0x73000000
    11a8:	30316632 	eorscc	r6, r1, r2, lsr r6
    11ac:	2e387833 	mrccs	8, 1, r7, cr8, cr3, {1}
    11b0:	00060068 	andeq	r0, r6, r8, rrx
    11b4:	6d745300 	ldclvs	3, cr5, [r4, #-0]
    11b8:	465f3233 			; <UNDEFINED> instruction: 0x465f3233
    11bc:	43333031 	teqmi	r3, #49	; 0x31
    11c0:	70675f36 	rsbvc	r5, r7, r6, lsr pc
    11c4:	645f6f69 	ldrbvs	r6, [pc], #-3945	; 11cc <_Min_Stack_Size+0xdcc>
    11c8:	65766972 	ldrbvs	r6, [r6, #-2418]!	; 0xfffff68e
    11cc:	00682e72 	rsbeq	r2, r8, r2, ror lr
    11d0:	53000006 	movwpl	r0, #6
    11d4:	32336d74 	eorscc	r6, r3, #116, 26	; 0x1d00
    11d8:	3031465f 	eorscc	r4, r1, pc, asr r6
    11dc:	5f364333 	svcpl	0x00364333
    11e0:	49545845 	ldmdbmi	r4, {r0, r2, r6, fp, ip, lr}^
    11e4:	6972645f 	ldmdbvs	r2!, {r0, r1, r2, r3, r4, r6, sl, sp, lr}^
    11e8:	2e726576 	mrccs	5, 3, r6, cr2, cr6, {3}
    11ec:	00060068 	andeq	r0, r6, r8, rrx
    11f0:	65656900 	strbvs	r6, [r5, #-2304]!	; 0xfffff700
    11f4:	2e706665 	cdpcs	6, 7, cr6, cr0, cr5, {3}
    11f8:	00020068 	andeq	r0, r2, r8, rrx
    11fc:	6e615f00 	cdpvs	15, 6, cr5, cr1, cr0, {0}
    1200:	682e6973 	stmdavs	lr!, {r0, r1, r4, r5, r6, r8, fp, sp, lr}
    1204:	00000500 	andeq	r0, r0, r0, lsl #10
    1208:	6c77656e 	cfldr64vs	mvdx6, [r7], #-440	; 0xfffffe48
    120c:	682e6269 	stmdavs	lr!, {r0, r3, r5, r6, r9, sp, lr}
    1210:	00000700 	andeq	r0, r0, r0, lsl #14
    1214:	77656e5f 			; <UNDEFINED> instruction: 0x77656e5f
    1218:	5f62696c 	svcpl	0x0062696c
    121c:	73726576 	cmnvc	r2, #494927872	; 0x1d800000
    1220:	2e6e6f69 	cdpcs	15, 6, cr6, cr14, cr9, {3}
    1224:	00050068 	andeq	r0, r5, r8, rrx
    1228:	6e6f6300 	cdpvs	3, 6, cr6, cr15, cr0, {0}
    122c:	2e676966 	vnmulcs.f16	s13, s14, s13	; <UNPREDICTABLE>
    1230:	00030068 	andeq	r0, r3, r8, rrx
    1234:	61656600 	cmnvs	r5, r0, lsl #12
    1238:	65727574 	ldrbvs	r7, [r2, #-1396]!	; 0xfffffa8c
    123c:	00682e73 	rsbeq	r2, r8, r3, ror lr
    1240:	5f000003 	svcpl	0x00000003
    1244:	65707974 	ldrbvs	r7, [r0, #-2420]!	; 0xfffff68c
    1248:	00682e73 	rsbeq	r2, r8, r3, ror lr
    124c:	63000002 	movwvs	r0, #2
    1250:	73666564 	cmnvc	r6, #100, 10	; 0x19000000
    1254:	0300682e 	movweq	r6, #2094	; 0x82e
    1258:	74730000 	ldrbtvc	r0, [r3], #-0
    125c:	62696c64 	rsbvs	r6, r9, #100, 24	; 0x6400
    1260:	0200682e 	andeq	r6, r0, #3014656	; 0x2e0000
    1264:	6c610000 	stclvs	0, cr0, [r1], #-0
    1268:	61636f6c 	cmnvs	r3, ip, ror #30
    126c:	0500682e 	streq	r6, [r0, #-2094]	; 0xfffff7d2
    1270:	74730000 	ldrbtvc	r0, [r3], #-0
    1274:	746e6964 	strbtvc	r6, [lr], #-2404	; 0xfffff69c
    1278:	0400682e 	streq	r6, [r0], #-2094	; 0xfffff7d2
    127c:	74730000 	ldrbtvc	r0, [r3], #-0
    1280:	746e6964 	strbtvc	r6, [lr], #-2404	; 0xfffff69c
    1284:	0500682e 	streq	r6, [r0, #-2094]	; 0xfffff7d2
    1288:	695f0000 	ldmdbvs	pc, {}^	; <UNPREDICTABLE>
    128c:	7573746e 	ldrbvc	r7, [r3, #-1134]!	; 0xfffffb92
    1290:	00682e70 	rsbeq	r2, r8, r0, ror lr
    1294:	00000003 	andeq	r0, r0, r3
    1298:	78020500 	stmdavc	r2, {r8, sl}
    129c:	03080004 	movweq	r0, #32772	; 0x8004
    12a0:	0259011c 	subseq	r0, r9, #28, 2
    12a4:	22671527 	rsbcs	r1, r7, #163577856	; 0x9c00000
    12a8:	22672267 	rsbcs	r2, r7, #1879048198	; 0x70000006
    12ac:	26672267 	strbtcs	r2, [r7], -r7, ror #4
    12b0:	22672767 	rsbcs	r2, r7, #27000832	; 0x19c0000
    12b4:	01000902 	tsteq	r0, r2, lsl #18
    12b8:	02050001 	andeq	r0, r5, #1
    12bc:	08000544 	stmdaeq	r0, {r2, r6, r8, sl}
    12c0:	0100c103 	tsteq	r0, r3, lsl #2
    12c4:	15270259 	strne	r0, [r7, #-601]!	; 0xfffffda7
    12c8:	22672267 	rsbcs	r2, r7, #1879048198	; 0x70000006
    12cc:	22672267 	rsbcs	r2, r7, #1879048198	; 0x70000006
    12d0:	27672667 	strbcs	r2, [r7, -r7, ror #12]!
    12d4:	09022267 	stmdbeq	r2, {r0, r1, r2, r5, r6, r9, sp}
    12d8:	00010100 	andeq	r0, r1, r0, lsl #2
    12dc:	06100205 	ldreq	r0, [r0], -r5, lsl #4
    12e0:	e6030800 	str	r0, [r3], -r0, lsl #16
    12e4:	3d4d0100 	stfcce	f0, [sp, #-0]
    12e8:	8559852f 	ldrbhi	r8, [r9, #-1327]	; 0xfffffad1
    12ec:	02001308 	andeq	r1, r0, #8, 6	; 0x20000000
    12f0:	9e060104 	adflss	f0, f6, f4
    12f4:	03040200 	movweq	r0, #16896	; 0x4200
    12f8:	04020058 	streq	r0, [r2], #-88	; 0xffffffa8
    12fc:	02005805 	andeq	r5, r0, #327680	; 0x50000
    1300:	00580704 	subseq	r0, r8, r4, lsl #14
    1304:	2e080402 	cdpcs	4, 0, cr0, cr8, cr2, {0}
    1308:	06040200 	streq	r0, [r4], -r0, lsl #4
    130c:	0402002e 	streq	r0, [r2], #-46	; 0xffffffd2
    1310:	02002e04 	andeq	r2, r0, #4, 28	; 0x40
    1314:	002e0204 	eoreq	r0, lr, r4, lsl #4
    1318:	20100402 	andscs	r0, r0, r2, lsl #8
    131c:	10040200 	andne	r0, r4, r0, lsl #4
    1320:	02009306 	andeq	r9, r0, #402653184	; 0x18000000
    1324:	00bb1004 	adcseq	r1, fp, r4
    1328:	bc100402 	cfldrslt	mvf0, [r0], {2}
    132c:	bc4cbc4c 	mcrrlt	12, 4, fp, ip, cr12
    1330:	85b0ad4c 	ldrhi	sl, [r0, #3404]!	; 0xd4c
    1334:	1d5fad4c 	ldclne	13, cr10, [pc, #-304]	; 120c <_Min_Stack_Size+0xe0c>
    1338:	12025abb 	andne	r5, r2, #765952	; 0xbb000
    133c:	00010100 	andeq	r0, r1, r0, lsl #2
    1340:	07e80205 	strbeq	r0, [r8, r5, lsl #4]!
    1344:	a5030800 	strge	r0, [r3, #-2048]	; 0xfffff800
    1348:	3d4b0101 	stfcce	f0, [fp, #-4]
    134c:	01000402 	tsteq	r0, r2, lsl #8
    1350:	02050001 	andeq	r0, r5, #1
    1354:	00000000 	andeq	r0, r0, r0
    1358:	0101b103 	tsteq	r1, r3, lsl #2
    135c:	3d3d3d2f 	ldccc	13, cr3, [sp, #-188]!	; 0xffffff44
    1360:	674d3f3d 	smlaldxvs	r3, sp, sp, pc	; <UNPREDICTABLE>
    1364:	67676767 	strbvs	r6, [r7, -r7, ror #14]!
    1368:	0b026867 	bleq	9b50c <_Min_Stack_Size+0x9b10c>
    136c:	00010100 	andeq	r0, r1, r0, lsl #2
    1370:	00000205 	andeq	r0, r0, r5, lsl #4
    1374:	d0030000 	andle	r0, r3, r0
    1378:	3d4b0101 	stfcce	f0, [fp, #-4]
    137c:	01000402 	tsteq	r0, r2, lsl #8
    1380:	02050001 	andeq	r0, r5, #1
    1384:	08000800 	stmdaeq	r0, {fp}
    1388:	0101da03 	tsteq	r1, r3, lsl #20
    138c:	023d6830 	eorseq	r6, sp, #48, 16	; 0x300000
    1390:	01010007 	tsteq	r1, r7
    1394:	24020500 	strcs	r0, [r2], #-1280	; 0xfffffb00
    1398:	03080008 	movweq	r0, #32776	; 0x8008
    139c:	2f0101e2 	svccs	0x000101e2
    13a0:	07023d67 	streq	r3, [r2, -r7, ror #26]
    13a4:	00010100 	andeq	r0, r1, r0, lsl #2
    13a8:	08480205 	stmdaeq	r8, {r0, r2, r9}^
    13ac:	e8030800 	stmda	r3, {fp}
    13b0:	672f0101 	strvs	r0, [pc, -r1, lsl #2]!
    13b4:	0007023d 	andeq	r0, r7, sp, lsr r2
    13b8:	05000101 	streq	r0, [r0, #-257]	; 0xfffffeff
    13bc:	00086c02 	andeq	r6, r8, r2, lsl #24
    13c0:	01ee0308 	mvneq	r0, r8, lsl #6
    13c4:	3d672f01 	stclcc	15, cr2, [r7, #-4]!
    13c8:	01000702 	tsteq	r0, r2, lsl #14
    13cc:	02050001 	andeq	r0, r5, #1
    13d0:	08000890 	stmdaeq	r0, {r4, r7, fp}
    13d4:	0101f403 	tsteq	r1, r3, lsl #8	; <UNPREDICTABLE>
    13d8:	023d672f 	eorseq	r6, sp, #12320768	; 0xbc0000
    13dc:	01010007 	tsteq	r1, r7
    13e0:	b4020500 	strlt	r0, [r2], #-1280	; 0xfffffb00
    13e4:	03080008 	movweq	r0, #32776	; 0x8008
    13e8:	2f0101fa 	svccs	0x000101fa
    13ec:	01040200 	mrseq	r0, R12_usr
    13f0:	91066606 	tstls	r6, r6, lsl #12
    13f4:	01040200 	mrseq	r0, R12_usr
    13f8:	91066606 	tstls	r6, r6, lsl #12
    13fc:	01040200 	mrseq	r0, R12_usr
    1400:	91066606 	tstls	r6, r6, lsl #12
    1404:	01040200 	mrseq	r0, R12_usr
    1408:	91066606 	tstls	r6, r6, lsl #12
    140c:	01040200 	mrseq	r0, R12_usr
    1410:	91066606 	tstls	r6, r6, lsl #12
    1414:	01000702 	tsteq	r0, r2, lsl #14
    1418:	02050001 	andeq	r0, r5, #1
    141c:	0800095c 	stmdaeq	r0, {r2, r3, r4, r6, r8, fp}
    1420:	01028303 	tsteq	r2, r3, lsl #6
    1424:	0402002f 	streq	r0, [r2], #-47	; 0xffffffd1
    1428:	06660601 	strbteq	r0, [r6], -r1, lsl #12
    142c:	04020091 	streq	r0, [r2], #-145	; 0xffffff6f
    1430:	06660601 	strbteq	r0, [r6], -r1, lsl #12
    1434:	04020091 	streq	r0, [r2], #-145	; 0xffffff6f
    1438:	06660601 	strbteq	r0, [r6], -r1, lsl #12
    143c:	04020091 	streq	r0, [r2], #-145	; 0xffffff6f
    1440:	06660601 	strbteq	r0, [r6], -r1, lsl #12
    1444:	04020091 	streq	r0, [r2], #-145	; 0xffffff6f
    1448:	06660601 	strbteq	r0, [r6], -r1, lsl #12
    144c:	04020091 	streq	r0, [r2], #-145	; 0xffffff6f
    1450:	06660601 	strbteq	r0, [r6], -r1, lsl #12
    1454:	00060291 	muleq	r6, r1, r2
    1458:	Address 0x0000000000001458 is out of bounds.


Disassembly of section .debug_str:

00000000 <.debug_str>:
       0:	38544e49 	ldmdacc	r4, {r0, r3, r6, r9, sl, fp, lr}^
       4:	58414d5f 	stmdapl	r1, {r0, r1, r2, r3, r4, r6, r8, sl, fp, lr}^
       8:	5f5f2820 	svcpl	0x005f2820
       c:	38544e49 	ldmdacc	r4, {r0, r3, r6, r9, sl, fp, lr}^
      10:	58414d5f 	stmdapl	r1, {r0, r1, r2, r3, r4, r6, r8, sl, fp, lr}^
      14:	00295f5f 	eoreq	r5, r9, pc, asr pc
      18:	4e475f5f 	mcrmi	15, 2, r5, cr7, cr15, {2}
      1c:	494c4355 	stmdbmi	ip, {r0, r2, r4, r6, r8, r9, lr}^
      20:	5f5f454b 	svcpl	0x005f454b
      24:	4345535f 	movtmi	r5, #21343	; 0x535f
      28:	4e4f4954 			; <UNDEFINED> instruction: 0x4e4f4954
      2c:	57003120 	strpl	r3, [r0, -r0, lsr #2]
      30:	5f544e49 	svcpl	0x00544e49
      34:	204e494d 	subcs	r4, lr, sp, asr #18
      38:	575f5f28 	ldrbpl	r5, [pc, -r8, lsr #30]
      3c:	5f544e49 	svcpl	0x00544e49
      40:	5f4e494d 	svcpl	0x004e494d
      44:	5f00295f 	svcpl	0x0000295f
      48:	4345445f 	movtmi	r4, #21599	; 0x545f
      4c:	4c414d49 	mcrrmi	13, 4, r4, r1, cr9
      50:	4749445f 	smlsldmi	r4, r9, pc, r4	; <UNPREDICTABLE>
      54:	31205f5f 			; <UNDEFINED> instruction: 0x31205f5f
      58:	656c0037 	strbvs	r0, [ip, #-55]!	; 0xffffffc9
      5c:	006c6576 	rsbeq	r6, ip, r6, ror r5
      60:	48555f5f 	ldmdami	r5, {r0, r1, r2, r3, r4, r6, r8, r9, sl, fp, ip, lr}^
      64:	42465f41 	submi	r5, r6, #260	; 0x104
      68:	5f5f5449 	svcpl	0x005f5449
      6c:	5f003820 	svcpl	0x00003820
      70:	4956535f 	ldmdbmi	r6, {r0, r1, r2, r3, r4, r6, r8, r9, ip, lr}^
      74:	49565f44 	ldmdbmi	r6, {r2, r6, r8, r9, sl, fp, ip, lr}^
      78:	4c424953 	mcrrmi	9, 5, r4, r2, cr3	; <UNPREDICTABLE>
      7c:	00312045 	eorseq	r2, r1, r5, asr #32
      80:	6e695f5f 	mcrvs	15, 3, r5, cr9, cr15, {2}
      84:	20303274 	eorscs	r3, r0, r4, ror r2
      88:	4500322b 	strmi	r3, [r0, #-555]	; 0xfffffdd5
      8c:	31495458 	cmpcc	r9, r8, asr r4
      90:	31445035 	cmpcc	r4, r5, lsr r0
      94:	45282035 	strmi	r2, [r8, #-53]!	; 0xffffffcb
      98:	5f495458 	svcpl	0x00495458
      9c:	4f495047 	svcmi	0x00495047
      a0:	70614d5f 	rsbvc	r4, r1, pc, asr sp
      a4:	676e6970 			; <UNDEFINED> instruction: 0x676e6970
      a8:	7b29745f 	blvc	a5d22c <_Min_Stack_Size+0xa5ce2c>
      ac:	49545845 	ldmdbmi	r4, {r0, r2, r6, fp, ip, lr}^
      b0:	202c3531 	eorcs	r3, ip, r1, lsr r5
      b4:	4f495047 	svcmi	0x00495047
      b8:	47202c44 	strmi	r2, [r0, -r4, asr #24]!
      bc:	5f4f4950 	svcpl	0x004f4950
      c0:	5f4e4950 	svcpl	0x004e4950
      c4:	202c3531 	eorcs	r3, ip, r1, lsr r5
      c8:	49545845 	ldmdbmi	r4, {r0, r2, r6, fp, ip, lr}^
      cc:	495f3531 	ldmdbmi	pc, {r0, r4, r5, r8, sl, ip, sp}^	; <UNPREDICTABLE>
      d0:	7d205152 	stfvcs	f5, [r0, #-328]!	; 0xfffffeb8
      d4:	445f5f00 	ldrbmi	r5, [pc], #-3840	; dc <_Min_Heap_Size-0x124>
      d8:	32314345 	eorscc	r4, r1, #335544321	; 0x14000001
      dc:	50455f38 	subpl	r5, r5, r8, lsr pc
      e0:	4f4c4953 	svcmi	0x004c4953
      e4:	205f5f4e 	subscs	r5, pc, lr, asr #30
      e8:	332d4531 			; <UNDEFINED> instruction: 0x332d4531
      ec:	004c4433 	subeq	r4, ip, r3, lsr r4
      f0:	4c465f5f 	mcrrmi	15, 5, r5, r6, cr15
      f4:	5f343654 	svcpl	0x00343654
      f8:	4f4e4544 	svcmi	0x004e4544
      fc:	4d5f4d52 	ldclmi	13, cr4, [pc, #-328]	; ffffffbc <_estack+0xdfffd7bc>
     100:	5f5f4e49 	svcpl	0x005f4e49
     104:	392e3420 	stmdbcc	lr!, {r5, sl, ip, sp}
     108:	35363034 	ldrcc	r3, [r6, #-52]!	; 0xffffffcc
     10c:	38353436 	ldmdacc	r5!, {r1, r2, r4, r5, sl, ip, sp}
     110:	34323134 	ldrtcc	r3, [r2], #-308	; 0xfffffecc
     114:	65343536 	ldrvs	r3, [r4, #-1334]!	; 0xfffffaca
     118:	3432332d 	ldrtcc	r3, [r2], #-813	; 0xfffffcd3
     11c:	00343646 	eorseq	r3, r4, r6, asr #12
     120:	5f434e49 	svcpl	0x00434e49
     124:	334d5453 	movtcc	r5, #54355	; 0xd453
     128:	30314632 	eorscc	r4, r1, r2, lsr r6
     12c:	5f385833 	svcpl	0x00385833
     130:	00205f48 	eoreq	r5, r0, r8, asr #30
     134:	6e755f5f 	mrcvs	15, 3, r5, cr5, cr15, {2}
     138:	63616572 	cmnvs	r1, #478150656	; 0x1c800000
     13c:	6c626168 	stfvse	f6, [r2], #-416	; 0xfffffe60
     140:	20292865 	eorcs	r2, r9, r5, ror #16
     144:	75625f5f 	strbvc	r5, [r2, #-3935]!	; 0xfffff0a1
     148:	69746c69 	ldmdbvs	r4!, {r0, r3, r5, r6, sl, fp, sp, lr}^
     14c:	6e755f6e 	cdpvs	15, 7, cr5, cr5, cr14, {3}
     150:	63616572 	cmnvs	r1, #478150656	; 0x1c800000
     154:	6c626168 	stfvse	f6, [r2], #-416	; 0xfffffe60
     158:	00292865 	eoreq	r2, r9, r5, ror #16
     15c:	43475f5f 	movtmi	r5, #32607	; 0x7f5f
     160:	54415f43 	strbpl	r5, [r1], #-3907	; 0xfffff0bd
     164:	43494d4f 	movtmi	r4, #40271	; 0x9d4f
     168:	4843575f 	stmdami	r3, {r0, r1, r2, r3, r4, r6, r8, r9, sl, ip, lr}^
     16c:	545f5241 	ldrbpl	r5, [pc], #-577	; 174 <_Min_Heap_Size-0x8c>
     170:	434f4c5f 	movtmi	r4, #64607	; 0xfc5f
     174:	52465f4b 	subpl	r5, r6, #300	; 0x12c
     178:	32204545 	eorcc	r4, r0, #289406976	; 0x11400000
     17c:	435f5f00 	cmpmi	pc, #0, 30
     180:	5f524148 	svcpl	0x00524148
     184:	49534e55 	ldmdbmi	r3, {r0, r2, r4, r6, r9, sl, fp, lr}^
     188:	44454e47 	strbmi	r4, [r5], #-3655	; 0xfffff1b9
     18c:	31205f5f 			; <UNDEFINED> instruction: 0x31205f5f
     190:	555f5f00 	ldrbpl	r5, [pc, #-3840]	; fffff298 <_estack+0xdfffca98>
     194:	50544e49 	subspl	r4, r4, r9, asr #28
     198:	4d5f5254 	lfmmi	f5, 2, [pc, #-336]	; 50 <_Min_Heap_Size-0x1b0>
     19c:	5f5f5841 	svcpl	0x005f5841
     1a0:	66783020 	ldrbtvs	r3, [r8], -r0, lsr #32
     1a4:	66666666 	strbtvs	r6, [r6], -r6, ror #12
     1a8:	55666666 	strbpl	r6, [r6, #-1638]!	; 0xfffff99a
     1ac:	535f5f00 	cmppl	pc, #0, 30
     1b0:	43415246 	movtmi	r5, #4678	; 0x1246
     1b4:	42465f54 	submi	r5, r6, #84, 30	; 0x150
     1b8:	5f5f5449 	svcpl	0x005f5449
     1bc:	5f003720 	svcpl	0x00003720
     1c0:	6165775f 	cmnvs	r5, pc, asr r7
     1c4:	79735f6b 	ldmdbvc	r3!, {r0, r1, r3, r5, r6, r8, r9, sl, fp, ip, lr}^
     1c8:	6c6f626d 	sfmvs	f6, 2, [pc], #-436	; 1c <_Min_Heap_Size-0x1e4>
     1cc:	615f5f20 	cmpvs	pc, r0, lsr #30
     1d0:	69727474 	ldmdbvs	r2!, {r2, r4, r5, r6, sl, ip, sp, lr}^
     1d4:	65747562 	ldrbvs	r7, [r4, #-1378]!	; 0xfffffa9e
     1d8:	28285f5f 	stmdacs	r8!, {r0, r1, r2, r3, r4, r6, r8, r9, sl, fp, ip, lr}
     1dc:	65775f5f 	ldrbvs	r5, [r7, #-3935]!	; 0xfffff0a1
     1e0:	5f5f6b61 	svcpl	0x005f6b61
     1e4:	5f002929 	svcpl	0x00002929
     1e8:	636f6c5f 	cmnvs	pc, #24320	; 0x5f00
     1ec:	5f656c61 	svcpl	0x00656c61
     1f0:	5f5f0074 	svcpl	0x005f0074
     1f4:	36544c46 	ldrbcc	r4, [r4], -r6, asr #24
     1f8:	41485f34 	cmpmi	r8, r4, lsr pc
     1fc:	4e495f53 	mcrmi	15, 2, r5, cr9, cr3, {2}
     200:	494e4946 	stmdbmi	lr, {r1, r2, r6, r8, fp, lr}^
     204:	5f5f5954 	svcpl	0x005f5954
     208:	5f003120 	svcpl	0x00003120
     20c:	6c61765f 	stclvs	6, cr7, [r1], #-380	; 0xfffffe84
     210:	5f006575 	svcpl	0x00006575
     214:	7165725f 	cmnvc	r5, pc, asr r2
     218:	65726975 	ldrbvs	r6, [r2, #-2421]!	; 0xfffff68b
     21c:	78655f73 	stmdavc	r5!, {r0, r1, r4, r5, r6, r8, r9, sl, fp, ip, lr}^
     220:	73756c63 	cmnvc	r5, #25344	; 0x6300
     224:	28657669 	stmdacs	r5!, {r0, r3, r5, r6, r9, sl, ip, sp, lr}^
     228:	292e2e2e 	stmdbcs	lr!, {r1, r2, r3, r5, r9, sl, fp, sp}
     22c:	6c5f5f20 	mrrcvs	15, 2, r5, pc, cr0	; <UNPREDICTABLE>
     230:	5f6b636f 	svcpl	0x006b636f
     234:	6f6e6e61 	svcvs	0x006e6e61
     238:	65746174 	ldrbvs	r6, [r4, #-372]!	; 0xfffffe8c
     23c:	63786528 	cmnvs	r8, #40, 10	; 0xa000000
     240:	6973756c 	ldmdbvs	r3!, {r2, r3, r5, r6, r8, sl, ip, sp, lr}^
     244:	6c5f6576 	cfldr64vs	mvdx6, [pc], {118}	; 0x76
     248:	736b636f 	cmnvc	fp, #-1140850687	; 0xbc000001
     24c:	7165725f 	cmnvc	r5, pc, asr r2
     250:	65726975 	ldrbvs	r6, [r2, #-2421]!	; 0xfffff68b
     254:	5f5f2864 	svcpl	0x005f2864
     258:	415f4156 	cmpmi	pc, r6, asr r1	; <UNPREDICTABLE>
     25c:	5f534752 	svcpl	0x00534752
     260:	0029295f 	eoreq	r2, r9, pc, asr r9
     264:	4545525f 	strbmi	r5, [r5, #-607]	; 0xfffffda1
     268:	525f544e 	subspl	r5, pc, #1308622848	; 0x4e000000
     26c:	34444e41 	strbcc	r4, [r4], #-3649	; 0xfffff1bf
     270:	44415f38 	strbmi	r5, [r1], #-3896	; 0xfffff0c8
     274:	74702844 	ldrbtvc	r2, [r0], #-2116	; 0xfffff7bc
     278:	28202972 	stmdacs	r0!, {r1, r4, r5, r6, r8, fp, sp}
     27c:	72747028 	rsbsvc	r7, r4, #40	; 0x28
     280:	5f3e2d29 	svcpl	0x003e2d29
     284:	2d383472 	cfldrscs	mvf3, [r8, #-456]!	; 0xfffffe38
     288:	64615f3e 	strbtvs	r5, [r1], #-3902	; 0xfffff0c2
     28c:	49002964 	stmdbmi	r0, {r2, r5, r6, r8, fp, sp}
     290:	3631544e 	ldrtcc	r5, [r1], -lr, asr #8
     294:	4e494d5f 	mcrmi	13, 2, r4, cr9, cr15, {2}
     298:	5f2d2820 	svcpl	0x002d2820
     29c:	544e495f 	strbpl	r4, [lr], #-2399	; 0xfffff6a1
     2a0:	4d5f3631 	ldclmi	6, cr3, [pc, #-196]	; 1e4 <_Min_Heap_Size-0x1c>
     2a4:	5f5f5841 	svcpl	0x005f5841
     2a8:	31202d20 			; <UNDEFINED> instruction: 0x31202d20
     2ac:	5f5f0029 	svcpl	0x005f0029
     2b0:	43414c4c 	movtmi	r4, #7244	; 0x1c4c
     2b4:	5f4d5543 	svcpl	0x004d5543
     2b8:	5f4e494d 	svcpl	0x004e494d
     2bc:	2d28205f 	stccs	0, cr2, [r8, #-380]!	; 0xfffffe84
     2c0:	50315830 	eorspl	r5, r1, r0, lsr r8
     2c4:	4c4c3133 	stfmie	f3, [ip], {51}	; 0x33
     2c8:	58302d4b 	ldmdapl	r0!, {r0, r1, r3, r6, r8, sl, fp, sp}
     2cc:	31335031 	teqcc	r3, r1, lsr r0
     2d0:	294b4c4c 	stmdbcs	fp, {r2, r3, r6, sl, fp, lr}^
     2d4:	735f5f00 	cmpvc	pc, #0, 30
     2d8:	58450066 	stmdapl	r5, {r1, r2, r5, r6}^
     2dc:	50394954 	eorspl	r4, r9, r4, asr r9
     2e0:	28203943 	stmdacs	r0!, {r0, r1, r6, r8, fp, ip, sp}
     2e4:	49545845 	ldmdbmi	r4, {r0, r2, r6, fp, ip, lr}^
     2e8:	4950475f 	ldmdbmi	r0, {r0, r1, r2, r3, r4, r6, r8, r9, sl, lr}^
     2ec:	614d5f4f 	cmpvs	sp, pc, asr #30
     2f0:	6e697070 	mcrvs	0, 3, r7, cr9, cr0, {3}
     2f4:	29745f67 	ldmdbcs	r4!, {r0, r1, r2, r5, r6, r8, r9, sl, fp, ip, lr}^
     2f8:	5458457b 	ldrbpl	r4, [r8], #-1403	; 0xfffffa85
     2fc:	202c3949 	eorcs	r3, ip, r9, asr #18
     300:	4f495047 	svcmi	0x00495047
     304:	47202c43 	strmi	r2, [r0, -r3, asr #24]!
     308:	5f4f4950 	svcpl	0x004f4950
     30c:	5f4e4950 	svcpl	0x004e4950
     310:	45202c39 	strmi	r2, [r0, #-3129]!	; 0xfffff3c7
     314:	39495458 	stmdbcc	r9, {r3, r4, r6, sl, ip, lr}^
     318:	5152495f 	cmppl	r2, pc, asr r9
     31c:	5f007d20 	svcpl	0x00007d20
     320:	5254505f 	subspl	r5, r4, #95	; 0x5f
     324:	46464944 	strbmi	r4, [r6], -r4, asr #18
     328:	58414d5f 	stmdapl	r1, {r0, r1, r2, r3, r4, r6, r8, sl, fp, lr}^
     32c:	30205f5f 	eorcc	r5, r0, pc, asr pc
     330:	66663778 			; <UNDEFINED> instruction: 0x66663778
     334:	66666666 	strbtvs	r6, [r6], -r6, ror #12
     338:	4c5f0066 	mrrcmi	0, 6, r0, pc, cr6	; <UNPREDICTABLE>
     33c:	5f474e4f 	svcpl	0x00474e4f
     340:	42554f44 	subsmi	r4, r5, #68, 30	; 0x110
     344:	6c20454c 	cfstr32vs	mvfx4, [r0], #-304	; 0xfffffed0
     348:	20676e6f 	rsbcs	r6, r7, pc, ror #28
     34c:	62756f64 	rsbsvs	r6, r5, #100, 30	; 0x190
     350:	4500656c 	strmi	r6, [r0, #-1388]	; 0xfffffa94
     354:	39495458 	stmdbcc	r9, {r3, r4, r6, sl, ip, lr}^
     358:	5152495f 	cmppl	r2, pc, asr r9
     35c:	00333220 	eorseq	r3, r3, r0, lsr #4
     360:	4e495f5f 	mcrmi	15, 2, r5, cr9, cr15, {2}
     364:	58414d54 	stmdapl	r1, {r2, r4, r6, r8, sl, fp, lr}^
     368:	6328435f 			; <UNDEFINED> instruction: 0x6328435f
     36c:	20632029 	rsbcs	r2, r3, r9, lsr #32
     370:	4c202323 	stcmi	3, cr2, [r0], #-140	; 0xffffff74
     374:	5f5f004c 	svcpl	0x005f004c
     378:	66756273 			; <UNDEFINED> instruction: 0x66756273
     37c:	65725f00 	ldrbvs	r5, [r2, #-3840]!	; 0xfffff100
     380:	5f006461 	svcpl	0x00006461
     384:	544e495f 	strbpl	r4, [lr], #-2399	; 0xfffff6a1
     388:	5f58414d 	svcpl	0x0058414d
     38c:	5f58414d 	svcpl	0x0058414d
     390:	7830205f 	ldmdavc	r0!, {r0, r1, r2, r3, r4, r6, sp}
     394:	66666637 			; <UNDEFINED> instruction: 0x66666637
     398:	66666666 	strbtvs	r6, [r6], -r6, ror #12
     39c:	66666666 	strbtvs	r6, [r6], -r6, ror #12
     3a0:	66666666 	strbtvs	r6, [r6], -r6, ror #12
     3a4:	5f004c4c 	svcpl	0x00004c4c
     3a8:	4e454552 	mcrmi	5, 2, r4, cr5, cr2, {2}
     3ac:	4e495f54 	mcrmi	15, 2, r5, cr9, cr4, {2}
     3b0:	4d5f5449 	cfldrdmi	mvd5, [pc, #-292]	; 294 <_Min_Heap_Size+0x94>
     3b4:	61762850 	cmnvs	r6, r0, asr r8
     3b8:	64202972 	strtvs	r2, [r0], #-2418	; 0xfffff68e
     3bc:	207b206f 	rsbscs	r2, fp, pc, rrx
     3c0:	75727473 	ldrbvc	r7, [r2, #-1139]!	; 0xfffffb8d
     3c4:	5f207463 	svcpl	0x00207463
     3c8:	6e656572 	mcrvs	5, 3, r6, cr5, cr2, {3}
     3cc:	5f2a2074 	svcpl	0x002a2074
     3d0:	203d2072 	eorscs	r2, sp, r2, ror r0
     3d4:	72617628 	rsbvc	r7, r1, #40, 12	; 0x2800000
     3d8:	5f203b29 	svcpl	0x00203b29
     3dc:	5f3e2d72 	svcpl	0x003e2d72
     3e0:	3e2d706d 	cdpcc	0, 2, cr7, cr13, cr13, {3}
     3e4:	7365725f 	cmnvc	r5, #-268435451	; 0xf0000005
     3e8:	5f746c75 	svcpl	0x00746c75
     3ec:	203d206b 	eorscs	r2, sp, fp, rrx
     3f0:	5f203b30 	svcpl	0x00203b30
     3f4:	5f3e2d72 	svcpl	0x003e2d72
     3f8:	3e2d706d 	cdpcc	0, 2, cr7, cr13, cr13, {3}
     3fc:	7365725f 	cmnvc	r5, #-268435451	; 0xf0000005
     400:	20746c75 	rsbscs	r6, r4, r5, ror ip
     404:	725f203d 	subsvc	r2, pc, #61	; 0x3d
     408:	6d5f3e2d 	ldclvs	14, cr3, [pc, #-180]	; 35c <_Min_Heap_Size+0x15c>
     40c:	5f3e2d70 	svcpl	0x003e2d70
     410:	20733570 	rsbscs	r3, r3, r0, ror r5
     414:	4e5f203d 	mrcmi	0, 2, r2, cr15, cr13, {1}
     418:	3b4c4c55 	blcc	1313574 <_Min_Stack_Size+0x1313174>
     41c:	2d725f20 	ldclcs	15, cr5, [r2, #-128]!	; 0xffffff80
     420:	706d5f3e 	rsbvc	r5, sp, lr, lsr pc
     424:	665f3e2d 	ldrbvs	r3, [pc], -sp, lsr #28
     428:	6c656572 	cfstr64vs	mvdx6, [r5], #-456	; 0xfffffe38
     42c:	20747369 	rsbscs	r7, r4, r9, ror #6
     430:	4e5f203d 	mrcmi	0, 2, r2, cr15, cr13, {1}
     434:	3b4c4c55 	blcc	1313590 <_Min_Stack_Size+0x1313190>
     438:	77207d20 	strvc	r7, [r0, -r0, lsr #26]!
     43c:	656c6968 	strbvs	r6, [ip, #-2408]!	; 0xfffff698
     440:	29302820 	ldmdbcs	r0!, {r5, fp, sp}
     444:	445f5f00 	ldrbmi	r5, [pc], #-3840	; 44c <_Min_Stack_Size+0x4c>
     448:	32334345 	eorscc	r4, r3, #335544321	; 0x14000001
     44c:	4255535f 	subsmi	r5, r5, #2080374785	; 0x7c000001
     450:	4d524f4e 	ldclmi	15, cr4, [r2, #-312]	; 0xfffffec8
     454:	4d5f4c41 	ldclmi	12, cr4, [pc, #-260]	; 358 <_Min_Heap_Size+0x158>
     458:	5f5f4e49 	svcpl	0x005f4e49
     45c:	302e3020 	eorcc	r3, lr, r0, lsr #32
     460:	30303030 	eorscc	r3, r0, r0, lsr r0
     464:	392d4531 	pushcc	{r0, r4, r5, r8, sl, lr}
     468:	00464435 	subeq	r4, r6, r5, lsr r4
     46c:	51545f5f 	cmppl	r4, pc, asr pc
     470:	4942495f 	stmdbmi	r2, {r0, r1, r2, r3, r4, r6, r8, fp, lr}^
     474:	205f5f54 	subscs	r5, pc, r4, asr pc	; <UNPREDICTABLE>
     478:	5f5f0030 	svcpl	0x005f0030
     47c:	36544c46 	ldrbcc	r4, [r4], -r6, asr #24
     480:	45445f34 	strbmi	r5, [r4, #-3892]	; 0xfffff0cc
     484:	414d4943 	cmpmi	sp, r3, asr #18
     488:	49445f4c 	stmdbmi	r4, {r2, r3, r6, r8, r9, sl, fp, ip, lr}^
     48c:	205f5f47 	subscs	r5, pc, r7, asr #30
     490:	45003731 	strmi	r3, [r0, #-1841]	; 0xfffff8cf
     494:	31495458 	cmpcc	r9, r8, asr r4
     498:	31435030 	cmpcc	r3, r0, lsr r0
     49c:	45282030 	strmi	r2, [r8, #-48]!	; 0xffffffd0
     4a0:	5f495458 	svcpl	0x00495458
     4a4:	4f495047 	svcmi	0x00495047
     4a8:	70614d5f 	rsbvc	r4, r1, pc, asr sp
     4ac:	676e6970 			; <UNDEFINED> instruction: 0x676e6970
     4b0:	7b29745f 	blvc	a5d634 <_Min_Stack_Size+0xa5d234>
     4b4:	49545845 	ldmdbmi	r4, {r0, r2, r6, fp, ip, lr}^
     4b8:	202c3031 	eorcs	r3, ip, r1, lsr r0
     4bc:	4f495047 	svcmi	0x00495047
     4c0:	47202c43 	strmi	r2, [r0, -r3, asr #24]!
     4c4:	5f4f4950 	svcpl	0x004f4950
     4c8:	5f4e4950 	svcpl	0x004e4950
     4cc:	202c3031 	eorcs	r3, ip, r1, lsr r0
     4d0:	49545845 	ldmdbmi	r4, {r0, r2, r6, fp, ip, lr}^
     4d4:	495f3031 	ldmdbmi	pc, {r0, r4, r5, ip, sp}^	; <UNPREDICTABLE>
     4d8:	7d205152 	stfvcs	f5, [r0, #-328]!	; 0xfffffeb8
     4dc:	45525f00 	ldrbmi	r5, [r2, #-3840]	; 0xfffff100
     4e0:	5f544e45 	svcpl	0x00544e45
     4e4:	4e474953 			; <UNDEFINED> instruction: 0x4e474953
     4e8:	535f4c41 	cmppl	pc, #16640	; 0x4100
     4ec:	20455a49 	subcs	r5, r5, r9, asr #20
     4f0:	5f003432 	svcpl	0x00003432
     4f4:	78616d4b 	stmdavc	r1!, {r0, r1, r3, r6, r8, sl, fp, sp, lr}^
     4f8:	69732820 	ldmdbvs	r3!, {r5, fp, sp}^
     4fc:	666f657a 			; <UNDEFINED> instruction: 0x666f657a
     500:	69732820 	ldmdbvs	r3!, {r5, fp, sp}^
     504:	745f657a 	ldrbvc	r6, [pc], #-1402	; 50c <_Min_Stack_Size+0x10c>
     508:	3c3c2029 	ldccc	0, cr2, [ip], #-164	; 0xffffff5c
     50c:	00293320 	eoreq	r3, r9, r0, lsr #6
     510:	54415f5f 	strbpl	r5, [r1], #-3935	; 0xfffff0a1
     514:	43494d4f 	movtmi	r4, #40271	; 0x9d4f
     518:	4e4f435f 	mcrmi	3, 2, r4, cr15, cr15, {2}
     51c:	454d5553 	strbmi	r5, [sp, #-1363]	; 0xfffffaad
     520:	5f003120 	svcpl	0x00003120
     524:	414c555f 	cmpmi	ip, pc, asr r5
     528:	4d554343 	ldclmi	3, cr4, [r5, #-268]	; 0xfffffef4
     52c:	4942465f 	stmdbmi	r2, {r0, r1, r2, r3, r4, r6, r9, sl, lr}^
     530:	205f5f54 	subscs	r5, pc, r4, asr pc	; <UNPREDICTABLE>
     534:	5f003233 	svcpl	0x00003233
     538:	4843575f 	stmdami	r3, {r0, r1, r2, r3, r4, r6, r8, r9, sl, ip, lr}^
     53c:	4d5f5241 	lfmmi	f5, 2, [pc, #-260]	; 440 <_Min_Stack_Size+0x40>
     540:	5f5f5841 	svcpl	0x005f5841
     544:	66783020 	ldrbtvs	r3, [r8], -r0, lsr #32
     548:	66666666 	strbtvs	r6, [r6], -r6, ror #12
     54c:	55666666 	strbpl	r6, [r6, #-1638]!	; 0xfffff99a
     550:	43435200 	movtmi	r5, #12800	; 0x3200
     554:	4950475f 	ldmdbmi	r0, {r0, r1, r2, r3, r4, r6, r8, r9, sl, lr}^
     558:	435f424f 	cmpmi	pc, #-268435452	; 0xf0000004
     55c:	455f4b4c 	ldrbmi	r4, [pc, #-2892]	; fffffa18 <_estack+0xdfffd218>
     560:	2029284e 	eorcs	r2, r9, lr, asr #16
     564:	43435228 	movtmi	r5, #12840	; 0x3228
     568:	50413e2d 	subpl	r3, r1, sp, lsr #28
     56c:	4e453242 	cdpmi	2, 4, cr3, cr5, cr2, {2}
     570:	3d7c2052 	ldclcc	0, cr2, [ip, #-328]!	; 0xfffffeb8
     574:	3c312820 	ldccc	8, cr2, [r1], #-128	; 0xffffff80
     578:	2929333c 	stmdbcs	r9!, {r2, r3, r4, r5, r8, r9, ip, sp}
     57c:	435f5f00 	cmpmi	pc, #0, 30
     580:	41434e4f 	cmpmi	r3, pc, asr #28
     584:	2c782854 	ldclcs	8, cr2, [r8], #-336	; 0xfffffeb0
     588:	5f202979 	svcpl	0x00202979
     58c:	4e4f435f 	mcrmi	3, 2, r4, cr15, cr15, {2}
     590:	31544143 	cmpcc	r4, r3, asr #2
     594:	792c7828 	stmdbvc	ip!, {r3, r5, fp, ip, sp, lr}
     598:	775f0029 	ldrbvc	r0, [pc, -r9, lsr #32]
     59c:	65746972 	ldrbvs	r6, [r4, #-2418]!	; 0xfffff68e
     5a0:	475f5f00 	ldrbmi	r5, [pc, -r0, lsl #30]
     5a4:	4c43554e 	cfstr64mi	mvdx5, [r3], {78}	; 0x4e
     5a8:	5f454b49 	svcpl	0x00454b49
     5ac:	59545f5f 	ldmdbpl	r4, {r0, r1, r2, r3, r4, r6, r8, r9, sl, fp, ip, lr}^
     5b0:	464f4550 			; <UNDEFINED> instruction: 0x464f4550
     5b4:	45003120 	strmi	r3, [r0, #-288]	; 0xfffffee0
     5b8:	36495458 			; <UNDEFINED> instruction: 0x36495458
     5bc:	20364250 	eorscs	r4, r6, r0, asr r2
     5c0:	54584528 	ldrbpl	r4, [r8], #-1320	; 0xfffffad8
     5c4:	50475f49 	subpl	r5, r7, r9, asr #30
     5c8:	4d5f4f49 	ldclmi	15, cr4, [pc, #-292]	; 4ac <_Min_Stack_Size+0xac>
     5cc:	69707061 	ldmdbvs	r0!, {r0, r5, r6, ip, sp, lr}^
     5d0:	745f676e 	ldrbvc	r6, [pc], #-1902	; 5d8 <_Min_Stack_Size+0x1d8>
     5d4:	58457b29 	stmdapl	r5, {r0, r3, r5, r8, r9, fp, ip, sp, lr}^
     5d8:	2c364954 			; <UNDEFINED> instruction: 0x2c364954
     5dc:	49504720 	ldmdbmi	r0, {r5, r8, r9, sl, lr}^
     5e0:	202c424f 	eorcs	r4, ip, pc, asr #4
     5e4:	4f495047 	svcmi	0x00495047
     5e8:	4e49505f 	mcrmi	0, 2, r5, cr9, cr15, {2}
     5ec:	202c365f 	eorcs	r3, ip, pc, asr r6
     5f0:	49545845 	ldmdbmi	r4, {r0, r2, r6, fp, ip, lr}^
     5f4:	52495f36 	subpl	r5, r9, #54, 30	; 0xd8
     5f8:	007d2051 	rsbseq	r2, sp, r1, asr r0
     5fc:	49535f5f 	ldmdbmi	r3, {r0, r1, r2, r3, r4, r6, r8, r9, sl, fp, ip, lr}^
     600:	464f455a 			; <UNDEFINED> instruction: 0x464f455a
     604:	4e4f4c5f 	mcrmi	12, 2, r4, cr15, cr15, {2}
     608:	4f4c5f47 	svcmi	0x004c5f47
     60c:	5f5f474e 	svcpl	0x005f474e
     610:	5f003820 	svcpl	0x00003820
     614:	74637361 	strbtvc	r7, [r3], #-865	; 0xfffffc9f
     618:	5f656d69 	svcpl	0x00656d69
     61c:	00667562 	rsbeq	r7, r6, r2, ror #10
     620:	42445f5f 	submi	r5, r4, #380	; 0x17c
     624:	414d5f4c 	cmpmi	sp, ip, asr #30
     628:	30315f58 	eorscc	r5, r1, r8, asr pc
     62c:	5058455f 	subspl	r4, r8, pc, asr r5
     630:	33205f5f 			; <UNDEFINED> instruction: 0x33205f5f
     634:	5f003830 	svcpl	0x00003830
     638:	6c747663 	ldclvs	6, cr7, [r4], #-396	; 0xfffffe74
     63c:	5f006e65 	svcpl	0x00006e65
     640:	5343525f 	movtpl	r5, #12895	; 0x325f
     644:	535f4449 	cmppl	pc, #1224736768	; 0x49000000
     648:	4352554f 	cmpmi	r2, #331350016	; 0x13c00000
     64c:	29732845 	ldmdbcs	r3!, {r0, r2, r6, fp, sp}^
     650:	72747320 	rsbsvc	r7, r4, #32, 6	; 0x80000000
     654:	20746375 	rsbscs	r6, r4, r5, ror r3
     658:	61685f5f 	cmnvs	r8, pc, asr pc
     65c:	5f006b63 	svcpl	0x00006b63
     660:	4152465f 	cmpmi	r2, pc, asr r6
     664:	4d5f5443 	cfldrdmi	mvd5, [pc, #-268]	; 560 <_Min_Stack_Size+0x160>
     668:	5f5f4e49 	svcpl	0x005f4e49
     66c:	302d2820 	eorcc	r2, sp, r0, lsr #16
     670:	2d52352e 	cfldr64cs	mvdx3, [r2, #-184]	; 0xffffff48
     674:	52352e30 	eorspl	r2, r5, #48, 28	; 0x300
     678:	5f5f0029 	svcpl	0x005f0029
     67c:	72702850 	rsbsvc	r2, r0, #80, 16	; 0x500000
     680:	736f746f 	cmnvc	pc, #1862270976	; 0x6f000000
     684:	72702029 	rsbsvc	r2, r0, #41	; 0x29
     688:	736f746f 	cmnvc	pc, #1862270976	; 0x6f000000
     68c:	555f5f00 	ldrbpl	r5, [pc, #-3840]	; fffff794 <_estack+0xdfffcf94>
     690:	43414c4c 	movtmi	r4, #7244	; 0x1c4c
     694:	5f4d5543 	svcpl	0x004d5543
     698:	5f58414d 	svcpl	0x0058414d
     69c:	5830205f 	ldmdapl	r0!, {r0, r1, r2, r3, r4, r6, sp}
     6a0:	46464646 	strbmi	r4, [r6], -r6, asr #12
     6a4:	46464646 	strbmi	r4, [r6], -r6, asr #12
     6a8:	46464646 	strbmi	r4, [r6], -r6, asr #12
     6ac:	46464646 	strbmi	r4, [r6], -r6, asr #12
     6b0:	32332d50 	eorscc	r2, r3, #80, 26	; 0x1400
     6b4:	4b4c4c55 	blmi	1313810 <_Min_Stack_Size+0x1313410>
     6b8:	544e4900 	strbpl	r4, [lr], #-2304	; 0xfffff700
     6bc:	435f3436 	cmpmi	pc, #905969664	; 0x36000000
     6c0:	20297828 	eorcs	r7, r9, r8, lsr #16
     6c4:	4e495f5f 	mcrmi	15, 2, r5, cr9, cr15, {2}
     6c8:	5f343654 	svcpl	0x00343654
     6cc:	29782843 	ldmdbcs	r8!, {r0, r1, r6, fp, sp}^
     6d0:	555f5f00 	ldrbpl	r5, [pc, #-3840]	; fffff7d8 <_estack+0xdfffcfd8>
     6d4:	43434153 	movtmi	r4, #12627	; 0x3153
     6d8:	4d5f4d55 	ldclmi	13, cr4, [pc, #-340]	; 58c <_Min_Stack_Size+0x18c>
     6dc:	5f5f5841 	svcpl	0x005f5841
     6e0:	46583020 	ldrbmi	r3, [r8], -r0, lsr #32
     6e4:	50464646 	subpl	r4, r6, r6, asr #12
     6e8:	4855382d 	ldmdami	r5, {r0, r2, r3, r5, fp, ip, sp}^
     6ec:	5f5f004b 	svcpl	0x005f004b
     6f0:	33434544 	movtcc	r4, #13636	; 0x3544
     6f4:	494d5f32 	stmdbmi	sp, {r1, r4, r5, r8, r9, sl, fp, ip, lr}^
     6f8:	205f5f4e 	subscs	r5, pc, lr, asr #30
     6fc:	392d4531 	pushcc	{r0, r4, r5, r8, sl, lr}
     700:	00464435 	subeq	r4, r6, r5, lsr r4
     704:	4e495f5f 	mcrmi	15, 2, r5, cr9, cr15, {2}
     708:	58414d54 	stmdapl	r1, {r2, r4, r6, r8, sl, fp, lr}^
     70c:	4449575f 	strbmi	r5, [r9], #-1887	; 0xfffff8a1
     710:	5f5f4854 	svcpl	0x005f4854
     714:	00343620 	eorseq	r3, r4, r0, lsr #12
     718:	4545525f 	strbmi	r5, [r5, #-607]	; 0xfffffda1
     71c:	4d5f544e 	cfldrdmi	mvd5, [pc, #-312]	; 5ec <_Min_Stack_Size+0x1ec>
     720:	54525342 	ldrbpl	r5, [r2], #-834	; 0xfffffcbe
     724:	5343574f 	movtpl	r5, #14159	; 0x374f
     728:	4154535f 	cmpmi	r4, pc, asr r3
     72c:	70284554 	eorvc	r4, r8, r4, asr r5
     730:	20297274 	eorcs	r7, r9, r4, ror r2
     734:	74702828 	ldrbtvc	r2, [r0], #-2088	; 0xfffff7d8
     738:	3e2d2972 			; <UNDEFINED> instruction: 0x3e2d2972
     73c:	73696d5f 	cmnvc	r9, #6080	; 0x17c0
     740:	5f3e2d63 	svcpl	0x003e2d63
     744:	7273626d 	rsbsvc	r6, r3, #-805306362	; 0xd0000006
     748:	63776f74 	cmnvs	r7, #116, 30	; 0x1d0
     74c:	74735f73 	ldrbtvc	r5, [r3], #-3955	; 0xfffff08d
     750:	29657461 	stmdbcs	r5!, {r0, r5, r6, sl, ip, sp, lr}^
     754:	544e4900 	strbpl	r4, [lr], #-2304	; 0xfffff700
     758:	5f525450 	svcpl	0x00525450
     75c:	2058414d 	subscs	r4, r8, sp, asr #2
     760:	495f5f28 	ldmdbmi	pc, {r3, r5, r8, r9, sl, fp, ip, lr}^	; <UNPREDICTABLE>
     764:	5450544e 	ldrbpl	r5, [r0], #-1102	; 0xfffffbb2
     768:	414d5f52 	cmpmi	sp, r2, asr pc
     76c:	295f5f58 	ldmdbcs	pc, {r3, r4, r6, r8, r9, sl, fp, ip, lr}^	; <UNPREDICTABLE>
     770:	535f5f00 	cmppl	pc, #0, 30
     774:	42495f51 	submi	r5, r9, #324	; 0x144
     778:	5f5f5449 	svcpl	0x005f5449
     77c:	5f003020 	svcpl	0x00003020
     780:	5a49535f 	bpl	1255504 <_Min_Stack_Size+0x1255104>
     784:	59545f45 	ldmdbpl	r4, {r0, r2, r6, r8, r9, sl, fp, ip, lr}^
     788:	5f5f4550 	svcpl	0x005f4550
     78c:	736e7520 	cmnvc	lr, #32, 10	; 0x8000000
     790:	656e6769 	strbvs	r6, [lr, #-1897]!	; 0xfffff897
     794:	6e692064 	cdpvs	0, 6, cr2, cr9, cr4, {3}
     798:	5f5f0074 	svcpl	0x005f0074
     79c:	36434544 	strbcc	r4, [r3], -r4, asr #10
     7a0:	414d5f34 	cmpmi	sp, r4, lsr pc
     7a4:	58455f58 	stmdapl	r5, {r3, r4, r6, r8, r9, sl, fp, ip, lr}^
     7a8:	205f5f50 	subscs	r5, pc, r0, asr pc	; <UNPREDICTABLE>
     7ac:	00353833 	eorseq	r3, r5, r3, lsr r8
     7b0:	4343475f 	movtmi	r4, #14175	; 0x375f
     7b4:	4152575f 	cmpmi	r2, pc, asr r7
     7b8:	54535f50 	ldrbpl	r5, [r3], #-3920	; 0xfffff0b0
     7bc:	544e4944 	strbpl	r4, [lr], #-2372	; 0xfffff6bc
     7c0:	0020485f 	eoreq	r4, r0, pc, asr r8
     7c4:	4c465f5f 	mcrrmi	15, 5, r5, r6, cr15
     7c8:	41485f54 	cmpmi	r8, r4, asr pc
     7cc:	45445f53 	strbmi	r5, [r4, #-3923]	; 0xfffff0ad
     7d0:	4d524f4e 	ldclmi	15, cr4, [r2, #-312]	; 0xfffffec8
     7d4:	31205f5f 			; <UNDEFINED> instruction: 0x31205f5f
     7d8:	495f5f00 	ldmdbmi	pc, {r8, r9, sl, fp, ip, lr}^	; <UNPREDICTABLE>
     7dc:	5f38544e 	svcpl	0x0038544e
     7e0:	45505954 	ldrbmi	r5, [r0, #-2388]	; 0xfffff6ac
     7e4:	73205f5f 			; <UNDEFINED> instruction: 0x73205f5f
     7e8:	656e6769 	strbvs	r6, [lr, #-1897]!	; 0xfffff897
     7ec:	68632064 	stmdavs	r3!, {r2, r5, r6, sp}^
     7f0:	5f007261 	svcpl	0x00007261
     7f4:	4d52415f 	ldfmie	f4, [r2, #-380]	; 0xfffffe84
     7f8:	4352415f 	cmpmi	r2, #-1073741801	; 0xc0000017
     7fc:	52505f48 	subspl	r5, r0, #72, 30	; 0x120
     800:	4c49464f 	mcrrmi	6, 4, r4, r9, cr15
     804:	37372045 	ldrcc	r2, [r7, -r5, asr #32]!
     808:	555f5f00 	ldrbpl	r5, [pc, #-3840]	; fffff910 <_estack+0xdfffd110>
     80c:	5f544e49 	svcpl	0x00544e49
     810:	5341454c 	movtpl	r4, #5452	; 0x154c
     814:	545f3854 	ldrbpl	r3, [pc], #-2132	; 81c <_Min_Stack_Size+0x41c>
     818:	5f455059 	svcpl	0x00455059
     81c:	6e75205f 	mrcvs	0, 3, r2, cr5, cr15, {2}
     820:	6e676973 			; <UNDEFINED> instruction: 0x6e676973
     824:	63206465 			; <UNDEFINED> instruction: 0x63206465
     828:	00726168 	rsbseq	r6, r2, r8, ror #2
     82c:	53555f5f 	cmppl	r5, #380	; 0x17c
     830:	55434341 	strbpl	r4, [r3, #-833]	; 0xfffffcbf
     834:	494d5f4d 	stmdbmi	sp, {r0, r2, r3, r6, r8, r9, sl, fp, ip, lr}^
     838:	205f5f4e 	subscs	r5, pc, lr, asr #30
     83c:	55302e30 	ldrpl	r2, [r0, #-3632]!	; 0xfffff1d0
     840:	5f004b48 	svcpl	0x00004b48
     844:	544c465f 	strbpl	r4, [ip], #-1631	; 0xfffff9a1
     848:	445f3233 	ldrbmi	r3, [pc], #-563	; 850 <_Min_Stack_Size+0x450>
     84c:	4d494345 	stclmi	3, cr4, [r9, #-276]	; 0xfffffeec
     850:	445f4c41 	ldrbmi	r4, [pc], #-3137	; 858 <_Min_Stack_Size+0x458>
     854:	5f5f4749 	svcpl	0x005f4749
     858:	5f003920 	svcpl	0x00003920
     85c:	42444c5f 	submi	r4, r4, #24320	; 0x5f00
     860:	494d5f4c 	stmdbmi	sp, {r2, r3, r6, r8, r9, sl, fp, ip, lr}^
     864:	58455f4e 	stmdapl	r5, {r1, r2, r3, r6, r8, r9, sl, fp, ip, lr}^
     868:	205f5f50 	subscs	r5, pc, r0, asr pc	; <UNPREDICTABLE>
     86c:	30312d28 	eorscc	r2, r1, r8, lsr #26
     870:	00293132 	eoreq	r3, r9, r2, lsr r1
     874:	4545525f 	strbmi	r5, [r5, #-607]	; 0xfffffda1
     878:	495f544e 	ldmdbmi	pc, {r1, r2, r3, r6, sl, ip, lr}^	; <UNPREDICTABLE>
     87c:	5f54494e 	svcpl	0x0054494e
     880:	444e4152 	strbmi	r4, [lr], #-338	; 0xfffffeae
     884:	76283834 			; <UNDEFINED> instruction: 0x76283834
     888:	20297261 	eorcs	r7, r9, r1, ror #4
     88c:	7b206f64 	blvc	81c624 <_Min_Stack_Size+0x81c224>
     890:	72747320 	rsbsvc	r7, r4, #32, 6	; 0x80000000
     894:	20746375 	rsbscs	r6, r4, r5, ror r3
     898:	6565725f 	strbvs	r7, [r5, #-607]!	; 0xfffffda1
     89c:	2a20746e 	bcs	81da5c <_Min_Stack_Size+0x81d65c>
     8a0:	3d20725f 	sfmcc	f7, 4, [r0, #-380]!	; 0xfffffe84
     8a4:	61762820 	cmnvs	r6, r0, lsr #16
     8a8:	203b2972 	eorscs	r2, fp, r2, ror r9
     8ac:	3e2d725f 	mcrcc	2, 1, r7, cr13, cr15, {2}
     8b0:	3834725f 	ldmdacc	r4!, {r0, r1, r2, r3, r4, r6, r9, ip, sp, lr}
     8b4:	735f3e2d 	cmpvc	pc, #720	; 0x2d0
     8b8:	5b646565 	blpl	1919e54 <_Min_Stack_Size+0x1919a54>
     8bc:	3d205d30 	stccc	13, cr5, [r0, #-192]!	; 0xffffff40
     8c0:	41525f20 	cmpmi	r2, r0, lsr #30
     8c4:	3834444e 	ldmdacc	r4!, {r1, r2, r3, r6, sl, lr}
     8c8:	4545535f 	strbmi	r5, [r5, #-863]	; 0xfffffca1
     8cc:	3b305f44 	blcc	c185e4 <_Min_Stack_Size+0xc181e4>
     8d0:	2d725f20 	ldclcs	15, cr5, [r2, #-128]!	; 0xffffff80
     8d4:	34725f3e 	ldrbtcc	r5, [r2], #-3902	; 0xfffff0c2
     8d8:	5f3e2d38 	svcpl	0x003e2d38
     8dc:	64656573 	strbtvs	r6, [r5], #-1395	; 0xfffffa8d
     8e0:	205d315b 	subscs	r3, sp, fp, asr r1
     8e4:	525f203d 	subspl	r2, pc, #61	; 0x3d
     8e8:	34444e41 	strbcc	r4, [r4], #-3649	; 0xfffff1bf
     8ec:	45535f38 	ldrbmi	r5, [r3, #-3896]	; 0xfffff0c8
     8f0:	315f4445 	cmpcc	pc, r5, asr #8
     8f4:	725f203b 	subsvc	r2, pc, #59	; 0x3b
     8f8:	725f3e2d 	subsvc	r3, pc, #720	; 0x2d0
     8fc:	3e2d3834 	mcrcc	8, 1, r3, cr13, cr4, {1}
     900:	6565735f 	strbvs	r7, [r5, #-863]!	; 0xfffffca1
     904:	5d325b64 	vldmdbpl	r2!, {d5-<overflow reg d54>}
     908:	5f203d20 	svcpl	0x00203d20
     90c:	444e4152 	strbmi	r4, [lr], #-338	; 0xfffffeae
     910:	535f3834 	cmppl	pc, #52, 16	; 0x340000
     914:	5f444545 	svcpl	0x00444545
     918:	5f203b32 	svcpl	0x00203b32
     91c:	5f3e2d72 	svcpl	0x003e2d72
     920:	2d383472 	cfldrscs	mvf3, [r8, #-456]!	; 0xfffffe38
     924:	756d5f3e 	strbvc	r5, [sp, #-3902]!	; 0xfffff0c2
     928:	305b746c 	subscc	r7, fp, ip, ror #8
     92c:	203d205d 	eorscs	r2, sp, sp, asr r0
     930:	4e41525f 	mcrmi	2, 2, r5, cr1, cr15, {2}
     934:	5f383444 	svcpl	0x00383444
     938:	544c554d 	strbpl	r5, [ip], #-1357	; 0xfffffab3
     93c:	203b305f 	eorscs	r3, fp, pc, asr r0
     940:	3e2d725f 	mcrcc	2, 1, r7, cr13, cr15, {2}
     944:	3834725f 	ldmdacc	r4!, {r0, r1, r2, r3, r4, r6, r9, ip, sp, lr}
     948:	6d5f3e2d 	ldclvs	14, cr3, [pc, #-180]	; 89c <_Min_Stack_Size+0x49c>
     94c:	5b746c75 	blpl	1d1bb28 <_Min_Stack_Size+0x1d1b728>
     950:	3d205d31 	stccc	13, cr5, [r0, #-196]!	; 0xffffff3c
     954:	41525f20 	cmpmi	r2, r0, lsr #30
     958:	3834444e 	ldmdacc	r4!, {r1, r2, r3, r6, sl, lr}
     95c:	4c554d5f 	mrrcmi	13, 5, r4, r5, cr15
     960:	3b315f54 	blcc	c586b8 <_Min_Stack_Size+0xc582b8>
     964:	2d725f20 	ldclcs	15, cr5, [r2, #-128]!	; 0xffffff80
     968:	34725f3e 	ldrbtcc	r5, [r2], #-3902	; 0xfffff0c2
     96c:	5f3e2d38 	svcpl	0x003e2d38
     970:	746c756d 	strbtvc	r7, [ip], #-1389	; 0xfffffa93
     974:	205d325b 	subscs	r3, sp, fp, asr r2
     978:	525f203d 	subspl	r2, pc, #61	; 0x3d
     97c:	34444e41 	strbcc	r4, [r4], #-3649	; 0xfffff1bf
     980:	554d5f38 	strbpl	r5, [sp, #-3896]	; 0xfffff0c8
     984:	325f544c 	subscc	r5, pc, #76, 8	; 0x4c000000
     988:	725f203b 	subsvc	r2, pc, #59	; 0x3b
     98c:	725f3e2d 	subsvc	r3, pc, #720	; 0x2d0
     990:	3e2d3834 	mcrcc	8, 1, r3, cr13, cr4, {1}
     994:	6464615f 	strbtvs	r6, [r4], #-351	; 0xfffffea1
     998:	5f203d20 	svcpl	0x00203d20
     99c:	444e4152 	strbmi	r4, [lr], #-338	; 0xfffffeae
     9a0:	415f3834 	cmpmi	pc, r4, lsr r8	; <UNPREDICTABLE>
     9a4:	203b4444 	eorscs	r4, fp, r4, asr #8
     9a8:	3e2d725f 	mcrcc	2, 1, r7, cr13, cr15, {2}
     9ac:	3834725f 	ldmdacc	r4!, {r0, r1, r2, r3, r4, r6, r9, ip, sp, lr}
     9b0:	725f3e2d 	subsvc	r3, pc, #720	; 0x2d0
     9b4:	5f646e61 	svcpl	0x00646e61
     9b8:	7478656e 	ldrbtvc	r6, [r8], #-1390	; 0xfffffa92
     9bc:	31203d20 			; <UNDEFINED> instruction: 0x31203d20
     9c0:	207d203b 	rsbscs	r2, sp, fp, lsr r0
     9c4:	6c696877 	stclvs	8, cr6, [r9], #-476	; 0xfffffe24
     9c8:	30282065 	eorcc	r2, r8, r5, rrx
     9cc:	5f5f0029 	svcpl	0x005f0029
     9d0:	4c42444c 	cfstrdmi	mvd4, [r2], {76}	; 0x4c
     9d4:	4e414d5f 	mcrmi	13, 2, r4, cr1, cr15, {2}
     9d8:	49445f54 	stmdbmi	r4, {r2, r4, r6, r8, r9, sl, fp, ip, lr}^
     9dc:	205f5f47 	subscs	r5, pc, r7, asr #30
     9e0:	5f003335 	svcpl	0x00003335
     9e4:	006d745f 	rsbeq	r7, sp, pc, asr r4
     9e8:	7363775f 	cmnvc	r3, #24903680	; 0x17c0000
     9ec:	6d6f7472 	cfstrdvs	mvd7, [pc, #-456]!	; 82c <_Min_Stack_Size+0x42c>
     9f0:	735f7362 	cmpvc	pc, #-2013265919	; 0x88000001
     9f4:	65746174 	ldrbvs	r6, [r4, #-372]!	; 0xfffffe8c
     9f8:	626e5f00 	rsbvs	r5, lr, #0, 30
     9fc:	5f006675 	svcpl	0x00006675
     a00:	5f6d745f 	svcpl	0x006d745f
     a04:	00636573 	rsbeq	r6, r3, r3, ror r5
     a08:	49555f5f 	ldmdbmi	r5, {r0, r1, r2, r3, r4, r6, r8, r9, sl, fp, ip, lr}^
     a0c:	5f38544e 	svcpl	0x0038544e
     a10:	29632843 	stmdbcs	r3!, {r0, r1, r6, fp, sp}^
     a14:	5f006320 	svcpl	0x00006320
     a18:	4e49575f 	mcrmi	7, 2, r5, cr9, cr15, {2}
     a1c:	59545f54 	ldmdbpl	r4, {r2, r4, r6, r8, r9, sl, fp, ip, lr}^
     a20:	5f5f4550 	svcpl	0x005f4550
     a24:	736e7520 	cmnvc	lr, #32, 10	; 0x8000000
     a28:	656e6769 	strbvs	r6, [lr, #-1897]!	; 0xfffff897
     a2c:	6e692064 	cdpvs	0, 6, cr2, cr9, cr4, {3}
     a30:	5f5f0074 	svcpl	0x005f0074
     a34:	67696c61 	strbvs	r6, [r9, -r1, ror #24]!
     a38:	2864656e 	stmdacs	r4!, {r1, r2, r3, r5, r6, r8, sl, sp, lr}^
     a3c:	5f202978 	svcpl	0x00202978
     a40:	7474615f 	ldrbtvc	r6, [r4], #-351	; 0xfffffea1
     a44:	75626972 	strbvc	r6, [r2, #-2418]!	; 0xfffff68e
     a48:	5f5f6574 	svcpl	0x005f6574
     a4c:	5f5f2828 	svcpl	0x005f2828
     a50:	67696c61 	strbvs	r6, [r9, -r1, ror #24]!
     a54:	5f64656e 	svcpl	0x0064656e
     a58:	2978285f 	ldmdbcs	r8!, {r0, r1, r2, r3, r4, r6, fp, sp}^
     a5c:	5f002929 	svcpl	0x00002929
     a60:	636f6c5f 	cmnvs	pc, #24320	; 0x5f00
     a64:	655f736b 	ldrbvs	r7, [pc, #-875]	; 701 <_Min_Stack_Size+0x301>
     a68:	756c6378 	strbvc	r6, [ip, #-888]!	; 0xfffffc88
     a6c:	65766973 	ldrbvs	r6, [r6, #-2419]!	; 0xfffff68d
     a70:	2e2e2e28 	cdpcs	14, 2, cr2, cr14, cr8, {1}
     a74:	5f5f2029 	svcpl	0x005f2029
     a78:	6b636f6c 	blvs	18dc830 <_Min_Stack_Size+0x18dc430>
     a7c:	6e6e615f 	mcrvs	1, 3, r6, cr14, cr15, {2}
     a80:	7461746f 	strbtvc	r7, [r1], #-1135	; 0xfffffb91
     a84:	78652865 	stmdavc	r5!, {r0, r2, r5, r6, fp, sp}^
     a88:	73756c63 	cmnvc	r5, #25344	; 0x6300
     a8c:	5f657669 	svcpl	0x00657669
     a90:	6b636f6c 	blvs	18dc848 <_Min_Stack_Size+0x18dc448>
     a94:	6e75665f 	mrcvs	6, 3, r6, cr5, cr15, {2}
     a98:	6f697463 	svcvs	0x00697463
     a9c:	5f5f286e 	svcpl	0x005f286e
     aa0:	415f4156 	cmpmi	pc, r6, asr r1	; <UNPREDICTABLE>
     aa4:	5f534752 	svcpl	0x00534752
     aa8:	0029295f 	eoreq	r2, r9, pc, asr r9
     aac:	34366c5f 	ldrtcc	r6, [r6], #-3167	; 0xfffff3a1
     ab0:	75625f61 	strbvc	r5, [r2, #-3937]!	; 0xfffff09f
     ab4:	5f5f0066 	svcpl	0x005f0066
     ab8:	36544c46 	ldrbcc	r4, [r4], -r6, asr #24
     abc:	414d5f34 	cmpmi	sp, r4, lsr pc
     ac0:	205f5f58 	subscs	r5, pc, r8, asr pc	; <UNPREDICTABLE>
     ac4:	39372e31 	ldmdbcc	r7!, {r0, r4, r5, r9, sl, fp, sp}
     ac8:	33393637 	teqcc	r9, #57671680	; 0x3700000
     acc:	38343331 	ldmdacc	r4!, {r0, r4, r5, r8, r9, ip, sp}
     ad0:	31333236 	teqcc	r3, r6, lsr r2
     ad4:	2b653735 	blcs	194e7b0 <_Min_Stack_Size+0x194e3b0>
     ad8:	46383033 			; <UNDEFINED> instruction: 0x46383033
     adc:	47003436 	smladxmi	r0, r6, r4, r3
     ae0:	5f4f4950 	svcpl	0x004f4950
     ae4:	5f4e4950 	svcpl	0x004e4950
     ae8:	28282034 	stmdacs	r8!, {r2, r4, r5, sp}
     aec:	746e6975 	strbtvc	r6, [lr], #-2421	; 0xfffff68b
     af0:	745f3631 	ldrbvc	r3, [pc], #-1585	; af8 <_Min_Stack_Size+0x6f8>
     af4:	30783029 	rsbscc	r3, r8, r9, lsr #32
     af8:	29303130 	ldmdbcs	r0!, {r4, r5, r8, ip, sp}
     afc:	755f5f00 	ldrbvc	r5, [pc, #-3840]	; fffffc04 <_estack+0xdfffd404>
     b00:	756f626e 	strbvc	r6, [pc, #-622]!	; 89a <_Min_Stack_Size+0x49a>
     b04:	6465646e 	strbtvs	r6, [r5], #-1134	; 0xfffffb92
     b08:	50470020 	subpl	r0, r7, r0, lsr #32
     b0c:	505f4f49 	subspl	r4, pc, r9, asr #30
     b10:	5f534e49 	svcpl	0x00534e49
     b14:	206c6c41 	rsbcs	r6, ip, r1, asr #24
     b18:	69752828 	ldmdbvs	r5!, {r3, r5, fp, sp}^
     b1c:	3631746e 	ldrtcc	r7, [r1], -lr, ror #8
     b20:	3029745f 	eorcc	r7, r9, pc, asr r4
     b24:	46464678 			; <UNDEFINED> instruction: 0x46464678
     b28:	5f002946 	svcpl	0x00002946
     b2c:	544e495f 	strbpl	r4, [lr], #-2399	; 0xfffff6a1
     b30:	68222038 	stmdavs	r2!, {r3, r4, r5, sp}
     b34:	5f002268 	svcpl	0x00002268
     b38:	4350415f 	cmpmi	r0, #-1073741801	; 0xc0000017
     b3c:	32335f53 	eorscc	r5, r3, #332	; 0x14c
     b40:	31205f5f 			; <UNDEFINED> instruction: 0x31205f5f
     b44:	544e4900 	strbpl	r4, [lr], #-2304	; 0xfffff700
     b48:	41454c5f 	cmpmi	r5, pc, asr ip
     b4c:	36315453 			; <UNDEFINED> instruction: 0x36315453
     b50:	58414d5f 	stmdapl	r1, {r0, r1, r2, r3, r4, r6, r8, sl, fp, lr}^
     b54:	5f5f2820 	svcpl	0x005f2820
     b58:	5f544e49 	svcpl	0x00544e49
     b5c:	5341454c 	movtpl	r4, #5452	; 0x154c
     b60:	5f363154 	svcpl	0x00363154
     b64:	5f58414d 	svcpl	0x0058414d
     b68:	5f00295f 	svcpl	0x0000295f
     b6c:	4454535f 	ldrbmi	r5, [r4], #-863	; 0xfffffca1
     b70:	4f485f43 	svcmi	0x00485f43
     b74:	44455453 	strbmi	r5, [r5], #-1107	; 0xfffffbad
     b78:	31205f5f 			; <UNDEFINED> instruction: 0x31205f5f
     b7c:	555f5f00 	ldrbpl	r5, [pc, #-3840]	; fffffc84 <_estack+0xdfffd484>
     b80:	52464c4c 	subpl	r4, r6, #76, 24	; 0x4c00
     b84:	5f544341 	svcpl	0x00544341
     b88:	54494246 	strbpl	r4, [r9], #-582	; 0xfffffdba
     b8c:	36205f5f 	qsaxcc	r5, r0, pc	; <UNPREDICTABLE>
     b90:	58450034 	stmdapl	r5, {r2, r4, r5}^
     b94:	50394954 	eorspl	r4, r9, r4, asr r9
     b98:	28203942 	stmdacs	r0!, {r1, r6, r8, fp, ip, sp}
     b9c:	49545845 	ldmdbmi	r4, {r0, r2, r6, fp, ip, lr}^
     ba0:	4950475f 	ldmdbmi	r0, {r0, r1, r2, r3, r4, r6, r8, r9, sl, lr}^
     ba4:	614d5f4f 	cmpvs	sp, pc, asr #30
     ba8:	6e697070 	mcrvs	0, 3, r7, cr9, cr0, {3}
     bac:	29745f67 	ldmdbcs	r4!, {r0, r1, r2, r5, r6, r8, r9, sl, fp, ip, lr}^
     bb0:	5458457b 	ldrbpl	r4, [r8], #-1403	; 0xfffffa85
     bb4:	202c3949 	eorcs	r3, ip, r9, asr #18
     bb8:	4f495047 	svcmi	0x00495047
     bbc:	47202c42 	strmi	r2, [r0, -r2, asr #24]!
     bc0:	5f4f4950 	svcpl	0x004f4950
     bc4:	5f4e4950 	svcpl	0x004e4950
     bc8:	45202c39 	strmi	r2, [r0, #-3129]!	; 0xfffff3c7
     bcc:	39495458 	stmdbcc	r9, {r3, r4, r6, sl, ip, lr}^
     bd0:	5152495f 	cmppl	r2, pc, asr r9
     bd4:	5f007d20 	svcpl	0x00007d20
     bd8:	4c42444c 	cfstrdmi	mvd4, [r2], {76}	; 0x4c
     bdc:	5f51455f 	svcpl	0x0051455f
     be0:	204c4244 	subcs	r4, ip, r4, asr #4
     be4:	5f5f0031 	svcpl	0x005f0031
     be8:	5f544e49 	svcpl	0x00544e49
     bec:	54534146 	ldrbpl	r4, [r3], #-326	; 0xfffffeba
     bf0:	545f3436 	ldrbpl	r3, [pc], #-1078	; bf8 <_Min_Stack_Size+0x7f8>
     bf4:	5f455059 	svcpl	0x00455059
     bf8:	6f6c205f 	svcvs	0x006c205f
     bfc:	6c20676e 	stcvs	7, cr6, [r0], #-440	; 0xfffffe48
     c00:	20676e6f 	rsbcs	r6, r7, pc, ror #28
     c04:	00746e69 	rsbseq	r6, r4, r9, ror #28
     c08:	52415f5f 	subpl	r5, r1, #380	; 0x17c
     c0c:	45465f4d 	strbmi	r5, [r6, #-3917]	; 0xfffff0b3
     c10:	52555441 	subspl	r5, r5, #1090519040	; 0x41000000
     c14:	4f435f45 	svcmi	0x00435f45
     c18:	434f5250 	movtmi	r5, #62032	; 0xf250
     c1c:	00353120 	eorseq	r3, r5, r0, lsr #2
     c20:	5f434352 	svcpl	0x00434352
     c24:	4f495047 	svcmi	0x00495047
     c28:	4c435f43 	mcrrmi	15, 4, r5, r3, cr3
     c2c:	4e455f4b 	cdpmi	15, 4, cr5, cr5, cr11, {2}
     c30:	28202928 	stmdacs	r0!, {r3, r5, r8, fp, sp}
     c34:	2d434352 	stclcs	3, cr4, [r3, #-328]	; 0xfffffeb8
     c38:	4250413e 	subsmi	r4, r0, #-2147483633	; 0x8000000f
     c3c:	524e4532 	subpl	r4, lr, #209715200	; 0xc800000
     c40:	203d7c20 	eorscs	r7, sp, r0, lsr #24
     c44:	3c3c3128 	ldfccs	f3, [ip], #-160	; 0xffffff60
     c48:	00292934 	eoreq	r2, r9, r4, lsr r9
     c4c:	616e665f 	cmnvs	lr, pc, asr r6
     c50:	00736772 	rsbseq	r6, r3, r2, ror r7
     c54:	636f6c5f 	cmnvs	pc, #24320	; 0x5f00
     c58:	5450006b 	ldrbpl	r0, [r0], #-107	; 0xffffff95
     c5c:	46494452 			; <UNDEFINED> instruction: 0x46494452
     c60:	414d5f46 	cmpmi	sp, r6, asr #30
     c64:	5f282058 	svcpl	0x00282058
     c68:	5254505f 	subspl	r5, r4, #95	; 0x5f
     c6c:	46464944 	strbmi	r4, [r6], -r4, asr #18
     c70:	58414d5f 	stmdapl	r1, {r0, r1, r2, r3, r4, r6, r8, sl, fp, lr}^
     c74:	00295f5f 	eoreq	r5, r9, pc, asr pc
     c78:	4c465f5f 	mcrrmi	15, 5, r5, r6, cr15
     c7c:	5f323354 	svcpl	0x00323354
     c80:	5f58414d 	svcpl	0x0058414d
     c84:	455f3031 	ldrbmi	r3, [pc, #-49]	; c5b <_Min_Stack_Size+0x85b>
     c88:	5f5f5058 	svcpl	0x005f5058
     c8c:	00383320 	eorseq	r3, r8, r0, lsr #6
     c90:	6c754e5f 	ldclvs	14, cr4, [r5], #-380	; 0xfffffe84
     c94:	6c62616c 	stfvse	f6, [r2], #-432	; 0xfffffe50
     c98:	5f002065 	svcpl	0x00002065
     c9c:	4e454552 	mcrmi	5, 2, r4, cr5, cr2, {2}
     ca0:	48435f54 	stmdami	r3, {r2, r4, r6, r8, r9, sl, fp, ip, lr}^
     ca4:	5f4b4345 	svcpl	0x004b4345
     ca8:	76284d54 			; <UNDEFINED> instruction: 0x76284d54
     cac:	20297261 	eorcs	r7, r9, r1, ror #4
     cb0:	4545525f 	strbmi	r5, [r5, #-607]	; 0xfffffda1
     cb4:	435f544e 	cmpmi	pc, #1308622848	; 0x4e000000
     cb8:	4b434548 	blmi	10d21e0 <_Min_Stack_Size+0x10d1de0>
     cbc:	72617628 	rsbvc	r7, r1, #40, 12	; 0x2800000
     cc0:	6c5f202c 	mrrcvs	0, 2, r2, pc, cr12	; <UNPREDICTABLE>
     cc4:	6c61636f 	stclvs	3, cr6, [r1], #-444	; 0xfffffe44
     cc8:	656d6974 	strbvs	r6, [sp, #-2420]!	; 0xfffff68c
     ccc:	6675625f 			; <UNDEFINED> instruction: 0x6675625f
     cd0:	7473202c 	ldrbtvc	r2, [r3], #-44	; 0xffffffd4
     cd4:	74637572 	strbtvc	r7, [r3], #-1394	; 0xfffffa8e
     cd8:	745f5f20 	ldrbvc	r5, [pc], #-3872	; ce0 <_Min_Stack_Size+0x8e0>
     cdc:	2c2a206d 	stccs	0, cr2, [sl], #-436	; 0xfffffe4c
     ce0:	7a697320 	bvc	1a5d968 <_Min_Stack_Size+0x1a5d568>
     ce4:	20666f65 	rsbcs	r6, r6, r5, ror #30
     ce8:	7628282a 	strtvc	r2, [r8], -sl, lsr #16
     cec:	2d297261 	sfmcs	f7, 4, [r9, #-388]!	; 0xfffffe7c
     cf0:	6f6c5f3e 	svcvs	0x006c5f3e
     cf4:	746c6163 	strbtvc	r6, [ip], #-355	; 0xfffffe9d
     cf8:	5f656d69 	svcpl	0x00656d69
     cfc:	29667562 	stmdbcs	r6!, {r1, r5, r6, r8, sl, ip, sp, lr}^
     d00:	0029202c 	eoreq	r2, r9, ip, lsr #32
     d04:	53555f5f 	cmppl	r5, #380	; 0x17c
     d08:	43415246 	movtmi	r5, #4678	; 0x1246
     d0c:	414d5f54 	cmpmi	sp, r4, asr pc
     d10:	205f5f58 	subscs	r5, pc, r8, asr pc	; <UNPREDICTABLE>
     d14:	46465830 			; <UNDEFINED> instruction: 0x46465830
     d18:	55382d50 	ldrpl	r2, [r8, #-3408]!	; 0xfffff2b0
     d1c:	45005248 	strmi	r5, [r0, #-584]	; 0xfffffdb8
     d20:	31495458 	cmpcc	r9, r8, asr r4
     d24:	30312030 	eorscc	r2, r1, r0, lsr r0
     d28:	54584500 	ldrbpl	r4, [r8], #-1280	; 0xfffffb00
     d2c:	50303149 	eorspl	r3, r0, r9, asr #2
     d30:	20303142 	eorscs	r3, r0, r2, asr #2
     d34:	54584528 	ldrbpl	r4, [r8], #-1320	; 0xfffffad8
     d38:	50475f49 	subpl	r5, r7, r9, asr #30
     d3c:	4d5f4f49 	ldclmi	15, cr4, [pc, #-292]	; c20 <_Min_Stack_Size+0x820>
     d40:	69707061 	ldmdbvs	r0!, {r0, r5, r6, ip, sp, lr}^
     d44:	745f676e 	ldrbvc	r6, [pc], #-1902	; d4c <_Min_Stack_Size+0x94c>
     d48:	58457b29 	stmdapl	r5, {r0, r3, r5, r8, r9, fp, ip, sp, lr}^
     d4c:	30314954 	eorscc	r4, r1, r4, asr r9
     d50:	5047202c 	subpl	r2, r7, ip, lsr #32
     d54:	2c424f49 	mcrrcs	15, 4, r4, r2, cr9
     d58:	49504720 	ldmdbmi	r0, {r5, r8, r9, sl, lr}^
     d5c:	49505f4f 	ldmdbmi	r0, {r0, r1, r2, r3, r6, r8, r9, sl, fp, ip, lr}^
     d60:	30315f4e 	eorscc	r5, r1, lr, asr #30
     d64:	5845202c 	stmdapl	r5, {r2, r3, r5, sp}^
     d68:	30314954 	eorscc	r4, r1, r4, asr r9
     d6c:	5152495f 	cmppl	r2, pc, asr r9
     d70:	5f007d20 	svcpl	0x00007d20
     d74:	65656e5f 	strbvs	r6, [r5, #-3679]!	; 0xfffff1a1
     d78:	63775f64 	cmnvs	r7, #100, 30	; 0x190
     d7c:	5f726168 	svcpl	0x00726168
     d80:	5f5f0074 	svcpl	0x005f0074
     d84:	33544c46 	cmpcc	r4, #17920	; 0x4600
     d88:	494d5f32 	stmdbmi	sp, {r1, r4, r5, r8, r9, sl, fp, ip, lr}^
     d8c:	58455f4e 	stmdapl	r5, {r1, r2, r3, r6, r8, r9, sl, fp, ip, lr}^
     d90:	205f5f50 	subscs	r5, pc, r0, asr pc	; <UNPREDICTABLE>
     d94:	32312d28 	eorscc	r2, r1, #40, 26	; 0xa00
     d98:	45002935 	strmi	r2, [r0, #-2357]	; 0xfffff6cb
     d9c:	31495458 	cmpcc	r9, r8, asr r4
     da0:	31425035 	cmpcc	r2, r5, lsr r0
     da4:	45282035 	strmi	r2, [r8, #-53]!	; 0xffffffcb
     da8:	5f495458 	svcpl	0x00495458
     dac:	4f495047 	svcmi	0x00495047
     db0:	70614d5f 	rsbvc	r4, r1, pc, asr sp
     db4:	676e6970 			; <UNDEFINED> instruction: 0x676e6970
     db8:	7b29745f 	blvc	a5df3c <_Min_Stack_Size+0xa5db3c>
     dbc:	49545845 	ldmdbmi	r4, {r0, r2, r6, fp, ip, lr}^
     dc0:	202c3531 	eorcs	r3, ip, r1, lsr r5
     dc4:	4f495047 	svcmi	0x00495047
     dc8:	47202c42 	strmi	r2, [r0, -r2, asr #24]!
     dcc:	5f4f4950 	svcpl	0x004f4950
     dd0:	5f4e4950 	svcpl	0x004e4950
     dd4:	202c3531 	eorcs	r3, ip, r1, lsr r5
     dd8:	49545845 	ldmdbmi	r4, {r0, r2, r6, fp, ip, lr}^
     ddc:	495f3531 	ldmdbmi	pc, {r0, r4, r5, r8, sl, ip, sp}^	; <UNPREDICTABLE>
     de0:	7d205152 	stfvcs	f5, [r0, #-328]!	; 0xfffffeb8
     de4:	65675f00 	strbvs	r5, [r7, #-3840]!	; 0xfffff100
     de8:	74616474 	strbtvc	r6, [r1], #-1140	; 0xfffffb8c
     dec:	72655f65 	rsbvc	r5, r5, #404	; 0x194
     df0:	6d5f0072 	ldclvs	0, cr0, [pc, #-456]	; c30 <_Min_Stack_Size+0x830>
     df4:	00746c75 	rsbseq	r6, r4, r5, ror ip
     df8:	31544e49 	cmpcc	r4, r9, asr #28
     dfc:	414d5f36 	cmpmi	sp, r6, lsr pc
     e00:	5f282058 	svcpl	0x00282058
     e04:	544e495f 	strbpl	r4, [lr], #-2399	; 0xfffff6a1
     e08:	4d5f3631 	ldclmi	6, cr3, [pc, #-196]	; d4c <_Min_Stack_Size+0x94c>
     e0c:	5f5f5841 	svcpl	0x005f5841
     e10:	5f5f0029 	svcpl	0x005f0029
     e14:	52464c55 	subpl	r4, r6, #21760	; 0x5500
     e18:	5f544341 	svcpl	0x00544341
     e1c:	54494246 	strbpl	r4, [r9], #-582	; 0xfffffdba
     e20:	33205f5f 			; <UNDEFINED> instruction: 0x33205f5f
     e24:	58450032 	stmdapl	r5, {r1, r4, r5}^
     e28:	32314954 	eorscc	r4, r1, #84, 18	; 0x150000
     e2c:	00323120 	eorseq	r3, r2, r0, lsr #2
     e30:	4c465f5f 	mcrrmi	15, 5, r5, r6, cr15
     e34:	5f343654 	svcpl	0x00343654
     e38:	5f4e494d 	svcpl	0x004e494d
     e3c:	455f3031 	ldrbmi	r3, [pc, #-49]	; e13 <_Min_Stack_Size+0xa13>
     e40:	5f5f5058 	svcpl	0x005f5058
     e44:	332d2820 			; <UNDEFINED> instruction: 0x332d2820
     e48:	00293730 	eoreq	r3, r9, r0, lsr r7
     e4c:	69735f5f 	ldmdbvs	r3!, {r0, r1, r2, r3, r4, r6, r8, r9, sl, fp, ip, lr}^
     e50:	745f657a 	ldrbvc	r6, [pc], #-1402	; e58 <_Min_Stack_Size+0xa58>
     e54:	5f5f0020 	svcpl	0x005f0020
     e58:	6e756f62 	cdpvs	15, 7, cr6, cr5, cr2, {3}
     e5c:	20646564 	rsbcs	r6, r4, r4, ror #10
     e60:	695f5f00 	ldmdbvs	pc, {r8, r9, sl, fp, ip, lr}^	; <UNPREDICTABLE>
     e64:	665f746e 	ldrbvs	r7, [pc], -lr, ror #8
     e68:	33747361 	cmncc	r4, #-2080374783	; 0x84000001
     e6c:	5f745f32 	svcpl	0x00745f32
     e70:	69666564 	stmdbvs	r6!, {r2, r5, r6, r8, sl, sp, lr}^
     e74:	2064656e 	rsbcs	r6, r4, lr, ror #10
     e78:	5f5f0031 	svcpl	0x005f0031
     e7c:	5f544e49 	svcpl	0x00544e49
     e80:	54534146 	ldrbpl	r4, [r3], #-326	; 0xfffffeba
     e84:	575f3436 	smmlarpl	pc, r6, r4, r3	; <UNPREDICTABLE>
     e88:	48544449 	ldmdami	r4, {r0, r3, r6, sl, lr}^
     e8c:	36205f5f 	qsaxcc	r5, r0, pc	; <UNPREDICTABLE>
     e90:	5f5f0034 	svcpl	0x005f0034
     e94:	746e695f 	strbtvc	r6, [lr], #-2399	; 0xfffff6a1
     e98:	6863775f 	stmdavs	r3!, {r0, r1, r2, r3, r4, r6, r8, r9, sl, ip, sp, lr}^
     e9c:	745f7261 	ldrbvc	r7, [pc], #-609	; ea4 <_Min_Stack_Size+0xaa4>
     ea0:	0020685f 	eoreq	r6, r0, pc, asr r8
     ea4:	49545845 	ldmdbmi	r4, {r0, r2, r6, fp, ip, lr}^
     ea8:	43503131 	cmpmi	r0, #1073741836	; 0x4000000c
     eac:	28203131 	stmdacs	r0!, {r0, r4, r5, r8, ip, sp}
     eb0:	49545845 	ldmdbmi	r4, {r0, r2, r6, fp, ip, lr}^
     eb4:	4950475f 	ldmdbmi	r0, {r0, r1, r2, r3, r4, r6, r8, r9, sl, lr}^
     eb8:	614d5f4f 	cmpvs	sp, pc, asr #30
     ebc:	6e697070 	mcrvs	0, 3, r7, cr9, cr0, {3}
     ec0:	29745f67 	ldmdbcs	r4!, {r0, r1, r2, r5, r6, r8, r9, sl, fp, ip, lr}^
     ec4:	5458457b 	ldrbpl	r4, [r8], #-1403	; 0xfffffa85
     ec8:	2c313149 	ldfcss	f3, [r1], #-292	; 0xfffffedc
     ecc:	49504720 	ldmdbmi	r0, {r5, r8, r9, sl, lr}^
     ed0:	202c434f 	eorcs	r4, ip, pc, asr #6
     ed4:	4f495047 	svcmi	0x00495047
     ed8:	4e49505f 	mcrmi	0, 2, r5, cr9, cr15, {2}
     edc:	2c31315f 	ldfcss	f3, [r1], #-380	; 0xfffffe84
     ee0:	54584520 	ldrbpl	r4, [r8], #-1312	; 0xfffffae0
     ee4:	5f313149 	svcpl	0x00313149
     ee8:	20515249 	subscs	r5, r1, r9, asr #4
     eec:	5047007d 	subpl	r0, r7, sp, ror r0
     ef0:	505f4f49 	subspl	r4, pc, r9, asr #30
     ef4:	315f4e49 	cmpcc	pc, r9, asr #28
     ef8:	75282820 	strvc	r2, [r8, #-2080]!	; 0xfffff7e0
     efc:	31746e69 	cmncc	r4, r9, ror #28
     f00:	29745f36 	ldmdbcs	r4!, {r1, r2, r4, r5, r8, r9, sl, fp, ip, lr}^
     f04:	30307830 	eorscc	r7, r0, r0, lsr r8
     f08:	00293230 	eoreq	r3, r9, r0, lsr r2
     f0c:	4f495047 	svcmi	0x00495047
     f10:	5445525f 	strbpl	r5, [r5], #-607	; 0xfffffda1
     f14:	5f4e5255 	svcpl	0x004e5255
     f18:	4b434f4c 	blmi	10d4c50 <_Min_Stack_Size+0x10d4850>
     f1c:	5252455f 	subspl	r4, r2, #398458880	; 0x17c00000
     f20:	3020524f 	eorcc	r5, r0, pc, asr #4
     f24:	544e4900 	strbpl	r4, [lr], #-2304	; 0xfffff700
     f28:	435f3631 	cmpmi	pc, #51380224	; 0x3100000
     f2c:	20297828 	eorcs	r7, r9, r8, lsr #16
     f30:	4e495f5f 	mcrmi	15, 2, r5, cr9, cr15, {2}
     f34:	5f363154 	svcpl	0x00363154
     f38:	29782843 	ldmdbcs	r8!, {r0, r1, r6, fp, sp}^
     f3c:	4f505f00 	svcmi	0x00505f00
     f40:	45544e49 	ldrbmi	r4, [r4, #-3657]	; 0xfffff1b7
     f44:	4e495f52 	mcrmi	15, 2, r5, cr9, cr2, {2}
     f48:	6f6c2054 	svcvs	0x006c2054
     f4c:	5f00676e 	svcpl	0x0000676e
     f50:	5246535f 	subpl	r5, r6, #2080374785	; 0x7c000001
     f54:	5f544341 	svcpl	0x00544341
     f58:	49535045 	ldmdbmi	r3, {r0, r2, r6, ip, lr}^
     f5c:	5f4e4f4c 	svcpl	0x004e4f4c
     f60:	7830205f 	ldmdavc	r0!, {r0, r1, r2, r3, r4, r6, sp}
     f64:	372d5031 			; <UNDEFINED> instruction: 0x372d5031
     f68:	5f005248 	svcpl	0x00005248
     f6c:	4e4f435f 	mcrmi	3, 2, r4, cr15, cr15, {2}
     f70:	31544143 	cmpcc	r4, r3, asr #2
     f74:	792c7828 	stmdbvc	ip!, {r3, r5, fp, ip, sp, lr}
     f78:	20782029 	rsbscs	r2, r8, r9, lsr #32
     f7c:	79202323 	stmdbvc	r0!, {r0, r1, r5, r8, r9, sp}
     f80:	706e7500 	rsbvc	r7, lr, r0, lsl #10
     f84:	69766972 	ldmdbvs	r6!, {r1, r4, r5, r6, r8, fp, sp, lr}^
     f88:	6567656c 	strbvs	r6, [r7, #-1388]!	; 0xfffffa94
     f8c:	545f0064 	ldrbpl	r0, [pc], #-100	; f94 <_Min_Stack_Size+0xb94>
     f90:	5a49535f 	bpl	1255d14 <_Min_Stack_Size+0x1255914>
     f94:	5f002045 	svcpl	0x00002045
     f98:	4c42445f 	cfstrdmi	mvd4, [r2], {95}	; 0x5f
     f9c:	4e494d5f 	mcrmi	13, 2, r4, cr9, cr15, {2}
     fa0:	5f30315f 	svcpl	0x0030315f
     fa4:	5f505845 	svcpl	0x00505845
     fa8:	2d28205f 	stccs	0, cr2, [r8, #-380]!	; 0xfffffe84
     fac:	29373033 	ldmdbcs	r7!, {r0, r1, r4, r5, ip, sp}
     fb0:	555f5f00 	ldrbpl	r5, [pc, #-3840]	; b8 <_Min_Heap_Size-0x148>
     fb4:	465f5153 			; <UNDEFINED> instruction: 0x465f5153
     fb8:	5f544942 	svcpl	0x00544942
     fbc:	3233205f 	eorscc	r2, r3, #95	; 0x5f
     fc0:	4f5f5f00 	svcmi	0x005f5f00
     fc4:	52454452 	subpl	r4, r5, #1375731712	; 0x52000000
     fc8:	4749425f 	smlsldmi	r4, r9, pc, r2	; <UNPREDICTABLE>
     fcc:	444e455f 	strbmi	r4, [lr], #-1375	; 0xfffffaa1
     fd0:	5f4e4149 	svcpl	0x004e4149
     fd4:	3334205f 	teqcc	r4, #95	; 0x5f
     fd8:	45003132 	strmi	r3, [r0, #-306]	; 0xfffffece
     fdc:	31495458 	cmpcc	r9, r8, asr r4
     fe0:	34312034 	ldrtcc	r2, [r1], #-52	; 0xffffffcc
     fe4:	535f5f00 	cmppl	pc, #0, 30
     fe8:	42465f51 	submi	r5, r6, #324	; 0x144
     fec:	5f5f5449 	svcpl	0x005f5449
     ff0:	00313320 	eorseq	r3, r1, r0, lsr #6
     ff4:	4f495047 	svcmi	0x00495047
     ff8:	444f4d5f 	strbmi	r4, [pc], #-3423	; 1000 <_Min_Stack_Size+0xc00>
     ffc:	4e495f45 	cdpmi	15, 4, cr5, cr9, cr5, {2}
    1000:	5f545550 	svcpl	0x00545550
    1004:	30204450 	eorcc	r4, r0, r0, asr r4
    1008:	30303078 	eorscc	r3, r0, r8, ror r0
    100c:	30303030 	eorscc	r3, r0, r0, lsr r0
    1010:	49007533 	stmdbmi	r0, {r0, r1, r4, r5, r8, sl, ip, sp, lr}
    1014:	5f38544e 	svcpl	0x0038544e
    1018:	204e494d 	subcs	r4, lr, sp, asr #18
    101c:	5f5f2d28 	svcpl	0x005f2d28
    1020:	38544e49 	ldmdacc	r4, {r0, r3, r6, r9, sl, fp, lr}^
    1024:	58414d5f 	stmdapl	r1, {r0, r1, r2, r3, r4, r6, r8, sl, fp, lr}^
    1028:	2d205f5f 	stccs	15, cr5, [r0, #-380]!	; 0xfffffe84
    102c:	00293120 	eoreq	r3, r9, r0, lsr #2
    1030:	4e49555f 	mcrmi	5, 2, r5, cr9, cr15, {2}
    1034:	5f363154 	svcpl	0x00363154
    1038:	45445f54 	strbmi	r5, [r4, #-3924]	; 0xfffff0ac
    103c:	52414c43 	subpl	r4, r1, #17152	; 0x4300
    1040:	00204445 	eoreq	r4, r0, r5, asr #8
    1044:	49545845 	ldmdbmi	r4, {r0, r2, r6, fp, ip, lr}^
    1048:	61435f39 	cmpvs	r3, r9, lsr pc
    104c:	61626c6c 	cmnvs	r2, ip, ror #24
    1050:	4e006b63 	vmlsmi.f64	d6, d0, d19
    1054:	5f434956 	svcpl	0x00434956
    1058:	36515249 	ldrbcc	r5, [r1], -r9, asr #4
    105c:	5458455f 	ldrbpl	r4, [r8], #-1375	; 0xfffffaa1
    1060:	445f3449 	ldrbmi	r3, [pc], #-1097	; 1068 <_Min_Stack_Size+0xc68>
    1064:	42415349 	submi	r5, r1, #603979777	; 0x24000001
    1068:	2820454c 	stmdacs	r0!, {r2, r3, r6, r8, sl, lr}
    106c:	4349564e 	movtmi	r5, #38478	; 0x964e
    1070:	4543495f 	strbmi	r4, [r3, #-2399]	; 0xfffff6a1
    1074:	7c203052 	stcvc	0, cr3, [r0], #-328	; 0xfffffeb8
    1078:	3128203d 			; <UNDEFINED> instruction: 0x3128203d
    107c:	30313c3c 	eorscc	r3, r1, ip, lsr ip
    1080:	5f002929 	svcpl	0x00002929
    1084:	5148555f 	cmppl	r8, pc, asr r5
    1088:	4942465f 	stmdbmi	r2, {r0, r1, r2, r3, r4, r6, r9, sl, lr}^
    108c:	205f5f54 	subscs	r5, pc, r4, asr pc	; <UNPREDICTABLE>
    1090:	47003631 	smladxmi	r0, r1, r6, r3
    1094:	5f4f4950 	svcpl	0x004f4950
    1098:	5f4e4950 	svcpl	0x004e4950
    109c:	28282038 	stmdacs	r8!, {r3, r4, r5, sp}
    10a0:	746e6975 	strbtvc	r6, [lr], #-2421	; 0xfffff68b
    10a4:	745f3631 	ldrbvc	r3, [pc], #-1585	; 10ac <_Min_Stack_Size+0xcac>
    10a8:	30783029 	rsbscc	r3, r8, r9, lsr #32
    10ac:	29303031 	ldmdbcs	r0!, {r0, r4, r5, ip, sp}
    10b0:	544e4900 	strbpl	r4, [lr], #-2304	; 0xfffff700
    10b4:	41454c5f 	cmpmi	r5, pc, asr ip
    10b8:	34365453 	ldrtcc	r5, [r6], #-1107	; 0xfffffbad
    10bc:	58414d5f 	stmdapl	r1, {r0, r1, r2, r3, r4, r6, r8, sl, fp, lr}^
    10c0:	5f5f2820 	svcpl	0x005f2820
    10c4:	5f544e49 	svcpl	0x00544e49
    10c8:	5341454c 	movtpl	r4, #5452	; 0x154c
    10cc:	5f343654 	svcpl	0x00343654
    10d0:	5f58414d 	svcpl	0x0058414d
    10d4:	5f00295f 	svcpl	0x0000295f
    10d8:	544c465f 	strbpl	r4, [ip], #-1631	; 0xfffff9a1
    10dc:	4d5f3436 	cfldrdmi	mvd3, [pc, #-216]	; 100c <_Min_Stack_Size+0xc0c>
    10e0:	455f4e49 	ldrbmi	r4, [pc, #-3657]	; 29f <_Min_Heap_Size+0x9f>
    10e4:	5f5f5058 	svcpl	0x005f5058
    10e8:	312d2820 			; <UNDEFINED> instruction: 0x312d2820
    10ec:	29313230 	ldmdbcs	r1!, {r4, r5, r9, ip, sp}
    10f0:	5a495300 	bpl	1255cf8 <_Min_Stack_Size+0x12558f8>
    10f4:	414d5f45 	cmpmi	sp, r5, asr #30
    10f8:	5f282058 	svcpl	0x00282058
    10fc:	5a49535f 	bpl	1255e80 <_Min_Stack_Size+0x1255a80>
    1100:	414d5f45 	cmpmi	sp, r5, asr #30
    1104:	295f5f58 	ldmdbcs	pc, {r3, r4, r6, r8, r9, sl, fp, ip, lr}^	; <UNPREDICTABLE>
    1108:	505f5f00 	subspl	r5, pc, r0, lsl #30
    110c:	49445254 	stmdbmi	r4, {r2, r4, r6, r9, ip, lr}^
    1110:	575f4646 	ldrbpl	r4, [pc, -r6, asr #12]
    1114:	48544449 	ldmdami	r4, {r0, r3, r6, sl, lr}^
    1118:	33205f5f 			; <UNDEFINED> instruction: 0x33205f5f
    111c:	5f5f0032 	svcpl	0x005f0032
    1120:	6b616577 	blvs	185a704 <_Min_Stack_Size+0x185a304>
    1124:	6665725f 			; <UNDEFINED> instruction: 0x6665725f
    1128:	6e657265 	cdpvs	2, 6, cr7, cr5, cr5, {3}
    112c:	73286563 			; <UNDEFINED> instruction: 0x73286563
    1130:	612c6d79 			; <UNDEFINED> instruction: 0x612c6d79
    1134:	7361696c 	cmnvc	r1, #108, 18	; 0x1b0000
    1138:	5f5f2029 	svcpl	0x005f2029
    113c:	5f6d7361 	svcpl	0x006d7361
    1140:	2e22285f 	mcrcs	8, 1, r2, cr2, cr15, {2}
    1144:	6b616577 	blvs	185a728 <_Min_Stack_Size+0x185a328>
    1148:	23202220 			; <UNDEFINED> instruction: 0x23202220
    114c:	61696c61 	cmnvs	r9, r1, ror #24
    1150:	203b2973 	eorscs	r2, fp, r3, ror r9
    1154:	73615f5f 	cmnvc	r1, #380	; 0x17c
    1158:	285f5f6d 	ldmdacs	pc, {r0, r2, r3, r5, r6, r8, r9, sl, fp, ip, lr}^	; <UNPREDICTABLE>
    115c:	71652e22 	cmnvc	r5, r2, lsr #28
    1160:	20222075 	eorcs	r2, r2, r5, ror r0
    1164:	696c6123 	stmdbvs	ip!, {r0, r1, r5, r8, sp, lr}^
    1168:	22207361 	eorcs	r7, r0, #-2080374783	; 0x84000001
    116c:	2022202c 	eorcs	r2, r2, ip, lsr #32
    1170:	6d797323 	ldclvs	3, cr7, [r9, #-140]!	; 0xffffff74
    1174:	5f5f0029 	svcpl	0x005f0029
    1178:	544e4955 	strbpl	r4, [lr], #-2389	; 0xfffff6ab
    117c:	5341465f 	movtpl	r4, #5727	; 0x165f
    1180:	4d5f3854 	ldclmi	8, cr3, [pc, #-336]	; 1038 <_Min_Stack_Size+0xc38>
    1184:	5f5f5841 	svcpl	0x005f5841
    1188:	66783020 	ldrbtvs	r3, [r8], -r0, lsr #32
    118c:	66666666 	strbtvs	r6, [r6], -r6, ror #12
    1190:	55666666 	strbpl	r6, [r6, #-1638]!	; 0xfffff99a
    1194:	54584500 	ldrbpl	r4, [r8], #-1280	; 0xfffffb00
    1198:	50323149 	eorspl	r3, r2, r9, asr #2
    119c:	20323141 	eorscs	r3, r2, r1, asr #2
    11a0:	54584528 	ldrbpl	r4, [r8], #-1320	; 0xfffffad8
    11a4:	50475f49 	subpl	r5, r7, r9, asr #30
    11a8:	4d5f4f49 	ldclmi	15, cr4, [pc, #-292]	; 108c <_Min_Stack_Size+0xc8c>
    11ac:	69707061 	ldmdbvs	r0!, {r0, r5, r6, ip, sp, lr}^
    11b0:	745f676e 	ldrbvc	r6, [pc], #-1902	; 11b8 <_Min_Stack_Size+0xdb8>
    11b4:	58457b29 	stmdapl	r5, {r0, r3, r5, r8, r9, fp, ip, sp, lr}^
    11b8:	32314954 	eorscc	r4, r1, #84, 18	; 0x150000
    11bc:	5047202c 	subpl	r2, r7, ip, lsr #32
    11c0:	2c414f49 	mcrrcs	15, 4, r4, r1, cr9
    11c4:	49504720 	ldmdbmi	r0, {r5, r8, r9, sl, lr}^
    11c8:	49505f4f 	ldmdbmi	r0, {r0, r1, r2, r3, r6, r8, r9, sl, fp, ip, lr}^
    11cc:	32315f4e 	eorscc	r5, r1, #312	; 0x138
    11d0:	5845202c 	stmdapl	r5, {r2, r3, r5, sp}^
    11d4:	32314954 	eorscc	r4, r1, #84, 18	; 0x150000
    11d8:	5152495f 	cmppl	r2, pc, asr r9
    11dc:	45007d20 	strmi	r7, [r0, #-3360]	; 0xfffff2e0
    11e0:	31495458 	cmpcc	r9, r8, asr r4
    11e4:	31435035 	cmpcc	r3, r5, lsr r0
    11e8:	45282035 	strmi	r2, [r8, #-53]!	; 0xffffffcb
    11ec:	5f495458 	svcpl	0x00495458
    11f0:	4f495047 	svcmi	0x00495047
    11f4:	70614d5f 	rsbvc	r4, r1, pc, asr sp
    11f8:	676e6970 			; <UNDEFINED> instruction: 0x676e6970
    11fc:	7b29745f 	blvc	a5e380 <_Min_Stack_Size+0xa5df80>
    1200:	49545845 	ldmdbmi	r4, {r0, r2, r6, fp, ip, lr}^
    1204:	202c3531 	eorcs	r3, ip, r1, lsr r5
    1208:	4f495047 	svcmi	0x00495047
    120c:	47202c43 	strmi	r2, [r0, -r3, asr #24]!
    1210:	5f4f4950 	svcpl	0x004f4950
    1214:	5f4e4950 	svcpl	0x004e4950
    1218:	202c3531 	eorcs	r3, ip, r1, lsr r5
    121c:	49545845 	ldmdbmi	r4, {r0, r2, r6, fp, ip, lr}^
    1220:	495f3531 	ldmdbmi	pc, {r0, r4, r5, r8, sl, ip, sp}^	; <UNPREDICTABLE>
    1224:	7d205152 	stfvcs	f5, [r0, #-328]!	; 0xfffffeb8
    1228:	445f5f00 	ldrbmi	r5, [pc], #-3840	; 1230 <_Min_Stack_Size+0xe30>
    122c:	32334345 	eorscc	r4, r3, #335544321	; 0x14000001
    1230:	5350455f 	cmppl	r0, #398458880	; 0x17c00000
    1234:	4e4f4c49 	cdpmi	12, 4, cr4, cr15, cr9, {2}
    1238:	31205f5f 			; <UNDEFINED> instruction: 0x31205f5f
    123c:	44362d45 	ldrtmi	r2, [r6], #-3397	; 0xfffff2bb
    1240:	5f5f0046 	svcpl	0x005f0046
    1244:	5f736168 	svcpl	0x00736168
    1248:	65747865 	ldrbvs	r7, [r4, #-2149]!	; 0xfffff79b
    124c:	6f69736e 	svcvs	0x0069736e
    1250:	5f5f206e 	svcpl	0x005f206e
    1254:	5f736168 	svcpl	0x00736168
    1258:	74616566 	strbtvc	r6, [r1], #-1382	; 0xfffffa9a
    125c:	00657275 	rsbeq	r7, r5, r5, ror r2
    1260:	63775f5f 	cmnvs	r7, #380	; 0x17c
    1264:	5f5f0068 	svcpl	0x005f0068
    1268:	4343414c 	movtmi	r4, #12620	; 0x314c
    126c:	495f4d55 	ldmdbmi	pc, {r0, r2, r4, r6, r8, sl, fp, lr}^	; <UNPREDICTABLE>
    1270:	5f544942 	svcpl	0x00544942
    1274:	3233205f 	eorscc	r2, r3, #95	; 0x5f
    1278:	54584500 	ldrbpl	r4, [r8], #-1280	; 0xfffffb00
    127c:	41425f49 	cmpmi	r2, r9, asr #30
    1280:	30204553 	eorcc	r4, r0, r3, asr r5
    1284:	30303478 	eorscc	r3, r0, r8, ror r4
    1288:	30343031 	eorscc	r3, r4, r1, lsr r0
    128c:	004c5530 	subeq	r5, ip, r0, lsr r5
    1290:	69755f5f 	ldmdbvs	r5!, {r0, r1, r2, r3, r4, r6, r8, r9, sl, fp, ip, lr}^
    1294:	5f38746e 	svcpl	0x0038746e
    1298:	5f5f0074 	svcpl	0x005f0074
    129c:	41484353 	cmpmi	r8, r3, asr r3
    12a0:	49575f52 	ldmdbmi	r7, {r1, r4, r6, r8, r9, sl, fp, ip, lr}^
    12a4:	5f485444 	svcpl	0x00485444
    12a8:	0038205f 	eorseq	r2, r8, pc, asr r0
    12ac:	454e5f5f 	strbmi	r5, [lr, #-3935]	; 0xfffff0a1
    12b0:	42494c57 	submi	r4, r9, #22272	; 0x5700
    12b4:	5f5f485f 	svcpl	0x005f485f
    12b8:	5f003120 	svcpl	0x00003120
    12bc:	544e495f 	strbpl	r4, [lr], #-2399	; 0xfffff6a1
    12c0:	5341465f 	movtpl	r4, #5727	; 0x165f
    12c4:	5f363154 	svcpl	0x00363154
    12c8:	54444957 	strbpl	r4, [r4], #-2391	; 0xfffff6a9
    12cc:	205f5f48 	subscs	r5, pc, r8, asr #30
    12d0:	5f003233 	svcpl	0x00003233
    12d4:	5046565f 	subpl	r5, r6, pc, asr r6
    12d8:	5f50465f 	svcpl	0x0050465f
    12dc:	0031205f 	eorseq	r2, r1, pc, asr r0
    12e0:	454c5f5f 	strbmi	r5, [ip, #-3935]	; 0xfffff0a1
    12e4:	33545341 	cmpcc	r4, #67108865	; 0x4000001
    12e8:	6c222032 	stcvs	0, cr2, [r2], #-200	; 0xffffff38
    12ec:	5f5f0022 	svcpl	0x005f0022
    12f0:	52464c4c 	subpl	r4, r6, #76, 24	; 0x4c00
    12f4:	5f544341 	svcpl	0x00544341
    12f8:	5f4e494d 	svcpl	0x004e494d
    12fc:	2d28205f 	stccs	0, cr2, [r8, #-380]!	; 0xfffffe84
    1300:	4c352e30 	ldcmi	14, cr2, [r5], #-192	; 0xffffff40
    1304:	302d524c 	eorcc	r5, sp, ip, asr #4
    1308:	4c4c352e 	cfstr64mi	mvdx3, [ip], {46}	; 0x2e
    130c:	5f002952 	svcpl	0x00002952
    1310:	544e495f 	strbpl	r4, [lr], #-2399	; 0xfffff6a1
    1314:	5f525450 	svcpl	0x00525450
    1318:	5f58414d 	svcpl	0x0058414d
    131c:	7830205f 	ldmdavc	r0!, {r0, r1, r2, r3, r4, r6, sp}
    1320:	66666637 			; <UNDEFINED> instruction: 0x66666637
    1324:	66666666 	strbtvs	r6, [r6], -r6, ror #12
    1328:	69665f00 	stmdbvs	r6!, {r8, r9, sl, fp, ip, lr}^
    132c:	5f00656c 	svcpl	0x0000656c
    1330:	4e49555f 	mcrmi	5, 2, r5, cr9, cr15, {2}
    1334:	41465f54 	cmpmi	r6, r4, asr pc
    1338:	36315453 			; <UNDEFINED> instruction: 0x36315453
    133c:	58414d5f 	stmdapl	r1, {r0, r1, r2, r3, r4, r6, r8, sl, fp, lr}^
    1340:	30205f5f 	eorcc	r5, r0, pc, asr pc
    1344:	66666678 			; <UNDEFINED> instruction: 0x66666678
    1348:	66666666 	strbtvs	r6, [r6], -r6, ror #12
    134c:	49005566 	stmdbmi	r0, {r1, r2, r5, r6, r8, sl, ip, lr}
    1350:	4c5f544e 	cfldrdmi	mvd5, [pc], {78}	; 0x4e
    1354:	54534145 	ldrbpl	r4, [r3], #-325	; 0xfffffebb
    1358:	4d5f3436 	cfldrdmi	mvd3, [pc, #-216]	; 1288 <_Min_Stack_Size+0xe88>
    135c:	28204e49 	stmdacs	r0!, {r0, r3, r6, r9, sl, fp, lr}
    1360:	495f5f2d 	ldmdbmi	pc, {r0, r2, r3, r5, r8, r9, sl, fp, ip, lr}^	; <UNPREDICTABLE>
    1364:	4c5f544e 	cfldrdmi	mvd5, [pc], {78}	; 0x4e
    1368:	54534145 	ldrbpl	r4, [r3], #-325	; 0xfffffebb
    136c:	4d5f3436 	cfldrdmi	mvd3, [pc, #-216]	; 129c <_Min_Stack_Size+0xe9c>
    1370:	5f5f5841 	svcpl	0x005f5841
    1374:	31202d20 			; <UNDEFINED> instruction: 0x31202d20
    1378:	6f5f0029 	svcvs	0x005f0029
    137c:	78655f6e 	stmdavc	r5!, {r1, r2, r3, r5, r6, r8, r9, sl, fp, ip, lr}^
    1380:	615f7469 	cmpvs	pc, r9, ror #8
    1384:	00736772 	rsbseq	r6, r3, r2, ror r7
    1388:	4e475f5f 	mcrmi	15, 2, r5, cr7, cr15, {2}
    138c:	494c4355 	stmdbmi	ip, {r0, r2, r4, r6, r8, r9, lr}^
    1390:	425f454b 	subsmi	r4, pc, #314572800	; 0x12c00000
    1394:	544c4955 	strbpl	r4, [ip], #-2389	; 0xfffff6ab
    1398:	435f4e49 	cmpmi	pc, #1168	; 0x490
    139c:	54534e4f 	ldrbpl	r4, [r3], #-3663	; 0xfffff1b1
    13a0:	5f544e41 	svcpl	0x00544e41
    13a4:	00312050 	eorseq	r2, r1, r0, asr r0
    13a8:	4545525f 	strbmi	r5, [r5, #-607]	; 0xfffffda1
    13ac:	435f544e 	cmpmi	pc, #1308622848	; 0x4e000000
    13b0:	4b434548 	blmi	10d28d8 <_Min_Stack_Size+0x10d24d8>
    13b4:	72617628 	rsbvc	r7, r1, #40, 12	; 0x2800000
    13b8:	6168772c 	cmnvs	r8, ip, lsr #14
    13bc:	79742c74 	ldmdbvc	r4!, {r2, r4, r5, r6, sl, fp, sp}^
    13c0:	732c6570 			; <UNDEFINED> instruction: 0x732c6570
    13c4:	2c657a69 			; <UNDEFINED> instruction: 0x2c657a69
    13c8:	74696e69 	strbtvc	r6, [r9], #-3689	; 0xfffff197
    13cc:	6f642029 	svcvs	0x00642029
    13d0:	73207b20 			; <UNDEFINED> instruction: 0x73207b20
    13d4:	63757274 	cmnvs	r5, #116, 4	; 0x40000007
    13d8:	725f2074 	subsvc	r2, pc, #116	; 0x74
    13dc:	746e6565 	strbtvc	r6, [lr], #-1381	; 0xfffffa9b
    13e0:	725f2a20 	subsvc	r2, pc, #32, 20	; 0x20000
    13e4:	28203d20 	stmdacs	r0!, {r5, r8, sl, fp, ip, sp}
    13e8:	29726176 	ldmdbcs	r2!, {r1, r2, r4, r5, r6, r8, sp, lr}^
    13ec:	6669203b 			; <UNDEFINED> instruction: 0x6669203b
    13f0:	725f2820 	subsvc	r2, pc, #32, 16	; 0x200000
    13f4:	68773e2d 	ldmdavs	r7!, {r0, r2, r3, r5, r9, sl, fp, ip, sp}^
    13f8:	3d207461 	cfstrscc	mvf7, [r0, #-388]!	; 0xfffffe7c
    13fc:	554e203d 	strbpl	r2, [lr, #-61]	; 0xffffffc3
    1400:	20294c4c 	eorcs	r4, r9, ip, asr #24
    1404:	725f207b 	subsvc	r2, pc, #123	; 0x7b
    1408:	68773e2d 	ldmdavs	r7!, {r0, r2, r3, r5, r9, sl, fp, ip, sp}^
    140c:	3d207461 	cfstrscc	mvf7, [r0, #-388]!	; 0xfffffe7c
    1410:	79742820 	ldmdbvc	r4!, {r5, fp, sp}^
    1414:	6d296570 	cfstr32vs	mvfx6, [r9, #-448]!	; 0xfffffe40
    1418:	6f6c6c61 	svcvs	0x006c6c61
    141c:	69732863 	ldmdbvs	r3!, {r0, r1, r5, r6, fp, sp}^
    1420:	3b29657a 	blcc	a5aa10 <_Min_Stack_Size+0xa5a610>
    1424:	725f5f20 	subsvc	r5, pc, #32, 30	; 0x80
    1428:	746e6565 	strbtvc	r6, [lr], #-1381	; 0xfffffa9b
    142c:	7373615f 	cmnvc	r3, #-1073741801	; 0xc0000017
    1430:	28747265 	ldmdacs	r4!, {r0, r2, r5, r6, r9, ip, sp, lr}^
    1434:	3e2d725f 	mcrcc	2, 1, r7, cr13, cr15, {2}
    1438:	74616877 	strbtvc	r6, [r1], #-2167	; 0xfffff789
    143c:	69203b29 	stmdbvs	r0!, {r0, r3, r5, r8, r9, fp, ip, sp}
    1440:	3b74696e 	blcc	1d1ba00 <_Min_Stack_Size+0x1d1b600>
    1444:	7d207d20 	stcvc	13, cr7, [r0, #-128]!	; 0xffffff80
    1448:	69687720 	stmdbvs	r8!, {r5, r8, r9, sl, ip, sp, lr}^
    144c:	2820656c 	stmdacs	r0!, {r2, r3, r5, r6, r8, sl, sp, lr}
    1450:	5f002930 	svcpl	0x00002930
    1454:	6e6e6f4e 	cdpvs	15, 6, cr6, cr14, cr14, {2}
    1458:	206c6c75 	rsbcs	r6, ip, r5, ror ip
    145c:	475f5f00 	ldrbmi	r5, [pc, -r0, lsl #30]
    1460:	5f43554e 	svcpl	0x0043554e
    1464:	52455250 	subpl	r5, r5, #80, 4
    1468:	6d285145 	stfvss	f5, [r8, #-276]!	; 0xfffffeec
    146c:	6d2c6a61 	vstmdbvs	ip!, {s12-s108}
    1470:	20296e69 	eorcs	r6, r9, r9, ror #28
    1474:	5f5f2828 	svcpl	0x005f2828
    1478:	43554e47 	cmpmi	r5, #1136	; 0x470
    147c:	3c205f5f 	stccc	15, cr5, [r0], #-380	; 0xfffffe84
    1480:	3631203c 			; <UNDEFINED> instruction: 0x3631203c
    1484:	202b2029 	eorcs	r2, fp, r9, lsr #32
    1488:	4e475f5f 	mcrmi	15, 2, r5, cr7, cr15, {2}
    148c:	4d5f4355 	ldclmi	3, cr4, [pc, #-340]	; 1340 <_Min_Stack_Size+0xf40>
    1490:	524f4e49 	subpl	r4, pc, #1168	; 0x490
    1494:	3e205f5f 	mcrcc	15, 1, r5, cr0, cr15, {2}
    1498:	2828203d 	stmdacs	r8!, {r0, r2, r3, r4, r5, sp}
    149c:	296a616d 	stmdbcs	sl!, {r0, r2, r3, r5, r6, r8, sp, lr}^
    14a0:	203c3c20 	eorscs	r3, ip, r0, lsr #24
    14a4:	20293631 	eorcs	r3, r9, r1, lsr r6
    14a8:	6d28202b 	stcvs	0, cr2, [r8, #-172]!	; 0xffffff54
    14ac:	29296e69 	stmdbcs	r9!, {r0, r3, r5, r6, r9, sl, fp, sp, lr}
    14b0:	5f545f00 	svcpl	0x00545f00
    14b4:	41484357 	cmpmi	r8, r7, asr r3
    14b8:	45002052 	strmi	r2, [r0, #-82]	; 0xffffffae
    14bc:	32495458 	subcc	r5, r9, #88, 8	; 0x58000000
    14c0:	20324450 	eorscs	r4, r2, r0, asr r4
    14c4:	54584528 	ldrbpl	r4, [r8], #-1320	; 0xfffffad8
    14c8:	50475f49 	subpl	r5, r7, r9, asr #30
    14cc:	4d5f4f49 	ldclmi	15, cr4, [pc, #-292]	; 13b0 <_Min_Stack_Size+0xfb0>
    14d0:	69707061 	ldmdbvs	r0!, {r0, r5, r6, ip, sp, lr}^
    14d4:	745f676e 	ldrbvc	r6, [pc], #-1902	; 14dc <_Min_Stack_Size+0x10dc>
    14d8:	58457b29 	stmdapl	r5, {r0, r3, r5, r8, r9, fp, ip, sp, lr}^
    14dc:	2c324954 			; <UNDEFINED> instruction: 0x2c324954
    14e0:	49504720 	ldmdbmi	r0, {r5, r8, r9, sl, lr}^
    14e4:	202c444f 	eorcs	r4, ip, pc, asr #8
    14e8:	4f495047 	svcmi	0x00495047
    14ec:	4e49505f 	mcrmi	0, 2, r5, cr9, cr15, {2}
    14f0:	202c325f 	eorcs	r3, ip, pc, asr r2
    14f4:	49545845 	ldmdbmi	r4, {r0, r2, r6, fp, ip, lr}^
    14f8:	52495f32 	subpl	r5, r9, #50, 30	; 0xc8
    14fc:	007d2051 	rsbseq	r2, sp, r1, asr r0
    1500:	544e495f 	strbpl	r4, [lr], #-2399	; 0xfffff6a1
    1504:	5f525450 	svcpl	0x00525450
    1508:	45445f54 	strbmi	r5, [r4, #-3924]	; 0xfffff0ac
    150c:	52414c43 	subpl	r4, r1, #17152	; 0x4300
    1510:	00204445 	eoreq	r4, r0, r5, asr #8
    1514:	4c465f5f 	mcrrmi	15, 5, r5, r6, cr15
    1518:	58323354 	ldmdapl	r2!, {r2, r4, r6, r8, r9, ip, sp}
    151c:	5341485f 	movtpl	r4, #6239	; 0x185f
    1520:	464e495f 			; <UNDEFINED> instruction: 0x464e495f
    1524:	54494e49 	strbpl	r4, [r9], #-3657	; 0xfffff1b7
    1528:	205f5f59 	subscs	r5, pc, r9, asr pc	; <UNPREDICTABLE>
    152c:	4e490031 	mcrmi	0, 2, r0, cr9, cr1, {1}
    1530:	41465f54 	cmpmi	r6, r4, asr pc
    1534:	32335453 	eorscc	r5, r3, #1392508928	; 0x53000000
    1538:	4e494d5f 	mcrmi	13, 2, r4, cr9, cr15, {2}
    153c:	5f2d2820 	svcpl	0x002d2820
    1540:	544e495f 	strbpl	r4, [lr], #-2399	; 0xfffff6a1
    1544:	5341465f 	movtpl	r4, #5727	; 0x165f
    1548:	5f323354 	svcpl	0x00323354
    154c:	5f58414d 	svcpl	0x0058414d
    1550:	202d205f 	eorcs	r2, sp, pc, asr r0
    1554:	5f002931 	svcpl	0x00002931
    1558:	5f535953 	svcpl	0x00535953
    155c:	455a4953 	ldrbmi	r4, [sl, #-2387]	; 0xfffff6ad
    1560:	485f545f 	ldmdami	pc, {r0, r1, r2, r3, r4, r6, sl, ip, lr}^	; <UNPREDICTABLE>
    1564:	58450020 	stmdapl	r5, {r5}^
    1568:	50304954 	eorspl	r4, r0, r4, asr r9
    156c:	28203042 	stmdacs	r0!, {r1, r6, ip, sp}
    1570:	49545845 	ldmdbmi	r4, {r0, r2, r6, fp, ip, lr}^
    1574:	4950475f 	ldmdbmi	r0, {r0, r1, r2, r3, r4, r6, r8, r9, sl, lr}^
    1578:	614d5f4f 	cmpvs	sp, pc, asr #30
    157c:	6e697070 	mcrvs	0, 3, r7, cr9, cr0, {3}
    1580:	29745f67 	ldmdbcs	r4!, {r0, r1, r2, r5, r6, r8, r9, sl, fp, ip, lr}^
    1584:	5458457b 	ldrbpl	r4, [r8], #-1403	; 0xfffffa85
    1588:	202c3049 	eorcs	r3, ip, r9, asr #32
    158c:	4f495047 	svcmi	0x00495047
    1590:	47202c42 	strmi	r2, [r0, -r2, asr #24]!
    1594:	5f4f4950 	svcpl	0x004f4950
    1598:	5f4e4950 	svcpl	0x004e4950
    159c:	45202c30 	strmi	r2, [r0, #-3120]!	; 0xfffff3d0
    15a0:	30495458 	subcc	r5, r9, r8, asr r4
    15a4:	5152495f 	cmppl	r2, pc, asr r9
    15a8:	44007d20 	strmi	r7, [r0], #-3360	; 0xfffff2e0
    15ac:	47554245 	ldrbmi	r4, [r5, -r5, asr #4]
    15b0:	5f003120 	svcpl	0x00003120
    15b4:	4654415f 			; <UNDEFINED> instruction: 0x4654415f
    15b8:	5f454c49 	svcpl	0x00454c49
    15bc:	49534956 	ldmdbmi	r3, {r1, r2, r4, r6, r8, fp, lr}^
    15c0:	20454c42 	subcs	r4, r5, r2, asr #24
    15c4:	5f5f0031 	svcpl	0x005f0031
    15c8:	55434341 	strbpl	r4, [r3, #-833]	; 0xfffffcbf
    15cc:	42465f4d 	submi	r5, r6, #308	; 0x134
    15d0:	5f5f5449 	svcpl	0x005f5449
    15d4:	00353120 	eorseq	r3, r5, r0, lsr #2
    15d8:	49545845 	ldmdbmi	r4, {r0, r2, r6, fp, ip, lr}^
    15dc:	5152495f 	cmppl	r2, pc, asr r9
    15e0:	414e455f 	cmpmi	lr, pc, asr r5
    15e4:	20454c42 	subcs	r4, r5, r2, asr #24
    15e8:	6d5f0030 	ldclvs	0, cr0, [pc, #-192]	; 1530 <_Min_Stack_Size+0x1130>
    15ec:	656c7262 	strbvs	r7, [ip, #-610]!	; 0xfffffd9e
    15f0:	74735f6e 	ldrbtvc	r5, [r3], #-3950	; 0xfffff092
    15f4:	00657461 	rsbeq	r7, r5, r1, ror #8
    15f8:	4f495047 	svcmi	0x00495047
    15fc:	4e49505f 	mcrmi	0, 2, r5, cr9, cr15, {2}
    1600:	2820305f 	stmdacs	r0!, {r0, r1, r2, r3, r4, r6, ip, sp}
    1604:	6e697528 	cdpvs	5, 6, cr7, cr9, cr8, {1}
    1608:	5f363174 	svcpl	0x00363174
    160c:	78302974 	ldmdavc	r0!, {r2, r4, r5, r6, r8, fp, sp}
    1610:	31303030 	teqcc	r0, r0, lsr r0
    1614:	5f5f0029 	svcpl	0x005f0029
    1618:	5f544e49 	svcpl	0x00544e49
    161c:	54534146 	ldrbpl	r4, [r3], #-326	; 0xfffffeba
    1620:	4d5f3436 	cfldrdmi	mvd3, [pc, #-216]	; 1550 <_Min_Stack_Size+0x1150>
    1624:	5f5f5841 	svcpl	0x005f5841
    1628:	37783020 	ldrbcc	r3, [r8, -r0, lsr #32]!
    162c:	66666666 	strbtvs	r6, [r6], -r6, ror #12
    1630:	66666666 	strbtvs	r6, [r6], -r6, ror #12
    1634:	66666666 	strbtvs	r6, [r6], -r6, ror #12
    1638:	4c666666 	stclmi	6, cr6, [r6], #-408	; 0xfffffe68
    163c:	5f5f004c 	svcpl	0x005f004c
    1640:	33544c46 	cmpcc	r4, #17920	; 0x4600
    1644:	445f5832 	ldrbmi	r5, [pc], #-2098	; 164c <_Min_Stack_Size+0x124c>
    1648:	4d494345 	stclmi	3, cr4, [r9, #-276]	; 0xfffffeec
    164c:	445f4c41 	ldrbmi	r4, [pc], #-3137	; 1654 <_Min_Stack_Size+0x1254>
    1650:	5f5f4749 	svcpl	0x005f4749
    1654:	00373120 	eorseq	r3, r7, r0, lsr #2
    1658:	7365725f 	cmnvc	r5, #-268435451	; 0xf0000005
    165c:	5f746c75 	svcpl	0x00746c75
    1660:	5f5f006b 	svcpl	0x005f006b
    1664:	33544c46 	cmpcc	r4, #17920	; 0x4600
    1668:	485f5832 	ldmdami	pc, {r1, r4, r5, fp, ip, lr}^	; <UNPREDICTABLE>
    166c:	515f5341 	cmppl	pc, r1, asr #6
    1670:	54454955 	strbpl	r4, [r5], #-2389	; 0xfffff6ab
    1674:	4e414e5f 	mcrmi	14, 2, r4, cr1, cr15, {2}
    1678:	31205f5f 			; <UNDEFINED> instruction: 0x31205f5f
    167c:	6e5f5f00 	cdpvs	15, 5, cr5, cr15, cr0, {0}
    1680:	5f6c6c75 	svcpl	0x006c6c75
    1684:	746e6573 	strbtvc	r6, [lr], #-1395	; 0xfffffa8d
    1688:	6c656e69 	stclvs	14, cr6, [r5], #-420	; 0xfffffe5c
    168c:	615f5f20 	cmpvs	pc, r0, lsr #30
    1690:	69727474 	ldmdbvs	r2!, {r2, r4, r5, r6, sl, ip, sp, lr}^
    1694:	65747562 	ldrbvs	r7, [r4, #-1378]!	; 0xfffffa9e
    1698:	28285f5f 	stmdacs	r8!, {r0, r1, r2, r3, r4, r6, r8, r9, sl, fp, ip, lr}
    169c:	65735f5f 	ldrbvs	r5, [r3, #-3935]!	; 0xfffff0a1
    16a0:	6e69746e 	cdpvs	4, 6, cr7, cr9, cr14, {3}
    16a4:	5f5f6c65 	svcpl	0x005f6c65
    16a8:	5f002929 	svcpl	0x00002929
    16ac:	544c465f 	strbpl	r4, [ip], #-1631	; 0xfffff9a1
    16b0:	5f583233 	svcpl	0x00583233
    16b4:	49535045 	ldmdbmi	r3, {r0, r2, r6, ip, lr}^
    16b8:	5f4e4f4c 	svcpl	0x004e4f4c
    16bc:	2e32205f 	mrccs	0, 1, r2, cr2, cr15, {2}
    16c0:	34303232 	ldrtcc	r3, [r0], #-562	; 0xfffffdce
    16c4:	34303634 	ldrtcc	r3, [r0], #-1588	; 0xfffff9cc
    16c8:	30353239 	eorscc	r3, r5, r9, lsr r2
    16cc:	31333133 	teqcc	r3, r3, lsr r1
    16d0:	36312d65 	ldrtcc	r2, [r1], -r5, ror #26
    16d4:	78323346 	ldmdavc	r2!, {r1, r2, r6, r8, r9, ip, sp}
    16d8:	5f5f5f00 	svcpl	0x005f5f00
    16dc:	5f746e69 	svcpl	0x00746e69
    16e0:	7361656c 	cmnvc	r1, #108, 10	; 0x1b000000
    16e4:	5f363174 	svcpl	0x00363174
    16e8:	65645f74 	strbvs	r5, [r4, #-3956]!	; 0xfffff08c
    16ec:	656e6966 	strbvs	r6, [lr, #-2406]!	; 0xfffff69a
    16f0:	00312064 	eorseq	r2, r1, r4, rrx
    16f4:	52415f5f 	subpl	r5, r1, #380	; 0x17c
    16f8:	52415f4d 	subpl	r5, r1, #308	; 0x134
    16fc:	375f4843 	ldrbcc	r4, [pc, -r3, asr #16]
    1700:	205f5f4d 	subscs	r5, pc, sp, asr #30
    1704:	5f5f0031 	svcpl	0x005f0031
    1708:	31434544 	cmpcc	r3, r4, asr #10
    170c:	4d5f3832 	ldclmi	8, cr3, [pc, #-200]	; 164c <_Min_Stack_Size+0x124c>
    1710:	455f4e49 	ldrbmi	r4, [pc, #-3657]	; 8cf <_Min_Stack_Size+0x4cf>
    1714:	5f5f5058 	svcpl	0x005f5058
    1718:	362d2820 	strtcc	r2, [sp], -r0, lsr #16
    171c:	29323431 	ldmdbcs	r2!, {r0, r4, r5, sl, ip, sp}
    1720:	54584500 	ldrbpl	r4, [r8], #-1280	; 0xfffffb00
    1724:	50343149 	eorspl	r3, r4, r9, asr #2
    1728:	20343142 	eorscs	r3, r4, r2, asr #2
    172c:	54584528 	ldrbpl	r4, [r8], #-1320	; 0xfffffad8
    1730:	50475f49 	subpl	r5, r7, r9, asr #30
    1734:	4d5f4f49 	ldclmi	15, cr4, [pc, #-292]	; 1618 <_Min_Stack_Size+0x1218>
    1738:	69707061 	ldmdbvs	r0!, {r0, r5, r6, ip, sp, lr}^
    173c:	745f676e 	ldrbvc	r6, [pc], #-1902	; 1744 <_Min_Stack_Size+0x1344>
    1740:	58457b29 	stmdapl	r5, {r0, r3, r5, r8, r9, fp, ip, sp, lr}^
    1744:	34314954 	ldrtcc	r4, [r1], #-2388	; 0xfffff6ac
    1748:	5047202c 	subpl	r2, r7, ip, lsr #32
    174c:	2c424f49 	mcrrcs	15, 4, r4, r2, cr9
    1750:	49504720 	ldmdbmi	r0, {r5, r8, r9, sl, lr}^
    1754:	49505f4f 	ldmdbmi	r0, {r0, r1, r2, r3, r6, r8, r9, sl, fp, ip, lr}^
    1758:	34315f4e 	ldrtcc	r5, [r1], #-3918	; 0xfffff0b2
    175c:	5845202c 	stmdapl	r5, {r2, r3, r5, sp}^
    1760:	34314954 	ldrtcc	r4, [r1], #-2388	; 0xfffff6ac
    1764:	5152495f 	cmppl	r2, pc, asr r9
    1768:	5f007d20 	svcpl	0x00007d20
    176c:	544e495f 	strbpl	r4, [lr], #-2399	; 0xfffff6a1
    1770:	5341465f 	movtpl	r4, #5727	; 0x165f
    1774:	545f3854 	ldrbpl	r3, [pc], #-2132	; 177c <_Min_Stack_Size+0x137c>
    1778:	5f455059 	svcpl	0x00455059
    177c:	6e69205f 	mcrvs	0, 3, r2, cr9, cr15, {2}
    1780:	4e5f0074 	mrcmi	0, 2, r0, cr15, cr4, {3}
    1784:	4c4e494f 	mcrrmi	9, 4, r4, lr, cr15	; <UNPREDICTABLE>
    1788:	20454e49 	subcs	r4, r5, r9, asr #28
    178c:	74615f5f 	strbtvc	r5, [r1], #-3935	; 0xfffff0a1
    1790:	62697274 	rsbvs	r7, r9, #116, 4	; 0x40000007
    1794:	5f657475 	svcpl	0x00657475
    1798:	2828205f 	stmdacs	r8!, {r0, r1, r2, r3, r4, r6, sp}
    179c:	6f6e5f5f 	svcvs	0x006e5f5f
    17a0:	696c6e69 	stmdbvs	ip!, {r0, r3, r5, r6, r9, sl, fp, sp, lr}^
    17a4:	5f5f656e 	svcpl	0x005f656e
    17a8:	5f002929 	svcpl	0x00002929
    17ac:	7a69735f 	bvc	1a5e530 <_Min_Stack_Size+0x1a5e130>
    17b0:	5f745f65 	svcpl	0x00745f65
    17b4:	5f00205f 	svcpl	0x0000205f
    17b8:	4153555f 	cmpmi	r3, pc, asr r5
    17bc:	4d554343 	ldclmi	3, cr4, [r5, #-268]	; 0xfffffef4
    17c0:	5350455f 	cmppl	r0, #398458880	; 0x17c00000
    17c4:	4e4f4c49 	cdpmi	12, 4, cr4, cr15, cr9, {2}
    17c8:	30205f5f 	eorcc	r5, r0, pc, asr pc
    17cc:	2d503178 	ldfcse	f3, [r0, #-480]	; 0xfffffe20
    17d0:	4b485538 	blmi	1216cb8 <_Min_Stack_Size+0x12168b8>
    17d4:	555f5f00 	ldrbpl	r5, [pc, #-3840]	; 8dc <_Min_Stack_Size+0x4dc>
    17d8:	4d544e49 	ldclmi	14, cr4, [r4, #-292]	; 0xfffffedc
    17dc:	435f5841 	cmpmi	pc, #4259840	; 0x410000
    17e0:	20296328 	eorcs	r6, r9, r8, lsr #6
    17e4:	23232063 			; <UNDEFINED> instruction: 0x23232063
    17e8:	4c4c5520 	cfstr64mi	mvdx5, [ip], {32}
    17ec:	535f5f00 	cmppl	pc, #0, 30
    17f0:	4f455a49 	svcmi	0x00455a49
    17f4:	4f505f46 	svcmi	0x00505f46
    17f8:	45544e49 	ldrbmi	r4, [r4, #-3657]	; 0xfffff1b7
    17fc:	205f5f52 	subscs	r5, pc, r2, asr pc	; <UNPREDICTABLE>
    1800:	5f5f0034 	svcpl	0x005f0034
    1804:	5f544e49 	svcpl	0x00544e49
    1808:	5341454c 	movtpl	r4, #5452	; 0x154c
    180c:	545f3854 	ldrbpl	r3, [pc], #-2132	; 1814 <_Min_Stack_Size+0x1414>
    1810:	5f455059 	svcpl	0x00455059
    1814:	6973205f 	ldmdbvs	r3!, {r0, r1, r2, r3, r4, r6, sp}^
    1818:	64656e67 	strbtvs	r6, [r5], #-3687	; 0xfffff199
    181c:	61686320 	cmnvs	r8, r0, lsr #6
    1820:	6c5f0072 	mrrcvs	0, 7, r0, pc, cr2	; <UNPREDICTABLE>
    1824:	6c61636f 	stclvs	3, cr6, [r1], #-444	; 0xfffffe44
    1828:	656d6974 	strbvs	r6, [sp, #-2420]!	; 0xfffff68c
    182c:	6675625f 			; <UNDEFINED> instruction: 0x6675625f
    1830:	54584500 	ldrbpl	r4, [r8], #-1280	; 0xfffffb00
    1834:	42503349 	subsmi	r3, r0, #603979777	; 0x24000001
    1838:	45282033 	strmi	r2, [r8, #-51]!	; 0xffffffcd
    183c:	5f495458 	svcpl	0x00495458
    1840:	4f495047 	svcmi	0x00495047
    1844:	70614d5f 	rsbvc	r4, r1, pc, asr sp
    1848:	676e6970 			; <UNDEFINED> instruction: 0x676e6970
    184c:	7b29745f 	blvc	a5e9d0 <_Min_Stack_Size+0xa5e5d0>
    1850:	49545845 	ldmdbmi	r4, {r0, r2, r6, fp, ip, lr}^
    1854:	47202c33 			; <UNDEFINED> instruction: 0x47202c33
    1858:	424f4950 	submi	r4, pc, #80, 18	; 0x140000
    185c:	5047202c 	subpl	r2, r7, ip, lsr #32
    1860:	505f4f49 	subspl	r4, pc, r9, asr #30
    1864:	335f4e49 	cmpcc	pc, #1168	; 0x490
    1868:	5845202c 	stmdapl	r5, {r2, r3, r5, sp}^
    186c:	5f334954 	svcpl	0x00334954
    1870:	20515249 	subscs	r5, r1, r9, asr #4
    1874:	5f5f007d 	svcpl	0x005f007d
    1878:	5f434347 	svcpl	0x00434347
    187c:	4d4f5441 	cfstrdmi	mvd5, [pc, #-260]	; 1780 <_Min_Stack_Size+0x1380>
    1880:	425f4349 	subsmi	r4, pc, #603979777	; 0x24000001
    1884:	5f4c4f4f 	svcpl	0x004c4f4f
    1888:	4b434f4c 	blmi	10d55c0 <_Min_Stack_Size+0x10d51c0>
    188c:	4552465f 	ldrbmi	r4, [r2, #-1631]	; 0xfffff9a1
    1890:	00322045 	eorseq	r2, r2, r5, asr #32
    1894:	695f5f5f 	ldmdbvs	pc, {r0, r1, r2, r3, r4, r6, r8, r9, sl, fp, ip, lr}^	; <UNPREDICTABLE>
    1898:	3436746e 	ldrtcc	r7, [r6], #-1134	; 0xfffffb92
    189c:	645f745f 	ldrbvs	r7, [pc], #-1119	; 18a4 <_Min_Stack_Size+0x14a4>
    18a0:	6e696665 	cdpvs	6, 6, cr6, cr9, cr5, {3}
    18a4:	31206465 			; <UNDEFINED> instruction: 0x31206465
    18a8:	43435200 	movtmi	r5, #12800	; 0x3200
    18ac:	4950475f 	ldmdbmi	r0, {r0, r1, r2, r3, r4, r6, r8, r9, sl, lr}^
    18b0:	435f454f 	cmpmi	pc, #331350016	; 0x13c00000
    18b4:	455f4b4c 	ldrbmi	r4, [pc, #-2892]	; d70 <_Min_Stack_Size+0x970>
    18b8:	2029284e 	eorcs	r2, r9, lr, asr #16
    18bc:	43435228 	movtmi	r5, #12840	; 0x3228
    18c0:	50413e2d 	subpl	r3, r1, sp, lsr #28
    18c4:	4e453242 	cdpmi	2, 4, cr3, cr5, cr2, {2}
    18c8:	3d7c2052 	ldclcc	0, cr2, [ip, #-328]!	; 0xfffffeb8
    18cc:	3c312820 	ldccc	8, cr2, [r1], #-128	; 0xffffff80
    18d0:	2929363c 	stmdbcs	r9!, {r2, r3, r4, r5, r9, sl, ip, sp}
    18d4:	49575300 	ldmdbmi	r7, {r8, r9, ip, lr}^
    18d8:	5f484354 	svcpl	0x00484354
    18dc:	5f555043 	svcpl	0x00555043
    18e0:	65636341 	strbvs	r6, [r3, #-833]!	; 0xfffffcbf
    18e4:	654c7373 	strbvs	r7, [ip, #-883]	; 0xfffffc8d
    18e8:	006c6576 	rsbeq	r6, ip, r6, ror r5
    18ec:	52415f5f 	subpl	r5, r1, #380	; 0x17c
    18f0:	454e5f4d 	strbmi	r5, [lr, #-3917]	; 0xfffff0b3
    18f4:	5f5f4e4f 	svcpl	0x005f4e4f
    18f8:	4e495500 	cdpmi	5, 4, cr5, cr9, cr0, {0}
    18fc:	52545054 	subspl	r5, r4, #84	; 0x54
    1900:	58414d5f 	stmdapl	r1, {r0, r1, r2, r3, r4, r6, r8, sl, fp, lr}^
    1904:	5f5f2820 	svcpl	0x005f2820
    1908:	544e4955 	strbpl	r4, [lr], #-2389	; 0xfffff6ab
    190c:	5f525450 	svcpl	0x00525450
    1910:	5f58414d 	svcpl	0x0058414d
    1914:	5f00295f 	svcpl	0x0000295f
    1918:	544c465f 	strbpl	r4, [ip], #-1631	; 0xfffff9a1
    191c:	4d5f3233 	lfmmi	f3, 2, [pc, #-204]	; 1858 <_Min_Stack_Size+0x1458>
    1920:	455f5841 	ldrbmi	r5, [pc, #-2113]	; 10e7 <_Min_Stack_Size+0xce7>
    1924:	5f5f5058 	svcpl	0x005f5058
    1928:	38323120 	ldmdacc	r2!, {r5, r8, ip, sp}
    192c:	535f5f00 	cmppl	pc, #0, 30
    1930:	55434341 	strbpl	r4, [r3, #-833]	; 0xfffffcbf
    1934:	42495f4d 	submi	r5, r9, #308	; 0x134
    1938:	5f5f5449 	svcpl	0x005f5449
    193c:	6d003820 	stcvs	8, cr3, [r0, #-128]	; 0xffffff80
    1940:	006e6961 	rsbeq	r6, lr, r1, ror #18
    1944:	48545f5f 	ldmdami	r4, {r0, r1, r2, r3, r4, r6, r8, r9, sl, fp, ip, lr}^
    1948:	5f424d55 	svcpl	0x00424d55
    194c:	45544e49 	ldrbmi	r4, [r4, #-3657]	; 0xfffff1b7
    1950:	524f5752 	subpl	r5, pc, #21495808	; 0x1480000
    1954:	205f5f4b 	subscs	r5, pc, fp, asr #30
    1958:	5f5f0031 	svcpl	0x005f0031
    195c:	464c4c55 			; <UNDEFINED> instruction: 0x464c4c55
    1960:	54434152 	strbpl	r4, [r3], #-338	; 0xfffffeae
    1964:	58414d5f 	stmdapl	r1, {r0, r1, r2, r3, r4, r6, r8, sl, fp, lr}^
    1968:	30205f5f 	eorcc	r5, r0, pc, asr pc
    196c:	46464658 			; <UNDEFINED> instruction: 0x46464658
    1970:	46464646 	strbmi	r4, [r6], -r6, asr #12
    1974:	46464646 	strbmi	r4, [r6], -r6, asr #12
    1978:	46464646 	strbmi	r4, [r6], -r6, asr #12
    197c:	362d5046 	strtcc	r5, [sp], -r6, asr #32
    1980:	4c4c5534 	cfstr64mi	mvdx5, [ip], {52}	; 0x34
    1984:	58450052 	stmdapl	r5, {r1, r4, r6}^
    1988:	20394954 	eorscs	r4, r9, r4, asr r9
    198c:	665f0039 			; <UNDEFINED> instruction: 0x665f0039
    1990:	7079746e 	rsbsvc	r7, r9, lr, ror #8
    1994:	53007365 	movwpl	r7, #869	; 0x365
    1998:	45545359 	ldrbmi	r5, [r4, #-857]	; 0xfffffca7
    199c:	454d5f4d 	strbmi	r5, [sp, #-3917]	; 0xfffff0b3
    19a0:	59524f4d 	ldmdbpl	r2, {r0, r2, r3, r6, r8, r9, sl, fp, lr}^
    19a4:	5341425f 	movtpl	r4, #4703	; 0x125f
    19a8:	78302045 	ldmdavc	r0!, {r0, r2, r6, sp}
    19ac:	46464631 			; <UNDEFINED> instruction: 0x46464631
    19b0:	30303846 	eorscc	r3, r0, r6, asr #16
    19b4:	47004c55 	smlsdmi	r0, r5, ip, r4
    19b8:	5f4f4950 	svcpl	0x004f4950
    19bc:	45444f4d 	strbmi	r4, [r4, #-3917]	; 0xfffff0b3
    19c0:	504e495f 	subpl	r4, lr, pc, asr r9
    19c4:	465f5455 			; <UNDEFINED> instruction: 0x465f5455
    19c8:	54414f4c 	strbpl	r4, [r1], #-3916	; 0xfffff0b4
    19cc:	30783020 	rsbscc	r3, r8, r0, lsr #32
    19d0:	30303030 	eorscc	r3, r0, r0, lsr r0
    19d4:	75313030 	ldrvc	r3, [r1, #-48]!	; 0xffffffd0
    19d8:	5f5f5f00 	svcpl	0x005f5f00
    19dc:	5f746e69 	svcpl	0x00746e69
    19e0:	64727470 	ldrbtvs	r7, [r2], #-1136	; 0xfffffb90
    19e4:	5f666669 	svcpl	0x00666669
    19e8:	20685f74 	rsbcs	r5, r8, r4, ror pc
    19ec:	49535f00 	ldmdbmi	r3, {r8, r9, sl, fp, ip, lr}^
    19f0:	545f455a 	ldrbpl	r4, [pc], #-1370	; 19f8 <_Min_Stack_Size+0x15f8>
    19f4:	4345445f 	movtmi	r4, #21599	; 0x545f
    19f8:	4552414c 	ldrbmi	r4, [r2, #-332]	; 0xfffffeb4
    19fc:	5f002044 	svcpl	0x00002044
    1a00:	4148435f 	cmpmi	r8, pc, asr r3
    1a04:	5f323352 	svcpl	0x00323352
    1a08:	45505954 	ldrbmi	r5, [r0, #-2388]	; 0xfffff6ac
    1a0c:	6c205f5f 	stcvs	15, cr5, [r0], #-380	; 0xfffffe84
    1a10:	20676e6f 	rsbcs	r6, r7, pc, ror #28
    1a14:	69736e75 	ldmdbvs	r3!, {r0, r2, r4, r5, r6, r9, sl, fp, sp, lr}^
    1a18:	64656e67 	strbtvs	r6, [r5], #-3687	; 0xfffff199
    1a1c:	746e6920 	strbtvc	r6, [lr], #-2336	; 0xfffff6e0
    1a20:	415f5f00 	cmpmi	pc, r0, lsl #30
    1a24:	465f4d52 			; <UNDEFINED> instruction: 0x465f4d52
    1a28:	55544145 	ldrbpl	r4, [r4, #-325]	; 0xfffffebb
    1a2c:	465f4552 			; <UNDEFINED> instruction: 0x465f4552
    1a30:	5f363150 	svcpl	0x00363150
    1a34:	54434556 	strbpl	r4, [r3], #-1366	; 0xfffffaaa
    1a38:	415f524f 	cmpmi	pc, pc, asr #4
    1a3c:	48544952 	ldmdami	r4, {r1, r4, r6, r8, fp, lr}^
    1a40:	4954454d 	ldmdbmi	r4, {r0, r2, r3, r6, r8, sl, lr}^
    1a44:	505f0043 	subspl	r0, pc, r3, asr #32
    1a48:	5849534f 	stmdapl	r9, {r0, r1, r2, r3, r6, r8, r9, ip, lr}^
    1a4c:	535f435f 	cmppl	pc, #2080374785	; 0x7c000001
    1a50:	4352554f 	cmpmi	r2, #331350016	; 0x13c00000
    1a54:	30322045 	eorscc	r2, r2, r5, asr #32
    1a58:	39303830 	ldmdbcc	r0!, {r4, r5, fp, ip, sp}
    1a5c:	5f5f004c 	svcpl	0x005f004c
    1a60:	535f4343 	cmppl	pc, #201326593	; 0xc000001
    1a64:	4f505055 	svcmi	0x00505055
    1a68:	5f535452 	svcpl	0x00535452
    1a6c:	414e5944 	cmpmi	lr, r4, asr #18
    1a70:	5f43494d 	svcpl	0x0043494d
    1a74:	41525241 	cmpmi	r2, r1, asr #4
    1a78:	4e495f59 	mcrmi	15, 2, r5, cr9, cr9, {2}
    1a7c:	31205449 			; <UNDEFINED> instruction: 0x31205449
    1a80:	434e4900 	movtmi	r4, #59648	; 0xe900
    1a84:	4d54535f 	ldclmi	3, cr5, [r4, #-380]	; 0xfffffe84
    1a88:	465f3233 			; <UNDEFINED> instruction: 0x465f3233
    1a8c:	43333031 	teqmi	r3, #49	; 0x31
    1a90:	58455f36 	stmdapl	r5, {r1, r2, r4, r5, r8, r9, sl, fp, ip, lr}^
    1a94:	445f4954 	ldrbmi	r4, [pc], #-2388	; 1a9c <_Min_Stack_Size+0x169c>
    1a98:	45564952 	ldrbmi	r4, [r6, #-2386]	; 0xfffff6ae
    1a9c:	5f485f52 	svcpl	0x00485f52
    1aa0:	5f5f0020 	svcpl	0x005f0020
    1aa4:	544e4955 	strbpl	r4, [lr], #-2389	; 0xfffff6ab
    1aa8:	5341465f 	movtpl	r4, #5727	; 0x165f
    1aac:	5f323354 	svcpl	0x00323354
    1ab0:	5f58414d 	svcpl	0x0058414d
    1ab4:	7830205f 	ldmdavc	r0!, {r0, r1, r2, r3, r4, r6, sp}
    1ab8:	66666666 	strbtvs	r6, [r6], -r6, ror #12
    1abc:	66666666 	strbtvs	r6, [r6], -r6, ror #12
    1ac0:	5f5f0055 	svcpl	0x005f0055
    1ac4:	6d5f6d74 	ldclvs	13, cr6, [pc, #-464]	; 18fc <_Min_Stack_Size+0x14fc>
    1ac8:	5f006e6f 	svcpl	0x00006e6f
    1acc:	544c465f 	strbpl	r4, [ip], #-1631	; 0xfffff9a1
    1ad0:	58414d5f 	stmdapl	r1, {r0, r1, r2, r3, r4, r6, r8, sl, fp, lr}^
    1ad4:	5058455f 	subspl	r4, r8, pc, asr r5
    1ad8:	31205f5f 			; <UNDEFINED> instruction: 0x31205f5f
    1adc:	5f003832 	svcpl	0x00003832
    1ae0:	4e454552 	mcrmi	5, 2, r4, cr5, cr2, {2}
    1ae4:	4d455f54 	stclmi	15, cr5, [r5, #-336]	; 0xfffffeb0
    1ae8:	45475245 	strbmi	r5, [r7, #-581]	; 0xfffffdbb
    1aec:	5f59434e 	svcpl	0x0059434e
    1af0:	455a4953 	ldrbmi	r4, [sl, #-2387]	; 0xfffff6ad
    1af4:	00353220 	eorseq	r3, r5, r0, lsr #4
    1af8:	32425041 	subcc	r5, r2, #65	; 0x41
    1afc:	00524e45 	subseq	r4, r2, r5, asr #28
    1b00:	74735f5f 	ldrbtvc	r5, [r3], #-3935	; 0xfffff0a1
    1b04:	6f6d6672 	svcvs	0x006d6672
    1b08:	6b696c6e 	blvs	1a5ccc8 <_Min_Stack_Size+0x1a5c8c8>
    1b0c:	6d662865 	stclvs	8, cr2, [r6, #-404]!	; 0xfffffe6c
    1b10:	67726174 			; <UNDEFINED> instruction: 0x67726174
    1b14:	7269662c 	rsbvc	r6, r9, #44, 12	; 0x2c00000
    1b18:	61767473 	cmnvs	r6, r3, ror r4
    1b1c:	67726172 			; <UNDEFINED> instruction: 0x67726172
    1b20:	5f5f2029 	svcpl	0x005f2029
    1b24:	72747461 	rsbsvc	r7, r4, #1627389952	; 0x61000000
    1b28:	74756269 	ldrbtvc	r6, [r5], #-617	; 0xfffffd97
    1b2c:	285f5f65 	ldmdacs	pc, {r0, r2, r5, r6, r8, r9, sl, fp, ip, lr}^	; <UNPREDICTABLE>
    1b30:	665f5f28 	ldrbvs	r5, [pc], -r8, lsr #30
    1b34:	616d726f 	cmnvs	sp, pc, ror #4
    1b38:	205f5f74 	subscs	r5, pc, r4, ror pc	; <UNPREDICTABLE>
    1b3c:	735f5f28 	cmpvc	pc, #40, 30	; 0xa0
    1b40:	6d667274 	sfmvs	f7, 2, [r6, #-464]!	; 0xfffffe30
    1b44:	5f5f6e6f 	svcpl	0x005f6e6f
    1b48:	6d66202c 	stclvs	0, cr2, [r6, #-176]!	; 0xffffff50
    1b4c:	67726174 			; <UNDEFINED> instruction: 0x67726174
    1b50:	6966202c 	stmdbvs	r6!, {r2, r3, r5, sp}^
    1b54:	76747372 			; <UNDEFINED> instruction: 0x76747372
    1b58:	72617261 	rsbvc	r7, r1, #268435462	; 0x10000006
    1b5c:	29292967 	stmdbcs	r9!, {r0, r1, r2, r5, r6, r8, fp, sp}
    1b60:	445f5f00 	ldrbmi	r5, [pc], #-3840	; 1b68 <_Min_Stack_Size+0x1768>
    1b64:	32314345 	eorscc	r4, r1, #335544321	; 0x14000001
    1b68:	414d5f38 	cmpmi	sp, r8, lsr pc
    1b6c:	445f544e 	ldrbmi	r5, [pc], #-1102	; 1b74 <_Min_Stack_Size+0x1774>
    1b70:	5f5f4749 	svcpl	0x005f4749
    1b74:	00343320 	eorseq	r3, r4, r0, lsr #6
    1b78:	4349564e 	movtmi	r5, #38478	; 0x964e
    1b7c:	4553495f 	ldrbmi	r4, [r3, #-2399]	; 0xfffff6a1
    1b80:	2a203152 	bcs	80e0d0 <_Min_Stack_Size+0x80dcd0>
    1b84:	6c6f7628 	stclvs	6, cr7, [pc], #-160	; 1aec <_Min_Stack_Size+0x16ec>
    1b88:	6c697461 	cfstrdvs	mvd7, [r9], #-388	; 0xfffffe7c
    1b8c:	69752065 	ldmdbvs	r5!, {r0, r2, r5, r6, sp}^
    1b90:	3233746e 	eorscc	r7, r3, #1845493760	; 0x6e000000
    1b94:	2a20745f 	bcs	81ed18 <_Min_Stack_Size+0x81e918>
    1b98:	564e2829 	strbpl	r2, [lr], -r9, lsr #16
    1b9c:	425f4349 	subsmi	r4, pc, #603979777	; 0x24000001
    1ba0:	20455341 	subcs	r5, r5, r1, asr #6
    1ba4:	7830202b 	ldmdavc	r0!, {r0, r1, r3, r5, sp}
    1ba8:	29343030 	ldmdbcs	r4!, {r4, r5, ip, sp}
    1bac:	544e4900 	strbpl	r4, [lr], #-2304	; 0xfffff700
    1bb0:	5341465f 	movtpl	r4, #5727	; 0x165f
    1bb4:	4d5f3854 	ldclmi	8, cr3, [pc, #-336]	; 1a6c <_Min_Stack_Size+0x166c>
    1bb8:	28204e49 	stmdacs	r0!, {r0, r3, r6, r9, sl, fp, lr}
    1bbc:	495f5f2d 	ldmdbmi	pc, {r0, r2, r3, r5, r8, r9, sl, fp, ip, lr}^	; <UNPREDICTABLE>
    1bc0:	465f544e 	ldrbmi	r5, [pc], -lr, asr #8
    1bc4:	38545341 	ldmdacc	r4, {r0, r6, r8, r9, ip, lr}^
    1bc8:	58414d5f 	stmdapl	r1, {r0, r1, r2, r3, r4, r6, r8, sl, fp, lr}^
    1bcc:	2d205f5f 	stccs	15, cr5, [r0, #-380]!	; 0xfffffe84
    1bd0:	00293120 	eoreq	r3, r9, r0, lsr #2
    1bd4:	4145525f 	cmpmi	r5, pc, asr r2
    1bd8:	52575f44 	subspl	r5, r7, #68, 30	; 0x110
    1bdc:	5f455449 	svcpl	0x00455449
    1be0:	53465542 	movtpl	r5, #25922	; 0x6542
    1be4:	5f455a49 	svcpl	0x00455a49
    1be8:	45505954 	ldrbmi	r5, [r0, #-2388]	; 0xfffff6ac
    1bec:	746e6920 	strbtvc	r6, [lr], #-2336	; 0xfffff6e0
    1bf0:	535f5f00 	cmppl	pc, #0, 30
    1bf4:	4f455a49 	svcmi	0x00455a49
    1bf8:	4f445f46 	svcmi	0x00445f46
    1bfc:	454c4255 	strbmi	r4, [ip, #-597]	; 0xfffffdab
    1c00:	38205f5f 	stmdacc	r0!, {r0, r1, r2, r3, r4, r6, r8, r9, sl, fp, ip, lr}
    1c04:	495f5f00 	ldmdbmi	pc, {r8, r9, sl, fp, ip, lr}^	; <UNPREDICTABLE>
    1c08:	4c5f544e 	cfldrdmi	mvd5, [pc], {78}	; 0x4e
    1c0c:	54534145 	ldrbpl	r4, [r3], #-325	; 0xfffffebb
    1c10:	575f3233 	smmlarpl	pc, r3, r2, r3	; <UNPREDICTABLE>
    1c14:	48544449 	ldmdami	r4, {r0, r3, r6, sl, lr}^
    1c18:	33205f5f 			; <UNDEFINED> instruction: 0x33205f5f
    1c1c:	435f0032 	cmpmi	pc, #50	; 0x32
    1c20:	4b434f4c 	blmi	10d5958 <_Min_Stack_Size+0x10d5558>
    1c24:	205f545f 	subscs	r5, pc, pc, asr r4	; <UNPREDICTABLE>
    1c28:	69736e75 	ldmdbvs	r3!, {r0, r2, r4, r5, r6, r9, sl, fp, sp, lr}^
    1c2c:	64656e67 	strbtvs	r6, [r5], #-3687	; 0xfffff199
    1c30:	6e6f6c20 	cdpvs	12, 6, cr6, cr15, cr0, {1}
    1c34:	5f5f0067 	svcpl	0x005f0067
    1c38:	33544c46 	cmpcc	r4, #17920	; 0x4600
    1c3c:	4d5f5832 	ldclmi	8, cr5, [pc, #-200]	; 1b7c <_Min_Stack_Size+0x177c>
    1c40:	455f4e49 	ldrbmi	r4, [pc, #-3657]	; dff <_Min_Stack_Size+0x9ff>
    1c44:	5f5f5058 	svcpl	0x005f5058
    1c48:	312d2820 			; <UNDEFINED> instruction: 0x312d2820
    1c4c:	29313230 	ldmdbcs	r1!, {r4, r5, r9, ip, sp}
    1c50:	465f5f00 	ldrbmi	r5, [pc], -r0, lsl #30
    1c54:	31545341 	cmpcc	r4, r1, asr #6
    1c58:	5f002036 	svcpl	0x00002036
    1c5c:	6373696d 	cmnvs	r3, #1785856	; 0x1b4000
    1c60:	6565725f 	strbvs	r7, [r5, #-607]!	; 0xfffffda1
    1c64:	5f00746e 	svcpl	0x0000746e
    1c68:	4e454552 	mcrmi	5, 2, r4, cr5, cr2, {2}
    1c6c:	41525f54 	cmpmi	r2, r4, asr pc
    1c70:	3834444e 	ldmdacc	r4!, {r1, r2, r3, r6, sl, lr}
    1c74:	4545535f 	strbmi	r5, [r5, #-863]	; 0xfffffca1
    1c78:	74702844 	ldrbtvc	r2, [r0], #-2116	; 0xfffff7bc
    1c7c:	28202972 	stmdacs	r0!, {r1, r4, r5, r6, r8, fp, sp}
    1c80:	72747028 	rsbsvc	r7, r4, #40	; 0x28
    1c84:	5f3e2d29 	svcpl	0x003e2d29
    1c88:	2d383472 	cfldrscs	mvf3, [r8, #-456]!	; 0xfffffe38
    1c8c:	65735f3e 	ldrbvs	r5, [r3, #-3902]!	; 0xfffff0c2
    1c90:	00296465 	eoreq	r6, r9, r5, ror #8
    1c94:	414c5f5f 	cmpmi	ip, pc, asr pc
    1c98:	46454752 			; <UNDEFINED> instruction: 0x46454752
    1c9c:	5f454c49 	svcpl	0x00454c49
    1ca0:	49534956 	ldmdbmi	r3, {r1, r2, r4, r6, r8, fp, lr}^
    1ca4:	20454c42 	subcs	r4, r5, r2, asr #24
    1ca8:	5f5f0030 	svcpl	0x005f0030
    1cac:	36434544 	strbcc	r4, [r3], -r4, asr #10
    1cb0:	414d5f34 	cmpmi	sp, r4, lsr pc
    1cb4:	205f5f58 	subscs	r5, pc, r8, asr pc	; <UNPREDICTABLE>
    1cb8:	39392e39 	ldmdbcc	r9!, {r0, r3, r4, r5, r9, sl, fp, sp}
    1cbc:	39393939 	ldmdbcc	r9!, {r0, r3, r4, r5, r8, fp, ip, sp}
    1cc0:	39393939 	ldmdbcc	r9!, {r0, r3, r4, r5, r8, fp, ip, sp}
    1cc4:	39393939 	ldmdbcc	r9!, {r0, r3, r4, r5, r8, fp, ip, sp}
    1cc8:	38334539 	ldmdacc	r3!, {r0, r3, r4, r5, r8, sl, lr}
    1ccc:	00444434 	subeq	r4, r4, r4, lsr r4
    1cd0:	6e695f5f 	mcrvs	15, 3, r5, cr9, cr15, {2}
    1cd4:	61665f74 	smcvs	26100	; 0x65f4
    1cd8:	5f387473 	svcpl	0x00387473
    1cdc:	65645f74 	strbvs	r5, [r4, #-3956]!	; 0xfffff08c
    1ce0:	656e6966 	strbvs	r6, [lr, #-2406]!	; 0xfffff69a
    1ce4:	00312064 	eorseq	r2, r1, r4, rrx
    1ce8:	454e5f5f 	strbmi	r5, [lr, #-3935]	; 0xfffff0a1
    1cec:	42494c57 	submi	r4, r9, #22272	; 0x5700
    1cf0:	33205f5f 			; <UNDEFINED> instruction: 0x33205f5f
    1cf4:	45525f00 	ldrbmi	r5, [r2, #-3840]	; 0xfffff100
    1cf8:	5f544e45 	svcpl	0x00544e45
    1cfc:	54494e49 	strbpl	r4, [r9], #-3657	; 0xfffff1b7
    1d00:	72617628 	rsbvc	r7, r1, #40, 12	; 0x2800000
    1d04:	207b2029 	rsbscs	r2, fp, r9, lsr #32
    1d08:	28202c30 	stmdacs	r0!, {r4, r5, sl, fp, sp}
    1d0c:	49465f5f 	stmdbmi	r6, {r0, r1, r2, r3, r4, r6, r8, r9, sl, fp, ip, lr}^
    1d10:	2a20454c 	bcs	813248 <_Min_Stack_Size+0x812e48>
    1d14:	5f5f2629 	svcpl	0x005f2629
    1d18:	665f6673 			; <UNDEFINED> instruction: 0x665f6673
    1d1c:	5f656b61 	svcpl	0x00656b61
    1d20:	69647473 	stmdbvs	r4!, {r0, r1, r4, r5, r6, sl, ip, sp, lr}^
    1d24:	28202c6e 	stmdacs	r0!, {r1, r2, r3, r5, r6, sl, fp, sp}
    1d28:	49465f5f 	stmdbmi	r6, {r0, r1, r2, r3, r4, r6, r8, r9, sl, fp, ip, lr}^
    1d2c:	2a20454c 	bcs	813264 <_Min_Stack_Size+0x812e64>
    1d30:	5f5f2629 	svcpl	0x005f2629
    1d34:	665f6673 			; <UNDEFINED> instruction: 0x665f6673
    1d38:	5f656b61 	svcpl	0x00656b61
    1d3c:	6f647473 	svcvs	0x00647473
    1d40:	202c7475 	eorcs	r7, ip, r5, ror r4
    1d44:	465f5f28 	ldrbmi	r5, [pc], -r8, lsr #30
    1d48:	20454c49 	subcs	r4, r5, r9, asr #24
    1d4c:	5f26292a 	svcpl	0x0026292a
    1d50:	5f66735f 	svcpl	0x0066735f
    1d54:	656b6166 	strbvs	r6, [fp, #-358]!	; 0xfffffe9a
    1d58:	6474735f 	ldrbtvs	r7, [r4], #-863	; 0xfffffca1
    1d5c:	2c727265 	lfmcs	f7, 2, [r2], #-404	; 0xfffffe6c
    1d60:	202c3020 	eorcs	r3, ip, r0, lsr #32
    1d64:	4c554e5f 	mrrcmi	14, 5, r4, r5, cr15
    1d68:	30202c4c 	eorcc	r2, r0, ip, asr #24
    1d6c:	2c30202c 	ldccs	0, cr2, [r0], #-176	; 0xffffff50
    1d70:	554e5f20 	strbpl	r5, [lr, #-3872]	; 0xfffff0e0
    1d74:	202c4c4c 	eorcs	r4, ip, ip, asr #24
    1d78:	4c554e5f 	mrrcmi	14, 5, r4, r5, cr15
    1d7c:	5f202c4c 	svcpl	0x00202c4c
    1d80:	4c4c554e 	cfstr64mi	mvdx5, [ip], {78}	; 0x4e
    1d84:	2c30202c 	ldccs	0, cr2, [r0], #-176	; 0xffffff50
    1d88:	202c3020 	eorcs	r3, ip, r0, lsr #32
    1d8c:	4c554e5f 	mrrcmi	14, 5, r4, r5, cr15
    1d90:	5f202c4c 	svcpl	0x00202c4c
    1d94:	4c4c554e 	cfstr64mi	mvdx5, [ip], {78}	; 0x4e
    1d98:	4e5f202c 	cdpmi	0, 5, cr2, cr15, cr12, {1}
    1d9c:	2c4c4c55 	mcrrcs	12, 5, r4, ip, cr5
    1da0:	554e5f20 	strbpl	r5, [lr, #-3872]	; 0xfffff0e0
    1da4:	202c4c4c 	eorcs	r4, ip, ip, asr #24
    1da8:	4c554e5f 	mrrcmi	14, 5, r4, r5, cr15
    1dac:	5f202c4c 	svcpl	0x00202c4c
    1db0:	4e454552 	mcrmi	5, 2, r4, cr5, cr2, {2}
    1db4:	4e495f54 	mcrmi	15, 2, r5, cr9, cr4, {2}
    1db8:	415f5449 	cmpmi	pc, r9, asr #8
    1dbc:	49584554 	ldmdbmi	r8, {r2, r4, r6, r8, sl, lr}^
    1dc0:	5f7b2054 	svcpl	0x007b2054
    1dc4:	4c4c554e 	cfstr64mi	mvdx5, [ip], {78}	; 0x4e
    1dc8:	2c30202c 	ldccs	0, cr2, [r0], #-176	; 0xffffff50
    1dcc:	554e5f20 	strbpl	r5, [lr, #-3872]	; 0xfffff0e0
    1dd0:	2c7d4c4c 	ldclcs	12, cr4, [sp], #-304	; 0xfffffed0
    1dd4:	554e5f20 	strbpl	r5, [lr, #-3872]	; 0xfffff0e0
    1dd8:	202c4c4c 	eorcs	r4, ip, ip, asr #24
    1ddc:	4c554e5f 	mrrcmi	14, 5, r4, r5, cr15
    1de0:	5f202c4c 	svcpl	0x00202c4c
    1de4:	4c4c554e 	cfstr64mi	mvdx5, [ip], {78}	; 0x4e
    1de8:	45007d20 	strmi	r7, [r0, #-3360]	; 0xfffff2e0
    1dec:	5f544958 	svcpl	0x00544958
    1df0:	43435553 	movtmi	r5, #13651	; 0x3553
    1df4:	20535345 	subscs	r5, r3, r5, asr #6
    1df8:	58450030 	stmdapl	r5, {r4, r5}^
    1dfc:	5f364954 	svcpl	0x00364954
    1e00:	20515249 	subscs	r5, r1, r9, asr #4
    1e04:	5f003332 	svcpl	0x00003332
    1e08:	4154555f 	cmpmi	r4, pc, asr r5
    1e0c:	4942465f 	stmdbmi	r2, {r0, r1, r2, r3, r4, r6, r9, sl, lr}^
    1e10:	205f5f54 	subscs	r5, pc, r4, asr pc	; <UNPREDICTABLE>
    1e14:	5f003436 	svcpl	0x00003436
    1e18:	4d53415f 	ldfmie	f4, [r3, #-380]	; 0xfffffe84
    1e1c:	454d414e 	strbmi	r4, [sp, #-334]	; 0xfffffeb2
    1e20:	616e6328 	cmnvs	lr, r8, lsr #6
    1e24:	2029656d 	eorcs	r6, r9, sp, ror #10
    1e28:	53585f5f 	cmppl	r8, #380	; 0x17c
    1e2c:	4e495254 	mcrmi	2, 2, r5, cr9, cr4, {2}
    1e30:	5f282047 	svcpl	0x00282047
    1e34:	4553555f 	ldrbmi	r5, [r3, #-1375]	; 0xfffffaa1
    1e38:	414c5f52 	cmpmi	ip, r2, asr pc
    1e3c:	5f4c4542 	svcpl	0x004c4542
    1e40:	46455250 			; <UNDEFINED> instruction: 0x46455250
    1e44:	5f5f5849 	svcpl	0x005f5849
    1e48:	6e632029 	cdpvs	0, 6, cr2, cr3, cr9, {1}
    1e4c:	00656d61 	rsbeq	r6, r5, r1, ror #26
    1e50:	4c465f5f 	mcrrmi	15, 5, r5, r6, cr15
    1e54:	45445f54 	strbmi	r5, [r4, #-3924]	; 0xfffff0ac
    1e58:	414d4943 	cmpmi	sp, r3, asr #18
    1e5c:	49445f4c 	stmdbmi	r4, {r2, r3, r6, r8, r9, sl, fp, ip, lr}^
    1e60:	205f5f47 	subscs	r5, pc, r7, asr #30
    1e64:	58450039 	stmdapl	r5, {r0, r3, r4, r5}^
    1e68:	50314954 	eorspl	r4, r1, r4, asr r9
    1e6c:	28203144 	stmdacs	r0!, {r2, r6, r8, ip, sp}
    1e70:	49545845 	ldmdbmi	r4, {r0, r2, r6, fp, ip, lr}^
    1e74:	4950475f 	ldmdbmi	r0, {r0, r1, r2, r3, r4, r6, r8, r9, sl, lr}^
    1e78:	614d5f4f 	cmpvs	sp, pc, asr #30
    1e7c:	6e697070 	mcrvs	0, 3, r7, cr9, cr0, {3}
    1e80:	29745f67 	ldmdbcs	r4!, {r0, r1, r2, r5, r6, r8, r9, sl, fp, ip, lr}^
    1e84:	5458457b 	ldrbpl	r4, [r8], #-1403	; 0xfffffa85
    1e88:	202c3149 	eorcs	r3, ip, r9, asr #2
    1e8c:	4f495047 	svcmi	0x00495047
    1e90:	47202c44 	strmi	r2, [r0, -r4, asr #24]!
    1e94:	5f4f4950 	svcpl	0x004f4950
    1e98:	5f4e4950 	svcpl	0x004e4950
    1e9c:	45202c31 	strmi	r2, [r0, #-3121]!	; 0xfffff3cf
    1ea0:	31495458 	cmpcc	r9, r8, asr r4
    1ea4:	5152495f 	cmppl	r2, pc, asr r9
    1ea8:	5f007d20 	svcpl	0x00007d20
    1eac:	544e495f 	strbpl	r4, [lr], #-2399	; 0xfffff6a1
    1eb0:	41454c5f 	cmpmi	r5, pc, asr ip
    1eb4:	32335453 	eorscc	r5, r3, #1392508928	; 0x53000000
    1eb8:	58414d5f 	stmdapl	r1, {r0, r1, r2, r3, r4, r6, r8, sl, fp, lr}^
    1ebc:	30205f5f 	eorcc	r5, r0, pc, asr pc
    1ec0:	66663778 			; <UNDEFINED> instruction: 0x66663778
    1ec4:	66666666 	strbtvs	r6, [r6], -r6, ror #12
    1ec8:	47004c66 	strmi	r4, [r0, -r6, ror #24]
    1ecc:	5f4f4950 	svcpl	0x004f4950
    1ed0:	5f4e4950 	svcpl	0x004e4950
    1ed4:	28203231 	stmdacs	r0!, {r0, r4, r5, r9, ip, sp}
    1ed8:	6e697528 	cdpvs	5, 6, cr7, cr9, cr8, {1}
    1edc:	5f363174 	svcpl	0x00363174
    1ee0:	78302974 	ldmdavc	r0!, {r2, r4, r5, r6, r8, fp, sp}
    1ee4:	30303031 	eorscc	r3, r0, r1, lsr r0
    1ee8:	58450029 	stmdapl	r5, {r0, r3, r5}^
    1eec:	545f4954 	ldrbpl	r4, [pc], #-2388	; 1ef4 <_Min_Stack_Size+0x1af4>
    1ef0:	67676972 			; <UNDEFINED> instruction: 0x67676972
    1ef4:	465f7265 	ldrbmi	r7, [pc], -r5, ror #4
    1ef8:	494c4c41 	stmdbmi	ip, {r0, r6, sl, fp, lr}^
    1efc:	3120474e 			; <UNDEFINED> instruction: 0x3120474e
    1f00:	735f5f00 	cmpvc	pc, #0, 30
    1f04:	61665f66 	cmnvs	r6, r6, ror #30
    1f08:	735f656b 	cmpvc	pc, #448790528	; 0x1ac00000
    1f0c:	6e696474 	mcrvs	4, 3, r6, cr9, cr4, {3}
    1f10:	54584500 	ldrbpl	r4, [r8], #-1280	; 0xfffffb00
    1f14:	42503249 	subsmi	r3, r0, #-1879048188	; 0x90000004
    1f18:	45282032 	strmi	r2, [r8, #-50]!	; 0xffffffce
    1f1c:	5f495458 	svcpl	0x00495458
    1f20:	4f495047 	svcmi	0x00495047
    1f24:	70614d5f 	rsbvc	r4, r1, pc, asr sp
    1f28:	676e6970 			; <UNDEFINED> instruction: 0x676e6970
    1f2c:	7b29745f 	blvc	a5f0b0 <_Min_Stack_Size+0xa5ecb0>
    1f30:	49545845 	ldmdbmi	r4, {r0, r2, r6, fp, ip, lr}^
    1f34:	47202c32 			; <UNDEFINED> instruction: 0x47202c32
    1f38:	424f4950 	submi	r4, pc, #80, 18	; 0x140000
    1f3c:	5047202c 	subpl	r2, r7, ip, lsr #32
    1f40:	505f4f49 	subspl	r4, pc, r9, asr #30
    1f44:	325f4e49 	subscc	r4, pc, #1168	; 0x490
    1f48:	5845202c 	stmdapl	r5, {r2, r3, r5, sp}^
    1f4c:	5f324954 	svcpl	0x00324954
    1f50:	20515249 	subscs	r5, r1, r9, asr #4
    1f54:	5f5f007d 	svcpl	0x005f007d
    1f58:	5f727470 	svcpl	0x00727470
    1f5c:	6f762074 	svcvs	0x00762074
    1f60:	2a206469 	bcs	81b10c <_Min_Stack_Size+0x81ad0c>
    1f64:	475f5f00 	ldrbmi	r5, [pc, -r0, lsl #30]
    1f68:	5f43554e 	svcpl	0x0043554e
    1f6c:	43445453 	movtmi	r5, #17491	; 0x4453
    1f70:	4c4e495f 	mcrrmi	9, 5, r4, lr, cr15	; <UNPREDICTABLE>
    1f74:	5f454e49 	svcpl	0x00454e49
    1f78:	0031205f 	eorseq	r2, r1, pc, asr r0
    1f7c:	41484357 	cmpmi	r8, r7, asr r3
    1f80:	494d5f52 	stmdbmi	sp, {r1, r4, r6, r8, r9, sl, fp, ip, lr}^
    1f84:	5f28204e 	svcpl	0x0028204e
    1f88:	4843575f 	stmdami	r3, {r0, r1, r2, r3, r4, r6, r8, r9, sl, ip, lr}^
    1f8c:	4d5f5241 	lfmmi	f5, 2, [pc, #-260]	; 1e90 <_Min_Stack_Size+0x1a90>
    1f90:	5f5f4e49 	svcpl	0x005f4e49
    1f94:	5f5f0029 	svcpl	0x005f0029
    1f98:	43415246 	movtmi	r5, #4678	; 0x1246
    1f9c:	42465f54 	submi	r5, r6, #84, 30	; 0x150
    1fa0:	5f5f5449 	svcpl	0x005f5449
    1fa4:	00353120 	eorseq	r3, r5, r0, lsr #2
    1fa8:	4c4c5f5f 	mcrrmi	15, 5, r5, ip, cr15
    1fac:	55434341 	strbpl	r4, [r3, #-833]	; 0xfffffcbf
    1fb0:	50455f4d 	subpl	r5, r5, sp, asr #30
    1fb4:	4f4c4953 	svcmi	0x004c4953
    1fb8:	205f5f4e 	subscs	r5, pc, lr, asr #30
    1fbc:	50317830 	eorspl	r7, r1, r0, lsr r8
    1fc0:	4c31332d 	ldcmi	3, cr3, [r1], #-180	; 0xffffff4c
    1fc4:	5f004b4c 	svcpl	0x00004b4c
    1fc8:	554e475f 	strbpl	r4, [lr, #-1887]	; 0xfffff8a1
    1fcc:	41505f43 	cmpmi	r0, r3, asr #30
    1fd0:	4c484354 	mcrrmi	3, 5, r4, r8, cr4
    1fd4:	4c455645 	mcrrmi	6, 4, r5, r5, cr5
    1fd8:	31205f5f 			; <UNDEFINED> instruction: 0x31205f5f
    1fdc:	475f5f00 	ldrbmi	r5, [pc, -r0, lsl #30]
    1fe0:	415f4343 	cmpmi	pc, r3, asr #6
    1fe4:	494d4f54 	stmdbmi	sp, {r2, r4, r6, r8, r9, sl, fp, lr}^
    1fe8:	48435f43 	stmdami	r3, {r0, r1, r6, r8, r9, sl, fp, ip, lr}^
    1fec:	32335241 	eorscc	r5, r3, #268435460	; 0x10000004
    1ff0:	4c5f545f 	cfldrdmi	mvd5, [pc], {95}	; 0x5f
    1ff4:	5f4b434f 	svcpl	0x004b434f
    1ff8:	45455246 	strbmi	r5, [r5, #-582]	; 0xfffffdba
    1ffc:	5f003220 	svcpl	0x00003220
    2000:	6c6c615f 	stfvse	f6, [ip], #-380	; 0xfffffe84
    2004:	615f636f 	cmpvs	pc, pc, ror #6
    2008:	6e67696c 	vnmulvs.f16	s13, s14, s25	; <UNPREDICTABLE>
    200c:	20297828 	eorcs	r7, r9, r8, lsr #16
    2010:	74615f5f 	strbtvc	r5, [r1], #-3935	; 0xfffff0a1
    2014:	62697274 	rsbvs	r7, r9, #116, 4	; 0x40000007
    2018:	5f657475 	svcpl	0x00657475
    201c:	5f28285f 	svcpl	0x0028285f
    2020:	6c6c615f 	stfvse	f6, [ip], #-380	; 0xfffffe84
    2024:	615f636f 	cmpvs	pc, pc, ror #6
    2028:	6e67696c 	vnmulvs.f16	s13, s14, s25	; <UNPREDICTABLE>
    202c:	78285f5f 	stmdavc	r8!, {r0, r1, r2, r3, r4, r6, r8, r9, sl, fp, ip, lr}
    2030:	00292929 	eoreq	r2, r9, r9, lsr #18
    2034:	49555f5f 	ldmdbmi	r5, {r0, r1, r2, r3, r4, r6, r8, r9, sl, fp, ip, lr}^
    2038:	4c5f544e 	cfldrdmi	mvd5, [pc], {78}	; 0x4e
    203c:	54534145 	ldrbpl	r4, [r3], #-325	; 0xfffffebb
    2040:	4d5f3631 	ldclmi	6, cr3, [pc, #-196]	; 1f84 <_Min_Stack_Size+0x1b84>
    2044:	5f5f5841 	svcpl	0x005f5841
    2048:	66783020 	ldrbtvs	r3, [r8], -r0, lsr #32
    204c:	00666666 	rsbeq	r6, r6, r6, ror #12
    2050:	4f495047 	svcmi	0x00495047
    2054:	444f4d5f 	strbmi	r4, [pc], #-3423	; 205c <_Min_Stack_Size+0x1c5c>
    2058:	6e415f45 	cdpvs	15, 4, cr5, cr1, cr5, {2}
    205c:	676f6c61 	strbvs	r6, [pc, -r1, ror #24]!
    2060:	30783020 	rsbscc	r3, r8, r0, lsr #32
    2064:	30303030 	eorscc	r3, r0, r0, lsr r0
    2068:	75303030 	ldrvc	r3, [r0, #-48]!	; 0xffffffd0
    206c:	62755f00 	rsbsvs	r5, r5, #0, 30
    2070:	5f006675 	svcpl	0x00006675
    2074:	43414c5f 	movtmi	r4, #7263	; 0x1c5f
    2078:	5f4d5543 	svcpl	0x004d5543
    207c:	54494246 	strbpl	r4, [r9], #-582	; 0xfffffdba
    2080:	33205f5f 			; <UNDEFINED> instruction: 0x33205f5f
    2084:	5f5f0031 	svcpl	0x005f0031
    2088:	64657270 	strbtvs	r7, [r5], #-624	; 0xfffffd90
    208c:	5f746369 	svcpl	0x00746369
    2090:	65757274 	ldrbvs	r7, [r5, #-628]!	; 0xfffffd8c
    2094:	70786528 	rsbsvc	r6, r8, r8, lsr #10
    2098:	5f5f2029 	svcpl	0x005f2029
    209c:	6c697562 	cfstr64vs	mvdx7, [r9], #-392	; 0xfffffe78
    20a0:	5f6e6974 	svcpl	0x006e6974
    20a4:	65707865 	ldrbvs	r7, [r0, #-2149]!	; 0xfffff79b
    20a8:	28287463 	stmdacs	r8!, {r0, r1, r5, r6, sl, ip, sp, lr}
    20ac:	29707865 	ldmdbcs	r0!, {r0, r2, r5, r6, fp, ip, sp, lr}^
    20b0:	2931202c 	ldmdbcs	r1!, {r2, r3, r5, sp}
    20b4:	52455000 	subpl	r5, r5, #0
    20b8:	45485049 	strbmi	r5, [r8, #-73]	; 0xffffffb7
    20bc:	534c4152 	movtpl	r4, #49490	; 0xc152
    20c0:	5341425f 	movtpl	r4, #4703	; 0x125f
    20c4:	78302045 	ldmdavc	r0!, {r0, r2, r6, sp}
    20c8:	30303034 	eorscc	r3, r0, r4, lsr r0
    20cc:	30303030 	eorscc	r3, r0, r0, lsr r0
    20d0:	5f004c55 	svcpl	0x00004c55
    20d4:	544c465f 	strbpl	r4, [ip], #-1631	; 0xfffff9a1
    20d8:	4d5f3436 	cfldrdmi	mvd3, [pc, #-216]	; 2008 <_Min_Stack_Size+0x1c08>
    20dc:	315f5841 	cmpcc	pc, r1, asr #16
    20e0:	58455f30 	stmdapl	r5, {r4, r5, r8, r9, sl, fp, ip, lr}^
    20e4:	205f5f50 	subscs	r5, pc, r0, asr pc	; <UNPREDICTABLE>
    20e8:	00383033 	eorseq	r3, r8, r3, lsr r0
    20ec:	49535f5f 	ldmdbmi	r3, {r0, r1, r2, r3, r4, r6, r8, r9, sl, fp, ip, lr}^
    20f0:	464f455a 			; <UNDEFINED> instruction: 0x464f455a
    20f4:	4e4f4c5f 	mcrmi	12, 2, r4, cr15, cr15, {2}
    20f8:	205f5f47 	subscs	r5, pc, r7, asr #30
    20fc:	5f5f0034 	svcpl	0x005f0034
    2100:	72747461 	rsbsvc	r7, r4, #1627389952	; 0x61000000
    2104:	74756269 	ldrbtvc	r6, [r5], #-617	; 0xfffffd97
    2108:	6f665f65 	svcvs	0x00665f65
    210c:	74616d72 	strbtvc	r6, [r1], #-3442	; 0xfffff28e
    2110:	7274735f 	rsbsvc	r7, r4, #2080374785	; 0x7c000001
    2114:	6e6f6d66 	cdpvs	13, 6, cr6, cr15, cr6, {3}
    2118:	61285f5f 			; <UNDEFINED> instruction: 0x61285f5f
    211c:	2029622c 	eorcs	r6, r9, ip, lsr #4
    2120:	53425f00 	movtpl	r5, #12032	; 0x2f00
    2124:	49535f44 	ldmdbmi	r3, {r2, r6, r8, r9, sl, fp, ip, lr}^
    2128:	545f455a 	ldrbpl	r4, [pc], #-1370	; 2130 <_Min_Stack_Size+0x1d30>
    212c:	4645445f 			; <UNDEFINED> instruction: 0x4645445f
    2130:	44454e49 	strbmi	r4, [r5], #-3657	; 0xfffff1b7
    2134:	5f00205f 	svcpl	0x0000205f
    2138:	4e49555f 	mcrmi	5, 2, r5, cr9, cr15, {2}
    213c:	41465f54 	cmpmi	r6, r4, asr pc
    2140:	32335453 	eorscc	r5, r3, #1392508928	; 0x53000000
    2144:	5059545f 	subspl	r5, r9, pc, asr r4
    2148:	205f5f45 	subscs	r5, pc, r5, asr #30
    214c:	69736e75 	ldmdbvs	r3!, {r0, r2, r4, r5, r6, r9, sl, fp, sp, lr}^
    2150:	64656e67 	strbtvs	r6, [r5], #-3687	; 0xfffff199
    2154:	746e6920 	strbtvc	r6, [lr], #-2336	; 0xfffff6e0
    2158:	5f5f5f00 	svcpl	0x005f5f00
    215c:	5f746e69 	svcpl	0x00746e69
    2160:	657a6973 	ldrbvs	r6, [sl, #-2419]!	; 0xfffff68d
    2164:	685f745f 	ldmdavs	pc, {r0, r1, r2, r3, r4, r6, sl, ip, sp, lr}^	; <UNPREDICTABLE>
    2168:	5f5f0020 	svcpl	0x005f0020
    216c:	43445453 	movtmi	r5, #17491	; 0x4453
    2170:	4654555f 			; <UNDEFINED> instruction: 0x4654555f
    2174:	5f32335f 	svcpl	0x0032335f
    2178:	0031205f 	eorseq	r2, r1, pc, asr r0
    217c:	49535f5f 	ldmdbmi	r3, {r0, r1, r2, r3, r4, r6, r8, r9, sl, fp, ip, lr}^
    2180:	464f455a 			; <UNDEFINED> instruction: 0x464f455a
    2184:	4f4c465f 	svcmi	0x004c465f
    2188:	5f5f5441 	svcpl	0x005f5441
    218c:	5f003420 	svcpl	0x00003420
    2190:	544c465f 	strbpl	r4, [ip], #-1631	; 0xfffff9a1
    2194:	5f583233 	svcpl	0x00583233
    2198:	4f4e4544 	svcmi	0x004e4544
    219c:	4d5f4d52 	ldclmi	13, cr4, [pc, #-328]	; 205c <_Min_Stack_Size+0x1c5c>
    21a0:	5f5f4e49 	svcpl	0x005f4e49
    21a4:	392e3420 	stmdbcc	lr!, {r5, sl, ip, sp}
    21a8:	35363034 	ldrcc	r3, [r6, #-52]!	; 0xffffffcc
    21ac:	38353436 	ldmdacc	r5!, {r1, r2, r4, r5, sl, ip, sp}
    21b0:	34323134 	ldrtcc	r3, [r2], #-308	; 0xfffffecc
    21b4:	65343536 	ldrvs	r3, [r4, #-1334]!	; 0xfffffaca
    21b8:	3432332d 	ldrtcc	r3, [r2], #-813	; 0xfffffcd3
    21bc:	78323346 	ldmdavc	r2!, {r1, r2, r6, r8, r9, ip, sp}
    21c0:	475f5f00 	ldrbmi	r5, [pc, -r0, lsl #30]
    21c4:	4c43554e 	cfstr64mi	mvdx5, [r3], {78}	; 0x4e
    21c8:	5f454b49 	svcpl	0x00454b49
    21cc:	4854414d 	ldmdami	r4, {r0, r2, r3, r6, r8, lr}^
    21d0:	4955425f 	ldmdbmi	r5, {r0, r1, r2, r3, r4, r6, r9, lr}^
    21d4:	4e49544c 	cdpmi	4, 4, cr5, cr9, cr12, {2}
    21d8:	4c45525f 	sfmmi	f5, 2, [r5], {95}	; 0x5f
    21dc:	2053504f 	subscs	r5, r3, pc, asr #32
    21e0:	465f5f00 	ldrbmi	r5, [pc], -r0, lsl #30
    21e4:	4d5f544c 	cfldrdmi	mvd5, [pc, #-304]	; 20bc <_Min_Stack_Size+0x1cbc>
    21e8:	315f5841 	cmpcc	pc, r1, asr #16
    21ec:	58455f30 	stmdapl	r5, {r4, r5, r8, r9, sl, fp, ip, lr}^
    21f0:	205f5f50 	subscs	r5, pc, r0, asr pc	; <UNPREDICTABLE>
    21f4:	5f003833 	svcpl	0x00003833
    21f8:	4749535f 	smlsldmi	r5, r9, pc, r3	; <UNPREDICTABLE>
    21fc:	4f54415f 	svcmi	0x0054415f
    2200:	5f43494d 	svcpl	0x0043494d
    2204:	45505954 	ldrbmi	r5, [r0, #-2388]	; 0xfffff6ac
    2208:	69205f5f 	stmdbvs	r0!, {r0, r1, r2, r3, r4, r6, r8, r9, sl, fp, ip, lr}
    220c:	5f00746e 	svcpl	0x0000746e
    2210:	4345445f 	movtmi	r4, #21599	; 0x545f
    2214:	5f383231 	svcpl	0x00383231
    2218:	5f58414d 	svcpl	0x0058414d
    221c:	2e39205f 	mrccs	0, 1, r2, cr9, cr15, {2}
    2220:	39393939 	ldmdbcc	r9!, {r0, r3, r4, r5, r8, fp, ip, sp}
    2224:	39393939 	ldmdbcc	r9!, {r0, r3, r4, r5, r8, fp, ip, sp}
    2228:	39393939 	ldmdbcc	r9!, {r0, r3, r4, r5, r8, fp, ip, sp}
    222c:	39393939 	ldmdbcc	r9!, {r0, r3, r4, r5, r8, fp, ip, sp}
    2230:	39393939 	ldmdbcc	r9!, {r0, r3, r4, r5, r8, fp, ip, sp}
    2234:	39393939 	ldmdbcc	r9!, {r0, r3, r4, r5, r8, fp, ip, sp}
    2238:	39393939 	ldmdbcc	r9!, {r0, r3, r4, r5, r8, fp, ip, sp}
    223c:	39393939 	ldmdbcc	r9!, {r0, r3, r4, r5, r8, fp, ip, sp}
    2240:	31364539 	teqcc	r6, r9, lsr r5
    2244:	4c443434 	cfstrdmi	mvd3, [r4], {52}	; 0x34
    2248:	465f5f00 	ldrbmi	r5, [pc], -r0, lsl #30
    224c:	54434152 	strbpl	r4, [r3], #-338	; 0xfffffeae
    2250:	58414d5f 	stmdapl	r1, {r0, r1, r2, r3, r4, r6, r8, sl, fp, lr}^
    2254:	30205f5f 	eorcc	r5, r0, pc, asr pc
    2258:	46463758 			; <UNDEFINED> instruction: 0x46463758
    225c:	312d5046 			; <UNDEFINED> instruction: 0x312d5046
    2260:	5f005235 	svcpl	0x00005235
    2264:	4343475f 	movtmi	r4, #14175	; 0x375f
    2268:	4345495f 	movtmi	r4, #22879	; 0x595f
    226c:	3935355f 	ldmdbcc	r5!, {r0, r1, r2, r3, r4, r6, r8, sl, ip, sp}
    2270:	5f003020 	svcpl	0x00003020
    2274:	544e495f 	strbpl	r4, [lr], #-2399	; 0xfffff6a1
    2278:	5341465f 	movtpl	r4, #5727	; 0x165f
    227c:	5f323354 	svcpl	0x00323354
    2280:	5f58414d 	svcpl	0x0058414d
    2284:	7830205f 	ldmdavc	r0!, {r0, r1, r2, r3, r4, r6, sp}
    2288:	66666637 			; <UNDEFINED> instruction: 0x66666637
    228c:	66666666 	strbtvs	r6, [r6], -r6, ror #12
    2290:	415f5f00 	cmpmi	pc, r0, lsl #30
    2294:	494d4f54 	stmdbmi	sp, {r2, r4, r6, r8, r9, sl, fp, lr}^
    2298:	45535f43 	ldrbmi	r5, [r3, #-3907]	; 0xfffff0bd
    229c:	53435f51 	movtpl	r5, #16209	; 0x3f51
    22a0:	00352054 	eorseq	r2, r5, r4, asr r0
    22a4:	4145525f 	cmpmi	r5, pc, asr r2
    22a8:	52575f44 	subspl	r5, r7, #68, 30	; 0x110
    22ac:	5f455449 	svcpl	0x00455449
    22b0:	55544552 	ldrbpl	r4, [r4, #-1362]	; 0xfffffaae
    22b4:	545f4e52 	ldrbpl	r4, [pc], #-3666	; 22bc <_Min_Stack_Size+0x1ebc>
    22b8:	20455059 	subcs	r5, r5, r9, asr r0
    22bc:	00746e69 	rsbseq	r6, r4, r9, ror #28
    22c0:	736e755f 	cmnvc	lr, #398458880	; 0x17c00000
    22c4:	69636570 	stmdbvs	r3!, {r4, r5, r6, r8, sl, sp, lr}^
    22c8:	64656966 	strbtvs	r6, [r5], #-2406	; 0xfffff69a
    22cc:	636f6c5f 	cmnvs	pc, #24320	; 0x5f00
    22d0:	5f656c61 	svcpl	0x00656c61
    22d4:	6f666e69 	svcvs	0x00666e69
    22d8:	6e5f5f00 	cdpvs	15, 5, cr5, cr15, cr0, {0}
    22dc:	5f646565 	svcpl	0x00646565
    22e0:	746e6977 	strbtvc	r6, [lr], #-2423	; 0xfffff689
    22e4:	5f00745f 	svcpl	0x0000745f
    22e8:	6d79735f 	ldclvs	3, cr7, [r9, #-380]!	; 0xfffffe84
    22ec:	6665645f 			; <UNDEFINED> instruction: 0x6665645f
    22f0:	746c7561 	strbtvc	r7, [ip], #-1377	; 0xfffffa9f
    22f4:	6d797328 	ldclvs	3, cr7, [r9, #-160]!	; 0xffffff60
    22f8:	706d692c 	rsbvc	r6, sp, ip, lsr #18
    22fc:	65762c6c 	ldrbvs	r2, [r6, #-3180]!	; 0xfffff394
    2300:	29646972 	stmdbcs	r4!, {r1, r4, r5, r6, r8, fp, sp, lr}^
    2304:	615f5f20 	cmpvs	pc, r0, lsr #30
    2308:	5f5f6d73 	svcpl	0x005f6d73
    230c:	732e2228 			; <UNDEFINED> instruction: 0x732e2228
    2310:	65766d79 	ldrbvs	r6, [r6, #-3449]!	; 0xfffff287
    2314:	20222072 	eorcs	r2, r2, r2, ror r0
    2318:	706d6923 	rsbvc	r6, sp, r3, lsr #18
    231c:	2c22206c 	stccs	0, cr2, [r2], #-432	; 0xfffffe50
    2320:	23202220 			; <UNDEFINED> instruction: 0x23202220
    2324:	206d7973 	rsbcs	r7, sp, r3, ror r9
    2328:	22404022 	subcs	r4, r0, #34	; 0x22
    232c:	65762320 	ldrbvs	r2, [r6, #-800]!	; 0xfffffce0
    2330:	29646972 	stmdbcs	r4!, {r1, r4, r5, r6, r8, fp, sp, lr}^
    2334:	544e4900 	strbpl	r4, [lr], #-2304	; 0xfffff700
    2338:	5341465f 	movtpl	r4, #5727	; 0x165f
    233c:	4d5f3854 	ldclmi	8, cr3, [pc, #-336]	; 21f4 <_Min_Stack_Size+0x1df4>
    2340:	28205841 	stmdacs	r0!, {r0, r6, fp, ip, lr}
    2344:	4e495f5f 	mcrmi	15, 2, r5, cr9, cr15, {2}
    2348:	41465f54 	cmpmi	r6, r4, asr pc
    234c:	5f385453 	svcpl	0x00385453
    2350:	5f58414d 	svcpl	0x0058414d
    2354:	4700295f 	smlsdmi	r0, pc, r9, r2	; <UNPREDICTABLE>
    2358:	5f4f4950 	svcpl	0x004f4950
    235c:	5f4e4950 	svcpl	0x004e4950
    2360:	20544553 	subscs	r4, r4, r3, asr r5
    2364:	5f5f0031 	svcpl	0x005f0031
    2368:	544e4955 	strbpl	r4, [lr], #-2389	; 0xfffff6ab
    236c:	4d5f3631 	ldclmi	6, cr3, [pc, #-196]	; 22b0 <_Min_Stack_Size+0x1eb0>
    2370:	5f5f5841 	svcpl	0x005f5841
    2374:	66783020 	ldrbtvs	r3, [r8], -r0, lsr #32
    2378:	00666666 	rsbeq	r6, r6, r6, ror #12
    237c:	51545f5f 	cmppl	r4, pc, asr pc
    2380:	4942465f 	stmdbmi	r2, {r0, r1, r2, r3, r4, r6, r9, sl, lr}^
    2384:	205f5f54 	subscs	r5, pc, r4, asr pc	; <UNPREDICTABLE>
    2388:	00373231 	eorseq	r3, r7, r1, lsr r2
    238c:	45445f5f 	strbmi	r5, [r4, #-3935]	; 0xfffff0a1
    2390:	38323143 	ldmdacc	r2!, {r0, r1, r6, r8, ip, sp}
    2394:	4255535f 	subsmi	r5, r5, #2080374785	; 0x7c000001
    2398:	4d524f4e 	ldclmi	15, cr4, [r2, #-312]	; 0xfffffec8
    239c:	4d5f4c41 	ldclmi	12, cr4, [pc, #-260]	; 22a0 <_Min_Stack_Size+0x1ea0>
    23a0:	5f5f4e49 	svcpl	0x005f4e49
    23a4:	302e3020 	eorcc	r3, lr, r0, lsr #32
    23a8:	30303030 	eorscc	r3, r0, r0, lsr r0
    23ac:	30303030 	eorscc	r3, r0, r0, lsr r0
    23b0:	30303030 	eorscc	r3, r0, r0, lsr r0
    23b4:	30303030 	eorscc	r3, r0, r0, lsr r0
    23b8:	30303030 	eorscc	r3, r0, r0, lsr r0
    23bc:	30303030 	eorscc	r3, r0, r0, lsr r0
    23c0:	30303030 	eorscc	r3, r0, r0, lsr r0
    23c4:	31303030 	teqcc	r0, r0, lsr r0
    23c8:	31362d45 	teqcc	r6, r5, asr #26
    23cc:	4c443334 	mcrrmi	3, 3, r3, r4, cr4
    23d0:	41485f00 	cmpmi	r8, r0, lsl #30
    23d4:	4c5f4556 	cfldr64mi	mvdx4, [pc], {86}	; 0x56
    23d8:	5f474e4f 	svcpl	0x00474e4f
    23dc:	42554f44 	subsmi	r4, r5, #68, 30	; 0x110
    23e0:	3120454c 			; <UNDEFINED> instruction: 0x3120454c
    23e4:	695f5f00 	ldmdbvs	pc, {r8, r9, sl, fp, ip, lr}^	; <UNPREDICTABLE>
    23e8:	665f746e 	ldrbvs	r7, [pc], -lr, ror #8
    23ec:	36747361 	ldrbtcc	r7, [r4], -r1, ror #6
    23f0:	5f745f34 	svcpl	0x00745f34
    23f4:	69666564 	stmdbvs	r6!, {r2, r5, r6, r8, sl, sp, lr}^
    23f8:	2064656e 	rsbcs	r6, r4, lr, ror #10
    23fc:	564e0031 			; <UNDEFINED> instruction: 0x564e0031
    2400:	495f4349 	ldmdbmi	pc, {r0, r3, r6, r8, r9, lr}^	; <UNPREDICTABLE>
    2404:	5f365152 	svcpl	0x00365152
    2408:	49545845 	ldmdbmi	r4, {r0, r2, r6, fp, ip, lr}^
    240c:	4e455f30 	mcrmi	15, 2, r5, cr5, cr0, {1}
    2410:	454c4241 	strbmi	r4, [ip, #-577]	; 0xfffffdbf
    2414:	564e2820 	strbpl	r2, [lr], -r0, lsr #16
    2418:	495f4349 	ldmdbmi	pc, {r0, r3, r6, r8, r9, lr}^	; <UNPREDICTABLE>
    241c:	30524553 	subscc	r4, r2, r3, asr r5
    2420:	203d7c20 	eorscs	r7, sp, r0, lsr #24
    2424:	3c3c3128 	ldfccs	f3, [ip], #-160	; 0xffffff60
    2428:	00292936 	eoreq	r2, r9, r6, lsr r9
    242c:	4545525f 	strbmi	r5, [r5, #-607]	; 0xfffffda1
    2430:	4d5f544e 	cfldrdmi	mvd5, [pc, #-312]	; 2300 <_Min_Stack_Size+0x1f00>
    2434:	4f545242 	svcmi	0x00545242
    2438:	535f4357 	cmppl	pc, #1543503873	; 0x5c000001
    243c:	45544154 	ldrbmi	r4, [r4, #-340]	; 0xfffffeac
    2440:	72747028 	rsbsvc	r7, r4, #40	; 0x28
    2444:	28282029 	stmdacs	r8!, {r0, r3, r5, sp}
    2448:	29727470 	ldmdbcs	r2!, {r4, r5, r6, sl, ip, sp, lr}^
    244c:	6d5f3e2d 	ldclvs	14, cr3, [pc, #-180]	; 23a0 <_Min_Stack_Size+0x1fa0>
    2450:	2d637369 	stclcs	3, cr7, [r3, #-420]!	; 0xfffffe5c
    2454:	626d5f3e 	rsbvs	r5, sp, #62, 30	; 0xf8
    2458:	776f7472 			; <UNDEFINED> instruction: 0x776f7472
    245c:	74735f63 	ldrbtvc	r5, [r3], #-3939	; 0xfffff09d
    2460:	29657461 	stmdbcs	r5!, {r0, r5, r6, sl, ip, sp, lr}^
    2464:	535f5f00 	cmppl	pc, #0, 30
    2468:	4f455a49 	svcmi	0x00455a49
    246c:	48535f46 	ldmdami	r3, {r1, r2, r6, r8, r9, sl, fp, ip, lr}^
    2470:	5f54524f 	svcpl	0x0054524f
    2474:	0032205f 	eorseq	r2, r2, pc, asr r0
    2478:	4c555f5f 	mrrcmi	15, 5, r5, r5, cr15	; <UNPREDICTABLE>
    247c:	4343414c 	movtmi	r4, #12620	; 0x314c
    2480:	465f4d55 			; <UNDEFINED> instruction: 0x465f4d55
    2484:	5f544942 	svcpl	0x00544942
    2488:	3233205f 	eorscc	r2, r3, #95	; 0x5f
    248c:	54584500 	ldrbpl	r4, [r8], #-1280	; 0xfffffb00
    2490:	43503349 	cmpmi	r0, #603979777	; 0x24000001
    2494:	45282033 	strmi	r2, [r8, #-51]!	; 0xffffffcd
    2498:	5f495458 	svcpl	0x00495458
    249c:	4f495047 	svcmi	0x00495047
    24a0:	70614d5f 	rsbvc	r4, r1, pc, asr sp
    24a4:	676e6970 			; <UNDEFINED> instruction: 0x676e6970
    24a8:	7b29745f 	blvc	a5f62c <_Min_Stack_Size+0xa5f22c>
    24ac:	49545845 	ldmdbmi	r4, {r0, r2, r6, fp, ip, lr}^
    24b0:	47202c33 			; <UNDEFINED> instruction: 0x47202c33
    24b4:	434f4950 	movtmi	r4, #63824	; 0xf950
    24b8:	5047202c 	subpl	r2, r7, ip, lsr #32
    24bc:	505f4f49 	subspl	r4, pc, r9, asr #30
    24c0:	335f4e49 	cmpcc	pc, #1168	; 0x490
    24c4:	5845202c 	stmdapl	r5, {r2, r3, r5, sp}^
    24c8:	5f334954 	svcpl	0x00334954
    24cc:	20515249 	subscs	r5, r1, r9, asr #4
    24d0:	5845007d 	stmdapl	r5, {r0, r2, r3, r4, r5, r6}^
    24d4:	50374954 	eorspl	r4, r7, r4, asr r9
    24d8:	28203744 	stmdacs	r0!, {r2, r6, r8, r9, sl, ip, sp}
    24dc:	49545845 	ldmdbmi	r4, {r0, r2, r6, fp, ip, lr}^
    24e0:	4950475f 	ldmdbmi	r0, {r0, r1, r2, r3, r4, r6, r8, r9, sl, lr}^
    24e4:	614d5f4f 	cmpvs	sp, pc, asr #30
    24e8:	6e697070 	mcrvs	0, 3, r7, cr9, cr0, {3}
    24ec:	29745f67 	ldmdbcs	r4!, {r0, r1, r2, r5, r6, r8, r9, sl, fp, ip, lr}^
    24f0:	5458457b 	ldrbpl	r4, [r8], #-1403	; 0xfffffa85
    24f4:	202c3749 	eorcs	r3, ip, r9, asr #14
    24f8:	4f495047 	svcmi	0x00495047
    24fc:	47202c44 	strmi	r2, [r0, -r4, asr #24]!
    2500:	5f4f4950 	svcpl	0x004f4950
    2504:	5f4e4950 	svcpl	0x004e4950
    2508:	45202c37 	strmi	r2, [r0, #-3127]!	; 0xfffff3c9
    250c:	37495458 	smlsldcc	r5, r9, r8, r4
    2510:	5152495f 	cmppl	r2, pc, asr r9
    2514:	5f007d20 	svcpl	0x00007d20
    2518:	4345445f 	movtmi	r4, #21599	; 0x545f
    251c:	54534e4f 	ldrbpl	r4, [r3], #-3663	; 0xfffff1b1
    2520:	70797428 	rsbsvc	r7, r9, r8, lsr #8
    2524:	61762c65 	cmnvs	r6, r5, ror #24
    2528:	28202972 	stmdacs	r0!, {r1, r4, r5, r6, r8, fp, sp}
    252c:	70797428 	rsbsvc	r7, r9, r8, lsr #8
    2530:	5f282965 	svcpl	0x00282965
    2534:	6e69755f 	mcrvs	5, 3, r7, cr9, cr15, {2}
    2538:	72747074 	rsbsvc	r7, r4, #116	; 0x74
    253c:	2829745f 	stmdacs	r9!, {r0, r1, r2, r3, r4, r6, sl, ip, sp, lr}
    2540:	736e6f63 	cmnvc	lr, #396	; 0x18c
    2544:	6f762074 	svcvs	0x00762074
    2548:	2a206469 	bcs	81b6f4 <_Min_Stack_Size+0x81b2f4>
    254c:	61762829 	cmnvs	r6, r9, lsr #16
    2550:	00292972 	eoreq	r2, r9, r2, ror r9
    2554:	5359535f 	cmppl	r9, #2080374785	; 0x7c000001
    2558:	4145465f 	cmpmi	r5, pc, asr r6
    255c:	45525554 	ldrbmi	r5, [r2, #-1364]	; 0xfffffaac
    2560:	20485f53 	subcs	r5, r8, r3, asr pc
    2564:	4e495500 	cdpmi	5, 4, cr5, cr9, cr0, {0}
    2568:	454c5f54 	strbmi	r5, [ip, #-3924]	; 0xfffff0ac
    256c:	36545341 	ldrbcc	r5, [r4], -r1, asr #6
    2570:	414d5f34 	cmpmi	sp, r4, lsr pc
    2574:	5f282058 	svcpl	0x00282058
    2578:	4e49555f 	mcrmi	5, 2, r5, cr9, cr15, {2}
    257c:	454c5f54 	strbmi	r5, [ip, #-3924]	; 0xfffff0ac
    2580:	36545341 	ldrbcc	r5, [r4], -r1, asr #6
    2584:	414d5f34 	cmpmi	sp, r4, lsr pc
    2588:	295f5f58 	ldmdbcs	pc, {r3, r4, r6, r8, r9, sl, fp, ip, lr}^	; <UNPREDICTABLE>
    258c:	6e695f00 	cdpvs	15, 6, cr5, cr9, cr0, {0}
    2590:	58450063 	stmdapl	r5, {r0, r1, r5, r6}^
    2594:	31314954 	teqcc	r1, r4, asr r9
    2598:	31314450 	teqcc	r1, r0, asr r4
    259c:	58452820 	stmdapl	r5, {r5, fp, sp}^
    25a0:	475f4954 			; <UNDEFINED> instruction: 0x475f4954
    25a4:	5f4f4950 	svcpl	0x004f4950
    25a8:	7070614d 	rsbsvc	r6, r0, sp, asr #2
    25ac:	5f676e69 	svcpl	0x00676e69
    25b0:	457b2974 	ldrbmi	r2, [fp, #-2420]!	; 0xfffff68c
    25b4:	31495458 	cmpcc	r9, r8, asr r4
    25b8:	47202c31 			; <UNDEFINED> instruction: 0x47202c31
    25bc:	444f4950 	strbmi	r4, [pc], #-2384	; 25c4 <_Min_Stack_Size+0x21c4>
    25c0:	5047202c 	subpl	r2, r7, ip, lsr #32
    25c4:	505f4f49 	subspl	r4, pc, r9, asr #30
    25c8:	315f4e49 	cmpcc	pc, r9, asr #28
    25cc:	45202c31 	strmi	r2, [r0, #-3121]!	; 0xfffff3cf
    25d0:	31495458 	cmpcc	r9, r8, asr r4
    25d4:	52495f31 	subpl	r5, r9, #49, 30	; 0xc4
    25d8:	007d2051 	rsbseq	r2, sp, r1, asr r0
    25dc:	43414d5f 	movtmi	r4, #7519	; 0x1d5f
    25e0:	44545348 	ldrbmi	r5, [r4], #-840	; 0xfffffcb8
    25e4:	5f42494c 	svcpl	0x0042494c
    25e8:	00205f48 	eoreq	r5, r0, r8, asr #30
    25ec:	4f495047 	svcmi	0x00495047
    25f0:	4e49505f 	mcrmi	0, 2, r5, cr9, cr15, {2}
    25f4:	2820335f 	stmdacs	r0!, {r0, r1, r2, r3, r4, r6, r8, r9, ip, sp}
    25f8:	6e697528 	cdpvs	5, 6, cr7, cr9, cr8, {1}
    25fc:	5f363174 	svcpl	0x00363174
    2600:	78302974 	ldmdavc	r0!, {r2, r4, r5, r6, r8, fp, sp}
    2604:	38303030 	ldmdacc	r0!, {r4, r5, ip, sp}
    2608:	58450029 	stmdapl	r5, {r0, r3, r5}^
    260c:	28204954 	stmdacs	r0!, {r2, r4, r6, r8, fp, lr}
    2610:	54584528 	ldrbpl	r4, [r8], #-1320	; 0xfffffad8
    2614:	79545f49 	ldmdbvc	r4, {r0, r3, r6, r8, r9, sl, fp, ip, lr}^
    2618:	65446570 	strbvs	r6, [r4, #-1392]	; 0xfffffa90
    261c:	45292a66 	strmi	r2, [r9, #-2662]!	; 0xfffff59a
    2620:	5f495458 	svcpl	0x00495458
    2624:	45534142 	ldrbmi	r4, [r3, #-322]	; 0xfffffebe
    2628:	5f5f0029 	svcpl	0x005f0029
    262c:	455a4953 	ldrbmi	r4, [sl, #-2387]	; 0xfffff6ad
    2630:	4c5f464f 	mrrcmi	6, 4, r4, pc, cr15	; <UNPREDICTABLE>
    2634:	5f474e4f 	svcpl	0x00474e4f
    2638:	42554f44 	subsmi	r4, r5, #68, 30	; 0x110
    263c:	5f5f454c 	svcpl	0x005f454c
    2640:	45003820 	strmi	r3, [r0, #-2080]	; 0xfffff7e0
    2644:	30495458 	subcc	r5, r9, r8, asr r4
    2648:	20304350 	eorscs	r4, r0, r0, asr r3
    264c:	54584528 	ldrbpl	r4, [r8], #-1320	; 0xfffffad8
    2650:	50475f49 	subpl	r5, r7, r9, asr #30
    2654:	4d5f4f49 	ldclmi	15, cr4, [pc, #-292]	; 2538 <_Min_Stack_Size+0x2138>
    2658:	69707061 	ldmdbvs	r0!, {r0, r5, r6, ip, sp, lr}^
    265c:	745f676e 	ldrbvc	r6, [pc], #-1902	; 2664 <_Min_Stack_Size+0x2264>
    2660:	58457b29 	stmdapl	r5, {r0, r3, r5, r8, r9, fp, ip, sp, lr}^
    2664:	2c304954 			; <UNDEFINED> instruction: 0x2c304954
    2668:	49504720 	ldmdbmi	r0, {r5, r8, r9, sl, lr}^
    266c:	202c434f 	eorcs	r4, ip, pc, asr #6
    2670:	4f495047 	svcmi	0x00495047
    2674:	4e49505f 	mcrmi	0, 2, r5, cr9, cr15, {2}
    2678:	202c305f 	eorcs	r3, ip, pc, asr r0
    267c:	49545845 	ldmdbmi	r4, {r0, r2, r6, fp, ip, lr}^
    2680:	52495f30 	subpl	r5, r9, #48, 30	; 0xc0
    2684:	007d2051 	rsbseq	r2, sp, r1, asr r0
    2688:	52505f5f 	subspl	r5, r0, #380	; 0x17c
    268c:	414d4741 	cmpmi	sp, r1, asr #14
    2690:	4445525f 	strbmi	r5, [r5], #-607	; 0xfffffda1
    2694:	4e494645 	cdpmi	6, 4, cr4, cr9, cr5, {2}
    2698:	58455f45 	stmdapl	r5, {r0, r2, r6, r8, r9, sl, fp, ip, lr}^
    269c:	4d414e54 	stclmi	14, cr4, [r1, #-336]	; 0xfffffeb0
    26a0:	00312045 	eorseq	r2, r1, r5, asr #32
    26a4:	43575f5f 	cmpmi	r7, #380	; 0x17c
    26a8:	5f524148 	svcpl	0x00524148
    26ac:	45505954 	ldrbmi	r5, [r0, #-2388]	; 0xfffff6ac
    26b0:	75205f5f 	strvc	r5, [r0, #-3935]!	; 0xfffff0a1
    26b4:	6769736e 	strbvs	r7, [r9, -lr, ror #6]!
    26b8:	2064656e 	rsbcs	r6, r4, lr, ror #10
    26bc:	00746e69 	rsbseq	r6, r4, r9, ror #28
    26c0:	4545525f 	strbmi	r5, [r5, #-607]	; 0xfffffda1
    26c4:	535f544e 	cmppl	pc, #1308622848	; 0x4e000000
    26c8:	474e4749 	strbmi	r4, [lr, -r9, asr #14]
    26cc:	70284d41 	eorvc	r4, r8, r1, asr #26
    26d0:	20297274 	eorcs	r7, r9, r4, ror r2
    26d4:	74702828 	ldrbtvc	r2, [r0], #-2088	; 0xfffff7d8
    26d8:	3e2d2972 			; <UNDEFINED> instruction: 0x3e2d2972
    26dc:	6d61675f 	stclvs	7, cr6, [r1, #-380]!	; 0xfffffe84
    26e0:	735f616d 	cmpvc	pc, #1073741851	; 0x4000001b
    26e4:	676e6769 	strbvs	r6, [lr, -r9, ror #14]!
    26e8:	00296d61 	eoreq	r6, r9, r1, ror #26
    26ec:	53555f5f 	cmppl	r5, #380	; 0x17c
    26f0:	42495f41 	submi	r5, r9, #260	; 0x104
    26f4:	5f5f5449 	svcpl	0x005f5449
    26f8:	00363120 	eorseq	r3, r6, r0, lsr #2
    26fc:	49545845 	ldmdbmi	r4, {r0, r2, r6, fp, ip, lr}^
    2700:	52495f31 	subpl	r5, r9, #49, 30	; 0xc4
    2704:	00372051 	eorseq	r2, r7, r1, asr r0
    2708:	43475f5f 	movtmi	r5, #32607	; 0x7f5f
    270c:	41485f43 	cmpmi	r8, r3, asr #30
    2710:	535f4556 	cmppl	pc, #360710144	; 0x15800000
    2714:	5f434e59 	svcpl	0x00434e59
    2718:	504d4f43 	subpl	r4, sp, r3, asr #30
    271c:	5f455241 	svcpl	0x00455241
    2720:	5f444e41 	svcpl	0x00444e41
    2724:	50415753 	subpl	r5, r1, r3, asr r7
    2728:	3120325f 			; <UNDEFINED> instruction: 0x3120325f
    272c:	544e4900 	strbpl	r4, [lr], #-2304	; 0xfffff700
    2730:	5f58414d 	svcpl	0x0058414d
    2734:	29782843 	ldmdbcs	r8!, {r0, r1, r6, fp, sp}^
    2738:	495f5f20 	ldmdbmi	pc, {r5, r8, r9, sl, fp, ip, lr}^	; <UNPREDICTABLE>
    273c:	414d544e 	cmpmi	sp, lr, asr #8
    2740:	28435f58 	stmdacs	r3, {r3, r4, r6, r8, r9, sl, fp, ip, lr}^
    2744:	5f002978 	svcpl	0x00002978
    2748:	65656e5f 	strbvs	r6, [r5, #-3679]!	; 0xfffff1a1
    274c:	63775f64 	cmnvs	r7, #100, 30	; 0x190
    2750:	5f726168 	svcpl	0x00726168
    2754:	5f002074 	svcpl	0x00002074
    2758:	6469685f 	strbtvs	r6, [r9], #-2143	; 0xfffff7a1
    275c:	206e6564 	rsbcs	r6, lr, r4, ror #10
    2760:	74615f5f 	strbtvc	r5, [r1], #-3935	; 0xfffff0a1
    2764:	62697274 	rsbvs	r7, r9, #116, 4	; 0x40000007
    2768:	5f657475 	svcpl	0x00657475
    276c:	5f28285f 	svcpl	0x0028285f
    2770:	7369765f 	cmnvc	r9, #99614720	; 0x5f00000
    2774:	6c696269 	sfmvs	f6, 2, [r9], #-420	; 0xfffffe5c
    2778:	5f797469 	svcpl	0x00797469
    277c:	6822285f 	stmdavs	r2!, {r0, r1, r2, r3, r4, r6, fp, sp}
    2780:	65646469 	strbvs	r6, [r4, #-1129]!	; 0xfffffb97
    2784:	2929226e 	stmdbcs	r9!, {r1, r2, r3, r5, r6, r9, sp}
    2788:	4e490029 	cdpmi	0, 4, cr0, cr9, cr9, {1}
    278c:	454c5f54 	strbmi	r5, [ip, #-3924]	; 0xfffff0ac
    2790:	33545341 	cmpcc	r4, #67108865	; 0x4000001
    2794:	414d5f32 	cmpmi	sp, r2, lsr pc
    2798:	5f282058 	svcpl	0x00282058
    279c:	544e495f 	strbpl	r4, [lr], #-2399	; 0xfffff6a1
    27a0:	41454c5f 	cmpmi	r5, pc, asr ip
    27a4:	32335453 	eorscc	r5, r3, #1392508928	; 0x53000000
    27a8:	58414d5f 	stmdapl	r1, {r0, r1, r2, r3, r4, r6, r8, sl, fp, lr}^
    27ac:	00295f5f 	eoreq	r5, r9, pc, asr pc
    27b0:	736e665f 	cmnvc	lr, #99614720	; 0x5f00000
    27b4:	535f5f00 	cmppl	pc, #0, 30
    27b8:	43415246 	movtmi	r5, #4678	; 0x1246
    27bc:	414d5f54 	cmpmi	sp, r4, asr pc
    27c0:	205f5f58 	subscs	r5, pc, r8, asr pc	; <UNPREDICTABLE>
    27c4:	46375830 			; <UNDEFINED> instruction: 0x46375830
    27c8:	48372d50 	ldmdami	r7!, {r4, r6, r8, sl, fp, sp}
    27cc:	5f5f0052 	svcpl	0x005f0052
    27d0:	544e4955 	strbpl	r4, [lr], #-2389	; 0xfffff6ab
    27d4:	5341465f 	movtpl	r4, #5727	; 0x165f
    27d8:	5f343654 	svcpl	0x00343654
    27dc:	45505954 	ldrbmi	r5, [r0, #-2388]	; 0xfffff6ac
    27e0:	6c205f5f 	stcvs	15, cr5, [r0], #-380	; 0xfffffe84
    27e4:	20676e6f 	rsbcs	r6, r7, pc, ror #28
    27e8:	676e6f6c 	strbvs	r6, [lr, -ip, ror #30]!
    27ec:	736e7520 	cmnvc	lr, #32, 10	; 0x8000000
    27f0:	656e6769 	strbvs	r6, [lr, #-1897]!	; 0xfffff897
    27f4:	6e692064 	cdpvs	0, 6, cr2, cr9, cr4, {3}
    27f8:	575f0074 			; <UNDEFINED> instruction: 0x575f0074
    27fc:	5f544e49 	svcpl	0x00544e49
    2800:	49002054 	stmdbmi	r0, {r2, r4, r6, sp}
    2804:	4c5f544e 	cfldrdmi	mvd5, [pc], {78}	; 0x4e
    2808:	54534145 	ldrbpl	r4, [r3], #-325	; 0xfffffebb
    280c:	414d5f38 	cmpmi	sp, r8, lsr pc
    2810:	5f282058 	svcpl	0x00282058
    2814:	544e495f 	strbpl	r4, [lr], #-2399	; 0xfffff6a1
    2818:	41454c5f 	cmpmi	r5, pc, asr ip
    281c:	5f385453 	svcpl	0x00385453
    2820:	5f58414d 	svcpl	0x0058414d
    2824:	5f00295f 	svcpl	0x0000295f
    2828:	636f6c5f 	cmnvs	pc, #24320	; 0x5f00
    282c:	6c635f6b 	stclvs	15, cr5, [r3], #-428	; 0xfffffe54
    2830:	2865736f 	stmdacs	r5!, {r0, r1, r2, r3, r5, r6, r8, r9, ip, sp, lr}^
    2834:	6b636f6c 	blvs	18de5ec <_Min_Stack_Size+0x18de1ec>
    2838:	28282029 	stmdacs	r8!, {r0, r3, r5, sp}
    283c:	64696f76 	strbtvs	r6, [r9], #-3958	; 0xfffff08a
    2840:	29302029 	ldmdbcs	r0!, {r0, r3, r5, sp}
    2844:	465f5f00 	ldrbmi	r5, [pc], -r0, lsl #30
    2848:	4d5f544c 	cfldrdmi	mvd5, [pc, #-304]	; 2720 <_Min_Stack_Size+0x2320>
    284c:	5f5f4e49 	svcpl	0x005f4e49
    2850:	312e3120 			; <UNDEFINED> instruction: 0x312e3120
    2854:	39343537 	ldmdbcc	r4!, {r0, r1, r2, r4, r5, r8, sl, ip, sp}
    2858:	30353334 	eorscc	r3, r5, r4, lsr r3
    285c:	32323238 	eorscc	r3, r2, #56, 4	; 0x80000003
    2860:	65353738 	ldrvs	r3, [r5, #-1848]!	; 0xfffff8c8
    2864:	4638332d 	ldrtmi	r3, [r8], -sp, lsr #6
    2868:	6e5f5f00 	cdpvs	15, 5, cr5, cr15, cr0, {0}
    286c:	5f646565 	svcpl	0x00646565
    2870:	657a6973 	ldrbvs	r6, [sl, #-2419]!	; 0xfffff68d
    2874:	0020745f 	eoreq	r7, r0, pc, asr r4
    2878:	41485f5f 	cmpmi	r8, pc, asr pc
    287c:	4942465f 	stmdbmi	r2, {r0, r1, r2, r3, r4, r6, r9, sl, lr}^
    2880:	205f5f54 	subscs	r5, pc, r4, asr pc	; <UNPREDICTABLE>
    2884:	58450037 	stmdapl	r5, {r0, r1, r2, r4, r5}^
    2888:	50334954 	eorspl	r4, r3, r4, asr r9
    288c:	28203341 	stmdacs	r0!, {r0, r6, r8, r9, ip, sp}
    2890:	49545845 	ldmdbmi	r4, {r0, r2, r6, fp, ip, lr}^
    2894:	4950475f 	ldmdbmi	r0, {r0, r1, r2, r3, r4, r6, r8, r9, sl, lr}^
    2898:	614d5f4f 	cmpvs	sp, pc, asr #30
    289c:	6e697070 	mcrvs	0, 3, r7, cr9, cr0, {3}
    28a0:	29745f67 	ldmdbcs	r4!, {r0, r1, r2, r5, r6, r8, r9, sl, fp, ip, lr}^
    28a4:	5458457b 	ldrbpl	r4, [r8], #-1403	; 0xfffffa85
    28a8:	202c3349 	eorcs	r3, ip, r9, asr #6
    28ac:	4f495047 	svcmi	0x00495047
    28b0:	47202c41 	strmi	r2, [r0, -r1, asr #24]!
    28b4:	5f4f4950 	svcpl	0x004f4950
    28b8:	5f4e4950 	svcpl	0x004e4950
    28bc:	45202c33 	strmi	r2, [r0, #-3123]!	; 0xfffff3cd
    28c0:	33495458 	movtcc	r5, #37976	; 0x9458
    28c4:	5152495f 	cmppl	r2, pc, asr r9
    28c8:	5f007d20 	svcpl	0x00007d20
    28cc:	4e454552 	mcrmi	5, 2, r4, cr5, cr2, {2}
    28d0:	424d5f54 	submi	r5, sp, #84, 30	; 0x150
    28d4:	5f4e454c 	svcpl	0x004e454c
    28d8:	54415453 	strbpl	r5, [r1], #-1107	; 0xfffffbad
    28dc:	74702845 	ldrbtvc	r2, [r0], #-2117	; 0xfffff7bb
    28e0:	28202972 	stmdacs	r0!, {r1, r4, r5, r6, r8, fp, sp}
    28e4:	72747028 	rsbsvc	r7, r4, #40	; 0x28
    28e8:	5f3e2d29 	svcpl	0x003e2d29
    28ec:	6373696d 	cmnvs	r3, #1785856	; 0x1b4000
    28f0:	6d5f3e2d 	ldclvs	14, cr3, [pc, #-180]	; 2844 <_Min_Stack_Size+0x2444>
    28f4:	6e656c62 	cdpvs	12, 6, cr6, cr5, cr2, {3}
    28f8:	6174735f 	cmnvs	r4, pc, asr r3
    28fc:	00296574 	eoreq	r6, r9, r4, ror r5
    2900:	46555f5f 	usaxmi	r5, r5, pc	; <UNPREDICTABLE>
    2904:	54434152 	strbpl	r4, [r3], #-338	; 0xfffffeae
    2908:	4e494d5f 	mcrmi	13, 2, r4, cr9, cr15, {2}
    290c:	30205f5f 	eorcc	r5, r0, pc, asr pc
    2910:	5255302e 	subspl	r3, r5, #46	; 0x2e
    2914:	47495300 	strbmi	r5, [r9, -r0, lsl #6]
    2918:	4f54415f 	svcmi	0x0054415f
    291c:	5f43494d 	svcpl	0x0043494d
    2920:	2058414d 	subscs	r4, r8, sp, asr #2
    2924:	535f5f28 	cmppl	pc, #40, 30	; 0xa0
    2928:	4e494454 	mcrmi	4, 2, r4, cr9, cr4, {2}
    292c:	58455f54 	stmdapl	r5, {r2, r4, r6, r8, r9, sl, fp, ip, lr}^
    2930:	4e492850 	mcrmi	8, 2, r2, cr9, cr0, {2}
    2934:	414d5f54 	cmpmi	sp, r4, asr pc
    2938:	00292958 	eoreq	r2, r9, r8, asr r9
    293c:	6f6e5f5f 	svcvs	0x006e5f5f
    2940:	696c6e69 	stmdbvs	ip!, {r0, r3, r5, r6, r9, sl, fp, sp, lr}^
    2944:	5f20656e 	svcpl	0x0020656e
    2948:	7474615f 	ldrbtvc	r6, [r4], #-351	; 0xfffffea1
    294c:	75626972 	strbvc	r6, [r2, #-2418]!	; 0xfffff68e
    2950:	5f5f6574 	svcpl	0x005f6574
    2954:	5f282820 	svcpl	0x00282820
    2958:	696f6e5f 	stmdbvs	pc!, {r0, r1, r2, r3, r4, r6, r9, sl, fp, sp, lr}^	; <UNPREDICTABLE>
    295c:	6e696c6e 	cdpvs	12, 6, cr6, cr9, cr14, {3}
    2960:	295f5f65 	ldmdbcs	pc, {r0, r2, r5, r6, r8, r9, sl, fp, ip, lr}^	; <UNPREDICTABLE>
    2964:	49550029 	ldmdbmi	r5, {r0, r3, r5}^
    2968:	3436544e 	ldrtcc	r5, [r6], #-1102	; 0xfffffbb2
    296c:	58414d5f 	stmdapl	r1, {r0, r1, r2, r3, r4, r6, r8, sl, fp, lr}^
    2970:	5f5f2820 	svcpl	0x005f2820
    2974:	544e4955 	strbpl	r4, [lr], #-2389	; 0xfffff6ab
    2978:	4d5f3436 	cfldrdmi	mvd3, [pc, #-216]	; 28a8 <_Min_Stack_Size+0x24a8>
    297c:	5f5f5841 	svcpl	0x005f5841
    2980:	564e0029 	strbpl	r0, [lr], -r9, lsr #32
    2984:	495f4349 	ldmdbmi	pc, {r0, r3, r6, r8, r9, lr}^	; <UNPREDICTABLE>
    2988:	5f365152 	svcpl	0x00365152
    298c:	49545845 	ldmdbmi	r4, {r0, r2, r6, fp, ip, lr}^
    2990:	49445f33 	stmdbmi	r4, {r0, r1, r4, r5, r8, r9, sl, fp, ip, lr}^
    2994:	4c424153 	stfmie	f4, [r2], {83}	; 0x53
    2998:	4e282045 	cdpmi	0, 2, cr2, cr8, cr5, {2}
    299c:	5f434956 	svcpl	0x00434956
    29a0:	52454349 	subpl	r4, r5, #603979777	; 0x24000001
    29a4:	3d7c2030 	ldclcc	0, cr2, [ip, #-192]!	; 0xffffff40
    29a8:	3c312820 	ldccc	8, cr2, [r1], #-128	; 0xffffff80
    29ac:	2929393c 	stmdbcs	r9!, {r2, r3, r4, r5, r8, fp, ip, sp}
    29b0:	445f5f00 	ldrbmi	r5, [pc], #-3840	; 29b8 <_Min_Stack_Size+0x25b8>
    29b4:	32334345 	eorscc	r4, r3, #335544321	; 0x14000001
    29b8:	4e494d5f 	mcrmi	13, 2, r4, cr9, cr15, {2}
    29bc:	5058455f 	subspl	r4, r8, pc, asr r5
    29c0:	28205f5f 	stmdacs	r0!, {r0, r1, r2, r3, r4, r6, r8, r9, sl, fp, ip, lr}
    29c4:	2934392d 	ldmdbcs	r4!, {r0, r2, r3, r5, r8, fp, ip, sp}
    29c8:	54584500 	ldrbpl	r4, [r8], #-1280	; 0xfffffb00
    29cc:	5f333149 	svcpl	0x00333149
    29d0:	20515249 	subscs	r5, r1, r9, asr #4
    29d4:	5f003034 	svcpl	0x00003034
    29d8:	4653555f 			; <UNDEFINED> instruction: 0x4653555f
    29dc:	54434152 	strbpl	r4, [r3], #-338	; 0xfffffeae
    29e0:	4942495f 	stmdbmi	r2, {r0, r1, r2, r3, r4, r6, r8, fp, lr}^
    29e4:	205f5f54 	subscs	r5, pc, r4, asr pc	; <UNPREDICTABLE>
    29e8:	5f5f0030 	svcpl	0x005f0030
    29ec:	33544e49 	cmpcc	r4, #1168	; 0x490
    29f0:	28435f32 	stmdacs	r3, {r1, r4, r5, r8, r9, sl, fp, ip, lr}^
    29f4:	63202963 			; <UNDEFINED> instruction: 0x63202963
    29f8:	20232320 	eorcs	r2, r3, r0, lsr #6
    29fc:	5f5f004c 	svcpl	0x005f004c
    2a00:	746e6975 	strbtvc	r6, [lr], #-2421	; 0xfffff68b
    2a04:	745f3631 	ldrbvc	r3, [pc], #-1585	; 2a0c <_Min_Stack_Size+0x260c>
    2a08:	45525f00 	ldrbmi	r5, [r2, #-3840]	; 0xfffff100
    2a0c:	5f544e45 	svcpl	0x00544e45
    2a10:	4e474953 			; <UNDEFINED> instruction: 0x4e474953
    2a14:	425f4c41 	subsmi	r4, pc, #16640	; 0x4100
    2a18:	70284655 	eorvc	r4, r8, r5, asr r6
    2a1c:	20297274 	eorcs	r7, r9, r4, ror r2
    2a20:	74702828 	ldrbtvc	r2, [r0], #-2088	; 0xfffff7d8
    2a24:	3e2d2972 			; <UNDEFINED> instruction: 0x3e2d2972
    2a28:	6769735f 			; <UNDEFINED> instruction: 0x6769735f
    2a2c:	5f6c616e 	svcpl	0x006c616e
    2a30:	29667562 	stmdbcs	r6!, {r1, r5, r6, r8, sl, ip, sp, lr}^
    2a34:	555f5f00 	ldrbpl	r5, [pc, #-3840]	; 1b3c <_Min_Stack_Size+0x173c>
    2a38:	41524653 	cmpmi	r2, r3, asr r6
    2a3c:	4d5f5443 	cfldrdmi	mvd5, [pc, #-268]	; 2938 <_Min_Stack_Size+0x2538>
    2a40:	5f5f4e49 	svcpl	0x005f4e49
    2a44:	302e3020 	eorcc	r3, lr, r0, lsr #32
    2a48:	00524855 	subseq	r4, r2, r5, asr r8
    2a4c:	73755f5f 	cmnvc	r5, #380	; 0x17c
    2a50:	5f206465 	svcpl	0x00206465
    2a54:	7474615f 	ldrbtvc	r6, [r4], #-351	; 0xfffffea1
    2a58:	75626972 	strbvc	r6, [r2, #-2418]!	; 0xfffff68e
    2a5c:	5f5f6574 	svcpl	0x005f6574
    2a60:	5f5f2828 	svcpl	0x005f2828
    2a64:	64657375 	strbtvs	r7, [r5], #-885	; 0xfffffc8b
    2a68:	29295f5f 	stmdbcs	r9!, {r0, r1, r2, r3, r4, r6, r8, r9, sl, fp, ip, lr}
    2a6c:	675f5f00 	ldrbvs	r5, [pc, -r0, lsl #30]
    2a70:	72656e65 	rsbvc	r6, r5, #1616	; 0x650
    2a74:	65286369 	strvs	r6, [r8, #-873]!	; 0xfffffc97
    2a78:	2c727078 	ldclcs	0, cr7, [r2], #-480	; 0xfffffe20
    2a7c:	65792c74 	ldrbvs	r2, [r9, #-3188]!	; 0xfffff38c
    2a80:	6f6e2c73 	svcvs	0x006e2c73
    2a84:	475f2029 	ldrbmi	r2, [pc, -r9, lsr #32]
    2a88:	72656e65 	rsbvc	r6, r5, #1616	; 0x650
    2a8c:	65286369 	strvs	r6, [r8, #-873]!	; 0xfffffc97
    2a90:	2c727078 	ldclcs	0, cr7, [r2], #-480	; 0xfffffe20
    2a94:	203a7420 	eorscs	r7, sl, r0, lsr #8
    2a98:	2c736579 	cfldr64cs	mvdx6, [r3], #-484	; 0xfffffe1c
    2a9c:	66656420 	strbtvs	r6, [r5], -r0, lsr #8
    2aa0:	746c7561 	strbtvc	r7, [ip], #-1377	; 0xfffffa9f
    2aa4:	6f6e203a 	svcvs	0x006e203a
    2aa8:	5f5f0029 	svcpl	0x005f0029
    2aac:	5f4d5241 	svcpl	0x004d5241
    2ab0:	4e4f454e 	cdpmi	5, 4, cr4, cr15, cr14, {2}
    2ab4:	45525f00 	ldrbmi	r5, [r2, #-3840]	; 0xfffff100
    2ab8:	5f544e45 	svcpl	0x00544e45
    2abc:	52454d45 	subpl	r4, r5, #4416	; 0x1140
    2ac0:	434e4547 	movtmi	r4, #58695	; 0xe547
    2ac4:	74702859 	ldrbtvc	r2, [r0], #-2137	; 0xfffff7a7
    2ac8:	28202972 	stmdacs	r0!, {r1, r4, r5, r6, r8, fp, sp}
    2acc:	72747028 	rsbsvc	r7, r4, #40	; 0x28
    2ad0:	5f3e2d29 	svcpl	0x003e2d29
    2ad4:	72656d65 	rsbvc	r6, r5, #6464	; 0x1940
    2ad8:	636e6567 	cmnvs	lr, #432013312	; 0x19c00000
    2adc:	5f002979 	svcpl	0x00002979
    2ae0:	554e475f 	strbpl	r4, [lr, #-1887]	; 0xfffff8a1
    2ae4:	4b494c43 	blmi	1255bf8 <_Min_Stack_Size+0x12557f8>
    2ae8:	54435f45 	strbpl	r5, [r3], #-3909	; 0xfffff0bb
    2aec:	535f524f 	cmppl	pc, #-268435452	; 0xf0000004
    2af0:	49544345 	ldmdbmi	r4, {r0, r2, r6, r8, r9, lr}^
    2af4:	485f4e4f 	ldmdami	pc, {r0, r1, r2, r3, r6, r9, sl, fp, lr}^	; <UNPREDICTABLE>
    2af8:	4c444e41 	mcrrmi	14, 4, r4, r4, cr1
    2afc:	20474e49 	subcs	r4, r7, r9, asr #28
    2b00:	5f5f0031 	svcpl	0x005f0031
    2b04:	544e4955 	strbpl	r4, [lr], #-2389	; 0xfffff6ab
    2b08:	414d5f38 	cmpmi	sp, r8, lsr pc
    2b0c:	205f5f58 	subscs	r5, pc, r8, asr pc	; <UNPREDICTABLE>
    2b10:	66667830 			; <UNDEFINED> instruction: 0x66667830
    2b14:	5f5f5f00 	svcpl	0x005f5f00
    2b18:	31746e69 	cmncc	r4, r9, ror #28
    2b1c:	5f745f36 	svcpl	0x00745f36
    2b20:	69666564 	stmdbvs	r6!, {r2, r5, r6, r8, sl, sp, lr}^
    2b24:	2064656e 	rsbcs	r6, r4, lr, ror #10
    2b28:	525f0031 	subspl	r0, pc, #49	; 0x31
    2b2c:	544e4545 	strbpl	r4, [lr], #-1349	; 0xfffffabb
    2b30:	6d695f20 	stclvs	15, cr5, [r9, #-128]!	; 0xffffff80
    2b34:	65727570 	ldrbvs	r7, [r2, #-1392]!	; 0xfffffa90
    2b38:	7274705f 	rsbsvc	r7, r4, #95	; 0x5f
    2b3c:	4c5f5f00 	mrrcmi	15, 0, r5, pc, cr0	; <UNPREDICTABLE>
    2b40:	5f4c4244 	svcpl	0x004c4244
    2b44:	5f58414d 	svcpl	0x0058414d
    2b48:	5f505845 	svcpl	0x00505845
    2b4c:	3031205f 	eorscc	r2, r1, pc, asr r0
    2b50:	45003432 	strmi	r3, [r0, #-1074]	; 0xfffffbce
    2b54:	5f495458 	svcpl	0x00495458
    2b58:	436e6950 	cmnmi	lr, #80, 18	; 0x140000
    2b5c:	69666e6f 	stmdbvs	r6!, {r0, r1, r2, r3, r5, r6, r9, sl, fp, sp, lr}^
    2b60:	00745f67 	rsbseq	r5, r4, r7, ror #30
    2b64:	78655f5f 	stmdavc	r5!, {r0, r1, r2, r3, r4, r6, r8, r9, sl, fp, ip, lr}^
    2b68:	74726f70 	ldrbtvc	r6, [r2], #-3952	; 0xfffff090
    2b6c:	5f206465 	svcpl	0x00206465
    2b70:	7474615f 	ldrbtvc	r6, [r4], #-351	; 0xfffffea1
    2b74:	75626972 	strbvc	r6, [r2, #-2418]!	; 0xfffff68e
    2b78:	5f5f6574 	svcpl	0x005f6574
    2b7c:	5f5f2828 	svcpl	0x005f2828
    2b80:	69736976 	ldmdbvs	r3!, {r1, r2, r4, r5, r6, r8, fp, sp, lr}^
    2b84:	696c6962 	stmdbvs	ip!, {r1, r5, r6, r8, fp, sp, lr}^
    2b88:	5f5f7974 	svcpl	0x005f7974
    2b8c:	65642228 	strbvs	r2, [r4, #-552]!	; 0xfffffdd8
    2b90:	6c756166 	ldfvse	f6, [r5], #-408	; 0xfffffe68
    2b94:	29292274 	stmdbcs	r9!, {r2, r4, r5, r6, r9, sp}
    2b98:	5f5f0029 	svcpl	0x005f0029
    2b9c:	5f4c4244 	svcpl	0x004c4244
    2ba0:	5f534148 	svcpl	0x00534148
    2ba4:	4f4e4544 	svcmi	0x004e4544
    2ba8:	5f5f4d52 	svcpl	0x005f4d52
    2bac:	52003120 	andpl	r3, r0, #32, 2
    2bb0:	28204343 	stmdacs	r0!, {r0, r1, r6, r8, r9, lr}
    2bb4:	43435228 	movtmi	r5, #12840	; 0x3228
    2bb8:	7079545f 	rsbsvc	r5, r9, pc, asr r4
    2bbc:	66654465 	strbtvs	r4, [r5], -r5, ror #8
    2bc0:	4352292a 	cmpmi	r2, #688128	; 0xa8000
    2bc4:	41425f43 	cmpmi	r2, r3, asr #30
    2bc8:	00294553 	eoreq	r4, r9, r3, asr r5
    2bcc:	43435f5f 	movtmi	r5, #16223	; 0x3f5f
    2bd0:	5055535f 	subspl	r5, r5, pc, asr r3
    2bd4:	54524f50 	ldrbpl	r4, [r2], #-3920	; 0xfffff0b0
    2bd8:	5f5f5f53 	svcpl	0x005f5f53
    2bdc:	494c4e49 	stmdbmi	ip, {r0, r3, r6, r9, sl, fp, lr}^
    2be0:	3120454e 			; <UNDEFINED> instruction: 0x3120454e
    2be4:	424d5f00 	submi	r5, sp, #0, 30
    2be8:	4e454c5f 	mcrmi	12, 2, r4, cr5, cr15, {2}
    2bec:	58414d5f 	stmdapl	r1, {r0, r1, r2, r3, r4, r6, r8, sl, fp, lr}^
    2bf0:	5f003120 	svcpl	0x00003120
    2bf4:	626f696e 	rsbvs	r6, pc, #1802240	; 0x1b8000
    2bf8:	4e490073 	mcrmi	0, 2, r0, cr9, cr3, {3}
    2bfc:	5f323354 	svcpl	0x00323354
    2c00:	2058414d 	subscs	r4, r8, sp, asr #2
    2c04:	495f5f28 	ldmdbmi	pc, {r3, r5, r8, r9, sl, fp, ip, lr}^	; <UNPREDICTABLE>
    2c08:	3233544e 	eorscc	r5, r3, #1308622848	; 0x4e000000
    2c0c:	58414d5f 	stmdapl	r1, {r0, r1, r2, r3, r4, r6, r8, sl, fp, lr}^
    2c10:	00295f5f 	eoreq	r5, r9, pc, asr pc
    2c14:	4349564e 	movtmi	r5, #38478	; 0x964e
    2c18:	5152495f 	cmppl	r2, pc, asr r9
    2c1c:	58455f36 	stmdapl	r5, {r1, r2, r4, r5, r8, r9, sl, fp, ip, lr}^
    2c20:	5f354954 	svcpl	0x00354954
    2c24:	4e455f39 	mcrmi	15, 2, r5, cr5, cr9, {1}
    2c28:	454c4241 	strbmi	r4, [ip, #-577]	; 0xfffffdbf
    2c2c:	564e2820 	strbpl	r2, [lr], -r0, lsr #16
    2c30:	495f4349 	ldmdbmi	pc, {r0, r3, r6, r8, r9, lr}^	; <UNPREDICTABLE>
    2c34:	30524553 	subscc	r4, r2, r3, asr r5
    2c38:	203d7c20 	eorscs	r7, sp, r0, lsr #24
    2c3c:	3c3c3128 	ldfccs	f3, [ip], #-160	; 0xffffff60
    2c40:	29293332 	stmdbcs	r9!, {r1, r4, r5, r8, r9, ip, sp}
    2c44:	475f5f00 	ldrbmi	r5, [pc, -r0, lsl #30]
    2c48:	415f5858 	cmpmi	pc, r8, asr r8	; <UNPREDICTABLE>
    2c4c:	565f4942 	ldrbpl	r4, [pc], -r2, asr #18
    2c50:	49535245 	ldmdbmi	r3, {r0, r2, r6, r9, ip, lr}^
    2c54:	31204e4f 			; <UNDEFINED> instruction: 0x31204e4f
    2c58:	00313130 	eorseq	r3, r1, r0, lsr r1
    2c5c:	41445f5f 	cmpmi	r4, pc, asr pc
    2c60:	4942465f 	stmdbmi	r2, {r0, r1, r2, r3, r4, r6, r9, sl, lr}^
    2c64:	205f5f54 	subscs	r5, pc, r4, asr pc	; <UNPREDICTABLE>
    2c68:	5f003133 	svcpl	0x00003133
    2c6c:	544e495f 	strbpl	r4, [lr], #-2399	; 0xfffff6a1
    2c70:	41454c5f 	cmpmi	r5, pc, asr ip
    2c74:	36315453 			; <UNDEFINED> instruction: 0x36315453
    2c78:	58414d5f 	stmdapl	r1, {r0, r1, r2, r3, r4, r6, r8, sl, fp, lr}^
    2c7c:	30205f5f 	eorcc	r5, r0, pc, asr pc
    2c80:	66663778 			; <UNDEFINED> instruction: 0x66663778
    2c84:	5f5f0066 	svcpl	0x005f0066
    2c88:	5f544c46 	svcpl	0x00544c46
    2c8c:	4f4e4544 	svcmi	0x004e4544
    2c90:	4d5f4d52 	ldclmi	13, cr4, [pc, #-328]	; 2b50 <_Min_Stack_Size+0x2750>
    2c94:	5f5f4e49 	svcpl	0x005f4e49
    2c98:	342e3120 	strtcc	r3, [lr], #-288	; 0xfffffee0
    2c9c:	39323130 	ldmdbcc	r2!, {r4, r5, r8, ip, sp}
    2ca0:	34363438 	ldrtcc	r3, [r6], #-1080	; 0xfffffbc8
    2ca4:	38343233 	ldmdacc	r4!, {r0, r1, r4, r5, r9, ip, sp}
    2ca8:	65313731 	ldrvs	r3, [r1, #-1841]!	; 0xfffff8cf
    2cac:	4635342d 	ldrtmi	r3, [r5], -sp, lsr #8
    2cb0:	4c5f5f00 	mrrcmi	15, 0, r5, pc, cr0	; <UNPREDICTABLE>
    2cb4:	5f4c4244 	svcpl	0x004c4244
    2cb8:	5f58414d 	svcpl	0x0058414d
    2cbc:	2e31205f 	mrccs	0, 1, r2, cr1, cr15, {2}
    2cc0:	36373937 			; <UNDEFINED> instruction: 0x36373937
    2cc4:	33313339 	teqcc	r1, #-469762048	; 0xe4000000
    2cc8:	32363834 	eorscc	r3, r6, #52, 16	; 0x340000
    2ccc:	37353133 			; <UNDEFINED> instruction: 0x37353133
    2cd0:	30332b65 	eorscc	r2, r3, r5, ror #22
    2cd4:	55004c38 	strpl	r4, [r0, #-3128]	; 0xfffff3c8
    2cd8:	5f544e49 	svcpl	0x00544e49
    2cdc:	54534146 	ldrbpl	r4, [r3], #-326	; 0xfffffeba
    2ce0:	4d5f3631 	ldclmi	6, cr3, [pc, #-196]	; 2c24 <_Min_Stack_Size+0x2824>
    2ce4:	28205841 	stmdacs	r0!, {r0, r6, fp, ip, lr}
    2ce8:	49555f5f 	ldmdbmi	r5, {r0, r1, r2, r3, r4, r6, r8, r9, sl, fp, ip, lr}^
    2cec:	465f544e 	ldrbmi	r5, [pc], -lr, asr #8
    2cf0:	31545341 	cmpcc	r4, r1, asr #6
    2cf4:	414d5f36 	cmpmi	sp, r6, lsr pc
    2cf8:	295f5f58 	ldmdbcs	pc, {r3, r4, r6, r8, r9, sl, fp, ip, lr}^	; <UNPREDICTABLE>
    2cfc:	6e6f5f00 	cdpvs	15, 6, cr5, cr15, cr0, {0}
    2d00:	6978655f 	ldmdbvs	r8!, {r0, r1, r2, r3, r4, r6, r8, sl, sp, lr}^
    2d04:	72615f74 	rsbvc	r5, r1, #116, 30	; 0x1d0
    2d08:	705f7367 	subsvc	r7, pc, r7, ror #6
    2d0c:	5f007274 	svcpl	0x00007274
    2d10:	5f444e45 	svcpl	0x00444e45
    2d14:	5f445453 	svcpl	0x00445453
    2d18:	5f002043 	svcpl	0x00002043
    2d1c:	5248545f 	subpl	r5, r8, #1593835520	; 0x5f000000
    2d20:	0020574f 	eoreq	r5, r0, pc, asr #14
    2d24:	61685f5f 	cmnvs	r8, pc, asr pc
    2d28:	6e695f73 	mcrvs	15, 3, r5, cr9, cr3, {3}
    2d2c:	64756c63 	ldrbtvs	r6, [r5], #-3171	; 0xfffff39d
    2d30:	656e5f65 	strbvs	r5, [lr, #-3941]!	; 0xfffff09b
    2d34:	53287478 			; <UNDEFINED> instruction: 0x53287478
    2d38:	20295254 	eorcs	r5, r9, r4, asr r2
    2d3c:	61685f5f 	cmnvs	r8, pc, asr pc
    2d40:	6e695f73 	mcrvs	15, 3, r5, cr9, cr3, {3}
    2d44:	64756c63 	ldrbtvs	r6, [r5], #-3171	; 0xfffff39d
    2d48:	656e5f65 	strbvs	r5, [lr, #-3941]!	; 0xfffff09b
    2d4c:	5f5f7478 	svcpl	0x005f7478
    2d50:	52545328 	subspl	r5, r4, #40, 6	; 0xa0000000
    2d54:	49550029 	ldmdbmi	r5, {r0, r3, r5}^
    2d58:	4c5f544e 	cfldrdmi	mvd5, [pc], {78}	; 0x4e
    2d5c:	54534145 	ldrbpl	r4, [r3], #-325	; 0xfffffebb
    2d60:	4d5f3631 	ldclmi	6, cr3, [pc, #-196]	; 2ca4 <_Min_Stack_Size+0x28a4>
    2d64:	28205841 	stmdacs	r0!, {r0, r6, fp, ip, lr}
    2d68:	49555f5f 	ldmdbmi	r5, {r0, r1, r2, r3, r4, r6, r8, r9, sl, fp, ip, lr}^
    2d6c:	4c5f544e 	cfldrdmi	mvd5, [pc], {78}	; 0x4e
    2d70:	54534145 	ldrbpl	r4, [r3], #-325	; 0xfffffebb
    2d74:	4d5f3631 	ldclmi	6, cr3, [pc, #-196]	; 2cb8 <_Min_Stack_Size+0x28b8>
    2d78:	5f5f5841 	svcpl	0x005f5841
    2d7c:	5f5f0029 	svcpl	0x005f0029
    2d80:	544e4955 	strbpl	r4, [lr], #-2389	; 0xfffff6ab
    2d84:	435f3233 	cmpmi	pc, #805306371	; 0x30000003
    2d88:	20296328 	eorcs	r6, r9, r8, lsr #6
    2d8c:	23232063 			; <UNDEFINED> instruction: 0x23232063
    2d90:	004c5520 	subeq	r5, ip, r0, lsr #10
    2d94:	49545845 	ldmdbmi	r4, {r0, r2, r6, fp, ip, lr}^
    2d98:	36415036 			; <UNDEFINED> instruction: 0x36415036
    2d9c:	58452820 	stmdapl	r5, {r5, fp, sp}^
    2da0:	475f4954 			; <UNDEFINED> instruction: 0x475f4954
    2da4:	5f4f4950 	svcpl	0x004f4950
    2da8:	7070614d 	rsbsvc	r6, r0, sp, asr #2
    2dac:	5f676e69 	svcpl	0x00676e69
    2db0:	457b2974 	ldrbmi	r2, [fp, #-2420]!	; 0xfffff68c
    2db4:	36495458 			; <UNDEFINED> instruction: 0x36495458
    2db8:	5047202c 	subpl	r2, r7, ip, lsr #32
    2dbc:	2c414f49 	mcrrcs	15, 4, r4, r1, cr9
    2dc0:	49504720 	ldmdbmi	r0, {r5, r8, r9, sl, lr}^
    2dc4:	49505f4f 	ldmdbmi	r0, {r0, r1, r2, r3, r6, r8, r9, sl, fp, ip, lr}^
    2dc8:	2c365f4e 	ldccs	15, cr5, [r6], #-312	; 0xfffffec8
    2dcc:	54584520 	ldrbpl	r4, [r8], #-1312	; 0xfffffae0
    2dd0:	495f3649 	ldmdbmi	pc, {r0, r3, r6, r9, sl, ip, sp}^	; <UNPREDICTABLE>
    2dd4:	7d205152 	stfvcs	f5, [r0, #-328]!	; 0xfffffeb8
    2dd8:	555f5f00 	ldrbpl	r5, [pc, #-3840]	; 1ee0 <_Min_Stack_Size+0x1ae0>
    2ddc:	55434341 	strbpl	r4, [r3, #-833]	; 0xfffffcbf
    2de0:	494d5f4d 	stmdbmi	sp, {r0, r2, r3, r6, r8, r9, sl, fp, ip, lr}^
    2de4:	205f5f4e 	subscs	r5, pc, lr, asr #30
    2de8:	55302e30 	ldrpl	r2, [r0, #-3632]!	; 0xfffff1d0
    2dec:	525f004b 	subspl	r0, pc, #75	; 0x4b
    2df0:	544e4545 	strbpl	r4, [lr], #-1349	; 0xfffffabb
    2df4:	54424d5f 	strbpl	r4, [r2], #-3423	; 0xfffff2a1
    2df8:	5f43574f 	svcpl	0x0043574f
    2dfc:	54415453 	strbpl	r5, [r1], #-1107	; 0xfffffbad
    2e00:	74702845 	ldrbtvc	r2, [r0], #-2117	; 0xfffff7bb
    2e04:	28202972 	stmdacs	r0!, {r1, r4, r5, r6, r8, fp, sp}
    2e08:	72747028 	rsbsvc	r7, r4, #40	; 0x28
    2e0c:	5f3e2d29 	svcpl	0x003e2d29
    2e10:	6373696d 	cmnvs	r3, #1785856	; 0x1b4000
    2e14:	6d5f3e2d 	ldclvs	14, cr3, [pc, #-180]	; 2d68 <_Min_Stack_Size+0x2968>
    2e18:	776f7462 	strbvc	r7, [pc, -r2, ror #8]!
    2e1c:	74735f63 	ldrbtvc	r5, [r3], #-3939	; 0xfffff09d
    2e20:	29657461 	stmdbcs	r5!, {r0, r5, r6, sl, ip, sp, lr}^
    2e24:	754e5f00 	strbvc	r5, [lr, #-3840]	; 0xfffff100
    2e28:	755f6c6c 	ldrbvc	r6, [pc, #-3180]	; 21c4 <_Min_Stack_Size+0x1dc4>
    2e2c:	6570736e 	ldrbvs	r7, [r0, #-878]!	; 0xfffffc92
    2e30:	69666963 	stmdbvs	r6!, {r0, r1, r5, r6, r8, fp, sp, lr}^
    2e34:	00206465 	eoreq	r6, r0, r5, ror #8
    2e38:	4c465f5f 	mcrrmi	15, 5, r5, r6, cr15
    2e3c:	50455f54 	subpl	r5, r5, r4, asr pc
    2e40:	4f4c4953 	svcmi	0x004c4953
    2e44:	205f5f4e 	subscs	r5, pc, lr, asr #30
    2e48:	39312e31 	ldmdbcc	r1!, {r0, r4, r5, r9, sl, fp, sp}
    2e4c:	32393032 	eorscc	r3, r9, #50	; 0x32
    2e50:	35353938 	ldrcc	r3, [r5, #-2360]!	; 0xfffff6c8
    2e54:	31383730 	teqcc	r8, r0, lsr r7
    2e58:	2d653532 	cfstr64cs	mvdx3, [r5, #-200]!	; 0xffffff38
    2e5c:	4e004637 	mcrmi	6, 0, r4, cr0, cr7, {1}
    2e60:	5f434956 	svcpl	0x00434956
    2e64:	52454349 	subpl	r4, r5, #603979777	; 0x24000001
    2e68:	282a2030 	stmdacs	sl!, {r4, r5, sp}
    2e6c:	616c6f76 	smcvs	50934	; 0xc6f6
    2e70:	656c6974 	strbvs	r6, [ip, #-2420]!	; 0xfffff68c
    2e74:	6e697520 	cdpvs	5, 6, cr7, cr9, cr0, {1}
    2e78:	5f323374 	svcpl	0x00323374
    2e7c:	292a2074 	stmdbcs	sl!, {r2, r4, r5, r6, sp}
    2e80:	49564e28 	ldmdbmi	r6, {r3, r5, r9, sl, fp, lr}^
    2e84:	41425f43 	cmpmi	r2, r3, asr #30
    2e88:	2b204553 	blcs	8143dc <_Min_Stack_Size+0x813fdc>
    2e8c:	30783020 	rsbscc	r3, r8, r0, lsr #32
    2e90:	00293038 	eoreq	r3, r9, r8, lsr r0
    2e94:	53585f5f 	cmppl	r8, #380	; 0x17c
    2e98:	4e495254 	mcrmi	2, 2, r5, cr9, cr4, {2}
    2e9c:	29782847 	ldmdbcs	r8!, {r0, r1, r2, r6, fp, sp}^
    2ea0:	535f5f20 	cmppl	pc, #32, 30	; 0x80
    2ea4:	4e495254 	mcrmi	2, 2, r5, cr9, cr4, {2}
    2ea8:	29782847 	ldmdbcs	r8!, {r0, r1, r2, r6, fp, sp}^
    2eac:	615f5f00 	cmpvs	pc, r0, lsl #30
    2eb0:	69727474 	ldmdbvs	r2!, {r2, r4, r5, r6, sl, ip, sp, lr}^
    2eb4:	65747562 	ldrbvs	r7, [r4, #-1378]!	; 0xfffffa9e
    2eb8:	7275705f 	rsbsvc	r7, r5, #95	; 0x5f
    2ebc:	205f5f65 	subscs	r5, pc, r5, ror #30
    2ec0:	475f5f00 	ldrbmi	r5, [pc, -r0, lsl #30]
    2ec4:	415f4343 	cmpmi	pc, r3, asr #6
    2ec8:	494d4f54 	stmdbmi	sp, {r2, r4, r6, r8, r9, sl, fp, lr}^
    2ecc:	48535f43 	ldmdami	r3, {r0, r1, r6, r8, r9, sl, fp, ip, lr}^
    2ed0:	5f54524f 	svcpl	0x0054524f
    2ed4:	4b434f4c 	blmi	10d6c0c <_Min_Stack_Size+0x10d680c>
    2ed8:	4552465f 	ldrbmi	r4, [r2, #-1631]	; 0xfffff9a1
    2edc:	00322045 	eorseq	r2, r2, r5, asr #32
    2ee0:	49545845 	ldmdbmi	r4, {r0, r2, r6, fp, ip, lr}^
    2ee4:	38435038 	stmdacc	r3, {r3, r4, r5, ip, lr}^
    2ee8:	58452820 	stmdapl	r5, {r5, fp, sp}^
    2eec:	475f4954 			; <UNDEFINED> instruction: 0x475f4954
    2ef0:	5f4f4950 	svcpl	0x004f4950
    2ef4:	7070614d 	rsbsvc	r6, r0, sp, asr #2
    2ef8:	5f676e69 	svcpl	0x00676e69
    2efc:	457b2974 	ldrbmi	r2, [fp, #-2420]!	; 0xfffff68c
    2f00:	38495458 	stmdacc	r9, {r3, r4, r6, sl, ip, lr}^
    2f04:	5047202c 	subpl	r2, r7, ip, lsr #32
    2f08:	2c434f49 	mcrrcs	15, 4, r4, r3, cr9
    2f0c:	49504720 	ldmdbmi	r0, {r5, r8, r9, sl, lr}^
    2f10:	49505f4f 	ldmdbmi	r0, {r0, r1, r2, r3, r6, r8, r9, sl, fp, ip, lr}^
    2f14:	2c385f4e 	ldccs	15, cr5, [r8], #-312	; 0xfffffec8
    2f18:	54584520 	ldrbpl	r4, [r8], #-1312	; 0xfffffae0
    2f1c:	495f3849 	ldmdbmi	pc, {r0, r3, r6, fp, ip, sp}^	; <UNPREDICTABLE>
    2f20:	7d205152 	stfvcs	f5, [r0, #-328]!	; 0xfffffeb8
    2f24:	505f5f00 	subspl	r5, pc, r0, lsl #30
    2f28:	49445254 	stmdbmi	r4, {r2, r4, r6, r9, ip, lr}^
    2f2c:	545f4646 	ldrbpl	r4, [pc], #-1606	; 2f34 <_Min_Stack_Size+0x2b34>
    2f30:	5f455059 	svcpl	0x00455059
    2f34:	6e69205f 	mcrvs	0, 3, r2, cr9, cr15, {2}
    2f38:	58450074 	stmdapl	r5, {r2, r4, r5, r6}^
    2f3c:	34314954 	ldrtcc	r4, [r1], #-2388	; 0xfffff6ac
    2f40:	34314450 	ldrtcc	r4, [r1], #-1104	; 0xfffffbb0
    2f44:	58452820 	stmdapl	r5, {r5, fp, sp}^
    2f48:	475f4954 			; <UNDEFINED> instruction: 0x475f4954
    2f4c:	5f4f4950 	svcpl	0x004f4950
    2f50:	7070614d 	rsbsvc	r6, r0, sp, asr #2
    2f54:	5f676e69 	svcpl	0x00676e69
    2f58:	457b2974 	ldrbmi	r2, [fp, #-2420]!	; 0xfffff68c
    2f5c:	31495458 	cmpcc	r9, r8, asr r4
    2f60:	47202c34 			; <UNDEFINED> instruction: 0x47202c34
    2f64:	444f4950 	strbmi	r4, [pc], #-2384	; 2f6c <_Min_Stack_Size+0x2b6c>
    2f68:	5047202c 	subpl	r2, r7, ip, lsr #32
    2f6c:	505f4f49 	subspl	r4, pc, r9, asr #30
    2f70:	315f4e49 	cmpcc	pc, r9, asr #28
    2f74:	45202c34 	strmi	r2, [r0, #-3124]!	; 0xfffff3cc
    2f78:	31495458 	cmpcc	r9, r8, asr r4
    2f7c:	52495f34 	subpl	r5, r9, #52, 30	; 0xd0
    2f80:	007d2051 	rsbseq	r2, sp, r1, asr r0
    2f84:	5f515249 	svcpl	0x00515249
    2f88:	67616c46 	strbvs	r6, [r1, -r6, asr #24]!
    2f8c:	475f5f00 	ldrbmi	r5, [pc, -r0, lsl #30]
    2f90:	4c43554e 	cfstr64mi	mvdx5, [r3], {78}	; 0x4e
    2f94:	5f454b49 	svcpl	0x00454b49
    2f98:	4c495542 	cfstr64mi	mvdx5, [r9], {66}	; 0x42
    2f9c:	5f4e4954 	svcpl	0x004e4954
    2fa0:	41524156 	cmpmi	r2, r6, asr r1
    2fa4:	20534752 	subscs	r4, r3, r2, asr r7
    2fa8:	5f5f0031 	svcpl	0x005f0031
    2fac:	43434155 	movtmi	r4, #12629	; 0x3155
    2fb0:	455f4d55 	ldrbmi	r4, [pc, #-3413]	; 2263 <_Min_Stack_Size+0x1e63>
    2fb4:	4c495350 	mcrrmi	3, 5, r5, r9, cr0
    2fb8:	5f5f4e4f 	svcpl	0x005f4e4f
    2fbc:	31783020 	cmncc	r8, r0, lsr #32
    2fc0:	36312d50 			; <UNDEFINED> instruction: 0x36312d50
    2fc4:	5f004b55 	svcpl	0x00004b55
    2fc8:	4e49555f 	mcrmi	5, 2, r5, cr9, cr15, {2}
    2fcc:	545f3854 	ldrbpl	r3, [pc], #-2132	; 2fd4 <_Min_Stack_Size+0x2bd4>
    2fd0:	5f455059 	svcpl	0x00455059
    2fd4:	6e75205f 	mrcvs	0, 3, r2, cr5, cr15, {2}
    2fd8:	6e676973 			; <UNDEFINED> instruction: 0x6e676973
    2fdc:	63206465 			; <UNDEFINED> instruction: 0x63206465
    2fe0:	00726168 	rsbseq	r6, r2, r8, ror #2
    2fe4:	5f544e49 	svcpl	0x00544e49
    2fe8:	5341454c 	movtpl	r4, #5452	; 0x154c
    2fec:	5f323354 	svcpl	0x00323354
    2ff0:	204e494d 	subcs	r4, lr, sp, asr #18
    2ff4:	5f5f2d28 	svcpl	0x005f2d28
    2ff8:	5f544e49 	svcpl	0x00544e49
    2ffc:	5341454c 	movtpl	r4, #5452	; 0x154c
    3000:	5f323354 	svcpl	0x00323354
    3004:	5f58414d 	svcpl	0x0058414d
    3008:	202d205f 	eorcs	r2, sp, pc, asr r0
    300c:	2e002931 			; <UNDEFINED> instruction: 0x2e002931
    3010:	72532f2e 	subsvc	r2, r3, #46, 30	; 0xb8
    3014:	616d2f63 	cmnvs	sp, r3, ror #30
    3018:	632e6e69 			; <UNDEFINED> instruction: 0x632e6e69
    301c:	43435200 	movtmi	r5, #12800	; 0x3200
    3020:	5341425f 	movtpl	r4, #4703	; 0x125f
    3024:	78302045 	ldmdavc	r0!, {r0, r2, r6, sp}
    3028:	32303034 	eorscc	r3, r0, #52	; 0x34
    302c:	30303031 	eorscc	r3, r0, r1, lsr r0
    3030:	5f004c55 	svcpl	0x00004c55
    3034:	5342465f 	movtpl	r4, #9823	; 0x265f
    3038:	28444944 	stmdacs	r4, {r2, r6, r8, fp, lr}^
    303c:	73202973 			; <UNDEFINED> instruction: 0x73202973
    3040:	63757274 	cmnvs	r5, #116, 4	; 0x40000007
    3044:	5f5f2074 	svcpl	0x005f2074
    3048:	6b636168 	blvs	18db5f0 <_Min_Stack_Size+0x18db1f0>
    304c:	555f5f00 	ldrbpl	r5, [pc, #-3840]	; 2154 <_Min_Stack_Size+0x1d54>
    3050:	43434153 	movtmi	r4, #12627	; 0x3153
    3054:	465f4d55 			; <UNDEFINED> instruction: 0x465f4d55
    3058:	5f544942 	svcpl	0x00544942
    305c:	0038205f 	eorseq	r2, r8, pc, asr r0
    3060:	494c455f 	stmdbmi	ip, {r0, r1, r2, r3, r4, r6, r8, sl, lr}^
    3064:	4c424144 	stfmie	f4, [r2], {68}	; 0x44
    3068:	4e495f45 	cdpmi	15, 4, cr5, cr9, cr5, {2}
    306c:	454e494c 	strbmi	r4, [lr, #-2380]	; 0xfffff6b4
    3070:	61747320 	cmnvs	r4, r0, lsr #6
    3074:	20636974 	rsbcs	r6, r3, r4, ror r9
    3078:	6e695f5f 	mcrvs	15, 3, r5, cr9, cr15, {2}
    307c:	656e696c 	strbvs	r6, [lr, #-2412]!	; 0xfffff694
    3080:	5f005f5f 	svcpl	0x00005f5f
    3084:	4c554e5f 	mrrcmi	14, 5, r4, r5, cr15
    3088:	4942414c 	stmdbmi	r2, {r2, r3, r6, r8, lr}^
    308c:	5954494c 	ldmdbpl	r4, {r2, r3, r6, r8, fp, lr}^
    3090:	4152505f 	cmpmi	r2, pc, asr r0
    3094:	5f414d47 	svcpl	0x00414d47
    3098:	20504f50 	subscs	r4, r0, r0, asr pc
    309c:	4d5f5f00 	ldclmi	15, cr5, [pc, #-0]	; 30a4 <_Min_Stack_Size+0x2ca4>
    30a0:	5f435349 	svcpl	0x00435349
    30a4:	49534956 	ldmdbmi	r3, {r1, r2, r4, r6, r8, fp, lr}^
    30a8:	20454c42 	subcs	r4, r5, r2, asr #24
    30ac:	58450031 	stmdapl	r5, {r0, r4, r5}^
    30b0:	33314954 	teqcc	r1, #84, 18	; 0x150000
    30b4:	33314350 	teqcc	r1, #80, 6	; 0x40000001
    30b8:	58452820 	stmdapl	r5, {r5, fp, sp}^
    30bc:	475f4954 			; <UNDEFINED> instruction: 0x475f4954
    30c0:	5f4f4950 	svcpl	0x004f4950
    30c4:	7070614d 	rsbsvc	r6, r0, sp, asr #2
    30c8:	5f676e69 	svcpl	0x00676e69
    30cc:	457b2974 	ldrbmi	r2, [fp, #-2420]!	; 0xfffff68c
    30d0:	31495458 	cmpcc	r9, r8, asr r4
    30d4:	47202c33 			; <UNDEFINED> instruction: 0x47202c33
    30d8:	434f4950 	movtmi	r4, #63824	; 0xf950
    30dc:	5047202c 	subpl	r2, r7, ip, lsr #32
    30e0:	505f4f49 	subspl	r4, pc, r9, asr #30
    30e4:	315f4e49 	cmpcc	pc, r9, asr #28
    30e8:	45202c33 	strmi	r2, [r0, #-3123]!	; 0xfffff3cd
    30ec:	31495458 	cmpcc	r9, r8, asr r4
    30f0:	52495f33 	subpl	r5, r9, #51, 30	; 0xcc
    30f4:	007d2051 	rsbseq	r2, sp, r1, asr r0
    30f8:	52434442 	subpl	r4, r3, #1107296256	; 0x42000000
    30fc:	69725400 	ldmdbvs	r2!, {sl, ip, lr}^
    3100:	72656767 	rsbvc	r6, r5, #27000832	; 0x19c0000
    3104:	7361435f 	cmnvc	r1, #2080374785	; 0x7c000001
    3108:	58450065 	stmdapl	r5, {r0, r2, r5, r6}^
    310c:	31314954 	teqcc	r1, r4, asr r9
    3110:	31314150 	teqcc	r1, r0, asr r1
    3114:	58452820 	stmdapl	r5, {r5, fp, sp}^
    3118:	475f4954 			; <UNDEFINED> instruction: 0x475f4954
    311c:	5f4f4950 	svcpl	0x004f4950
    3120:	7070614d 	rsbsvc	r6, r0, sp, asr #2
    3124:	5f676e69 	svcpl	0x00676e69
    3128:	457b2974 	ldrbmi	r2, [fp, #-2420]!	; 0xfffff68c
    312c:	31495458 	cmpcc	r9, r8, asr r4
    3130:	47202c31 			; <UNDEFINED> instruction: 0x47202c31
    3134:	414f4950 	cmpmi	pc, r0, asr r9	; <UNPREDICTABLE>
    3138:	5047202c 	subpl	r2, r7, ip, lsr #32
    313c:	505f4f49 	subspl	r4, pc, r9, asr #30
    3140:	315f4e49 	cmpcc	pc, r9, asr #28
    3144:	45202c31 	strmi	r2, [r0, #-3121]!	; 0xfffff3cf
    3148:	31495458 	cmpcc	r9, r8, asr r4
    314c:	52495f31 	subpl	r5, r9, #49, 30	; 0xc4
    3150:	007d2051 	rsbseq	r2, sp, r1, asr r0
    3154:	4c465f5f 	mcrrmi	15, 5, r5, r6, cr15
    3158:	5f323354 	svcpl	0x00323354
    315c:	5f534148 	svcpl	0x00534148
    3160:	45495551 	strbmi	r5, [r9, #-1361]	; 0xfffffaaf
    3164:	414e5f54 	cmpmi	lr, r4, asr pc
    3168:	205f5f4e 	subscs	r5, pc, lr, asr #30
    316c:	5f5f0031 	svcpl	0x005f0031
    3170:	4f53424f 	svcmi	0x0053424f
    3174:	4554454c 	ldrbmi	r4, [r4, #-1356]	; 0xfffffab4
    3178:	54414d5f 	strbpl	r4, [r1], #-3423	; 0xfffff2a1
    317c:	5f5f2048 	svcpl	0x005f2048
    3180:	4f53424f 	svcmi	0x0053424f
    3184:	4554454c 	ldrbmi	r4, [r4, #-1356]	; 0xfffffab4
    3188:	54414d5f 	strbpl	r4, [r1], #-3423	; 0xfffff2a1
    318c:	45445f48 	strbmi	r5, [r4, #-3912]	; 0xfffff0b8
    3190:	4c554146 	ldfmie	f4, [r5], {70}	; 0x46
    3194:	58450054 	stmdapl	r5, {r2, r4, r6}^
    3198:	545f4954 	ldrbpl	r4, [pc], #-2388	; 31a0 <_Min_Stack_Size+0x2da0>
    319c:	67676972 			; <UNDEFINED> instruction: 0x67676972
    31a0:	525f7265 	subspl	r7, pc, #1342177286	; 0x50000006
    31a4:	4e495349 	cdpmi	3, 4, cr5, cr9, cr9, {2}
    31a8:	00302047 	eorseq	r2, r0, r7, asr #32
    31ac:	444c5f5f 	strbmi	r5, [ip], #-3935	; 0xfffff0a1
    31b0:	485f4c42 	ldmdami	pc, {r1, r6, sl, fp, lr}^	; <UNPREDICTABLE>
    31b4:	495f5341 	ldmdbmi	pc, {r0, r6, r8, r9, ip, lr}^	; <UNPREDICTABLE>
    31b8:	4e49464e 	cdpmi	6, 4, cr4, cr9, cr14, {2}
    31bc:	5f595449 	svcpl	0x00595449
    31c0:	0031205f 	eorseq	r2, r1, pc, asr r0
    31c4:	544e4955 	strbpl	r4, [lr], #-2389	; 0xfffff6ab
    31c8:	5341465f 	movtpl	r4, #5727	; 0x165f
    31cc:	5f343654 	svcpl	0x00343654
    31d0:	2058414d 	subscs	r4, r8, sp, asr #2
    31d4:	555f5f28 	ldrbpl	r5, [pc, #-3880]	; 22b4 <_Min_Stack_Size+0x1eb4>
    31d8:	5f544e49 	svcpl	0x00544e49
    31dc:	54534146 	ldrbpl	r4, [r3], #-326	; 0xfffffeba
    31e0:	4d5f3436 	cfldrdmi	mvd3, [pc, #-216]	; 3110 <_Min_Stack_Size+0x2d10>
    31e4:	5f5f5841 	svcpl	0x005f5841
    31e8:	5f5f0029 	svcpl	0x005f0029
    31ec:	33434544 	movtcc	r4, #13636	; 0x3544
    31f0:	414d5f32 	cmpmi	sp, r2, lsr pc
    31f4:	205f5f58 	subscs	r5, pc, r8, asr pc	; <UNPREDICTABLE>
    31f8:	39392e39 	ldmdbcc	r9!, {r0, r3, r4, r5, r9, sl, fp, sp}
    31fc:	39393939 	ldmdbcc	r9!, {r0, r3, r4, r5, r8, fp, ip, sp}
    3200:	44363945 	ldrtmi	r3, [r6], #-2373	; 0xfffff6bb
    3204:	58450046 	stmdapl	r5, {r1, r2, r6}^
    3208:	20304954 	eorscs	r4, r0, r4, asr r9
    320c:	58450030 	stmdapl	r5, {r4, r5}^
    3210:	5f334954 	svcpl	0x00334954
    3214:	20515249 	subscs	r5, r1, r9, asr #4
    3218:	5f5f0039 	svcpl	0x005f0039
    321c:	33544c46 	cmpcc	r4, #17920	; 0x4600
    3220:	4d5f5832 	ldclmi	8, cr5, [pc, #-200]	; 3160 <_Min_Stack_Size+0x2d60>
    3224:	315f5841 	cmpcc	pc, r1, asr #16
    3228:	58455f30 	stmdapl	r5, {r4, r5, r8, r9, sl, fp, ip, lr}^
    322c:	205f5f50 	subscs	r5, pc, r0, asr pc	; <UNPREDICTABLE>
    3230:	00383033 	eorseq	r3, r8, r3, lsr r0
    3234:	52415f5f 	subpl	r5, r1, #380	; 0x17c
    3238:	52415f4d 	subpl	r5, r1, #308	; 0x134
    323c:	455f4843 	ldrbmi	r4, [pc, #-2115]	; 2a01 <_Min_Stack_Size+0x2601>
    3240:	495f5458 	ldmdbmi	pc, {r3, r4, r6, sl, ip, lr}^	; <UNPREDICTABLE>
    3244:	5f564944 	svcpl	0x00564944
    3248:	0031205f 	eorseq	r2, r1, pc, asr r0
    324c:	52415f5f 	subpl	r5, r1, #380	; 0x17c
    3250:	43505f4d 	cmpmi	r0, #308	; 0x134
    3254:	00312053 	eorseq	r2, r1, r3, asr r0
    3258:	75705f5f 	ldrbvc	r5, [r0, #-3935]!	; 0xfffff0a1
    325c:	5f206572 	svcpl	0x00206572
    3260:	7474615f 	ldrbtvc	r6, [r4], #-351	; 0xfffffea1
    3264:	75626972 	strbvc	r6, [r2, #-2418]!	; 0xfffff68e
    3268:	5f5f6574 	svcpl	0x005f6574
    326c:	5f5f2828 	svcpl	0x005f2828
    3270:	65727570 	ldrbvs	r7, [r2, #-1392]!	; 0xfffffa90
    3274:	29295f5f 	stmdbcs	r9!, {r0, r1, r2, r3, r4, r6, r8, r9, sl, fp, ip, lr}
    3278:	555f5f00 	ldrbpl	r5, [pc, #-3840]	; 2380 <_Min_Stack_Size+0x1f80>
    327c:	495f5151 	ldmdbmi	pc, {r0, r4, r6, r8, ip, lr}^	; <UNPREDICTABLE>
    3280:	5f544942 	svcpl	0x00544942
    3284:	0030205f 	eorseq	r2, r0, pc, asr r0
    3288:	49535f5f 	ldmdbmi	r3, {r0, r1, r2, r3, r4, r6, r8, r9, sl, fp, ip, lr}^
    328c:	54415f47 	strbpl	r5, [r1], #-3911	; 0xfffff0b9
    3290:	43494d4f 	movtmi	r4, #40271	; 0x9d4f
    3294:	4e494d5f 	mcrmi	13, 2, r4, cr9, cr15, {2}
    3298:	28205f5f 	stmdacs	r0!, {r0, r1, r2, r3, r4, r6, r8, r9, sl, fp, ip, lr}
    329c:	535f5f2d 	cmppl	pc, #45, 30	; 0xb4
    32a0:	415f4749 	cmpmi	pc, r9, asr #14
    32a4:	494d4f54 	stmdbmi	sp, {r2, r4, r6, r8, r9, sl, fp, lr}^
    32a8:	414d5f43 	cmpmi	sp, r3, asr #30
    32ac:	205f5f58 	subscs	r5, pc, r8, asr pc	; <UNPREDICTABLE>
    32b0:	2931202d 	ldmdbcs	r1!, {r0, r2, r3, r5, sp}
    32b4:	54584500 	ldrbpl	r4, [r8], #-1280	; 0xfffffb00
    32b8:	35203549 	strcc	r3, [r0, #-1353]!	; 0xfffffab7
    32bc:	555f5f00 	ldrbpl	r5, [pc, #-3840]	; 23c4 <_Min_Stack_Size+0x1fc4>
    32c0:	5f544e49 	svcpl	0x00544e49
    32c4:	5341454c 	movtpl	r4, #5452	; 0x154c
    32c8:	4d5f3854 	ldclmi	8, cr3, [pc, #-336]	; 3180 <_Min_Stack_Size+0x2d80>
    32cc:	5f5f5841 	svcpl	0x005f5841
    32d0:	66783020 	ldrbtvs	r3, [r8], -r0, lsr #32
    32d4:	425f0066 	subsmi	r0, pc, #102	; 0x66
    32d8:	575f4453 			; <UNDEFINED> instruction: 0x575f4453
    32dc:	52414843 	subpl	r4, r1, #4390912	; 0x430000
    32e0:	205f545f 	subscs	r5, pc, pc, asr r4	; <UNPREDICTABLE>
    32e4:	49564e00 	ldmdbmi	r6, {r9, sl, fp, lr}^
    32e8:	52495f43 	subpl	r5, r9, #268	; 0x10c
    32ec:	455f3651 	ldrbmi	r3, [pc, #-1617]	; 2ca3 <_Min_Stack_Size+0x28a3>
    32f0:	31495458 	cmpcc	r9, r8, asr r4
    32f4:	35315f30 	ldrcc	r5, [r1, #-3888]!	; 0xfffff0d0
    32f8:	414e455f 	cmpmi	lr, pc, asr r5
    32fc:	20454c42 	subcs	r4, r5, r2, asr #24
    3300:	49564e28 	ldmdbmi	r6, {r3, r5, r9, sl, fp, lr}^
    3304:	53495f43 	movtpl	r5, #40771	; 0x9f43
    3308:	20315245 	eorscs	r5, r1, r5, asr #4
    330c:	28203d7c 	stmdacs	r0!, {r2, r3, r4, r5, r6, r8, sl, fp, ip, sp}
    3310:	383c3c31 	ldmdacc	ip!, {r0, r4, r5, sl, fp, ip, sp}
    3314:	5f002929 	svcpl	0x00002929
    3318:	4e454552 	mcrmi	5, 2, r4, cr5, cr2, {2}
    331c:	504d5f54 	subpl	r5, sp, r4, asr pc
    3320:	5335505f 	teqpl	r5, #95	; 0x5f
    3324:	72747028 	rsbsvc	r7, r4, #40	; 0x28
    3328:	28282029 	stmdacs	r8!, {r0, r3, r5, sp}
    332c:	29727470 	ldmdbcs	r2!, {r4, r5, r6, sl, ip, sp, lr}^
    3330:	6d5f3e2d 	ldclvs	14, cr3, [pc, #-180]	; 3284 <_Min_Stack_Size+0x2e84>
    3334:	5f3e2d70 	svcpl	0x003e2d70
    3338:	29733570 	ldmdbcs	r3!, {r4, r5, r6, r8, sl, ip, sp}^
    333c:	47495300 	strbmi	r5, [r9, -r0, lsl #6]
    3340:	4f54415f 	svcmi	0x0054415f
    3344:	5f43494d 	svcpl	0x0043494d
    3348:	204e494d 	subcs	r4, lr, sp, asr #18
    334c:	5f5f2d28 	svcpl	0x005f2d28
    3350:	49445453 	stmdbmi	r4, {r0, r1, r4, r6, sl, ip, lr}^
    3354:	455f544e 	ldrbmi	r5, [pc, #-1102]	; 2f0e <_Min_Stack_Size+0x2b0e>
    3358:	49285058 	stmdbmi	r8!, {r3, r4, r6, ip, lr}
    335c:	4d5f544e 	cfldrdmi	mvd5, [pc, #-312]	; 322c <_Min_Stack_Size+0x2e2c>
    3360:	20295841 	eorcs	r5, r9, r1, asr #16
    3364:	2931202d 	ldmdbcs	r1!, {r0, r2, r3, r5, sp}
    3368:	6f635f00 	svcvs	0x00635f00
    336c:	65696b6f 	strbvs	r6, [r9, #-2927]!	; 0xfffff491
    3370:	4e495f00 	cdpmi	15, 4, cr5, cr9, cr0, {0}
    3374:	5f363154 	svcpl	0x00363154
    3378:	45445f54 	strbmi	r5, [r4, #-3924]	; 0xfffff0ac
    337c:	52414c43 	subpl	r4, r1, #17152	; 0x4300
    3380:	00204445 	eoreq	r4, r0, r5, asr #8
    3384:	7335705f 	teqvc	r5, #95	; 0x5f
    3388:	505f5f00 	subspl	r5, pc, r0, lsl #30
    338c:	6128544d 			; <UNDEFINED> instruction: 0x6128544d
    3390:	29736772 	ldmdbcs	r3!, {r1, r4, r5, r6, r8, r9, sl, sp, lr}^
    3394:	67726120 	ldrbvs	r6, [r2, -r0, lsr #2]!
    3398:	58450073 	stmdapl	r5, {r0, r1, r4, r5, r6}^
    339c:	50374954 	eorspl	r4, r7, r4, asr r9
    33a0:	28203742 	stmdacs	r0!, {r1, r6, r8, r9, sl, ip, sp}
    33a4:	49545845 	ldmdbmi	r4, {r0, r2, r6, fp, ip, lr}^
    33a8:	4950475f 	ldmdbmi	r0, {r0, r1, r2, r3, r4, r6, r8, r9, sl, lr}^
    33ac:	614d5f4f 	cmpvs	sp, pc, asr #30
    33b0:	6e697070 	mcrvs	0, 3, r7, cr9, cr0, {3}
    33b4:	29745f67 	ldmdbcs	r4!, {r0, r1, r2, r5, r6, r8, r9, sl, fp, ip, lr}^
    33b8:	5458457b 	ldrbpl	r4, [r8], #-1403	; 0xfffffa85
    33bc:	202c3749 	eorcs	r3, ip, r9, asr #14
    33c0:	4f495047 	svcmi	0x00495047
    33c4:	47202c42 	strmi	r2, [r0, -r2, asr #24]!
    33c8:	5f4f4950 	svcpl	0x004f4950
    33cc:	5f4e4950 	svcpl	0x004e4950
    33d0:	45202c37 	strmi	r2, [r0, #-3127]!	; 0xfffff3c9
    33d4:	37495458 	smlsldcc	r5, r9, r8, r4
    33d8:	5152495f 	cmppl	r2, pc, asr r9
    33dc:	5f007d20 	svcpl	0x00007d20
    33e0:	4946735f 	stmdbmi	r6, {r0, r1, r2, r3, r4, r6, r8, r9, ip, sp, lr}^
    33e4:	665f454c 	ldrbvs	r4, [pc], -ip, asr #10
    33e8:	00656b61 	rsbeq	r6, r5, r1, ror #22
    33ec:	4554415f 	ldrbmi	r4, [r4, #-351]	; 0xfffffea1
    33f0:	5f544958 	svcpl	0x00544958
    33f4:	54494e49 	strbpl	r4, [r9], #-3657	; 0xfffff1b7
    33f8:	4e5f7b20 	vnmlsmi.f64	d23, d15, d16
    33fc:	2c4c4c55 	mcrrcs	12, 5, r4, ip, cr5
    3400:	202c3020 	eorcs	r3, ip, r0, lsr #32
    3404:	554e5f7b 	strbpl	r5, [lr, #-3963]	; 0xfffff085
    3408:	2c7d4c4c 	ldclcs	12, cr4, [sp], #-304	; 0xfffffed0
    340c:	554e5f20 	strbpl	r5, [lr, #-3872]	; 0xfffff0e0
    3410:	007d4c4c 	rsbseq	r4, sp, ip, asr #24
    3414:	7364775f 	cmnvc	r4, #24903680	; 0x17c0000
    3418:	495f5f00 	ldmdbmi	pc, {r8, r9, sl, fp, ip, lr}^	; <UNPREDICTABLE>
    341c:	4c5f544e 	cfldrdmi	mvd5, [pc], {78}	; 0x4e
    3420:	54534145 	ldrbpl	r4, [r3], #-325	; 0xfffffebb
    3424:	575f3631 	smmlarpl	pc, r1, r6, r3	; <UNPREDICTABLE>
    3428:	48544449 	ldmdami	r4, {r0, r3, r6, sl, lr}^
    342c:	31205f5f 			; <UNDEFINED> instruction: 0x31205f5f
    3430:	5f5f0036 	svcpl	0x005f0036
    3434:	5f434544 	svcpl	0x00434544
    3438:	4c415645 	mcrrmi	6, 4, r5, r1, cr5
    343c:	54454d5f 	strbpl	r4, [r5], #-3423	; 0xfffff2a1
    3440:	5f444f48 	svcpl	0x00444f48
    3444:	0032205f 	eorseq	r2, r2, pc, asr r0
    3448:	4545525f 	strbmi	r5, [r5, #-607]	; 0xfffffda1
    344c:	435f544e 	cmpmi	pc, #1308622848	; 0x4e000000
    3450:	4b434548 	blmi	10d4978 <_Min_Stack_Size+0x10d4578>
    3454:	4749535f 	smlsldmi	r5, r9, pc, r3	; <UNPREDICTABLE>
    3458:	5f4c414e 	svcpl	0x004c414e
    345c:	28465542 	stmdacs	r6, {r1, r6, r8, sl, ip, lr}^
    3460:	29726176 	ldmdbcs	r2!, {r1, r2, r4, r5, r6, r8, sp, lr}^
    3464:	45525f20 	ldrbmi	r5, [r2, #-3872]	; 0xfffff0e0
    3468:	5f544e45 	svcpl	0x00544e45
    346c:	43454843 	movtmi	r4, #22595	; 0x5843
    3470:	6176284b 	cmnvs	r6, fp, asr #16
    3474:	5f202c72 	svcpl	0x00202c72
    3478:	6e676973 			; <UNDEFINED> instruction: 0x6e676973
    347c:	625f6c61 	subsvs	r6, pc, #24832	; 0x6100
    3480:	202c6675 	eorcs	r6, ip, r5, ror r6
    3484:	72616863 	rsbvc	r6, r1, #6488064	; 0x630000
    3488:	202c2a20 	eorcs	r2, ip, r0, lsr #20
    348c:	4545525f 	strbmi	r5, [r5, #-607]	; 0xfffffda1
    3490:	535f544e 	cmppl	pc, #1308622848	; 0x4e000000
    3494:	414e4749 	cmpmi	lr, r9, asr #14
    3498:	49535f4c 	ldmdbmi	r3, {r2, r3, r6, r8, r9, sl, fp, ip, lr}^
    349c:	202c455a 	eorcs	r4, ip, sl, asr r5
    34a0:	4e5f0029 	cdpmi	0, 5, cr0, cr15, cr9, {1}
    34a4:	494c5745 	stmdbmi	ip, {r0, r2, r6, r8, r9, sl, ip, lr}^
    34a8:	45565f42 	ldrbmi	r5, [r6, #-3906]	; 0xfffff0be
    34ac:	4f495352 	svcmi	0x00495352
    34b0:	3322204e 			; <UNDEFINED> instruction: 0x3322204e
    34b4:	302e302e 	eorcc	r3, lr, lr, lsr #32
    34b8:	49550022 	ldmdbmi	r5, {r1, r5}^
    34bc:	3233544e 	eorscc	r5, r3, #1308622848	; 0x4e000000
    34c0:	58414d5f 	stmdapl	r1, {r0, r1, r2, r3, r4, r6, r8, sl, fp, lr}^
    34c4:	5f5f2820 	svcpl	0x005f2820
    34c8:	544e4955 	strbpl	r4, [lr], #-2389	; 0xfffff6ab
    34cc:	4d5f3233 	lfmmi	f3, 2, [pc, #-204]	; 3408 <_Min_Stack_Size+0x3008>
    34d0:	5f5f5841 	svcpl	0x005f5841
    34d4:	735f0029 	cmpvc	pc, #41	; 0x29
    34d8:	665f6769 	ldrbvs	r6, [pc], -r9, ror #14
    34dc:	00636e75 	rsbeq	r6, r3, r5, ror lr
    34e0:	45445f5f 	strbmi	r5, [r4, #-3935]	; 0xfffff0a1
    34e4:	5f343643 	svcpl	0x00343643
    34e8:	4e425553 	mcrmi	5, 2, r5, cr2, cr3, {2}
    34ec:	414d524f 	cmpmi	sp, pc, asr #4
    34f0:	494d5f4c 	stmdbmi	sp, {r2, r3, r6, r8, r9, sl, fp, ip, lr}^
    34f4:	205f5f4e 	subscs	r5, pc, lr, asr #30
    34f8:	30302e30 	eorscc	r2, r0, r0, lsr lr
    34fc:	30303030 	eorscc	r3, r0, r0, lsr r0
    3500:	30303030 	eorscc	r3, r0, r0, lsr r0
    3504:	30303030 	eorscc	r3, r0, r0, lsr r0
    3508:	332d4531 			; <UNDEFINED> instruction: 0x332d4531
    350c:	44443338 	strbmi	r3, [r4], #-824	; 0xfffffcc8
    3510:	555f5f00 	ldrbpl	r5, [pc, #-3840]	; 2618 <_Min_Stack_Size+0x2218>
    3514:	41524653 	cmpmi	r2, r3, asr r6
    3518:	455f5443 	ldrbmi	r5, [pc, #-1091]	; 30dd <_Min_Stack_Size+0x2cdd>
    351c:	4c495350 	mcrrmi	3, 5, r5, r9, cr0
    3520:	5f5f4e4f 	svcpl	0x005f4e4f
    3524:	31783020 	cmncc	r8, r0, lsr #32
    3528:	55382d50 	ldrpl	r2, [r8, #-3408]!	; 0xfffff2b0
    352c:	4e005248 	cdpmi	2, 0, cr5, cr0, cr8, {2}
    3530:	204c4c55 	subcs	r4, ip, r5, asr ip
    3534:	6f762828 	svcvs	0x00762828
    3538:	2a206469 	bcs	81c6e4 <_Min_Stack_Size+0x81c2e4>
    353c:	00293029 	eoreq	r3, r9, r9, lsr #32
    3540:	4545525f 	strbmi	r5, [r5, #-607]	; 0xfffffda1
    3544:	435f544e 	cmpmi	pc, #1308622848	; 0x4e000000
    3548:	4b434548 	blmi	10d4a70 <_Min_Stack_Size+0x10d4670>
    354c:	28504d5f 	ldmdacs	r0, {r0, r1, r2, r3, r4, r6, r8, sl, fp, lr}^
    3550:	29726176 	ldmdbcs	r2!, {r1, r2, r4, r5, r6, r8, sp, lr}^
    3554:	45525f20 	ldrbmi	r5, [r2, #-3872]	; 0xfffff0e0
    3558:	5f544e45 	svcpl	0x00544e45
    355c:	43454843 	movtmi	r4, #22595	; 0x5843
    3560:	6176284b 	cmnvs	r6, fp, asr #16
    3564:	5f202c72 	svcpl	0x00202c72
    3568:	202c706d 	eorcs	r7, ip, sp, rrx
    356c:	75727473 	ldrbvc	r7, [r2, #-1139]!	; 0xfffffb8d
    3570:	5f207463 	svcpl	0x00207463
    3574:	6572706d 	ldrbvs	r7, [r2, #-109]!	; 0xffffff93
    3578:	2c2a2063 	stccs	0, cr2, [sl], #-396	; 0xfffffe74
    357c:	7a697320 	bvc	1a60204 <_Min_Stack_Size+0x1a5fe04>
    3580:	20666f65 	rsbcs	r6, r6, r5, ror #30
    3584:	7628282a 	strtvc	r2, [r8], -sl, lsr #16
    3588:	2d297261 	sfmcs	f7, 4, [r9, #-388]!	; 0xfffffe7c
    358c:	706d5f3e 	rsbvc	r5, sp, lr, lsr pc
    3590:	5f202c29 	svcpl	0x00202c29
    3594:	4e454552 	mcrmi	5, 2, r4, cr5, cr2, {2}
    3598:	4e495f54 	mcrmi	15, 2, r5, cr9, cr4, {2}
    359c:	4d5f5449 	cfldrdmi	mvd5, [pc, #-292]	; 3480 <_Min_Stack_Size+0x3080>
    35a0:	61762850 	cmnvs	r6, r0, asr r8
    35a4:	00292972 	eoreq	r2, r9, r2, ror r9
    35a8:	73615f5f 	cmnvc	r1, #380	; 0x17c
    35ac:	74726573 	ldrbtvc	r6, [r2], #-1395	; 0xfffffa8d
    35b0:	78655f73 	stmdavc	r5!, {r0, r1, r4, r5, r6, r8, r9, sl, fp, ip, lr}^
    35b4:	73756c63 	cmnvc	r5, #25344	; 0x6300
    35b8:	28657669 	stmdacs	r5!, {r0, r3, r5, r6, r9, sl, ip, sp, lr}^
    35bc:	292e2e2e 	stmdbcs	lr!, {r1, r2, r3, r5, r9, sl, fp, sp}
    35c0:	6c5f5f20 	mrrcvs	15, 2, r5, pc, cr0	; <UNPREDICTABLE>
    35c4:	5f6b636f 	svcpl	0x006b636f
    35c8:	6f6e6e61 	svcvs	0x006e6e61
    35cc:	65746174 	ldrbvs	r6, [r4, #-372]!	; 0xfffffe8c
    35d0:	73736128 	cmnvc	r3, #40, 2
    35d4:	5f747265 	svcpl	0x00747265
    35d8:	6c637865 	stclvs	8, cr7, [r3], #-404	; 0xfffffe6c
    35dc:	76697375 			; <UNDEFINED> instruction: 0x76697375
    35e0:	6f6c5f65 	svcvs	0x006c5f65
    35e4:	5f286b63 	svcpl	0x00286b63
    35e8:	5f41565f 	svcpl	0x0041565f
    35ec:	53475241 	movtpl	r5, #29249	; 0x7241
    35f0:	29295f5f 	stmdbcs	r9!, {r0, r1, r2, r3, r4, r6, r8, r9, sl, fp, ip, lr}
    35f4:	47464300 	strbmi	r4, [r6, -r0, lsl #6]
    35f8:	5f5f0052 	svcpl	0x005f0052
    35fc:	746e695f 	strbtvc	r6, [lr], #-2399	; 0xfffff6a1
    3600:	61656c5f 	cmnvs	r5, pc, asr ip
    3604:	32337473 	eorscc	r7, r3, #1929379840	; 0x73000000
    3608:	645f745f 	ldrbvs	r7, [pc], #-1119	; 3610 <_Min_Stack_Size+0x3210>
    360c:	6e696665 	cdpvs	6, 6, cr6, cr9, cr5, {3}
    3610:	31206465 			; <UNDEFINED> instruction: 0x31206465
    3614:	4c5f5f00 	mrrcmi	15, 0, r5, pc, cr0	; <UNPREDICTABLE>
    3618:	4343414c 	movtmi	r4, #12620	; 0x314c
    361c:	4d5f4d55 	ldclmi	13, cr4, [pc, #-340]	; 34d0 <_Min_Stack_Size+0x30d0>
    3620:	5f5f5841 	svcpl	0x005f5841
    3624:	37583020 	ldrbcc	r3, [r8, -r0, lsr #32]
    3628:	46464646 	strbmi	r4, [r6], -r6, asr #12
    362c:	46464646 	strbmi	r4, [r6], -r6, asr #12
    3630:	46464646 	strbmi	r4, [r6], -r6, asr #12
    3634:	50464646 	subpl	r4, r6, r6, asr #12
    3638:	4c31332d 	ldcmi	3, cr3, [r1], #-180	; 0xffffff4c
    363c:	5f004b4c 	svcpl	0x00004b4c
    3640:	7366666f 	cmnvc	r6, #116391936	; 0x6f00000
    3644:	45007465 	strmi	r7, [r0, #-1125]	; 0xfffffb9b
    3648:	31495458 	cmpcc	r9, r8, asr r4
    364c:	31435034 	cmpcc	r3, r4, lsr r0
    3650:	45282034 	strmi	r2, [r8, #-52]!	; 0xffffffcc
    3654:	5f495458 	svcpl	0x00495458
    3658:	4f495047 	svcmi	0x00495047
    365c:	70614d5f 	rsbvc	r4, r1, pc, asr sp
    3660:	676e6970 			; <UNDEFINED> instruction: 0x676e6970
    3664:	7b29745f 	blvc	a607e8 <_Min_Stack_Size+0xa603e8>
    3668:	49545845 	ldmdbmi	r4, {r0, r2, r6, fp, ip, lr}^
    366c:	202c3431 	eorcs	r3, ip, r1, lsr r4
    3670:	4f495047 	svcmi	0x00495047
    3674:	47202c43 	strmi	r2, [r0, -r3, asr #24]!
    3678:	5f4f4950 	svcpl	0x004f4950
    367c:	5f4e4950 	svcpl	0x004e4950
    3680:	202c3431 	eorcs	r3, ip, r1, lsr r4
    3684:	49545845 	ldmdbmi	r4, {r0, r2, r6, fp, ip, lr}^
    3688:	495f3431 	ldmdbmi	pc, {r0, r4, r5, sl, ip, sp}^	; <UNPREDICTABLE>
    368c:	7d205152 	stfvcs	f5, [r0, #-328]!	; 0xfffffeb8
    3690:	53425f00 	movtpl	r5, #12032	; 0x2f00
    3694:	54505f44 	ldrbpl	r5, [r0], #-3908	; 0xfffff0bc
    3698:	46494452 			; <UNDEFINED> instruction: 0x46494452
    369c:	5f545f46 	svcpl	0x00545f46
    36a0:	635f0020 	cmpvs	pc, #32
    36a4:	75627476 	strbvc	r7, [r2, #-1142]!	; 0xfffffb8a
    36a8:	58450066 	stmdapl	r5, {r1, r2, r5, r6}^
    36ac:	495f4954 	ldmdbmi	pc, {r2, r4, r6, r8, fp, lr}^	; <UNPREDICTABLE>
    36b0:	445f5152 	ldrbmi	r5, [pc], #-338	; 36b8 <_Min_Stack_Size+0x32b8>
    36b4:	41425349 	cmpmi	r2, r9, asr #6
    36b8:	3120454c 			; <UNDEFINED> instruction: 0x3120454c
    36bc:	555f5f00 	ldrbpl	r5, [pc, #-3840]	; 27c4 <_Min_Stack_Size+0x23c4>
    36c0:	5f524553 	svcpl	0x00524553
    36c4:	4542414c 	strbmi	r4, [r2, #-332]	; 0xfffffeb4
    36c8:	52505f4c 	subspl	r5, r0, #76, 30	; 0x130
    36cc:	58494645 	stmdapl	r9, {r0, r2, r6, r9, sl, lr}^
    36d0:	00205f5f 	eoreq	r5, r0, pc, asr pc
    36d4:	49555f5f 	ldmdbmi	r5, {r0, r1, r2, r3, r4, r6, r8, r9, sl, fp, ip, lr}^
    36d8:	3436544e 	ldrtcc	r5, [r6], #-1102	; 0xfffffbb2
    36dc:	58414d5f 	stmdapl	r1, {r0, r1, r2, r3, r4, r6, r8, sl, fp, lr}^
    36e0:	30205f5f 	eorcc	r5, r0, pc, asr pc
    36e4:	66666678 			; <UNDEFINED> instruction: 0x66666678
    36e8:	66666666 	strbtvs	r6, [r6], -r6, ror #12
    36ec:	66666666 	strbtvs	r6, [r6], -r6, ror #12
    36f0:	66666666 	strbtvs	r6, [r6], -r6, ror #12
    36f4:	4c4c5566 	cfstr64mi	mvdx5, [ip], {102}	; 0x66
    36f8:	45525f00 	ldrbmi	r5, [r2, #-3840]	; 0xfffff100
    36fc:	5f544e45 	svcpl	0x00544e45
    3700:	54525453 	ldrbpl	r5, [r2], #-1107	; 0xfffffbad
    3704:	4c5f4b4f 	mrrcmi	11, 4, r4, pc, cr15	; <UNPREDICTABLE>
    3708:	28545341 	ldmdacs	r4, {r0, r6, r8, r9, ip, lr}^
    370c:	29727470 	ldmdbcs	r2!, {r4, r5, r6, sl, ip, sp, lr}^
    3710:	70282820 	eorvc	r2, r8, r0, lsr #16
    3714:	2d297274 	sfmcs	f7, 4, [r9, #-464]!	; 0xfffffe30
    3718:	696d5f3e 	stmdbvs	sp!, {r1, r2, r3, r4, r5, r8, r9, sl, fp, ip, lr}^
    371c:	3e2d6373 	mcrcc	3, 1, r6, cr13, cr3, {3}
    3720:	7274735f 	rsbsvc	r7, r4, #2080374785	; 0x7c000001
    3724:	5f6b6f74 	svcpl	0x006b6f74
    3728:	7473616c 	ldrbtvc	r6, [r3], #-364	; 0xfffffe94
    372c:	58450029 	stmdapl	r5, {r0, r3, r5}^
    3730:	35314954 	ldrcc	r4, [r1, #-2388]!	; 0xfffff6ac
    3734:	35314150 	ldrcc	r4, [r1, #-336]!	; 0xfffffeb0
    3738:	58452820 	stmdapl	r5, {r5, fp, sp}^
    373c:	475f4954 			; <UNDEFINED> instruction: 0x475f4954
    3740:	5f4f4950 	svcpl	0x004f4950
    3744:	7070614d 	rsbsvc	r6, r0, sp, asr #2
    3748:	5f676e69 	svcpl	0x00676e69
    374c:	457b2974 	ldrbmi	r2, [fp, #-2420]!	; 0xfffff68c
    3750:	31495458 	cmpcc	r9, r8, asr r4
    3754:	47202c35 			; <UNDEFINED> instruction: 0x47202c35
    3758:	414f4950 	cmpmi	pc, r0, asr r9	; <UNPREDICTABLE>
    375c:	5047202c 	subpl	r2, r7, ip, lsr #32
    3760:	505f4f49 	subspl	r4, pc, r9, asr #30
    3764:	315f4e49 	cmpcc	pc, r9, asr #28
    3768:	45202c35 	strmi	r2, [r0, #-3125]!	; 0xfffff3cb
    376c:	31495458 	cmpcc	r9, r8, asr r4
    3770:	52495f35 	subpl	r5, r9, #53, 30	; 0xd4
    3774:	007d2051 	rsbseq	r2, sp, r1, asr r0
    3778:	626f695f 	rsbvs	r6, pc, #1556480	; 0x17c000
    377c:	525f0073 	subspl	r0, pc, #115	; 0x73
    3780:	544e4545 	strbpl	r4, [lr], #-1349	; 0xfffffabb
    3784:	494e495f 	stmdbmi	lr, {r0, r1, r2, r3, r4, r6, r8, fp, lr}^
    3788:	494d5f54 	stmdbmi	sp, {r2, r4, r6, r8, r9, sl, fp, ip, lr}^
    378c:	76284353 			; <UNDEFINED> instruction: 0x76284353
    3790:	20297261 	eorcs	r7, r9, r1, ror #4
    3794:	7b206f64 	blvc	81f52c <_Min_Stack_Size+0x81f12c>
    3798:	72747320 	rsbsvc	r7, r4, #32, 6	; 0x80000000
    379c:	20746375 	rsbscs	r6, r4, r5, ror r3
    37a0:	6565725f 	strbvs	r7, [r5, #-607]!	; 0xfffffda1
    37a4:	2a20746e 	bcs	820964 <_Min_Stack_Size+0x820564>
    37a8:	3d20725f 	sfmcc	f7, 4, [r0, #-380]!	; 0xfffffe84
    37ac:	61762820 	cmnvs	r6, r0, lsr #16
    37b0:	203b2972 	eorscs	r2, fp, r2, ror r9
    37b4:	3e2d725f 	mcrcc	2, 1, r7, cr13, cr15, {2}
    37b8:	73696d5f 	cmnvc	r9, #6080	; 0x17c0
    37bc:	5f3e2d63 	svcpl	0x003e2d63
    37c0:	74727473 	ldrbtvc	r7, [r2], #-1139	; 0xfffffb8d
    37c4:	6c5f6b6f 	mrrcvs	11, 6, r6, pc, cr15	; <UNPREDICTABLE>
    37c8:	20747361 	rsbscs	r7, r4, r1, ror #6
    37cc:	4e5f203d 	mrcmi	0, 2, r2, cr15, cr13, {1}
    37d0:	3b4c4c55 	blcc	131692c <_Min_Stack_Size+0x131652c>
    37d4:	2d725f20 	ldclcs	15, cr5, [r2, #-128]!	; 0xffffff80
    37d8:	696d5f3e 	stmdbvs	sp!, {r1, r2, r3, r4, r5, r8, r9, sl, fp, ip, lr}^
    37dc:	3e2d6373 	mcrcc	3, 1, r6, cr13, cr3, {3}
    37e0:	6c626d5f 	stclvs	13, cr6, [r2], #-380	; 0xfffffe84
    37e4:	735f6e65 	cmpvc	pc, #1616	; 0x650
    37e8:	65746174 	ldrbvs	r6, [r4, #-372]!	; 0xfffffe8c
    37ec:	635f5f2e 	cmpvs	pc, #46, 30	; 0xb8
    37f0:	746e756f 	strbtvc	r7, [lr], #-1391	; 0xfffffa91
    37f4:	30203d20 	eorcc	r3, r0, r0, lsr #26
    37f8:	725f203b 	subsvc	r2, pc, #59	; 0x3b
    37fc:	6d5f3e2d 	ldclvs	14, cr3, [pc, #-180]	; 3750 <_Min_Stack_Size+0x3350>
    3800:	2d637369 	stclcs	3, cr7, [r3, #-420]!	; 0xfffffe5c
    3804:	626d5f3e 	rsbvs	r5, sp, #62, 30	; 0xf8
    3808:	5f6e656c 	svcpl	0x006e656c
    380c:	74617473 	strbtvc	r7, [r1], #-1139	; 0xfffffb8d
    3810:	5f5f2e65 	svcpl	0x005f2e65
    3814:	756c6176 	strbvc	r6, [ip, #-374]!	; 0xfffffe8a
    3818:	5f5f2e65 	svcpl	0x005f2e65
    381c:	20686377 	rsbcs	r6, r8, r7, ror r3
    3820:	3b30203d 	blcc	c0b91c <_Min_Stack_Size+0xc0b51c>
    3824:	2d725f20 	ldclcs	15, cr5, [r2, #-128]!	; 0xffffff80
    3828:	696d5f3e 	stmdbvs	sp!, {r1, r2, r3, r4, r5, r8, r9, sl, fp, ip, lr}^
    382c:	3e2d6373 	mcrcc	3, 1, r6, cr13, cr3, {3}
    3830:	7463775f 	strbtvc	r7, [r3], #-1887	; 0xfffff8a1
    3834:	5f626d6f 	svcpl	0x00626d6f
    3838:	74617473 	strbtvc	r7, [r1], #-1139	; 0xfffffb8d
    383c:	5f5f2e65 	svcpl	0x005f2e65
    3840:	6e756f63 	cdpvs	15, 7, cr6, cr5, cr3, {3}
    3844:	203d2074 	eorscs	r2, sp, r4, ror r0
    3848:	5f203b30 	svcpl	0x00203b30
    384c:	5f3e2d72 	svcpl	0x003e2d72
    3850:	6373696d 	cmnvs	r3, #1785856	; 0x1b4000
    3854:	775f3e2d 	ldrbvc	r3, [pc, -sp, lsr #28]
    3858:	6d6f7463 	cfstrdvs	mvd7, [pc, #-396]!	; 36d4 <_Min_Stack_Size+0x32d4>
    385c:	74735f62 	ldrbtvc	r5, [r3], #-3938	; 0xfffff09e
    3860:	2e657461 	cdpcs	4, 6, cr7, cr5, cr1, {3}
    3864:	61765f5f 	cmnvs	r6, pc, asr pc
    3868:	2e65756c 	cdpcs	5, 6, cr7, cr5, cr12, {3}
    386c:	63775f5f 	cmnvs	r7, #380	; 0x17c
    3870:	203d2068 	eorscs	r2, sp, r8, rrx
    3874:	5f203b30 	svcpl	0x00203b30
    3878:	5f3e2d72 	svcpl	0x003e2d72
    387c:	6373696d 	cmnvs	r3, #1785856	; 0x1b4000
    3880:	6d5f3e2d 	ldclvs	14, cr3, [pc, #-180]	; 37d4 <_Min_Stack_Size+0x33d4>
    3884:	776f7462 	strbvc	r7, [pc, -r2, ror #8]!
    3888:	74735f63 	ldrbtvc	r5, [r3], #-3939	; 0xfffff09d
    388c:	2e657461 	cdpcs	4, 6, cr7, cr5, cr1, {3}
    3890:	6f635f5f 	svcvs	0x00635f5f
    3894:	20746e75 	rsbscs	r6, r4, r5, ror lr
    3898:	3b30203d 	blcc	c0b994 <_Min_Stack_Size+0xc0b594>
    389c:	2d725f20 	ldclcs	15, cr5, [r2, #-128]!	; 0xffffff80
    38a0:	696d5f3e 	stmdbvs	sp!, {r1, r2, r3, r4, r5, r8, r9, sl, fp, ip, lr}^
    38a4:	3e2d6373 	mcrcc	3, 1, r6, cr13, cr3, {3}
    38a8:	74626d5f 	strbtvc	r6, [r2], #-3423	; 0xfffff2a1
    38ac:	5f63776f 	svcpl	0x0063776f
    38b0:	74617473 	strbtvc	r7, [r1], #-1139	; 0xfffffb8d
    38b4:	5f5f2e65 	svcpl	0x005f2e65
    38b8:	756c6176 	strbvc	r6, [ip, #-374]!	; 0xfffffe8a
    38bc:	5f5f2e65 	svcpl	0x005f2e65
    38c0:	20686377 	rsbcs	r6, r8, r7, ror r3
    38c4:	3b30203d 	blcc	c0b9c0 <_Min_Stack_Size+0xc0b5c0>
    38c8:	2d725f20 	ldclcs	15, cr5, [r2, #-128]!	; 0xffffff80
    38cc:	696d5f3e 	stmdbvs	sp!, {r1, r2, r3, r4, r5, r8, r9, sl, fp, ip, lr}^
    38d0:	3e2d6373 	mcrcc	3, 1, r6, cr13, cr3, {3}
    38d4:	72626d5f 	rsbvc	r6, r2, #6080	; 0x17c0
    38d8:	5f6e656c 	svcpl	0x006e656c
    38dc:	74617473 	strbtvc	r7, [r1], #-1139	; 0xfffffb8d
    38e0:	5f5f2e65 	svcpl	0x005f2e65
    38e4:	6e756f63 	cdpvs	15, 7, cr6, cr5, cr3, {3}
    38e8:	203d2074 	eorscs	r2, sp, r4, ror r0
    38ec:	5f203b30 	svcpl	0x00203b30
    38f0:	5f3e2d72 	svcpl	0x003e2d72
    38f4:	6373696d 	cmnvs	r3, #1785856	; 0x1b4000
    38f8:	6d5f3e2d 	ldclvs	14, cr3, [pc, #-180]	; 384c <_Min_Stack_Size+0x344c>
    38fc:	656c7262 	strbvs	r7, [ip, #-610]!	; 0xfffffd9e
    3900:	74735f6e 	ldrbtvc	r5, [r3], #-3950	; 0xfffff092
    3904:	2e657461 	cdpcs	4, 6, cr7, cr5, cr1, {3}
    3908:	61765f5f 	cmnvs	r6, pc, asr pc
    390c:	2e65756c 	cdpcs	5, 6, cr7, cr5, cr12, {3}
    3910:	63775f5f 	cmnvs	r7, #380	; 0x17c
    3914:	203d2068 	eorscs	r2, sp, r8, rrx
    3918:	5f203b30 	svcpl	0x00203b30
    391c:	5f3e2d72 	svcpl	0x003e2d72
    3920:	6373696d 	cmnvs	r3, #1785856	; 0x1b4000
    3924:	6d5f3e2d 	ldclvs	14, cr3, [pc, #-180]	; 3878 <_Min_Stack_Size+0x3478>
    3928:	6f747262 	svcvs	0x00747262
    392c:	735f6377 	cmpvc	pc, #-603979775	; 0xdc000001
    3930:	65746174 	ldrbvs	r6, [r4, #-372]!	; 0xfffffe8c
    3934:	635f5f2e 	cmpvs	pc, #46, 30	; 0xb8
    3938:	746e756f 	strbtvc	r7, [lr], #-1391	; 0xfffffa91
    393c:	30203d20 	eorcc	r3, r0, r0, lsr #26
    3940:	725f203b 	subsvc	r2, pc, #59	; 0x3b
    3944:	6d5f3e2d 	ldclvs	14, cr3, [pc, #-180]	; 3898 <_Min_Stack_Size+0x3498>
    3948:	2d637369 	stclcs	3, cr7, [r3, #-420]!	; 0xfffffe5c
    394c:	626d5f3e 	rsbvs	r5, sp, #62, 30	; 0xf8
    3950:	776f7472 			; <UNDEFINED> instruction: 0x776f7472
    3954:	74735f63 	ldrbtvc	r5, [r3], #-3939	; 0xfffff09d
    3958:	2e657461 	cdpcs	4, 6, cr7, cr5, cr1, {3}
    395c:	61765f5f 	cmnvs	r6, pc, asr pc
    3960:	2e65756c 	cdpcs	5, 6, cr7, cr5, cr12, {3}
    3964:	63775f5f 	cmnvs	r7, #380	; 0x17c
    3968:	203d2068 	eorscs	r2, sp, r8, rrx
    396c:	5f203b30 	svcpl	0x00203b30
    3970:	5f3e2d72 	svcpl	0x003e2d72
    3974:	6373696d 	cmnvs	r3, #1785856	; 0x1b4000
    3978:	6d5f3e2d 	ldclvs	14, cr3, [pc, #-180]	; 38cc <_Min_Stack_Size+0x34cc>
    397c:	74727362 	ldrbtvc	r7, [r2], #-866	; 0xfffffc9e
    3980:	7363776f 	cmnvc	r3, #29097984	; 0x1bc0000
    3984:	6174735f 	cmnvs	r4, pc, asr r3
    3988:	5f2e6574 	svcpl	0x002e6574
    398c:	756f635f 	strbvc	r6, [pc, #-863]!	; 3635 <_Min_Stack_Size+0x3235>
    3990:	3d20746e 	cfstrscc	mvf7, [r0, #-440]!	; 0xfffffe48
    3994:	203b3020 	eorscs	r3, fp, r0, lsr #32
    3998:	3e2d725f 	mcrcc	2, 1, r7, cr13, cr15, {2}
    399c:	73696d5f 	cmnvc	r9, #6080	; 0x17c0
    39a0:	5f3e2d63 	svcpl	0x003e2d63
    39a4:	7273626d 	rsbsvc	r6, r3, #-805306362	; 0xd0000006
    39a8:	63776f74 	cmnvs	r7, #116, 30	; 0x1d0
    39ac:	74735f73 	ldrbtvc	r5, [r3], #-3955	; 0xfffff08d
    39b0:	2e657461 	cdpcs	4, 6, cr7, cr5, cr1, {3}
    39b4:	61765f5f 	cmnvs	r6, pc, asr pc
    39b8:	2e65756c 	cdpcs	5, 6, cr7, cr5, cr12, {3}
    39bc:	63775f5f 	cmnvs	r7, #380	; 0x17c
    39c0:	203d2068 	eorscs	r2, sp, r8, rrx
    39c4:	5f203b30 	svcpl	0x00203b30
    39c8:	5f3e2d72 	svcpl	0x003e2d72
    39cc:	6373696d 	cmnvs	r3, #1785856	; 0x1b4000
    39d0:	775f3e2d 	ldrbvc	r3, [pc, -sp, lsr #28]
    39d4:	6f747263 	svcvs	0x00747263
    39d8:	735f626d 	cmpvc	pc, #-805306362	; 0xd0000006
    39dc:	65746174 	ldrbvs	r6, [r4, #-372]!	; 0xfffffe8c
    39e0:	635f5f2e 	cmpvs	pc, #46, 30	; 0xb8
    39e4:	746e756f 	strbtvc	r7, [lr], #-1391	; 0xfffffa91
    39e8:	30203d20 	eorcc	r3, r0, r0, lsr #26
    39ec:	725f203b 	subsvc	r2, pc, #59	; 0x3b
    39f0:	6d5f3e2d 	ldclvs	14, cr3, [pc, #-180]	; 3944 <_Min_Stack_Size+0x3544>
    39f4:	2d637369 	stclcs	3, cr7, [r3, #-420]!	; 0xfffffe5c
    39f8:	63775f3e 	cmnvs	r7, #62, 30	; 0xf8
    39fc:	6d6f7472 	cfstrdvs	mvd7, [pc, #-456]!	; 383c <_Min_Stack_Size+0x343c>
    3a00:	74735f62 	ldrbtvc	r5, [r3], #-3938	; 0xfffff09e
    3a04:	2e657461 	cdpcs	4, 6, cr7, cr5, cr1, {3}
    3a08:	61765f5f 	cmnvs	r6, pc, asr pc
    3a0c:	2e65756c 	cdpcs	5, 6, cr7, cr5, cr12, {3}
    3a10:	63775f5f 	cmnvs	r7, #380	; 0x17c
    3a14:	203d2068 	eorscs	r2, sp, r8, rrx
    3a18:	5f203b30 	svcpl	0x00203b30
    3a1c:	5f3e2d72 	svcpl	0x003e2d72
    3a20:	6373696d 	cmnvs	r3, #1785856	; 0x1b4000
    3a24:	775f3e2d 	ldrbvc	r3, [pc, -sp, lsr #28]
    3a28:	74727363 	ldrbtvc	r7, [r2], #-867	; 0xfffffc9d
    3a2c:	73626d6f 	cmnvc	r2, #7104	; 0x1bc0
    3a30:	6174735f 	cmnvs	r4, pc, asr r3
    3a34:	5f2e6574 	svcpl	0x002e6574
    3a38:	756f635f 	strbvc	r6, [pc, #-863]!	; 36e1 <_Min_Stack_Size+0x32e1>
    3a3c:	3d20746e 	cfstrscc	mvf7, [r0, #-440]!	; 0xfffffe48
    3a40:	203b3020 	eorscs	r3, fp, r0, lsr #32
    3a44:	3e2d725f 	mcrcc	2, 1, r7, cr13, cr15, {2}
    3a48:	73696d5f 	cmnvc	r9, #6080	; 0x17c0
    3a4c:	5f3e2d63 	svcpl	0x003e2d63
    3a50:	72736377 	rsbsvc	r6, r3, #-603979775	; 0xdc000001
    3a54:	626d6f74 	rsbvs	r6, sp, #116, 30	; 0x1d0
    3a58:	74735f73 	ldrbtvc	r5, [r3], #-3955	; 0xfffff08d
    3a5c:	2e657461 	cdpcs	4, 6, cr7, cr5, cr1, {3}
    3a60:	61765f5f 	cmnvs	r6, pc, asr pc
    3a64:	2e65756c 	cdpcs	5, 6, cr7, cr5, cr12, {3}
    3a68:	63775f5f 	cmnvs	r7, #380	; 0x17c
    3a6c:	203d2068 	eorscs	r2, sp, r8, rrx
    3a70:	5f203b30 	svcpl	0x00203b30
    3a74:	5f3e2d72 	svcpl	0x003e2d72
    3a78:	6373696d 	cmnvs	r3, #1785856	; 0x1b4000
    3a7c:	6c5f3e2d 	mrrcvs	14, 2, r3, pc, cr13	; <UNPREDICTABLE>
    3a80:	5f613436 	svcpl	0x00613436
    3a84:	5b667562 	blpl	19a1014 <_Min_Stack_Size+0x19a0c14>
    3a88:	3d205d30 	stccc	13, cr5, [r0, #-192]!	; 0xffffff40
    3a8c:	305c2720 	subscc	r2, ip, r0, lsr #14
    3a90:	5f203b27 	svcpl	0x00203b27
    3a94:	5f3e2d72 	svcpl	0x003e2d72
    3a98:	6373696d 	cmnvs	r3, #1785856	; 0x1b4000
    3a9c:	675f3e2d 	ldrbvs	r3, [pc, -sp, lsr #28]
    3aa0:	61647465 	cmnvs	r4, r5, ror #8
    3aa4:	655f6574 	ldrbvs	r6, [pc, #-1396]	; 3538 <_Min_Stack_Size+0x3138>
    3aa8:	3d207272 	sfmcc	f7, 4, [r0, #-456]!	; 0xfffffe38
    3aac:	203b3020 	eorscs	r3, fp, r0, lsr #32
    3ab0:	6877207d 	ldmdavs	r7!, {r0, r2, r3, r4, r5, r6, sp}^
    3ab4:	20656c69 	rsbcs	r6, r5, r9, ror #24
    3ab8:	00293028 	eoreq	r3, r9, r8, lsr #32
    3abc:	4654415f 			; <UNDEFINED> instruction: 0x4654415f
    3ac0:	5f454c49 	svcpl	0x00454c49
    3ac4:	52554f53 	subspl	r4, r5, #332	; 0x14c
    3ac8:	49004543 	stmdbmi	r0, {r0, r1, r6, r8, sl, lr}
    3acc:	465f544e 	ldrbmi	r5, [pc], -lr, asr #8
    3ad0:	31545341 	cmpcc	r4, r1, asr #6
    3ad4:	494d5f36 	stmdbmi	sp, {r1, r2, r4, r5, r8, r9, sl, fp, ip, lr}^
    3ad8:	2d28204e 	stccs	0, cr2, [r8, #-312]!	; 0xfffffec8
    3adc:	4e495f5f 	mcrmi	15, 2, r5, cr9, cr15, {2}
    3ae0:	41465f54 	cmpmi	r6, r4, asr pc
    3ae4:	36315453 			; <UNDEFINED> instruction: 0x36315453
    3ae8:	58414d5f 	stmdapl	r1, {r0, r1, r2, r3, r4, r6, r8, sl, fp, lr}^
    3aec:	2d205f5f 	stccs	15, cr5, [r0, #-380]!	; 0xfffffe84
    3af0:	00293120 	eoreq	r3, r9, r0, lsr #2
    3af4:	54535f5f 	ldrbpl	r5, [r3], #-3935	; 0xfffff0a1
    3af8:	565f4344 	ldrbpl	r4, [pc], -r4, asr #6
    3afc:	49535245 	ldmdbmi	r3, {r0, r2, r6, r9, ip, lr}^
    3b00:	5f5f4e4f 	svcpl	0x005f4e4f
    3b04:	31303220 	teqcc	r0, r0, lsr #4
    3b08:	4c323131 	ldfmis	f3, [r2], #-196	; 0xffffff3c
    3b0c:	6d5f5f00 	ldclvs	15, cr5, [pc, #-0]	; 3b14 <_Min_Stack_Size+0x3714>
    3b10:	6f6c6c61 	svcvs	0x006c6c61
    3b14:	696c5f63 	stmdbvs	ip!, {r0, r1, r5, r6, r8, r9, sl, fp, ip, lr}^
    3b18:	5f20656b 	svcpl	0x0020656b
    3b1c:	7474615f 	ldrbtvc	r6, [r4], #-351	; 0xfffffea1
    3b20:	75626972 	strbvc	r6, [r2, #-2418]!	; 0xfffff68e
    3b24:	5f5f6574 	svcpl	0x005f6574
    3b28:	5f5f2828 	svcpl	0x005f2828
    3b2c:	6c6c616d 	stfvse	f6, [ip], #-436	; 0xfffffe4c
    3b30:	5f5f636f 	svcpl	0x005f636f
    3b34:	5f002929 	svcpl	0x00002929
    3b38:	7972745f 	ldmdbvc	r2!, {r0, r1, r2, r3, r4, r6, sl, ip, sp, lr}^
    3b3c:	6b636f6c 	blvs	18df8f4 <_Min_Stack_Size+0x18df4f4>
    3b40:	68735f73 	ldmdavs	r3!, {r0, r1, r4, r5, r6, r8, r9, sl, fp, ip, lr}^
    3b44:	64657261 	strbtvs	r7, [r5], #-609	; 0xfffffd9f
    3b48:	2e2e2e28 	cdpcs	14, 2, cr2, cr14, cr8, {1}
    3b4c:	5f5f2029 	svcpl	0x005f2029
    3b50:	6b636f6c 	blvs	18df908 <_Min_Stack_Size+0x18df508>
    3b54:	6e6e615f 	mcrvs	1, 3, r6, cr14, cr15, {2}
    3b58:	7461746f 	strbtvc	r7, [r1], #-1135	; 0xfffffb91
    3b5c:	68732865 	ldmdavs	r3!, {r0, r2, r5, r6, fp, sp}^
    3b60:	64657261 	strbtvs	r7, [r5], #-609	; 0xfffffd9f
    3b64:	7972745f 	ldmdbvc	r2!, {r0, r1, r2, r3, r4, r6, sl, ip, sp, lr}^
    3b68:	6b636f6c 	blvs	18df920 <_Min_Stack_Size+0x18df520>
    3b6c:	6e75665f 	mrcvs	6, 3, r6, cr5, cr15, {2}
    3b70:	6f697463 	svcvs	0x00697463
    3b74:	5f5f286e 	svcpl	0x005f286e
    3b78:	415f4156 	cmpmi	pc, r6, asr r1	; <UNPREDICTABLE>
    3b7c:	5f534752 	svcpl	0x00534752
    3b80:	0029295f 	eoreq	r2, r9, pc, asr r9
    3b84:	4e495f5f 	mcrmi	15, 2, r5, cr9, cr15, {2}
    3b88:	454c5f54 	strbmi	r5, [ip, #-3924]	; 0xfffff0ac
    3b8c:	38545341 	ldmdacc	r4, {r0, r6, r8, r9, ip, lr}^
    3b90:	58414d5f 	stmdapl	r1, {r0, r1, r2, r3, r4, r6, r8, sl, fp, lr}^
    3b94:	30205f5f 	eorcc	r5, r0, pc, asr pc
    3b98:	00663778 	rsbeq	r3, r6, r8, ror r7
    3b9c:	43475f5f 	movtmi	r5, #32607	; 0x7f5f
    3ba0:	54415f43 	strbpl	r5, [r1], #-3907	; 0xfffff0bd
    3ba4:	43494d4f 	movtmi	r4, #40271	; 0x9d4f
    3ba8:	494f505f 	stmdbmi	pc, {r0, r1, r2, r3, r4, r6, ip, lr}^	; <UNPREDICTABLE>
    3bac:	5245544e 	subpl	r5, r5, #1308622848	; 0x4e000000
    3bb0:	434f4c5f 	movtmi	r4, #64607	; 0xfc5f
    3bb4:	52465f4b 	subpl	r5, r6, #300	; 0x12c
    3bb8:	32204545 	eorcc	r4, r0, #289406976	; 0x11400000
    3bbc:	415f5f00 	cmpmi	pc, r0, lsl #30
    3bc0:	465f4d52 			; <UNDEFINED> instruction: 0x465f4d52
    3bc4:	55544145 	ldrbpl	r4, [r4, #-325]	; 0xfffffebb
    3bc8:	515f4552 	cmppl	pc, r2, asr r5	; <UNPREDICTABLE>
    3bcc:	20544942 	subscs	r4, r4, r2, asr #18
    3bd0:	5f5f0031 	svcpl	0x005f0031
    3bd4:	5f4d5241 	svcpl	0x004d5241
    3bd8:	54414546 	strbpl	r4, [r1], #-1350	; 0xfffffaba
    3bdc:	5f455255 	svcpl	0x00455255
    3be0:	205a4c43 	subscs	r4, sl, r3, asr #24
    3be4:	5f5f0031 	svcpl	0x005f0031
    3be8:	535f4343 	cmppl	pc, #201326593	; 0xc000001
    3bec:	4f505055 	svcmi	0x00505055
    3bf0:	5f535452 	svcpl	0x00535452
    3bf4:	4e524157 	mrcmi	1, 2, r4, cr2, cr7, {2}
    3bf8:	20474e49 	subcs	r4, r7, r9, asr #28
    3bfc:	5f5f0031 	svcpl	0x005f0031
    3c00:	4d4f5441 	cfstrdmi	mvd5, [pc, #-260]	; 3b04 <_Min_Stack_Size+0x3704>
    3c04:	415f4349 	cmpmi	pc, r9, asr #6
    3c08:	49555143 	ldmdbmi	r5, {r0, r1, r6, r8, ip, lr}^
    3c0c:	32204552 	eorcc	r4, r0, #343932928	; 0x14800000
    3c10:	49564e00 	ldmdbmi	r6, {r9, sl, fp, lr}^
    3c14:	52495f43 	subpl	r5, r9, #268	; 0x10c
    3c18:	455f3651 	ldrbmi	r3, [pc, #-1617]	; 35cf <_Min_Stack_Size+0x31cf>
    3c1c:	33495458 	movtcc	r5, #37976	; 0x9458
    3c20:	414e455f 	cmpmi	lr, pc, asr r5
    3c24:	20454c42 	subcs	r4, r5, r2, asr #24
    3c28:	49564e28 	ldmdbmi	r6, {r3, r5, r9, sl, fp, lr}^
    3c2c:	53495f43 	movtpl	r5, #40771	; 0x9f43
    3c30:	20305245 	eorscs	r5, r0, r5, asr #4
    3c34:	28203d7c 	stmdacs	r0!, {r2, r3, r4, r5, r6, r8, sl, fp, ip, sp}
    3c38:	393c3c31 	ldmdbcc	ip!, {r0, r4, r5, sl, fp, ip, sp}
    3c3c:	5f002929 	svcpl	0x00002929
    3c40:	636f6c5f 	cmnvs	pc, #24320	; 0x5f00
    3c44:	735f736b 	cmpvc	pc, #-1409286143	; 0xac000001
    3c48:	65726168 	ldrbvs	r6, [r2, #-360]!	; 0xfffffe98
    3c4c:	2e2e2864 	cdpcs	8, 2, cr2, cr14, cr4, {3}
    3c50:	5f20292e 	svcpl	0x0020292e
    3c54:	636f6c5f 	cmnvs	pc, #24320	; 0x5f00
    3c58:	6e615f6b 	cdpvs	15, 6, cr5, cr1, cr11, {3}
    3c5c:	61746f6e 	cmnvs	r4, lr, ror #30
    3c60:	73286574 			; <UNDEFINED> instruction: 0x73286574
    3c64:	65726168 	ldrbvs	r6, [r2, #-360]!	; 0xfffffe98
    3c68:	6f6c5f64 	svcvs	0x006c5f64
    3c6c:	665f6b63 	ldrbvs	r6, [pc], -r3, ror #22
    3c70:	74636e75 	strbtvc	r6, [r3], #-3701	; 0xfffff18b
    3c74:	286e6f69 	stmdacs	lr!, {r0, r3, r5, r6, r8, r9, sl, fp, sp, lr}^
    3c78:	41565f5f 	cmpmi	r6, pc, asr pc
    3c7c:	4752415f 			; <UNDEFINED> instruction: 0x4752415f
    3c80:	295f5f53 	ldmdbcs	pc, {r0, r1, r4, r6, r8, r9, sl, fp, ip, lr}^	; <UNPREDICTABLE>
    3c84:	564e0029 	strbpl	r0, [lr], -r9, lsr #32
    3c88:	495f4349 	ldmdbmi	pc, {r0, r3, r6, r8, r9, lr}^	; <UNPREDICTABLE>
    3c8c:	30524553 	subscc	r4, r2, r3, asr r5
    3c90:	76282a20 	strtvc	r2, [r8], -r0, lsr #20
    3c94:	74616c6f 	strbtvc	r6, [r1], #-3183	; 0xfffff391
    3c98:	20656c69 	rsbcs	r6, r5, r9, ror #24
    3c9c:	746e6975 	strbtvc	r6, [lr], #-2421	; 0xfffff68b
    3ca0:	745f3233 	ldrbvc	r3, [pc], #-563	; 3ca8 <_Min_Stack_Size+0x38a8>
    3ca4:	28292a20 	stmdacs	r9!, {r5, r9, fp, sp}
    3ca8:	4349564e 	movtmi	r5, #38478	; 0x964e
    3cac:	5341425f 	movtpl	r4, #4703	; 0x125f
    3cb0:	202b2045 	eorcs	r2, fp, r5, asr #32
    3cb4:	29307830 	ldmdbcs	r0!, {r4, r5, fp, ip, sp, lr}
    3cb8:	495f5f00 	ldmdbmi	pc, {r8, r9, sl, fp, ip, lr}^	; <UNPREDICTABLE>
    3cbc:	3631544e 	ldrtcc	r5, [r1], -lr, asr #8
    3cc0:	22682220 	rsbcs	r2, r8, #32, 4
    3cc4:	736e7500 	cmnvc	lr, #0, 10
    3cc8:	656e6769 	strbvs	r6, [lr, #-1897]!	; 0xfffff897
    3ccc:	69732064 	ldmdbvs	r3!, {r2, r5, r6, sp}^
    3cd0:	64656e67 	strbtvs	r6, [r5], #-3687	; 0xfffff199
    3cd4:	555f5f00 	ldrbpl	r5, [pc, #-3840]	; 2ddc <_Min_Stack_Size+0x29dc>
    3cd8:	36544e49 	ldrbcc	r4, [r4], -r9, asr #28
    3cdc:	59545f34 	ldmdbpl	r4, {r2, r4, r5, r8, r9, sl, fp, ip, lr}^
    3ce0:	5f5f4550 	svcpl	0x005f4550
    3ce4:	6e6f6c20 	cdpvs	12, 6, cr6, cr15, cr0, {1}
    3ce8:	6f6c2067 	svcvs	0x006c2067
    3cec:	7520676e 	strvc	r6, [r0, #-1902]!	; 0xfffff892
    3cf0:	6769736e 	strbvs	r7, [r9, -lr, ror #6]!
    3cf4:	2064656e 	rsbcs	r6, r4, lr, ror #10
    3cf8:	00746e69 	rsbseq	r6, r4, r9, ror #28
    3cfc:	544e495f 	strbpl	r4, [lr], #-2399	; 0xfffff6a1
    3d00:	5f525450 	svcpl	0x00525450
    3d04:	495f5145 	ldmdbmi	pc, {r0, r2, r6, r8, ip, lr}^	; <UNPREDICTABLE>
    3d08:	0020544e 	eoreq	r5, r0, lr, asr #8
    3d0c:	52415f5f 	subpl	r5, r1, #380	; 0x17c
    3d10:	49535f4d 	ldmdbmi	r3, {r0, r2, r3, r6, r8, r9, sl, fp, ip, lr}^
    3d14:	464f455a 			; <UNDEFINED> instruction: 0x464f455a
    3d18:	4843575f 	stmdami	r3, {r0, r1, r2, r3, r4, r6, r8, r9, sl, ip, lr}^
    3d1c:	545f5241 	ldrbpl	r5, [pc], #-577	; 3d24 <_Min_Stack_Size+0x3924>
    3d20:	5f003420 	svcpl	0x00003420
    3d24:	544c465f 	strbpl	r4, [ip], #-1631	; 0xfffff9a1
    3d28:	5f583233 	svcpl	0x00583233
    3d2c:	5f58414d 	svcpl	0x0058414d
    3d30:	5f505845 	svcpl	0x00505845
    3d34:	3031205f 	eorscc	r2, r1, pc, asr r0
    3d38:	5f003432 	svcpl	0x00003432
    3d3c:	7361685f 	cmnvc	r1, #6225920	; 0x5f0000
    3d40:	636e695f 	cmnvs	lr, #1556480	; 0x17c000
    3d44:	6564756c 	strbvs	r7, [r4, #-1388]!	; 0xfffffa94
    3d48:	52545328 	subspl	r5, r4, #40, 6	; 0xa0000000
    3d4c:	5f5f2029 	svcpl	0x005f2029
    3d50:	5f736168 	svcpl	0x00736168
    3d54:	6c636e69 	stclvs	14, cr6, [r3], #-420	; 0xfffffe5c
    3d58:	5f656475 	svcpl	0x00656475
    3d5c:	5453285f 	ldrbpl	r2, [r3], #-2143	; 0xfffff7a1
    3d60:	4e002952 			; <UNDEFINED> instruction: 0x4e002952
    3d64:	5f434956 	svcpl	0x00434956
    3d68:	36515249 	ldrbcc	r5, [r1], -r9, asr #4
    3d6c:	5458455f 	ldrbpl	r4, [r8], #-1375	; 0xfffffaa1
    3d70:	395f3549 	ldmdbcc	pc, {r0, r3, r6, r8, sl, ip, sp}^	; <UNPREDICTABLE>
    3d74:	5349445f 	movtpl	r4, #37983	; 0x945f
    3d78:	454c4241 	strbmi	r4, [ip, #-577]	; 0xfffffdbf
    3d7c:	564e2820 	strbpl	r2, [lr], -r0, lsr #16
    3d80:	495f4349 	ldmdbmi	pc, {r0, r3, r6, r8, r9, lr}^	; <UNPREDICTABLE>
    3d84:	30524543 	subscc	r4, r2, r3, asr #10
    3d88:	203d7c20 	eorscs	r7, sp, r0, lsr #24
    3d8c:	3c3c3128 	ldfccs	f3, [ip], #-160	; 0xffffff60
    3d90:	29293332 	stmdbcs	r9!, {r1, r4, r5, r8, r9, ip, sp}
    3d94:	555f5f00 	ldrbpl	r5, [pc, #-3840]	; 2e9c <_Min_Stack_Size+0x2a9c>
    3d98:	5f544e49 	svcpl	0x00544e49
    3d9c:	5341454c 	movtpl	r4, #5452	; 0x154c
    3da0:	5f323354 	svcpl	0x00323354
    3da4:	5f58414d 	svcpl	0x0058414d
    3da8:	7830205f 	ldmdavc	r0!, {r0, r1, r2, r3, r4, r6, sp}
    3dac:	66666666 	strbtvs	r6, [r6], -r6, ror #12
    3db0:	66666666 	strbtvs	r6, [r6], -r6, ror #12
    3db4:	5f004c55 	svcpl	0x00004c55
    3db8:	4c42445f 	cfstrdmi	mvd4, [r2], {95}	; 0x5f
    3dbc:	5350455f 	cmppl	r0, #398458880	; 0x17c00000
    3dc0:	4e4f4c49 	cdpmi	12, 4, cr4, cr15, cr9, {2}
    3dc4:	28205f5f 	stmdacs	r0!, {r0, r1, r2, r3, r4, r6, r8, r9, sl, fp, ip, lr}
    3dc8:	756f6428 	strbvc	r6, [pc, #-1064]!	; 39a8 <_Min_Stack_Size+0x35a8>
    3dcc:	29656c62 	stmdbcs	r5!, {r1, r5, r6, sl, fp, sp, lr}^
    3dd0:	32322e32 	eorscc	r2, r2, #800	; 0x320
    3dd4:	36343430 			; <UNDEFINED> instruction: 0x36343430
    3dd8:	32393430 	eorscc	r3, r9, #48, 8	; 0x30000000
    3ddc:	31333035 	teqcc	r3, r5, lsr r0
    3de0:	2d653133 	stfcse	f3, [r5, #-204]!	; 0xffffff34
    3de4:	294c3631 	stmdbcs	ip, {r0, r4, r5, r9, sl, ip, sp}^
    3de8:	6c5f5f00 	mrrcvs	15, 0, r5, pc, cr0	; <UNPREDICTABLE>
    3dec:	5f6b636f 	svcpl	0x006b636f
    3df0:	75716361 	ldrbvc	r6, [r1, #-865]!	; 0xfffffc9f
    3df4:	28657269 	stmdacs	r5!, {r0, r3, r5, r6, r9, ip, sp, lr}^
    3df8:	6b636f6c 	blvs	18dfbb0 <_Min_Stack_Size+0x18df7b0>
    3dfc:	28282029 	stmdacs	r8!, {r0, r3, r5, sp}
    3e00:	64696f76 	strbtvs	r6, [r9], #-3958	; 0xfffff08a
    3e04:	29302029 	ldmdbcs	r0!, {r0, r3, r5, sp}
    3e08:	4c5f5f00 	mrrcmi	15, 0, r5, pc, cr0	; <UNPREDICTABLE>
    3e0c:	43415246 	movtmi	r5, #4678	; 0x1246
    3e10:	494d5f54 	stmdbmi	sp, {r2, r4, r6, r8, r9, sl, fp, ip, lr}^
    3e14:	205f5f4e 	subscs	r5, pc, lr, asr #30
    3e18:	2e302d28 	cdpcs	13, 3, cr2, cr0, cr8, {1}
    3e1c:	2d524c35 	ldclcs	12, cr4, [r2, #-212]	; 0xffffff2c
    3e20:	4c352e30 	ldcmi	14, cr2, [r5], #-192	; 0xffffff40
    3e24:	47002952 	smlsdmi	r0, r2, r9, r2
    3e28:	5f4f4950 	svcpl	0x004f4950
    3e2c:	45455053 	strbmi	r5, [r5, #-83]	; 0xffffffad
    3e30:	30355f44 	eorscc	r5, r5, r4, asr #30
    3e34:	7830204d 	ldmdavc	r0!, {r0, r2, r3, r6, sp}
    3e38:	30303030 	eorscc	r3, r0, r0, lsr r0
    3e3c:	33303030 	teqcc	r0, #48	; 0x30
    3e40:	525f0075 	subspl	r0, pc, #117	; 0x75
    3e44:	544e4545 	strbpl	r4, [lr], #-1349	; 0xfffffabb
    3e48:	5343575f 	movtpl	r5, #14175	; 0x375f
    3e4c:	4d4f5452 	cfstrdmi	mvd5, [pc, #-328]	; 3d0c <_Min_Stack_Size+0x390c>
    3e50:	535f5342 	cmppl	pc, #134217729	; 0x8000001
    3e54:	45544154 	ldrbmi	r4, [r4, #-340]	; 0xfffffeac
    3e58:	72747028 	rsbsvc	r7, r4, #40	; 0x28
    3e5c:	28282029 	stmdacs	r8!, {r0, r3, r5, sp}
    3e60:	29727470 	ldmdbcs	r2!, {r4, r5, r6, sl, ip, sp, lr}^
    3e64:	6d5f3e2d 	ldclvs	14, cr3, [pc, #-180]	; 3db8 <_Min_Stack_Size+0x39b8>
    3e68:	2d637369 	stclcs	3, cr7, [r3, #-420]!	; 0xfffffe5c
    3e6c:	63775f3e 	cmnvs	r7, #62, 30	; 0xf8
    3e70:	6f747273 	svcvs	0x00747273
    3e74:	5f73626d 	svcpl	0x0073626d
    3e78:	74617473 	strbtvc	r7, [r1], #-1139	; 0xfffffb8d
    3e7c:	5f002965 	svcpl	0x00002965
    3e80:	544e495f 	strbpl	r4, [lr], #-2399	; 0xfffff6a1
    3e84:	41454c5f 	cmpmi	r5, pc, asr ip
    3e88:	34365453 	ldrtcc	r5, [r6], #-1107	; 0xfffffbad
    3e8c:	4449575f 	strbmi	r5, [r9], #-1887	; 0xfffff8a1
    3e90:	5f5f4854 	svcpl	0x005f4854
    3e94:	00343620 	eorseq	r3, r4, r0, lsr #12
    3e98:	4c465f5f 	mcrrmi	15, 5, r5, r6, cr15
    3e9c:	41485f54 	cmpmi	r8, r4, asr pc
    3ea0:	4e495f53 	mcrmi	15, 2, r5, cr9, cr3, {2}
    3ea4:	494e4946 	stmdbmi	lr, {r1, r2, r6, r8, fp, lr}^
    3ea8:	5f5f5954 	svcpl	0x005f5954
    3eac:	5f003120 	svcpl	0x00003120
    3eb0:	4e454552 	mcrmi	5, 2, r4, cr5, cr2, {2}
    3eb4:	4c475f54 	mcrrmi	15, 5, r5, r7, cr4
    3eb8:	4c41424f 	sfmmi	f4, 2, [r1], {79}	; 0x4f
    3ebc:	4554415f 	ldrbmi	r4, [r4, #-351]	; 0xfffffea1
    3ec0:	20544958 	subscs	r4, r4, r8, asr r9
    3ec4:	5f5f0031 	svcpl	0x005f0031
    3ec8:	55434341 	strbpl	r4, [r3, #-833]	; 0xfffffcbf
    3ecc:	414d5f4d 	cmpmi	sp, sp, asr #30
    3ed0:	205f5f58 	subscs	r5, pc, r8, asr pc	; <UNPREDICTABLE>
    3ed4:	46375830 			; <UNDEFINED> instruction: 0x46375830
    3ed8:	46464646 	strbmi	r4, [r6], -r6, asr #12
    3edc:	2d504646 	ldclcs	6, cr4, [r0, #-280]	; 0xfffffee8
    3ee0:	004b3531 	subeq	r3, fp, r1, lsr r5
    3ee4:	4e495f5f 	mcrmi	15, 2, r5, cr9, cr15, {2}
    3ee8:	4d5f3854 	ldclmi	8, cr3, [pc, #-336]	; 3da0 <_Min_Stack_Size+0x39a0>
    3eec:	5f5f5841 	svcpl	0x005f5841
    3ef0:	37783020 	ldrbcc	r3, [r8, -r0, lsr #32]!
    3ef4:	58450066 	stmdapl	r5, {r1, r2, r5, r6}^
    3ef8:	33314954 	teqcc	r1, #84, 18	; 0x150000
    3efc:	33314250 	teqcc	r1, #80, 4
    3f00:	58452820 	stmdapl	r5, {r5, fp, sp}^
    3f04:	475f4954 			; <UNDEFINED> instruction: 0x475f4954
    3f08:	5f4f4950 	svcpl	0x004f4950
    3f0c:	7070614d 	rsbsvc	r6, r0, sp, asr #2
    3f10:	5f676e69 	svcpl	0x00676e69
    3f14:	457b2974 	ldrbmi	r2, [fp, #-2420]!	; 0xfffff68c
    3f18:	31495458 	cmpcc	r9, r8, asr r4
    3f1c:	47202c33 			; <UNDEFINED> instruction: 0x47202c33
    3f20:	424f4950 	submi	r4, pc, #80, 18	; 0x140000
    3f24:	5047202c 	subpl	r2, r7, ip, lsr #32
    3f28:	505f4f49 	subspl	r4, pc, r9, asr #30
    3f2c:	315f4e49 	cmpcc	pc, r9, asr #28
    3f30:	45202c33 	strmi	r2, [r0, #-3123]!	; 0xfffff3cd
    3f34:	31495458 	cmpcc	r9, r8, asr r4
    3f38:	52495f33 	subpl	r5, r9, #51, 30	; 0xcc
    3f3c:	007d2051 	rsbseq	r2, sp, r1, asr r0
    3f40:	43475f5f 	movtmi	r5, #32607	; 0x7f5f
    3f44:	41485f43 	cmpmi	r8, r3, asr #30
    3f48:	445f4556 	ldrbmi	r4, [pc], #-1366	; 3f50 <_Min_Stack_Size+0x3b50>
    3f4c:	46524157 			; <UNDEFINED> instruction: 0x46524157
    3f50:	46435f32 			; <UNDEFINED> instruction: 0x46435f32
    3f54:	53415f49 	movtpl	r5, #8009	; 0x1f49
    3f58:	0031204d 	eorseq	r2, r1, sp, asr #32
    3f5c:	695f5f5f 	ldmdbvs	pc, {r0, r1, r2, r3, r4, r6, r8, r9, sl, fp, ip, lr}^	; <UNPREDICTABLE>
    3f60:	5f38746e 	svcpl	0x0038746e
    3f64:	65645f74 	strbvs	r5, [r4, #-3956]!	; 0xfffff08c
    3f68:	656e6966 	strbvs	r6, [lr, #-2406]!	; 0xfffff69a
    3f6c:	00312064 	eorseq	r2, r1, r4, rrx
    3f70:	46535f5f 	usaxmi	r5, r3, pc	; <UNPREDICTABLE>
    3f74:	54434152 	strbpl	r4, [r3], #-338	; 0xfffffeae
    3f78:	4e494d5f 	mcrmi	13, 2, r4, cr9, cr15, {2}
    3f7c:	28205f5f 	stmdacs	r0!, {r0, r1, r2, r3, r4, r6, r8, r9, sl, fp, ip, lr}
    3f80:	352e302d 	strcc	r3, [lr, #-45]!	; 0xffffffd3
    3f84:	302d5248 	eorcc	r5, sp, r8, asr #4
    3f88:	5248352e 	subpl	r3, r8, #192937984	; 0xb800000
    3f8c:	5f5f0029 	svcpl	0x005f0029
    3f90:	495f4153 	ldmdbmi	pc, {r0, r1, r4, r6, r8, lr}^	; <UNPREDICTABLE>
    3f94:	5f544942 	svcpl	0x00544942
    3f98:	3631205f 			; <UNDEFINED> instruction: 0x3631205f
    3f9c:	6f5f5f00 	svcvs	0x005f5f00
    3fa0:	65736666 	ldrbvs	r6, [r3, #-1638]!	; 0xfffff99a
    3fa4:	28666f74 	stmdacs	r6!, {r2, r4, r5, r6, r8, r9, sl, fp, sp, lr}^
    3fa8:	65707974 	ldrbvs	r7, [r0, #-2420]!	; 0xfffff68c
    3fac:	6569662c 	strbvs	r6, [r9, #-1580]!	; 0xfffff9d4
    3fb0:	2029646c 	eorcs	r6, r9, ip, ror #8
    3fb4:	7366666f 	cmnvc	r6, #116391936	; 0x6f00000
    3fb8:	666f7465 	strbtvs	r7, [pc], -r5, ror #8
    3fbc:	70797428 	rsbsvc	r7, r9, r8, lsr #8
    3fc0:	66202c65 	strtvs	r2, [r0], -r5, ror #24
    3fc4:	646c6569 	strbtvs	r6, [ip], #-1385	; 0xfffffa97
    3fc8:	5f5f0029 	svcpl	0x005f0029
    3fcc:	5f434347 	svcpl	0x00434347
    3fd0:	5f434549 	svcpl	0x00434549
    3fd4:	5f393535 	svcpl	0x00393535
    3fd8:	504d4f43 	subpl	r4, sp, r3, asr #30
    3fdc:	2058454c 	subscs	r4, r8, ip, asr #10
    3fe0:	5f5f0030 	svcpl	0x005f0030
    3fe4:	6e6e6f6e 	cdpvs	15, 6, cr6, cr14, cr14, {3}
    3fe8:	5f6c6c75 	svcpl	0x006c6c75
    3fec:	206c6c61 	rsbcs	r6, ip, r1, ror #24
    3ff0:	74615f5f 	strbtvc	r5, [r1], #-3935	; 0xfffff0a1
    3ff4:	62697274 	rsbvs	r7, r9, #116, 4	; 0x40000007
    3ff8:	5f657475 	svcpl	0x00657475
    3ffc:	5f28285f 	svcpl	0x0028285f
    4000:	6e6f6e5f 	mcrvs	14, 3, r6, cr15, cr15, {2}
    4004:	6c6c756e 	cfstr64vs	mvdx7, [ip], #-440	; 0xfffffe48
    4008:	29295f5f 	stmdbcs	r9!, {r0, r1, r2, r3, r4, r6, r8, r9, sl, fp, ip, lr}
    400c:	475f5f00 	ldrbmi	r5, [pc, -r0, lsl #30]
    4010:	5f43554e 	svcpl	0x0043554e
    4014:	0037205f 	eorseq	r2, r7, pc, asr r0
    4018:	52415f5f 	subpl	r5, r1, #380	; 0x17c
    401c:	50465f4d 	subpl	r5, r6, sp, asr #30
    4020:	465f3631 			; <UNDEFINED> instruction: 0x465f3631
    4024:	414d524f 	cmpmi	sp, pc, asr #4
    4028:	45495f54 	strbmi	r5, [r9, #-3924]	; 0xfffff0ac
    402c:	5f004545 	svcpl	0x00004545
    4030:	4e49555f 	mcrmi	5, 2, r5, cr9, cr15, {2}
    4034:	5f363154 	svcpl	0x00363154
    4038:	45505954 	ldrbmi	r5, [r0, #-2388]	; 0xfffff6ac
    403c:	73205f5f 			; <UNDEFINED> instruction: 0x73205f5f
    4040:	74726f68 	ldrbtvc	r6, [r2], #-3944	; 0xfffff098
    4044:	736e7520 	cmnvc	lr, #32, 10	; 0x8000000
    4048:	656e6769 	strbvs	r6, [lr, #-1897]!	; 0xfffff897
    404c:	6e692064 	cdpvs	0, 6, cr2, cr9, cr4, {3}
    4050:	505f0074 	subspl	r0, pc, r4, ror r0	; <UNPREDICTABLE>
    4054:	5849534f 	stmdapl	r9, {r0, r1, r2, r3, r6, r8, r9, ip, lr}^
    4058:	554f535f 	strbpl	r5, [pc, #-863]	; 3d01 <_Min_Stack_Size+0x3901>
    405c:	00454352 	subeq	r4, r5, r2, asr r3
    4060:	444e4152 	strbmi	r4, [lr], #-338	; 0xfffffeae
    4064:	58414d5f 	stmdapl	r1, {r0, r1, r2, r3, r4, r6, r8, sl, fp, lr}^
    4068:	525f5f20 	subspl	r5, pc, #32, 30	; 0x80
    406c:	5f444e41 	svcpl	0x00444e41
    4070:	0058414d 	subseq	r4, r8, sp, asr #2
    4074:	69755f5f 	ldmdbvs	r5!, {r0, r1, r2, r3, r4, r6, r8, r9, sl, fp, ip, lr}^
    4078:	3233746e 	eorscc	r7, r3, #1845493760	; 0x6e000000
    407c:	4400745f 	strmi	r7, [r0], #-1119	; 0xfffffba1
    4080:	614d2f3a 	cmpvs	sp, sl, lsr pc
    4084:	72657473 	rsbvc	r7, r5, #1929379840	; 0x73000000
    4088:	20676e69 	rsbcs	r6, r7, r9, ror #28
    408c:	65626d45 	strbvs	r6, [r2, #-3397]!	; 0xfffff2bb
    4090:	64656464 	strbtvs	r6, [r5], #-1124	; 0xfffffb9c
    4094:	73795320 	cmnvc	r9, #32, 6	; 0x80000000
    4098:	736d6574 	cmnvc	sp, #116, 10	; 0x1d000000
    409c:	696e552f 	stmdbvs	lr!, {r0, r1, r2, r3, r5, r8, sl, ip, lr}^
    40a0:	34312074 	ldrtcc	r2, [r1], #-116	; 0xffffff8c
    40a4:	4d524120 	ldfmie	f4, [r2, #-128]	; 0xffffff80
    40a8:	696e752f 	stmdbvs	lr!, {r0, r1, r2, r3, r5, r8, sl, ip, sp, lr}^
    40ac:	5f343174 	svcpl	0x00343174
    40b0:	7373656c 	cmnvc	r3, #108, 10	; 0x1b000000
    40b4:	5f346e6f 	svcpl	0x00346e6f
    40b8:	2f62616c 	svccs	0x0062616c
    40bc:	76697244 	strbtvc	r7, [r9], -r4, asr #4
    40c0:	2f737265 	svccs	0x00737265
    40c4:	75626544 	strbvc	r6, [r2, #-1348]!	; 0xfffffabc
    40c8:	525f0067 	subspl	r0, pc, #103	; 0x67
    40cc:	544e4545 	strbpl	r4, [lr], #-1349	; 0xfffffabb
    40d0:	284d545f 	stmdacs	sp, {r0, r1, r2, r3, r4, r6, sl, ip, lr}^
    40d4:	29727470 	ldmdbcs	r2!, {r4, r5, r6, sl, ip, sp, lr}^
    40d8:	70282820 	eorvc	r2, r8, r0, lsr #16
    40dc:	2d297274 	sfmcs	f7, 4, [r9, #-464]!	; 0xfffffe30
    40e0:	6f6c5f3e 	svcvs	0x006c5f3e
    40e4:	746c6163 	strbtvc	r6, [ip], #-355	; 0xfffffe9d
    40e8:	5f656d69 	svcpl	0x00656d69
    40ec:	29667562 	stmdbcs	r6!, {r1, r5, r6, r8, sl, ip, sp, lr}^
    40f0:	555f5f00 	ldrbpl	r5, [pc, #-3840]	; 31f8 <_Min_Stack_Size+0x2df8>
    40f4:	33544e49 	cmpcc	r4, #1168	; 0x490
    40f8:	414d5f32 	cmpmi	sp, r2, lsr pc
    40fc:	205f5f58 	subscs	r5, pc, r8, asr pc	; <UNPREDICTABLE>
    4100:	66667830 			; <UNDEFINED> instruction: 0x66667830
    4104:	66666666 	strbtvs	r6, [r6], -r6, ror #12
    4108:	4c556666 	mrrcmi	6, 6, r6, r5, cr6
    410c:	735f5f00 	cmpvc	pc, #0, 30
    4110:	69646964 	stmdbvs	r4!, {r2, r5, r6, r8, fp, sp, lr}^
    4114:	0074696e 	rsbseq	r6, r4, lr, ror #18
    4118:	45445f5f 	strbmi	r5, [r4, #-3935]	; 0xfffff0a1
    411c:	5f323343 	svcpl	0x00323343
    4120:	5f58414d 	svcpl	0x0058414d
    4124:	5f505845 	svcpl	0x00505845
    4128:	3739205f 			; <UNDEFINED> instruction: 0x3739205f
    412c:	5f545f00 	svcpl	0x00545f00
    4130:	455a4953 	ldrbmi	r4, [sl, #-2387]	; 0xfffff6ad
    4134:	5f00205f 	svcpl	0x0000205f
    4138:	544c465f 	strbpl	r4, [ip], #-1631	; 0xfffff9a1
    413c:	4156455f 	cmpmi	r6, pc, asr r5
    4140:	454d5f4c 	strbmi	r5, [sp, #-3916]	; 0xfffff0b4
    4144:	444f4854 	strbmi	r4, [pc], #-2132	; 414c <_Min_Stack_Size+0x3d4c>
    4148:	5f53545f 	svcpl	0x0053545f
    414c:	36363831 			; <UNDEFINED> instruction: 0x36363831
    4150:	5f335f31 	svcpl	0x00335f31
    4154:	0030205f 	eorseq	r2, r0, pc, asr r0
    4158:	74615f5f 	strbtvc	r5, [r1], #-3935	; 0xfffff0a1
    415c:	62697274 	rsbvs	r7, r9, #116, 4	; 0x40000007
    4160:	5f657475 	svcpl	0x00657475
    4164:	6c6c616d 	stfvse	f6, [ip], #-436	; 0xfffffe4c
    4168:	5f5f636f 	svcpl	0x005f636f
    416c:	5f5f0020 	svcpl	0x005f0020
    4170:	6b636f6c 	blvs	18dff28 <_Min_Stack_Size+0x18dfb28>
    4174:	696e695f 	stmdbvs	lr!, {r0, r1, r2, r3, r4, r6, r8, fp, sp, lr}^
    4178:	65725f74 	ldrbvs	r5, [r2, #-3956]!	; 0xfffff08c
    417c:	73727563 	cmnvc	r2, #415236096	; 0x18c00000
    4180:	28657669 	stmdacs	r5!, {r0, r3, r5, r6, r9, sl, ip, sp, lr}^
    4184:	6b636f6c 	blvs	18dff3c <_Min_Stack_Size+0x18dfb3c>
    4188:	28282029 	stmdacs	r8!, {r0, r3, r5, sp}
    418c:	64696f76 	strbtvs	r6, [r9], #-3958	; 0xfffff08a
    4190:	29302029 	ldmdbcs	r0!, {r0, r3, r5, sp}
    4194:	49504700 	ldmdbmi	r0, {r8, r9, sl, lr}^
    4198:	2820414f 	stmdacs	r0!, {r0, r1, r2, r3, r6, r8, lr}
    419c:	49504728 	ldmdbmi	r0, {r3, r5, r8, r9, sl, lr}^
    41a0:	79545f4f 	ldmdbvc	r4, {r0, r1, r2, r3, r6, r8, r9, sl, fp, ip, lr}^
    41a4:	65446570 	strbvs	r6, [r4, #-1392]	; 0xfffffa90
    41a8:	47292a66 	strmi	r2, [r9, -r6, ror #20]!
    41ac:	414f4950 	cmpmi	pc, r0, asr r9	; <UNPREDICTABLE>
    41b0:	5341425f 	movtpl	r4, #4703	; 0x125f
    41b4:	5f002945 	svcpl	0x00002945
    41b8:	636f6c5f 	cmnvs	pc, #24320	; 0x5f00
    41bc:	63615f6b 	cmnvs	r1, #428	; 0x1ac
    41c0:	72697571 	rsbvc	r7, r9, #473956352	; 0x1c400000
    41c4:	65725f65 	ldrbvs	r5, [r2, #-3941]!	; 0xfffff09b
    41c8:	73727563 	cmnvc	r2, #415236096	; 0x18c00000
    41cc:	28657669 	stmdacs	r5!, {r0, r3, r5, r6, r9, sl, ip, sp, lr}^
    41d0:	6b636f6c 	blvs	18dff88 <_Min_Stack_Size+0x18dfb88>
    41d4:	28282029 	stmdacs	r8!, {r0, r3, r5, sp}
    41d8:	64696f76 	strbtvs	r6, [r9], #-3958	; 0xfffff08a
    41dc:	29302029 	ldmdbcs	r0!, {r0, r3, r5, sp}
    41e0:	725f5f00 	subsvc	r5, pc, #0, 30
    41e4:	72747365 	rsbsvc	r7, r4, #-1811939327	; 0x94000001
    41e8:	20746369 	rsbscs	r6, r4, r9, ror #6
    41ec:	74736572 	ldrbtvc	r6, [r3], #-1394	; 0xfffffa8e
    41f0:	74636972 	strbtvc	r6, [r3], #-2418	; 0xfffff68e
    41f4:	555f5f00 	ldrbpl	r5, [pc, #-3840]	; 32fc <_Min_Stack_Size+0x2efc>
    41f8:	5f544e49 	svcpl	0x00544e49
    41fc:	54534146 	ldrbpl	r4, [r3], #-326	; 0xfffffeba
    4200:	59545f38 	ldmdbpl	r4, {r3, r4, r5, r8, r9, sl, fp, ip, lr}^
    4204:	5f5f4550 	svcpl	0x005f4550
    4208:	736e7520 	cmnvc	lr, #32, 10	; 0x8000000
    420c:	656e6769 	strbvs	r6, [lr, #-1897]!	; 0xfffff897
    4210:	6e692064 	cdpvs	0, 6, cr2, cr9, cr4, {3}
    4214:	5f5f0074 	svcpl	0x005f0074
    4218:	43414c4c 	movtmi	r4, #7244	; 0x1c4c
    421c:	5f4d5543 	svcpl	0x004d5543
    4220:	54494249 	strbpl	r4, [r9], #-585	; 0xfffffdb7
    4224:	33205f5f 			; <UNDEFINED> instruction: 0x33205f5f
    4228:	5f5f0032 	svcpl	0x005f0032
    422c:	43415246 	movtmi	r5, #4678	; 0x1246
    4230:	50455f54 	subpl	r5, r5, r4, asr pc
    4234:	4f4c4953 	svcmi	0x004c4953
    4238:	205f5f4e 	subscs	r5, pc, lr, asr #30
    423c:	50317830 	eorspl	r7, r1, r0, lsr r8
    4240:	5235312d 	eorspl	r3, r5, #1073741835	; 0x4000000b
    4244:	725f5f00 	subsvc	r5, pc, #0, 30
    4248:	69757165 	ldmdbvs	r5!, {r0, r2, r5, r6, r8, ip, sp, lr}^
    424c:	5f736572 	svcpl	0x00736572
    4250:	6f6c6e75 	svcvs	0x006c6e75
    4254:	64656b63 	strbtvs	r6, [r5], #-2915	; 0xfffff49d
    4258:	2e2e2e28 	cdpcs	14, 2, cr2, cr14, cr8, {1}
    425c:	5f5f2029 	svcpl	0x005f2029
    4260:	6b636f6c 	blvs	18e0018 <_Min_Stack_Size+0x18dfc18>
    4264:	6e6e615f 	mcrvs	1, 3, r6, cr14, cr15, {2}
    4268:	7461746f 	strbtvc	r7, [r1], #-1135	; 0xfffffb91
    426c:	6f6c2865 	svcvs	0x006c2865
    4270:	5f736b63 	svcpl	0x00736b63
    4274:	6c637865 	stclvs	8, cr7, [r3], #-404	; 0xfffffe6c
    4278:	64656475 	strbtvs	r6, [r5], #-1141	; 0xfffffb8b
    427c:	565f5f28 	ldrbpl	r5, [pc], -r8, lsr #30
    4280:	52415f41 	subpl	r5, r1, #260	; 0x104
    4284:	5f5f5347 	svcpl	0x005f5347
    4288:	49002929 	stmdbmi	r0, {r0, r3, r5, r8, fp, sp}
    428c:	5f38544e 	svcpl	0x0038544e
    4290:	29782843 	ldmdbcs	r8!, {r0, r1, r6, fp, sp}^
    4294:	495f5f20 	ldmdbmi	pc, {r5, r8, r9, sl, fp, ip, lr}^	; <UNPREDICTABLE>
    4298:	5f38544e 	svcpl	0x0038544e
    429c:	29782843 	ldmdbcs	r8!, {r0, r1, r6, fp, sp}^
    42a0:	495f5f00 	ldmdbmi	pc, {r8, r9, sl, fp, ip, lr}^	; <UNPREDICTABLE>
    42a4:	3233544e 	eorscc	r5, r3, #1308622848	; 0x4e000000
    42a8:	58414d5f 	stmdapl	r1, {r0, r1, r2, r3, r4, r6, r8, sl, fp, lr}^
    42ac:	30205f5f 	eorcc	r5, r0, pc, asr pc
    42b0:	66663778 			; <UNDEFINED> instruction: 0x66663778
    42b4:	66666666 	strbtvs	r6, [r6], -r6, ror #12
    42b8:	5f004c66 	svcpl	0x00004c66
    42bc:	6e696d5f 	mcrvs	13, 3, r6, cr9, cr15, {2}
    42c0:	7a69735f 	bvc	1a61044 <_Min_Stack_Size+0x1a60c44>
    42c4:	29782865 	ldmdbcs	r8!, {r0, r2, r5, r6, fp, sp}^
    42c8:	61747320 	cmnvs	r4, r0, lsr #6
    42cc:	20636974 	rsbcs	r6, r3, r4, ror r9
    42d0:	00297828 	eoreq	r7, r9, r8, lsr #16
    42d4:	58475f5f 	stmdapl	r7, {r0, r1, r2, r3, r4, r6, r8, r9, sl, fp, ip, lr}^
    42d8:	59545f58 	ldmdbpl	r4, {r3, r4, r6, r8, r9, sl, fp, ip, lr}^
    42dc:	4e494550 	mcrmi	5, 2, r4, cr9, cr0, {2}
    42e0:	455f4f46 	ldrbmi	r4, [pc, #-3910]	; 33a2 <_Min_Stack_Size+0x2fa2>
    42e4:	4c415551 	cfstr64mi	mvdx5, [r1], {81}	; 0x51
    42e8:	5f595449 	svcpl	0x00595449
    42ec:	494c4e49 	stmdbmi	ip, {r0, r3, r6, r9, sl, fp, lr}^
    42f0:	3020454e 	eorcc	r4, r0, lr, asr #10
    42f4:	49564e00 	ldmdbmi	r6, {r9, sl, fp, lr}^
    42f8:	52495f43 	subpl	r5, r9, #268	; 0x10c
    42fc:	455f3651 	ldrbmi	r3, [pc, #-1617]	; 3cb3 <_Min_Stack_Size+0x38b3>
    4300:	32495458 	subcc	r5, r9, #88, 8	; 0x58000000
    4304:	5349445f 	movtpl	r4, #37983	; 0x945f
    4308:	454c4241 	strbmi	r4, [ip, #-577]	; 0xfffffdbf
    430c:	564e2820 	strbpl	r2, [lr], -r0, lsr #16
    4310:	495f4349 	ldmdbmi	pc, {r0, r3, r6, r8, r9, lr}^	; <UNPREDICTABLE>
    4314:	30524543 	subscc	r4, r2, r3, asr #10
    4318:	203d7c20 	eorscs	r7, sp, r0, lsr #24
    431c:	3c3c3128 	ldfccs	f3, [ip], #-160	; 0xffffff60
    4320:	00292938 	eoreq	r2, r9, r8, lsr r9
    4324:	434f4c5f 	movtmi	r4, #64607	; 0xfc5f
    4328:	45525f4b 	ldrbmi	r5, [r2, #-3915]	; 0xfffff0b5
    432c:	53525543 	cmppl	r2, #281018368	; 0x10c00000
    4330:	5f455649 	svcpl	0x00455649
    4334:	5f5f0054 	svcpl	0x005f0054
    4338:	49474542 	stmdbmi	r7, {r1, r6, r8, sl, lr}^
    433c:	45445f4e 	strbmi	r5, [r4, #-3918]	; 0xfffff0b2
    4340:	20534c43 	subscs	r4, r3, r3, asr #24
    4344:	495f5f00 	ldmdbmi	pc, {r8, r9, sl, fp, ip, lr}^	; <UNPREDICTABLE>
    4348:	4c5f544e 	cfldrdmi	mvd5, [pc], {78}	; 0x4e
    434c:	54534145 	ldrbpl	r4, [r3], #-325	; 0xfffffebb
    4350:	4d5f3436 	cfldrdmi	mvd3, [pc, #-216]	; 4280 <_Min_Stack_Size+0x3e80>
    4354:	5f5f5841 	svcpl	0x005f5841
    4358:	37783020 	ldrbcc	r3, [r8, -r0, lsr #32]!
    435c:	66666666 	strbtvs	r6, [r6], -r6, ror #12
    4360:	66666666 	strbtvs	r6, [r6], -r6, ror #12
    4364:	66666666 	strbtvs	r6, [r6], -r6, ror #12
    4368:	4c666666 	stclmi	6, cr6, [r6], #-408	; 0xfffffe68
    436c:	525f004c 	subspl	r0, pc, #76	; 0x4c
    4370:	544e4545 	strbpl	r4, [lr], #-1349	; 0xfffffabb
    4374:	52424d5f 	subpl	r4, r2, #6080	; 0x17c0
    4378:	5f4e454c 	svcpl	0x004e454c
    437c:	54415453 	strbpl	r5, [r1], #-1107	; 0xfffffbad
    4380:	74702845 	ldrbtvc	r2, [r0], #-2117	; 0xfffff7bb
    4384:	28202972 	stmdacs	r0!, {r1, r4, r5, r6, r8, fp, sp}
    4388:	72747028 	rsbsvc	r7, r4, #40	; 0x28
    438c:	5f3e2d29 	svcpl	0x003e2d29
    4390:	6373696d 	cmnvs	r3, #1785856	; 0x1b4000
    4394:	6d5f3e2d 	ldclvs	14, cr3, [pc, #-180]	; 42e8 <_Min_Stack_Size+0x3ee8>
    4398:	656c7262 	strbvs	r7, [ip, #-610]!	; 0xfffffd9e
    439c:	74735f6e 	ldrbtvc	r5, [r3], #-3950	; 0xfffff092
    43a0:	29657461 	stmdbcs	r5!, {r0, r5, r6, sl, ip, sp, lr}^
    43a4:	735f5f00 	cmpvc	pc, #0, 30
    43a8:	61665f66 	cmnvs	r6, r6, ror #30
    43ac:	735f656b 	cmpvc	pc, #448790528	; 0x1ac00000
    43b0:	72656474 	rsbvc	r6, r5, #116, 8	; 0x74000000
    43b4:	535f0072 	cmppl	pc, #114	; 0x72
    43b8:	5f5f5359 	svcpl	0x005f5359
    43bc:	49445453 	stmdbmi	r4, {r0, r1, r4, r6, sl, ip, lr}^
    43c0:	485f544e 	ldmdami	pc, {r1, r2, r3, r6, sl, ip, lr}^	; <UNPREDICTABLE>
    43c4:	5f5f0020 	svcpl	0x005f0020
    43c8:	6465656e 	strbtvs	r6, [r5], #-1390	; 0xfffffa92
    43cc:	4c554e5f 	mrrcmi	14, 5, r4, r5, cr15
    43d0:	4700204c 	strmi	r2, [r0, -ip, asr #32]
    43d4:	5f4f4950 	svcpl	0x004f4950
    43d8:	5f4e4950 	svcpl	0x004e4950
    43dc:	28282039 	stmdacs	r8!, {r0, r3, r4, r5, sp}
    43e0:	746e6975 	strbtvc	r6, [lr], #-2421	; 0xfffff68b
    43e4:	745f3631 	ldrbvc	r3, [pc], #-1585	; 43ec <_Min_Stack_Size+0x3fec>
    43e8:	30783029 	rsbscc	r3, r8, r9, lsr #32
    43ec:	29303032 	ldmdbcs	r0!, {r1, r4, r5, ip, sp}
    43f0:	45445f00 	strbmi	r5, [r4, #-3840]	; 0xfffff100
    43f4:	4c554146 	ldfmie	f4, [r5], {70}	; 0x46
    43f8:	4f535f54 	svcmi	0x00535f54
    43fc:	45435255 	strbmi	r5, [r3, #-597]	; 0xfffffdab
    4400:	5f003120 	svcpl	0x00003120
    4404:	544c465f 	strbpl	r4, [ip], #-1631	; 0xfffff9a1
    4408:	4d5f3233 	lfmmi	f3, 2, [pc, #-204]	; 4344 <_Min_Stack_Size+0x3f44>
    440c:	5f544e41 	svcpl	0x00544e41
    4410:	5f474944 	svcpl	0x00474944
    4414:	3432205f 	ldrtcc	r2, [r2], #-95	; 0xffffffa1
    4418:	72655f00 	rsbvc	r5, r5, #0, 30
    441c:	006f6e72 	rsbeq	r6, pc, r2, ror lr	; <UNPREDICTABLE>
    4420:	45565f5f 	ldrbmi	r5, [r6, #-3935]	; 0xfffff0a1
    4424:	4f495352 	svcmi	0x00495352
    4428:	205f5f4e 	subscs	r5, pc, lr, asr #30
    442c:	332e3722 			; <UNDEFINED> instruction: 0x332e3722
    4430:	3220312e 	eorcc	r3, r0, #-2147483637	; 0x8000000b
    4434:	30383130 	eorscc	r3, r8, r0, lsr r1
    4438:	20323236 	eorscs	r3, r2, r6, lsr r2
    443c:	6c657228 	sfmvs	f7, 2, [r5], #-160	; 0xffffff60
    4440:	65736165 	ldrbvs	r6, [r3, #-357]!	; 0xfffffe9b
    4444:	415b2029 	cmpmi	fp, r9, lsr #32
    4448:	652f4d52 	strvs	r4, [pc, #-3410]!	; 36fe <_Min_Stack_Size+0x32fe>
    444c:	6465626d 	strbtvs	r6, [r5], #-621	; 0xfffffd93
    4450:	2d646564 	cfstr64cs	mvdx6, [r4, #-400]!	; 0xfffffe70
    4454:	72622d37 	rsbvc	r2, r2, #3520	; 0xdc0
    4458:	68636e61 	stmdavs	r3!, {r0, r5, r6, r9, sl, fp, sp, lr}^
    445c:	76657220 	strbtvc	r7, [r5], -r0, lsr #4
    4460:	6f697369 	svcvs	0x00697369
    4464:	3632206e 	ldrtcc	r2, [r2], -lr, rrx
    4468:	37303931 			; <UNDEFINED> instruction: 0x37303931
    446c:	5f00225d 	svcpl	0x0000225d
    4470:	544c465f 	strbpl	r4, [ip], #-1631	; 0xfffff9a1
    4474:	445f3233 	ldrbmi	r3, [pc], #-563	; 447c <_Min_Stack_Size+0x407c>
    4478:	524f4e45 	subpl	r4, pc, #1104	; 0x450
    447c:	494d5f4d 	stmdbmi	sp, {r0, r2, r3, r6, r8, r9, sl, fp, ip, lr}^
    4480:	205f5f4e 	subscs	r5, pc, lr, asr #30
    4484:	30342e31 	eorscc	r2, r4, r1, lsr lr
    4488:	38393231 	ldmdacc	r9!, {r0, r4, r5, r9, ip, sp}
    448c:	33343634 	teqcc	r4, #52, 12	; 0x3400000
    4490:	31383432 	teqcc	r8, r2, lsr r4
    4494:	2d653137 	stfcse	f3, [r5, #-220]!	; 0xffffff24
    4498:	33463534 	movtcc	r3, #25908	; 0x6534
    449c:	5f5f0032 	svcpl	0x005f0032
    44a0:	74636573 	strbtvc	r6, [r3], #-1395	; 0xfffffa8d
    44a4:	286e6f69 	stmdacs	lr!, {r0, r3, r5, r6, r8, r9, sl, fp, sp, lr}^
    44a8:	5f202978 	svcpl	0x00202978
    44ac:	7474615f 	ldrbtvc	r6, [r4], #-351	; 0xfffffea1
    44b0:	75626972 	strbvc	r6, [r2, #-2418]!	; 0xfffff68e
    44b4:	5f5f6574 	svcpl	0x005f6574
    44b8:	5f5f2828 	svcpl	0x005f2828
    44bc:	74636573 	strbtvc	r6, [r3], #-1395	; 0xfffffa8d
    44c0:	5f6e6f69 	svcpl	0x006e6f69
    44c4:	2978285f 	ldmdbcs	r8!, {r0, r1, r2, r3, r4, r6, fp, sp}^
    44c8:	6f002929 	svcvs	0x00002929
    44cc:	65736666 	ldrbvs	r6, [r3, #-1638]!	; 0xfffff99a
    44d0:	28666f74 	stmdacs	r6!, {r2, r4, r5, r6, r8, r9, sl, fp, sp, lr}^
    44d4:	45505954 	ldrbmi	r5, [r0, #-2388]	; 0xfffff6ac
    44d8:	4d454d2c 	stclmi	13, cr4, [r5, #-176]	; 0xffffff50
    44dc:	29524542 	ldmdbcs	r2, {r1, r6, r8, sl, lr}^
    44e0:	625f5f20 	subsvs	r5, pc, #32, 30	; 0x80
    44e4:	746c6975 	strbtvc	r6, [ip], #-2421	; 0xfffff68b
    44e8:	6f5f6e69 	svcvs	0x005f6e69
    44ec:	65736666 	ldrbvs	r6, [r3, #-1638]!	; 0xfffff99a
    44f0:	20666f74 	rsbcs	r6, r6, r4, ror pc
    44f4:	50595428 	subspl	r5, r9, r8, lsr #8
    44f8:	4d202c45 	stcmi	12, cr2, [r0, #-276]!	; 0xfffffeec
    44fc:	45424d45 	strbmi	r4, [r2, #-3397]	; 0xfffff2bb
    4500:	5f002952 	svcpl	0x00002952
    4504:	4e49555f 	mcrmi	5, 2, r5, cr9, cr15, {2}
    4508:	5f343654 	svcpl	0x00343654
    450c:	29632843 	stmdbcs	r3!, {r0, r1, r6, fp, sp}^
    4510:	23206320 			; <UNDEFINED> instruction: 0x23206320
    4514:	4c552023 	mrrcmi	0, 2, r2, r5, cr3
    4518:	5f5f004c 	svcpl	0x005f004c
    451c:	544e4955 	strbpl	r4, [lr], #-2389	; 0xfffff6ab
    4520:	41454c5f 	cmpmi	r5, pc, asr ip
    4524:	34365453 	ldrtcc	r5, [r6], #-1107	; 0xfffffbad
    4528:	5059545f 	subspl	r5, r9, pc, asr r4
    452c:	205f5f45 	subscs	r5, pc, r5, asr #30
    4530:	676e6f6c 	strbvs	r6, [lr, -ip, ror #30]!
    4534:	6e6f6c20 	cdpvs	12, 6, cr6, cr15, cr0, {1}
    4538:	6e752067 	cdpvs	0, 7, cr2, cr5, cr7, {3}
    453c:	6e676973 			; <UNDEFINED> instruction: 0x6e676973
    4540:	69206465 	stmdbvs	r0!, {r0, r2, r5, r6, sl, sp, lr}
    4544:	5f00746e 	svcpl	0x0000746e
    4548:	4653555f 			; <UNDEFINED> instruction: 0x4653555f
    454c:	54434152 	strbpl	r4, [r3], #-338	; 0xfffffeae
    4550:	4942465f 	stmdbmi	r2, {r0, r1, r2, r3, r4, r6, r9, sl, lr}^
    4554:	205f5f54 	subscs	r5, pc, r4, asr pc	; <UNPREDICTABLE>
    4558:	5f5f0038 	svcpl	0x005f0038
    455c:	4c42444c 	cfstrdmi	mvd4, [r2], {76}	; 0x4c
    4560:	5350455f 	cmppl	r0, #398458880	; 0x17c00000
    4564:	4e4f4c49 	cdpmi	12, 4, cr4, cr15, cr9, {2}
    4568:	32205f5f 	eorcc	r5, r0, #380	; 0x17c
    456c:	3032322e 	eorscc	r3, r2, lr, lsr #4
    4570:	30363434 	eorscc	r3, r6, r4, lsr r4
    4574:	35323934 	ldrcc	r3, [r2, #-2356]!	; 0xfffff6cc
    4578:	33313330 	teqcc	r1, #48, 6	; 0xc0000000
    457c:	312d6531 			; <UNDEFINED> instruction: 0x312d6531
    4580:	5f004c36 	svcpl	0x00004c36
    4584:	7165725f 	cmnvc	r5, pc, asr r2
    4588:	65726975 	ldrbvs	r6, [r2, #-2421]!	; 0xfffff68b
    458c:	68735f73 	ldmdavs	r3!, {r0, r1, r4, r5, r6, r8, r9, sl, fp, ip, lr}^
    4590:	64657261 	strbtvs	r7, [r5], #-609	; 0xfffffd9f
    4594:	2e2e2e28 	cdpcs	14, 2, cr2, cr14, cr8, {1}
    4598:	5f5f2029 	svcpl	0x005f2029
    459c:	6b636f6c 	blvs	18e0354 <_Min_Stack_Size+0x18dff54>
    45a0:	6e6e615f 	mcrvs	1, 3, r6, cr14, cr15, {2}
    45a4:	7461746f 	strbtvc	r7, [r1], #-1135	; 0xfffffb91
    45a8:	68732865 	ldmdavs	r3!, {r0, r2, r5, r6, fp, sp}^
    45ac:	64657261 	strbtvs	r7, [r5], #-609	; 0xfffffd9f
    45b0:	636f6c5f 	cmnvs	pc, #24320	; 0x5f00
    45b4:	725f736b 	subsvc	r7, pc, #-1409286143	; 0xac000001
    45b8:	69757165 	ldmdbvs	r5!, {r0, r2, r5, r6, r8, ip, sp, lr}^
    45bc:	28646572 	stmdacs	r4!, {r1, r4, r5, r6, r8, sl, sp, lr}^
    45c0:	41565f5f 	cmpmi	r6, pc, asr pc
    45c4:	4752415f 			; <UNDEFINED> instruction: 0x4752415f
    45c8:	295f5f53 	ldmdbcs	pc, {r0, r1, r4, r6, r8, r9, sl, fp, ip, lr}^	; <UNPREDICTABLE>
    45cc:	5f5f0029 	svcpl	0x005f0029
    45d0:	65727570 	ldrbvs	r7, [r2, #-1392]!	; 0xfffffa90
    45d4:	5f5f2032 	svcpl	0x005f2032
    45d8:	72747461 	rsbsvc	r7, r4, #1627389952	; 0x61000000
    45dc:	74756269 	ldrbtvc	r6, [r5], #-617	; 0xfffffd97
    45e0:	285f5f65 	ldmdacs	pc, {r0, r2, r5, r6, r8, r9, sl, fp, ip, lr}^	; <UNPREDICTABLE>
    45e4:	635f5f28 	cmpvs	pc, #40, 30	; 0xa0
    45e8:	74736e6f 	ldrbtvc	r6, [r3], #-3695	; 0xfffff191
    45ec:	29295f5f 	stmdbcs	r9!, {r0, r1, r2, r3, r4, r6, r8, r9, sl, fp, ip, lr}
    45f0:	475f5f00 	ldrbmi	r5, [pc, -r0, lsl #30]
    45f4:	415f4343 	cmpmi	pc, r3, asr #6
    45f8:	494d4f54 	stmdbmi	sp, {r2, r4, r6, r8, r9, sl, fp, lr}^
    45fc:	48435f43 	stmdami	r3, {r0, r1, r6, r8, r9, sl, fp, ip, lr}^
    4600:	36315241 	ldrtcc	r5, [r1], -r1, asr #4
    4604:	4c5f545f 	cfldrdmi	mvd5, [pc], {95}	; 0x5f
    4608:	5f4b434f 	svcpl	0x004b434f
    460c:	45455246 	strbmi	r5, [r5, #-582]	; 0xfffffdba
    4610:	5f003220 	svcpl	0x00003220
    4614:	4c554e5f 	mrrcmi	14, 5, r4, r5, cr15
    4618:	4942414c 	stmdbmi	r2, {r2, r3, r6, r8, lr}^
    461c:	5954494c 	ldmdbpl	r4, {r2, r3, r6, r8, fp, lr}^
    4620:	4152505f 	cmpmi	r2, pc, asr r0
    4624:	5f414d47 	svcpl	0x00414d47
    4628:	48535550 	ldmdami	r3, {r4, r6, r8, sl, ip, lr}^
    462c:	735f0020 	cmpvc	pc, #32
    4630:	616e6769 	cmnvs	lr, r9, ror #14
    4634:	75625f6c 	strbvc	r5, [r2, #-3948]!	; 0xfffff094
    4638:	434c0066 	movtmi	r0, #49254	; 0xc066
    463c:	5f00524b 	svcpl	0x0000524b
    4640:	4c42445f 	cfstrdmi	mvd4, [r2], {95}	; 0x5f
    4644:	58414d5f 	stmdapl	r1, {r0, r1, r2, r3, r4, r6, r8, sl, fp, lr}^
    4648:	5058455f 	subspl	r4, r8, pc, asr r5
    464c:	31205f5f 			; <UNDEFINED> instruction: 0x31205f5f
    4650:	00343230 	eorseq	r3, r4, r0, lsr r2
    4654:	41465f5f 	cmpmi	r6, pc, asr pc
    4658:	34365453 	ldrtcc	r5, [r6], #-1107	; 0xfffffbad
    465c:	6c6c2220 	sfmvs	f2, 2, [ip], #-128	; 0xffffff80
    4660:	5f5f0022 	svcpl	0x005f0022
    4664:	4d4f5441 	cfstrdmi	mvd5, [pc, #-260]	; 4568 <_Min_Stack_Size+0x4168>
    4668:	525f4349 	subspl	r4, pc, #603979777	; 0x24000001
    466c:	41454c45 	cmpmi	r5, r5, asr #24
    4670:	33204553 			; <UNDEFINED> instruction: 0x33204553
    4674:	736e7500 	cmnvc	lr, #0, 10
    4678:	656e6769 	strbvs	r6, [lr, #-1897]!	; 0xfffff897
    467c:	302b2064 	eorcc	r2, fp, r4, rrx
    4680:	465f5f00 	ldrbmi	r5, [pc], -r0, lsl #30
    4684:	3233544c 	eorscc	r5, r3, #76, 8	; 0x4c000000
    4688:	41485f58 	cmpmi	r8, r8, asr pc
    468c:	45445f53 	strbmi	r5, [r4, #-3923]	; 0xfffff0ad
    4690:	4d524f4e 	ldclmi	15, cr4, [r2, #-312]	; 0xfffffec8
    4694:	31205f5f 			; <UNDEFINED> instruction: 0x31205f5f
    4698:	465f5f00 	ldrbmi	r5, [pc], -r0, lsl #30
    469c:	4d5f544c 	cfldrdmi	mvd5, [pc, #-304]	; 4574 <_Min_Stack_Size+0x4174>
    46a0:	5f544e41 	svcpl	0x00544e41
    46a4:	5f474944 	svcpl	0x00474944
    46a8:	3432205f 	ldrtcc	r2, [r2], #-95	; 0xffffffa1
    46ac:	41525f00 	cmpmi	r2, r0, lsl #30
    46b0:	3834444e 	ldmdacc	r4!, {r1, r2, r3, r6, sl, lr}
    46b4:	4545535f 	strbmi	r5, [r5, #-863]	; 0xfffffca1
    46b8:	20315f44 	eorscs	r5, r1, r4, asr #30
    46bc:	61783028 	cmnvs	r8, r8, lsr #32
    46c0:	29646362 	stmdbcs	r4!, {r1, r5, r6, r8, r9, sp, lr}^
    46c4:	555f5f00 	ldrbpl	r5, [pc, #-3840]	; 37cc <_Min_Stack_Size+0x33cc>
    46c8:	495f5144 	ldmdbmi	pc, {r2, r6, r8, ip, lr}^	; <UNPREDICTABLE>
    46cc:	5f544942 	svcpl	0x00544942
    46d0:	0030205f 	eorseq	r2, r0, pc, asr r0
    46d4:	4f4c475f 	svcmi	0x004c475f
    46d8:	5f4c4142 	svcpl	0x004c4142
    46dc:	58455441 	stmdapl	r5, {r0, r6, sl, ip, lr}^
    46e0:	5f205449 	svcpl	0x00205449
    46e4:	626f6c67 	rsbvs	r6, pc, #26368	; 0x6700
    46e8:	615f6c61 	cmpvs	pc, r1, ror #24
    46ec:	69786574 	ldmdbvs	r8!, {r2, r4, r5, r6, r8, sl, sp, lr}^
    46f0:	5f5f0074 	svcpl	0x005f0074
    46f4:	5f544e49 	svcpl	0x00544e49
    46f8:	5341454c 	movtpl	r4, #5452	; 0x154c
    46fc:	5f323354 	svcpl	0x00323354
    4700:	45505954 	ldrbmi	r5, [r0, #-2388]	; 0xfffff6ac
    4704:	6c205f5f 	stcvs	15, cr5, [r0], #-380	; 0xfffffe84
    4708:	20676e6f 	rsbcs	r6, r7, pc, ror #28
    470c:	00746e69 	rsbseq	r6, r4, r9, ror #28
    4710:	544e4955 	strbpl	r4, [lr], #-2389	; 0xfffff6ab
    4714:	5f58414d 	svcpl	0x0058414d
    4718:	2058414d 	subscs	r4, r8, sp, asr #2
    471c:	555f5f28 	ldrbpl	r5, [pc, #-3880]	; 37fc <_Min_Stack_Size+0x33fc>
    4720:	4d544e49 	ldclmi	14, cr4, [r4, #-292]	; 0xfffffedc
    4724:	4d5f5841 	ldclmi	8, cr5, [pc, #-260]	; 4628 <_Min_Stack_Size+0x4228>
    4728:	5f5f5841 	svcpl	0x005f5841
    472c:	564e0029 	strbpl	r0, [lr], -r9, lsr #32
    4730:	495f4349 	ldmdbmi	pc, {r0, r3, r6, r8, r9, lr}^	; <UNPREDICTABLE>
    4734:	31524543 	cmpcc	r2, r3, asr #10
    4738:	76282a20 	strtvc	r2, [r8], -r0, lsr #20
    473c:	74616c6f 	strbtvc	r6, [r1], #-3183	; 0xfffff391
    4740:	20656c69 	rsbcs	r6, r5, r9, ror #24
    4744:	746e6975 	strbtvc	r6, [lr], #-2421	; 0xfffff68b
    4748:	745f3233 	ldrbvc	r3, [pc], #-563	; 4750 <_Min_Stack_Size+0x4350>
    474c:	28292a20 	stmdacs	r9!, {r5, r9, fp, sp}
    4750:	4349564e 	movtmi	r5, #38478	; 0x964e
    4754:	5341425f 	movtpl	r4, #4703	; 0x125f
    4758:	202b2045 	eorcs	r2, fp, r5, asr #32
    475c:	38307830 	ldmdacc	r0!, {r4, r5, fp, ip, sp, lr}
    4760:	5f002934 	svcpl	0x00002934
    4764:	434f4c5f 	movtmi	r4, #64607	; 0xfc5f
    4768:	4e495f4b 	cdpmi	15, 4, cr5, cr9, cr11, {2}
    476c:	525f5449 	subspl	r5, pc, #1224736768	; 0x49000000
    4770:	52554345 	subspl	r4, r5, #335544321	; 0x14000001
    4774:	45564953 	ldrbmi	r4, [r6, #-2387]	; 0xfffff6ad
    4778:	616c6328 	cmnvs	ip, r8, lsr #6
    477c:	6c2c7373 	stcvs	3, cr7, [ip], #-460	; 0xfffffe34
    4780:	296b636f 	stmdbcs	fp!, {r0, r1, r2, r3, r5, r6, r8, r9, sp, lr}^
    4784:	61747320 	cmnvs	r4, r0, lsr #6
    4788:	20636974 	rsbcs	r6, r3, r4, ror r9
    478c:	20746e69 	rsbscs	r6, r4, r9, ror #28
    4790:	6b636f6c 	blvs	18e0548 <_Min_Stack_Size+0x18e0148>
    4794:	30203d20 	eorcc	r3, r0, r0, lsr #26
    4798:	564e003b 			; <UNDEFINED> instruction: 0x564e003b
    479c:	425f4349 	subsmi	r4, pc, #603979777	; 0x24000001
    47a0:	20455341 	subcs	r5, r5, r1, asr #6
    47a4:	30457830 	subcc	r7, r5, r0, lsr r8
    47a8:	31453030 	cmpcc	r5, r0, lsr r0
    47ac:	4c553030 	mrrcmi	0, 3, r3, r5, cr0
    47b0:	435f5f00 	cmpmi	pc, #0, 30
    47b4:	55535f43 	ldrbpl	r5, [r3, #-3907]	; 0xfffff0bd
    47b8:	524f5050 	subpl	r5, pc, #80	; 0x50
    47bc:	5f5f5354 	svcpl	0x005f5354
    47c0:	4e55465f 	mrcmi	6, 2, r4, cr5, cr15, {2}
    47c4:	205f5f43 	subscs	r5, pc, r3, asr #30
    47c8:	58450031 	stmdapl	r5, {r0, r4, r5}^
    47cc:	50314954 	eorspl	r4, r1, r4, asr r9
    47d0:	28203143 	stmdacs	r0!, {r0, r1, r6, r8, ip, sp}
    47d4:	49545845 	ldmdbmi	r4, {r0, r2, r6, fp, ip, lr}^
    47d8:	4950475f 	ldmdbmi	r0, {r0, r1, r2, r3, r4, r6, r8, r9, sl, lr}^
    47dc:	614d5f4f 	cmpvs	sp, pc, asr #30
    47e0:	6e697070 	mcrvs	0, 3, r7, cr9, cr0, {3}
    47e4:	29745f67 	ldmdbcs	r4!, {r0, r1, r2, r5, r6, r8, r9, sl, fp, ip, lr}^
    47e8:	5458457b 	ldrbpl	r4, [r8], #-1403	; 0xfffffa85
    47ec:	202c3149 	eorcs	r3, ip, r9, asr #2
    47f0:	4f495047 	svcmi	0x00495047
    47f4:	47202c43 	strmi	r2, [r0, -r3, asr #24]!
    47f8:	5f4f4950 	svcpl	0x004f4950
    47fc:	5f4e4950 	svcpl	0x004e4950
    4800:	45202c31 	strmi	r2, [r0, #-3121]!	; 0xfffff3cf
    4804:	31495458 	cmpcc	r9, r8, asr r4
    4808:	5152495f 	cmppl	r2, pc, asr r9
    480c:	5f007d20 	svcpl	0x00007d20
    4810:	69676942 	stmdbvs	r7!, {r1, r6, r8, fp, sp, lr}^
    4814:	5f00746e 	svcpl	0x0000746e
    4818:	4e454552 	mcrmi	5, 2, r4, cr5, cr2, {2}
    481c:	53415f54 	movtpl	r5, #8020	; 0x1f54
    4820:	4d495443 	cfstrdmi	mvd5, [r9, #-268]	; 0xfffffef4
    4824:	55425f45 	strbpl	r5, [r2, #-3909]	; 0xfffff0bb
    4828:	74702846 	ldrbtvc	r2, [r0], #-2118	; 0xfffff7ba
    482c:	28202972 	stmdacs	r0!, {r1, r4, r5, r6, r8, fp, sp}
    4830:	72747028 	rsbsvc	r7, r4, #40	; 0x28
    4834:	5f3e2d29 	svcpl	0x003e2d29
    4838:	74637361 	strbtvc	r7, [r3], #-865	; 0xfffffc9f
    483c:	5f656d69 	svcpl	0x00656d69
    4840:	29667562 	stmdbcs	r6!, {r1, r5, r6, r8, sl, ip, sp, lr}^
    4844:	5f545f00 	svcpl	0x00545f00
    4848:	44525450 	ldrbmi	r5, [r2], #-1104	; 0xfffffbb0
    484c:	5f464649 	svcpl	0x00464649
    4850:	58450020 	stmdapl	r5, {r5}^
    4854:	50334954 	eorspl	r4, r3, r4, asr r9
    4858:	28203344 	stmdacs	r0!, {r2, r6, r8, r9, ip, sp}
    485c:	49545845 	ldmdbmi	r4, {r0, r2, r6, fp, ip, lr}^
    4860:	4950475f 	ldmdbmi	r0, {r0, r1, r2, r3, r4, r6, r8, r9, sl, lr}^
    4864:	614d5f4f 	cmpvs	sp, pc, asr #30
    4868:	6e697070 	mcrvs	0, 3, r7, cr9, cr0, {3}
    486c:	29745f67 	ldmdbcs	r4!, {r0, r1, r2, r5, r6, r8, r9, sl, fp, ip, lr}^
    4870:	5458457b 	ldrbpl	r4, [r8], #-1403	; 0xfffffa85
    4874:	202c3349 	eorcs	r3, ip, r9, asr #6
    4878:	4f495047 	svcmi	0x00495047
    487c:	47202c44 	strmi	r2, [r0, -r4, asr #24]!
    4880:	5f4f4950 	svcpl	0x004f4950
    4884:	5f4e4950 	svcpl	0x004e4950
    4888:	45202c33 	strmi	r2, [r0, #-3123]!	; 0xfffff3cd
    488c:	33495458 	movtcc	r5, #37976	; 0x9458
    4890:	5152495f 	cmppl	r2, pc, asr r9
    4894:	5f007d20 	svcpl	0x00007d20
    4898:	42444c5f 	submi	r4, r4, #24320	; 0x5f00
    489c:	45445f4c 	strbmi	r5, [r4, #-3916]	; 0xfffff0b4
    48a0:	4d524f4e 	ldclmi	15, cr4, [r2, #-312]	; 0xfffffec8
    48a4:	4e494d5f 	mcrmi	13, 2, r4, cr9, cr15, {2}
    48a8:	34205f5f 	strtcc	r5, [r0], #-3935	; 0xfffff0a1
    48ac:	3034392e 	eorscc	r3, r4, lr, lsr #18
    48b0:	34363536 	ldrtcc	r3, [r6], #-1334	; 0xfffffaca
    48b4:	31343835 	teqcc	r4, r5, lsr r8
    48b8:	35363432 	ldrcc	r3, [r6, #-1074]!	; 0xfffffbce
    48bc:	332d6534 			; <UNDEFINED> instruction: 0x332d6534
    48c0:	004c3432 	subeq	r3, ip, r2, lsr r4
    48c4:	49545845 	ldmdbmi	r4, {r0, r2, r6, fp, ip, lr}^
    48c8:	52495f34 	subpl	r5, r9, #52, 30	; 0xd0
    48cc:	30312051 	eorscc	r2, r1, r1, asr r0
    48d0:	495f5f00 	ldmdbmi	pc, {r8, r9, sl, fp, ip, lr}^	; <UNPREDICTABLE>
    48d4:	3436544e 	ldrtcc	r5, [r6], #-1102	; 0xfffffbb2
    48d8:	58414d5f 	stmdapl	r1, {r0, r1, r2, r3, r4, r6, r8, sl, fp, lr}^
    48dc:	30205f5f 	eorcc	r5, r0, pc, asr pc
    48e0:	66663778 			; <UNDEFINED> instruction: 0x66663778
    48e4:	66666666 	strbtvs	r6, [r6], -r6, ror #12
    48e8:	66666666 	strbtvs	r6, [r6], -r6, ror #12
    48ec:	66666666 	strbtvs	r6, [r6], -r6, ror #12
    48f0:	004c4c66 	subeq	r4, ip, r6, ror #24
    48f4:	52415f5f 	subpl	r5, r1, #380	; 0x17c
    48f8:	45465f4d 	strbmi	r5, [r6, #-3917]	; 0xfffff0b3
    48fc:	52555441 	subspl	r5, r5, #1090519040	; 0x41000000
    4900:	41535f45 	cmpmi	r3, r5, asr #30
    4904:	00312054 	eorseq	r2, r1, r4, asr r0
    4908:	4545525f 	strbmi	r5, [r5, #-607]	; 0xfffffda1
    490c:	435f544e 	cmpmi	pc, #1308622848	; 0x4e000000
    4910:	4b434548 	blmi	10d5e38 <_Min_Stack_Size+0x10d5a38>
    4914:	454d455f 	strbmi	r4, [sp, #-1375]	; 0xfffffaa1
    4918:	4e454752 	mcrmi	7, 2, r4, cr5, cr2, {2}
    491c:	76285943 	strtvc	r5, [r8], -r3, asr #18
    4920:	20297261 	eorcs	r7, r9, r1, ror #4
    4924:	4545525f 	strbmi	r5, [r5, #-607]	; 0xfffffda1
    4928:	435f544e 	cmpmi	pc, #1308622848	; 0x4e000000
    492c:	4b434548 	blmi	10d5e54 <_Min_Stack_Size+0x10d5a54>
    4930:	72617628 	rsbvc	r7, r1, #40, 12	; 0x2800000
    4934:	655f202c 	ldrbvs	r2, [pc, #-44]	; 4910 <_Min_Stack_Size+0x4510>
    4938:	6772656d 	ldrbvs	r6, [r2, -sp, ror #10]!
    493c:	79636e65 	stmdbvc	r3!, {r0, r2, r5, r6, r9, sl, fp, sp, lr}^
    4940:	6863202c 	stmdavs	r3!, {r2, r3, r5, sp}^
    4944:	2a207261 	bcs	8212d0 <_Min_Stack_Size+0x820ed0>
    4948:	525f202c 	subspl	r2, pc, #44	; 0x2c
    494c:	544e4545 	strbpl	r4, [lr], #-1349	; 0xfffffabb
    4950:	454d455f 	strbmi	r4, [sp, #-1375]	; 0xfffffaa1
    4954:	4e454752 	mcrmi	7, 2, r4, cr5, cr2, {2}
    4958:	535f5943 	cmppl	pc, #1097728	; 0x10c000
    495c:	2c455a49 	mcrrcs	10, 4, r5, r5, cr9
    4960:	5f002920 	svcpl	0x00002920
    4964:	4c4c555f 	cfstr64mi	mvdx5, [ip], {95}	; 0x5f
    4968:	43415246 	movtmi	r5, #4678	; 0x1246
    496c:	42495f54 	submi	r5, r9, #84, 30	; 0x150
    4970:	5f5f5449 	svcpl	0x005f5449
    4974:	5f003020 	svcpl	0x00003020
    4978:	49534e41 	ldmdbmi	r3, {r0, r6, r9, sl, fp, lr}^
    497c:	4454535f 	ldrbmi	r5, [r4], #-863	; 0xfffffca1
    4980:	5f464544 	svcpl	0x00464544
    4984:	49002048 	stmdbmi	r0, {r3, r6, sp}
    4988:	414d544e 	cmpmi	sp, lr, asr #8
    498c:	414d5f58 	cmpmi	sp, r8, asr pc
    4990:	5f282058 	svcpl	0x00282058
    4994:	544e495f 	strbpl	r4, [lr], #-2399	; 0xfffff6a1
    4998:	5f58414d 	svcpl	0x0058414d
    499c:	5f58414d 	svcpl	0x0058414d
    49a0:	4500295f 	strmi	r2, [r0, #-2399]	; 0xfffff6a1
    49a4:	37495458 	smlsldcc	r5, r9, r8, r4
    49a8:	20374350 	eorscs	r4, r7, r0, asr r3
    49ac:	54584528 	ldrbpl	r4, [r8], #-1320	; 0xfffffad8
    49b0:	50475f49 	subpl	r5, r7, r9, asr #30
    49b4:	4d5f4f49 	ldclmi	15, cr4, [pc, #-292]	; 4898 <_Min_Stack_Size+0x4498>
    49b8:	69707061 	ldmdbvs	r0!, {r0, r5, r6, ip, sp, lr}^
    49bc:	745f676e 	ldrbvc	r6, [pc], #-1902	; 49c4 <_Min_Stack_Size+0x45c4>
    49c0:	58457b29 	stmdapl	r5, {r0, r3, r5, r8, r9, fp, ip, sp, lr}^
    49c4:	2c374954 			; <UNDEFINED> instruction: 0x2c374954
    49c8:	49504720 	ldmdbmi	r0, {r5, r8, r9, sl, lr}^
    49cc:	202c434f 	eorcs	r4, ip, pc, asr #6
    49d0:	4f495047 	svcmi	0x00495047
    49d4:	4e49505f 	mcrmi	0, 2, r5, cr9, cr15, {2}
    49d8:	202c375f 	eorcs	r3, ip, pc, asr r7
    49dc:	49545845 	ldmdbmi	r4, {r0, r2, r6, fp, ip, lr}^
    49e0:	52495f37 	subpl	r5, r9, #55, 30	; 0xdc
    49e4:	007d2051 	rsbseq	r2, sp, r1, asr r0
    49e8:	6c635f5f 	stclvs	15, cr5, [r3], #-380	; 0xfffffe84
    49ec:	756e6165 	strbvc	r6, [lr, #-357]!	; 0xfffffe9b
    49f0:	58450070 	stmdapl	r5, {r4, r5, r6}^
    49f4:	30314954 	eorscc	r4, r1, r4, asr r9
    49f8:	30314450 	eorscc	r4, r1, r0, asr r4
    49fc:	58452820 	stmdapl	r5, {r5, fp, sp}^
    4a00:	475f4954 			; <UNDEFINED> instruction: 0x475f4954
    4a04:	5f4f4950 	svcpl	0x004f4950
    4a08:	7070614d 	rsbsvc	r6, r0, sp, asr #2
    4a0c:	5f676e69 	svcpl	0x00676e69
    4a10:	457b2974 	ldrbmi	r2, [fp, #-2420]!	; 0xfffff68c
    4a14:	31495458 	cmpcc	r9, r8, asr r4
    4a18:	47202c30 			; <UNDEFINED> instruction: 0x47202c30
    4a1c:	444f4950 	strbmi	r4, [pc], #-2384	; 4a24 <_Min_Stack_Size+0x4624>
    4a20:	5047202c 	subpl	r2, r7, ip, lsr #32
    4a24:	505f4f49 	subspl	r4, pc, r9, asr #30
    4a28:	315f4e49 	cmpcc	pc, r9, asr #28
    4a2c:	45202c30 	strmi	r2, [r0, #-3120]!	; 0xfffff3d0
    4a30:	31495458 	cmpcc	r9, r8, asr r4
    4a34:	52495f30 	subpl	r5, r9, #48, 30	; 0xc0
    4a38:	007d2051 	rsbseq	r2, sp, r1, asr r0
    4a3c:	4545525f 	strbmi	r5, [r5, #-607]	; 0xfffffda1
    4a40:	575f544e 	ldrbpl	r5, [pc, -lr, asr #8]
    4a44:	4f545243 	svcmi	0x00545243
    4a48:	535f424d 	cmppl	pc, #-805306364	; 0xd0000004
    4a4c:	45544154 	ldrbmi	r4, [r4, #-340]	; 0xfffffeac
    4a50:	72747028 	rsbsvc	r7, r4, #40	; 0x28
    4a54:	28282029 	stmdacs	r8!, {r0, r3, r5, sp}
    4a58:	29727470 	ldmdbcs	r2!, {r4, r5, r6, sl, ip, sp, lr}^
    4a5c:	6d5f3e2d 	ldclvs	14, cr3, [pc, #-180]	; 49b0 <_Min_Stack_Size+0x45b0>
    4a60:	2d637369 	stclcs	3, cr7, [r3, #-420]!	; 0xfffffe5c
    4a64:	63775f3e 	cmnvs	r7, #62, 30	; 0xf8
    4a68:	6d6f7472 	cfstrdvs	mvd7, [pc, #-456]!	; 48a8 <_Min_Stack_Size+0x44a8>
    4a6c:	74735f62 	ldrbtvc	r5, [r3], #-3938	; 0xfffff09e
    4a70:	29657461 	stmdbcs	r5!, {r0, r5, r6, sl, ip, sp, lr}^
    4a74:	615f5f00 	cmpvs	pc, r0, lsl #30
    4a78:	636f6c6c 	cmnvs	pc, #108, 24	; 0x6c00
    4a7c:	7a69735f 	bvc	1a61800 <_Min_Stack_Size+0x1a61400>
    4a80:	29782865 	ldmdbcs	r8!, {r0, r2, r5, r6, fp, sp}^
    4a84:	615f5f20 	cmpvs	pc, r0, lsr #30
    4a88:	69727474 	ldmdbvs	r2!, {r2, r4, r5, r6, sl, ip, sp, lr}^
    4a8c:	65747562 	ldrbvs	r7, [r4, #-1378]!	; 0xfffffa9e
    4a90:	28285f5f 	stmdacs	r8!, {r0, r1, r2, r3, r4, r6, r8, r9, sl, fp, ip, lr}
    4a94:	6c615f5f 	stclvs	15, cr5, [r1], #-380	; 0xfffffe84
    4a98:	5f636f6c 	svcpl	0x00636f6c
    4a9c:	657a6973 	ldrbvs	r6, [sl, #-2419]!	; 0xfffff68d
    4aa0:	78285f5f 	stmdavc	r8!, {r0, r1, r2, r3, r4, r6, r8, r9, sl, fp, ip, lr}
    4aa4:	00292929 	eoreq	r2, r9, r9, lsr #18
    4aa8:	4f4c5f5f 	svcmi	0x004c5f5f
    4aac:	575f474e 	ldrbpl	r4, [pc, -lr, asr #14]
    4ab0:	48544449 	ldmdami	r4, {r0, r3, r6, sl, lr}^
    4ab4:	33205f5f 			; <UNDEFINED> instruction: 0x33205f5f
    4ab8:	5f5f0032 	svcpl	0x005f0032
    4abc:	5f544c46 	svcpl	0x00544c46
    4ac0:	5f58414d 	svcpl	0x0058414d
    4ac4:	2e33205f 	mrccs	0, 1, r2, cr3, cr15, {2}
    4ac8:	38323034 	ldmdacc	r2!, {r2, r4, r5, ip, sp}
    4acc:	36343332 			; <UNDEFINED> instruction: 0x36343332
    4ad0:	35383336 	ldrcc	r3, [r8, #-822]!	; 0xfffffcca
    4ad4:	36383832 			; <UNDEFINED> instruction: 0x36383832
    4ad8:	38332b65 	ldmdacc	r3!, {r0, r2, r5, r6, r8, r9, fp, sp}
    4adc:	5f5f0046 	svcpl	0x005f0046
    4ae0:	43434155 	movtmi	r4, #12629	; 0x3155
    4ae4:	465f4d55 			; <UNDEFINED> instruction: 0x465f4d55
    4ae8:	5f544942 	svcpl	0x00544942
    4aec:	3631205f 			; <UNDEFINED> instruction: 0x3631205f
    4af0:	775f5f00 	ldrbvc	r5, [pc, -r0, lsl #30]
    4af4:	5f6e7261 	svcpl	0x006e7261
    4af8:	65666572 	strbvs	r6, [r6, #-1394]!	; 0xfffffa8e
    4afc:	636e6572 	cmnvs	lr, #478150656	; 0x1c800000
    4b00:	73287365 			; <UNDEFINED> instruction: 0x73287365
    4b04:	6d2c6d79 	stcvs	13, cr6, [ip, #-484]!	; 0xfffffe1c
    4b08:	20296773 	eorcs	r6, r9, r3, ror r7
    4b0c:	73615f5f 	cmnvc	r1, #380	; 0x17c
    4b10:	285f5f6d 	ldmdacs	pc, {r0, r2, r3, r5, r6, r8, r9, sl, fp, ip, lr}^	; <UNPREDICTABLE>
    4b14:	65732e22 	ldrbvs	r2, [r3, #-3618]!	; 0xfffff1de
    4b18:	6f697463 	svcvs	0x00697463
    4b1c:	672e206e 	strvs	r2, [lr, -lr, rrx]!
    4b20:	772e756e 	strvc	r7, [lr, -lr, ror #10]!
    4b24:	696e7261 	stmdbvs	lr!, {r0, r5, r6, r9, ip, sp, lr}^
    4b28:	222e676e 	eorcs	r6, lr, #28835840	; 0x1b80000
    4b2c:	79732320 	ldmdbvc	r3!, {r5, r8, r9, sp}^
    4b30:	203b296d 	eorscs	r2, fp, sp, ror #18
    4b34:	73615f5f 	cmnvc	r1, #380	; 0x17c
    4b38:	285f5f6d 	ldmdacs	pc, {r0, r2, r3, r5, r6, r8, r9, sl, fp, ip, lr}^	; <UNPREDICTABLE>
    4b3c:	73612e22 	cmnvc	r1, #544	; 0x220
    4b40:	207a6963 	rsbscs	r6, sl, r3, ror #18
    4b44:	2022225c 	eorcs	r2, r2, ip, asr r2
    4b48:	2067736d 	rsbcs	r7, r7, sp, ror #6
    4b4c:	22225c22 	eorcs	r5, r2, #8704	; 0x2200
    4b50:	5f203b29 	svcpl	0x00203b29
    4b54:	6d73615f 	ldfvse	f6, [r3, #-380]!	; 0xfffffe84
    4b58:	22285f5f 	eorcs	r5, r8, #380	; 0x17c
    4b5c:	6572702e 	ldrbvs	r7, [r2, #-46]!	; 0xffffffd2
    4b60:	756f6976 	strbvc	r6, [pc, #-2422]!	; 41f2 <_Min_Stack_Size+0x3df2>
    4b64:	00292273 	eoreq	r2, r9, r3, ror r2
    4b68:	4f495047 	svcmi	0x00495047
    4b6c:	4e49505f 	mcrmi	0, 2, r5, cr9, cr15, {2}
    4b70:	2033315f 	eorscs	r3, r3, pc, asr r1
    4b74:	69752828 	ldmdbvs	r5!, {r3, r5, fp, sp}^
    4b78:	3631746e 	ldrtcc	r7, [r1], -lr, ror #8
    4b7c:	3029745f 	eorcc	r7, r9, pc, asr r4
    4b80:	30303278 	eorscc	r3, r0, r8, ror r2
    4b84:	5f002930 	svcpl	0x00002930
    4b88:	5246555f 	subpl	r5, r6, #398458880	; 0x17c00000
    4b8c:	5f544341 	svcpl	0x00544341
    4b90:	49535045 	ldmdbmi	r3, {r0, r2, r6, ip, lr}^
    4b94:	5f4e4f4c 	svcpl	0x004e4f4c
    4b98:	7830205f 	ldmdavc	r0!, {r0, r1, r2, r3, r4, r6, sp}
    4b9c:	312d5031 			; <UNDEFINED> instruction: 0x312d5031
    4ba0:	00525536 	subseq	r5, r2, r6, lsr r5
    4ba4:	43575f5f 	cmpmi	r7, #380	; 0x17c
    4ba8:	5f524148 	svcpl	0x00524148
    4bac:	5f4e494d 	svcpl	0x004e494d
    4bb0:	5530205f 	ldrpl	r2, [r0, #-95]!	; 0xffffffa1
    4bb4:	475f5f00 	ldrbmi	r5, [pc, -r0, lsl #30]
    4bb8:	485f4343 	ldmdami	pc, {r0, r1, r6, r8, r9, lr}^	; <UNPREDICTABLE>
    4bbc:	5f455641 	svcpl	0x00455641
    4bc0:	434e5953 	movtmi	r5, #59731	; 0xe953
    4bc4:	4d4f435f 	stclmi	3, cr4, [pc, #-380]	; 4a50 <_Min_Stack_Size+0x4650>
    4bc8:	45524150 	ldrbmi	r4, [r2, #-336]	; 0xfffffeb0
    4bcc:	444e415f 	strbmi	r4, [lr], #-351	; 0xfffffea1
    4bd0:	4157535f 	cmpmi	r7, pc, asr r3
    4bd4:	20315f50 	eorscs	r5, r1, r0, asr pc
    4bd8:	4e490031 	mcrmi	0, 2, r0, cr9, cr1, {1}
    4bdc:	54535f43 	ldrbpl	r5, [r3], #-3907	; 0xfffff0bd
    4be0:	5f32334d 	svcpl	0x0032334d
    4be4:	33303146 	teqcc	r0, #-2147483631	; 0x80000011
    4be8:	475f3643 	ldrbmi	r3, [pc, -r3, asr #12]
    4bec:	5f4f4950 	svcpl	0x004f4950
    4bf0:	56495244 	strbpl	r5, [r9], -r4, asr #4
    4bf4:	485f5245 	ldmdami	pc, {r0, r2, r6, r9, ip, lr}^	; <UNPREDICTABLE>
    4bf8:	5f00205f 	svcpl	0x0000205f
    4bfc:	4c57454e 	cfldr64mi	mvdx4, [r7], {78}	; 0x4e
    4c00:	565f4249 	ldrbpl	r4, [pc], -r9, asr #4
    4c04:	49535245 	ldmdbmi	r3, {r0, r2, r6, r9, ip, lr}^
    4c08:	485f4e4f 	ldmdami	pc, {r0, r1, r2, r3, r6, r9, sl, fp, lr}^	; <UNPREDICTABLE>
    4c0c:	31205f5f 			; <UNDEFINED> instruction: 0x31205f5f
    4c10:	475f5f00 	ldrbmi	r5, [pc, -r0, lsl #30]
    4c14:	415f4343 	cmpmi	pc, r3, asr #6
    4c18:	494d4f54 	stmdbmi	sp, {r2, r4, r6, r8, r9, sl, fp, lr}^
    4c1c:	4f4c5f43 	svcmi	0x004c5f43
    4c20:	4c5f474e 	mrrcmi	7, 4, r4, pc, cr14	; <UNPREDICTABLE>
    4c24:	5f4b434f 	svcpl	0x004b434f
    4c28:	45455246 	strbmi	r5, [r5, #-582]	; 0xfffffdba
    4c2c:	5f003220 	svcpl	0x00003220
    4c30:	414c555f 	cmpmi	ip, pc, asr r5
    4c34:	4d554343 	ldclmi	3, cr4, [r5, #-268]	; 0xfffffef4
    4c38:	4e494d5f 	mcrmi	13, 2, r4, cr9, cr15, {2}
    4c3c:	30205f5f 	eorcc	r5, r0, pc, asr pc
    4c40:	4c55302e 	mrrcmi	0, 2, r3, r5, cr14
    4c44:	415f004b 	cmpmi	pc, fp, asr #32
    4c48:	49584554 	ldmdbmi	r8, {r2, r4, r6, r8, sl, lr}^
    4c4c:	59445f54 	stmdbpl	r4, {r2, r4, r6, r8, r9, sl, fp, ip, lr}^
    4c50:	494d414e 	stmdbmi	sp, {r1, r2, r3, r6, r8, lr}^
    4c54:	4c415f43 	mcrrmi	15, 4, r5, r1, cr3
    4c58:	20434f4c 	subcs	r4, r3, ip, asr #30
    4c5c:	5f5f0031 	svcpl	0x005f0031
    4c60:	6465656e 	strbtvs	r6, [r5], #-1390	; 0xfffffa92
    4c64:	7a69735f 	bvc	1a619e8 <_Min_Stack_Size+0x1a615e8>
    4c68:	00745f65 	rsbseq	r5, r4, r5, ror #30
    4c6c:	4e495f5f 	mcrmi	15, 2, r5, cr9, cr15, {2}
    4c70:	414d5f54 	cmpmi	sp, r4, asr pc
    4c74:	205f5f58 	subscs	r5, pc, r8, asr pc	; <UNPREDICTABLE>
    4c78:	66377830 			; <UNDEFINED> instruction: 0x66377830
    4c7c:	66666666 	strbtvs	r6, [r6], -r6, ror #12
    4c80:	5f006666 	svcpl	0x00006666
    4c84:	4d52415f 	ldfmie	f4, [r2, #-380]	; 0xfffffe84
    4c88:	4352415f 	cmpmi	r2, #-1073741801	; 0xc0000017
    4c8c:	00372048 	eorseq	r2, r7, r8, asr #32
    4c90:	49545845 	ldmdbmi	r4, {r0, r2, r6, fp, ip, lr}^
    4c94:	34445034 	strbcc	r5, [r4], #-52	; 0xffffffcc
    4c98:	58452820 	stmdapl	r5, {r5, fp, sp}^
    4c9c:	475f4954 			; <UNDEFINED> instruction: 0x475f4954
    4ca0:	5f4f4950 	svcpl	0x004f4950
    4ca4:	7070614d 	rsbsvc	r6, r0, sp, asr #2
    4ca8:	5f676e69 	svcpl	0x00676e69
    4cac:	457b2974 	ldrbmi	r2, [fp, #-2420]!	; 0xfffff68c
    4cb0:	34495458 	strbcc	r5, [r9], #-1112	; 0xfffffba8
    4cb4:	5047202c 	subpl	r2, r7, ip, lsr #32
    4cb8:	2c444f49 	mcrrcs	15, 4, r4, r4, cr9
    4cbc:	49504720 	ldmdbmi	r0, {r5, r8, r9, sl, lr}^
    4cc0:	49505f4f 	ldmdbmi	r0, {r0, r1, r2, r3, r6, r8, r9, sl, fp, ip, lr}^
    4cc4:	2c345f4e 	ldccs	15, cr5, [r4], #-312	; 0xfffffec8
    4cc8:	54584520 	ldrbpl	r4, [r8], #-1312	; 0xfffffae0
    4ccc:	495f3449 	ldmdbmi	pc, {r0, r3, r6, sl, ip, sp}^	; <UNPREDICTABLE>
    4cd0:	7d205152 	stfvcs	f5, [r0, #-328]!	; 0xfffffeb8
    4cd4:	49504700 	ldmdbmi	r0, {r8, r9, sl, lr}^
    4cd8:	49505f4f 	ldmdbmi	r0, {r0, r1, r2, r3, r6, r8, r9, sl, fp, ip, lr}^
    4cdc:	20325f4e 	eorscs	r5, r2, lr, asr #30
    4ce0:	69752828 	ldmdbvs	r5!, {r3, r5, fp, sp}^
    4ce4:	3631746e 	ldrtcc	r7, [r1], -lr, ror #8
    4ce8:	3029745f 	eorcc	r7, r9, pc, asr r4
    4cec:	30303078 	eorscc	r3, r0, r8, ror r0
    4cf0:	5f002934 	svcpl	0x00002934
    4cf4:	544c465f 	strbpl	r4, [ip], #-1631	; 0xfffff9a1
    4cf8:	4441525f 	strbmi	r5, [r1], #-607	; 0xfffffda1
    4cfc:	5f5f5849 	svcpl	0x005f5849
    4d00:	5f003220 	svcpl	0x00003220
    4d04:	544c465f 	strbpl	r4, [ip], #-1631	; 0xfffff9a1
    4d08:	485f3233 	ldmdami	pc, {r0, r1, r4, r5, r9, ip, sp}^	; <UNPREDICTABLE>
    4d0c:	495f5341 	ldmdbmi	pc, {r0, r6, r8, r9, ip, lr}^	; <UNPREDICTABLE>
    4d10:	4e49464e 	cdpmi	6, 4, cr4, cr9, cr14, {2}
    4d14:	5f595449 	svcpl	0x00595449
    4d18:	0031205f 	eorseq	r2, r1, pc, asr r0
    4d1c:	36544e49 	ldrbcc	r4, [r4], -r9, asr #28
    4d20:	414d5f34 	cmpmi	sp, r4, lsr pc
    4d24:	5f282058 	svcpl	0x00282058
    4d28:	544e495f 	strbpl	r4, [lr], #-2399	; 0xfffff6a1
    4d2c:	4d5f3436 	cfldrdmi	mvd3, [pc, #-216]	; 4c5c <_Min_Stack_Size+0x485c>
    4d30:	5f5f5841 	svcpl	0x005f5841
    4d34:	5f5f0029 	svcpl	0x005f0029
    4d38:	4343414c 	movtmi	r4, #12620	; 0x314c
    4d3c:	455f4d55 	ldrbmi	r4, [pc, #-3413]	; 3fef <_Min_Stack_Size+0x3bef>
    4d40:	4c495350 	mcrrmi	3, 5, r5, r9, cr0
    4d44:	5f5f4e4f 	svcpl	0x005f4e4f
    4d48:	31783020 	cmncc	r8, r0, lsr #32
    4d4c:	31332d50 	teqcc	r3, r0, asr sp
    4d50:	5f004b4c 	svcpl	0x00004b4c
    4d54:	6863775f 	stmdavs	r3!, {r0, r1, r2, r3, r4, r6, r8, r9, sl, ip, sp, lr}^
    4d58:	745f7261 	ldrbvc	r7, [pc], #-609	; 4d60 <_Min_Stack_Size+0x4960>
    4d5c:	00205f5f 	eoreq	r5, r0, pc, asr pc
    4d60:	444c5f5f 	strbmi	r5, [ip], #-3935	; 0xfffff0a1
    4d64:	485f4c42 	ldmdami	pc, {r1, r6, sl, fp, lr}^	; <UNPREDICTABLE>
    4d68:	515f5341 	cmppl	pc, r1, asr #6
    4d6c:	54454955 	strbpl	r4, [r5], #-2389	; 0xfffff6ab
    4d70:	4e414e5f 	mcrmi	14, 2, r4, cr1, cr15, {2}
    4d74:	31205f5f 			; <UNDEFINED> instruction: 0x31205f5f
    4d78:	6e5f5f00 	cdpvs	15, 5, cr5, cr15, cr0, {0}
    4d7c:	5f646565 	svcpl	0x00646565
    4d80:	4c4c554e 	cfstr64mi	mvdx5, [ip], {78}	; 0x4e
    4d84:	4c5f5f00 	mrrcmi	15, 0, r5, pc, cr0	; <UNPREDICTABLE>
    4d88:	5f474e4f 	svcpl	0x00474e4f
    4d8c:	474e4f4c 	strbmi	r4, [lr, -ip, asr #30]
    4d90:	4449575f 	strbmi	r5, [r9], #-1887	; 0xfffff8a1
    4d94:	5f5f4854 	svcpl	0x005f4854
    4d98:	00343620 	eorseq	r3, r4, r0, lsr #12
    4d9c:	49545845 	ldmdbmi	r4, {r0, r2, r6, fp, ip, lr}^
    4da0:	52495f32 	subpl	r5, r9, #50, 30	; 0xc8
    4da4:	00382051 	eorseq	r2, r8, r1, asr r0
    4da8:	544e4957 	strbpl	r4, [lr], #-2391	; 0xfffff6a9
    4dac:	58414d5f 	stmdapl	r1, {r0, r1, r2, r3, r4, r6, r8, sl, fp, lr}^
    4db0:	5f5f2820 	svcpl	0x005f2820
    4db4:	544e4957 	strbpl	r4, [lr], #-2391	; 0xfffff6a9
    4db8:	58414d5f 	stmdapl	r1, {r0, r1, r2, r3, r4, r6, r8, sl, fp, lr}^
    4dbc:	00295f5f 	eoreq	r5, r9, pc, asr pc
    4dc0:	4f495047 	svcmi	0x00495047
    4dc4:	4e49505f 	mcrmi	0, 2, r5, cr9, cr15, {2}
    4dc8:	2030315f 	eorscs	r3, r0, pc, asr r1
    4dcc:	69752828 	ldmdbvs	r5!, {r3, r5, fp, sp}^
    4dd0:	3631746e 	ldrtcc	r7, [r1], -lr, ror #8
    4dd4:	3029745f 	eorcc	r7, r9, pc, asr r4
    4dd8:	30343078 	eorscc	r3, r4, r8, ror r0
    4ddc:	5f002930 	svcpl	0x00002930
    4de0:	4e49555f 	mcrmi	5, 2, r5, cr9, cr15, {2}
    4de4:	41465f54 	cmpmi	r6, r4, asr pc
    4de8:	34365453 	ldrtcc	r5, [r6], #-1107	; 0xfffffbad
    4dec:	58414d5f 	stmdapl	r1, {r0, r1, r2, r3, r4, r6, r8, sl, fp, lr}^
    4df0:	30205f5f 	eorcc	r5, r0, pc, asr pc
    4df4:	66666678 			; <UNDEFINED> instruction: 0x66666678
    4df8:	66666666 	strbtvs	r6, [r6], -r6, ror #12
    4dfc:	66666666 	strbtvs	r6, [r6], -r6, ror #12
    4e00:	66666666 	strbtvs	r6, [r6], -r6, ror #12
    4e04:	4c4c5566 	cfstr64mi	mvdx5, [ip], {102}	; 0x66
    4e08:	54584500 	ldrbpl	r4, [r8], #-1280	; 0xfffffb00
    4e0c:	33203349 			; <UNDEFINED> instruction: 0x33203349
    4e10:	415f5f00 	cmpmi	pc, r0, lsl #30
    4e14:	465f4d52 			; <UNDEFINED> instruction: 0x465f4d52
    4e18:	5f5f0050 	svcpl	0x005f0050
    4e1c:	495f4148 	ldmdbmi	pc, {r3, r6, r8, lr}^	; <UNPREDICTABLE>
    4e20:	5f544942 	svcpl	0x00544942
    4e24:	0038205f 	eorseq	r2, r8, pc, asr r0
    4e28:	52415f5f 	subpl	r5, r1, #380	; 0x17c
    4e2c:	45465f4d 	strbmi	r5, [r6, #-3917]	; 0xfffff0b3
    4e30:	52555441 	subspl	r5, r5, #1090519040	; 0x41000000
    4e34:	53445f45 	movtpl	r5, #20293	; 0x4f45
    4e38:	5f5f0050 	svcpl	0x005f0050
    4e3c:	50544e49 	subspl	r4, r4, r9, asr #28
    4e40:	575f5254 			; <UNDEFINED> instruction: 0x575f5254
    4e44:	48544449 	ldmdami	r4, {r0, r3, r6, sl, lr}^
    4e48:	33205f5f 			; <UNDEFINED> instruction: 0x33205f5f
    4e4c:	5f5f0032 	svcpl	0x005f0032
    4e50:	5f434347 	svcpl	0x00434347
    4e54:	4d4f5441 	cfstrdmi	mvd5, [pc, #-260]	; 4d58 <_Min_Stack_Size+0x4958>
    4e58:	4c5f4349 	mrrcmi	3, 4, r4, pc, cr9	; <UNPREDICTABLE>
    4e5c:	474e4f4c 	strbmi	r4, [lr, -ip, asr #30]
    4e60:	434f4c5f 	movtmi	r4, #64607	; 0xfc5f
    4e64:	52465f4b 	subpl	r5, r6, #300	; 0x12c
    4e68:	31204545 			; <UNDEFINED> instruction: 0x31204545
    4e6c:	54584500 	ldrbpl	r4, [r8], #-1280	; 0xfffffb00
    4e70:	6e495f49 	cdpvs	15, 4, cr5, cr9, cr9, {2}
    4e74:	4c747570 	cfldr64mi	mvdx7, [r4], #-448	; 0xfffffe40
    4e78:	4e656e69 	cdpmi	14, 6, cr6, cr5, cr9, {3}
    4e7c:	65626d75 	strbvs	r6, [r2, #-3445]!	; 0xfffff28b
    4e80:	5f5f0072 	svcpl	0x005f0072
    4e84:	33544c46 	cmpcc	r4, #17920	; 0x4600
    4e88:	4d5f5832 	ldclmi	8, cr5, [pc, #-200]	; 4dc8 <_Min_Stack_Size+0x49c8>
    4e8c:	5f5f4e49 	svcpl	0x005f4e49
    4e90:	322e3220 	eorcc	r3, lr, #32, 4
    4e94:	37303532 			; <UNDEFINED> instruction: 0x37303532
    4e98:	38353833 	ldmdacc	r5!, {r0, r1, r4, r5, fp, ip, sp}
    4e9c:	32373035 	eorscc	r3, r7, #53	; 0x35
    4ea0:	65343130 	ldrvs	r3, [r4, #-304]!	; 0xfffffed0
    4ea4:	3830332d 	ldmdacc	r0!, {r0, r2, r3, r5, r8, r9, ip, sp}
    4ea8:	78323346 	ldmdavc	r2!, {r1, r2, r6, r8, r9, ip, sp}
    4eac:	45525f00 	ldrbmi	r5, [r2, #-3840]	; 0xfffff100
    4eb0:	5f544e45 	svcpl	0x00544e45
    4eb4:	444e4152 	strbmi	r4, [lr], #-338	; 0xfffffeae
    4eb8:	4d5f3834 	ldclmi	8, cr3, [pc, #-208]	; 4df0 <_Min_Stack_Size+0x49f0>
    4ebc:	28544c55 	ldmdacs	r4, {r0, r2, r4, r6, sl, fp, lr}^
    4ec0:	29727470 	ldmdbcs	r2!, {r4, r5, r6, sl, ip, sp, lr}^
    4ec4:	70282820 	eorvc	r2, r8, r0, lsr #16
    4ec8:	2d297274 	sfmcs	f7, 4, [r9, #-464]!	; 0xfffffe30
    4ecc:	34725f3e 	ldrbtcc	r5, [r2], #-3902	; 0xfffff0c2
    4ed0:	5f3e2d38 	svcpl	0x003e2d38
    4ed4:	746c756d 	strbtvc	r7, [ip], #-1389	; 0xfffffa93
    4ed8:	5f5f0029 	svcpl	0x005f0029
    4edc:	36544c46 	ldrbcc	r4, [r4], -r6, asr #24
    4ee0:	414d5f34 	cmpmi	sp, r4, lsr pc
    4ee4:	58455f58 	stmdapl	r5, {r3, r4, r6, r8, r9, sl, fp, ip, lr}^
    4ee8:	205f5f50 	subscs	r5, pc, r0, asr pc	; <UNPREDICTABLE>
    4eec:	34323031 	ldrtcc	r3, [r2], #-49	; 0xffffffcf
    4ef0:	725f5f00 	subsvc	r5, pc, #0, 30
    4ef4:	72757465 	rsbsvc	r7, r5, #1694498816	; 0x65000000
    4ef8:	745f736e 	ldrbvc	r7, [pc], #-878	; 4f00 <_Min_Stack_Size+0x4b00>
    4efc:	65636977 	strbvs	r6, [r3, #-2423]!	; 0xfffff689
    4f00:	615f5f20 	cmpvs	pc, r0, lsr #30
    4f04:	69727474 	ldmdbvs	r2!, {r2, r4, r5, r6, sl, ip, sp, lr}^
    4f08:	65747562 	ldrbvs	r7, [r4, #-1378]!	; 0xfffffa9e
    4f0c:	28285f5f 	stmdacs	r8!, {r0, r1, r2, r3, r4, r6, r8, r9, sl, fp, ip, lr}
    4f10:	65725f5f 	ldrbvs	r5, [r2, #-3935]!	; 0xfffff0a1
    4f14:	6e727574 	mrcvs	5, 3, r7, cr2, cr4, {3}
    4f18:	77745f73 			; <UNDEFINED> instruction: 0x77745f73
    4f1c:	5f656369 	svcpl	0x00656369
    4f20:	0029295f 	eoreq	r2, r9, pc, asr r9
    4f24:	43575f5f 	cmpmi	r7, #380	; 0x17c
    4f28:	5f524148 	svcpl	0x00524148
    4f2c:	45002054 	strmi	r2, [r0, #-84]	; 0xffffffac
    4f30:	30495458 	subcc	r5, r9, r8, asr r4
    4f34:	20304150 	eorscs	r4, r0, r0, asr r1
    4f38:	54584528 	ldrbpl	r4, [r8], #-1320	; 0xfffffad8
    4f3c:	50475f49 	subpl	r5, r7, r9, asr #30
    4f40:	4d5f4f49 	ldclmi	15, cr4, [pc, #-292]	; 4e24 <_Min_Stack_Size+0x4a24>
    4f44:	69707061 	ldmdbvs	r0!, {r0, r5, r6, ip, sp, lr}^
    4f48:	745f676e 	ldrbvc	r6, [pc], #-1902	; 4f50 <_Min_Stack_Size+0x4b50>
    4f4c:	58457b29 	stmdapl	r5, {r0, r3, r5, r8, r9, fp, ip, sp, lr}^
    4f50:	2c304954 			; <UNDEFINED> instruction: 0x2c304954
    4f54:	49504720 	ldmdbmi	r0, {r5, r8, r9, sl, lr}^
    4f58:	202c414f 	eorcs	r4, ip, pc, asr #2
    4f5c:	4f495047 	svcmi	0x00495047
    4f60:	4e49505f 	mcrmi	0, 2, r5, cr9, cr15, {2}
    4f64:	202c305f 	eorcs	r3, ip, pc, asr r0
    4f68:	49545845 	ldmdbmi	r4, {r0, r2, r6, fp, ip, lr}^
    4f6c:	52495f30 	subpl	r5, r9, #48, 30	; 0xc0
    4f70:	007d2051 	rsbseq	r2, sp, r1, asr r0
    4f74:	435f424d 	cmpmi	pc, #-805306364	; 0xd0000004
    4f78:	4d5f5255 	lfmmi	f5, 2, [pc, #-340]	; 4e2c <_Min_Stack_Size+0x4a2c>
    4f7c:	5f205841 	svcpl	0x00205841
    4f80:	636f6c5f 	cmnvs	pc, #24320	; 0x5f00
    4f84:	5f656c61 	svcpl	0x00656c61
    4f88:	635f626d 	cmpvs	pc, #-805306362	; 0xd0000006
    4f8c:	6d5f7275 	lfmvs	f7, 2, [pc, #-468]	; 4dc0 <_Min_Stack_Size+0x49c0>
    4f90:	29287861 	stmdbcs	r8!, {r0, r5, r6, fp, ip, sp, lr}
    4f94:	465f5f00 	ldrbmi	r5, [pc], -r0, lsl #30
    4f98:	3436544c 	ldrtcc	r5, [r6], #-1100	; 0xfffffbb4
    4f9c:	4e494d5f 	mcrmi	13, 2, r4, cr9, cr15, {2}
    4fa0:	32205f5f 	eorcc	r5, r0, #380	; 0x17c
    4fa4:	3532322e 	ldrcc	r3, [r2, #-558]!	; 0xfffffdd2
    4fa8:	38333730 	ldmdacc	r3!, {r4, r5, r8, r9, sl, ip, sp}
    4fac:	30353835 	eorscc	r3, r5, r5, lsr r8
    4fb0:	31303237 	teqcc	r0, r7, lsr r2
    4fb4:	332d6534 			; <UNDEFINED> instruction: 0x332d6534
    4fb8:	36463830 			; <UNDEFINED> instruction: 0x36463830
    4fbc:	5f5f0034 	svcpl	0x005f0034
    4fc0:	746e695f 	strbtvc	r6, [lr], #-2399	; 0xfffff6a1
    4fc4:	745f3233 	ldrbvc	r3, [pc], #-563	; 4fcc <_Min_Stack_Size+0x4bcc>
    4fc8:	6665645f 			; <UNDEFINED> instruction: 0x6665645f
    4fcc:	64656e69 	strbtvs	r6, [r5], #-3689	; 0xfffff197
    4fd0:	5f003120 	svcpl	0x00003120
    4fd4:	6d6d6167 	stfvse	f6, [sp, #-412]!	; 0xfffffe64
    4fd8:	69735f61 	ldmdbvs	r3!, {r0, r5, r6, r8, r9, sl, fp, ip, lr}^
    4fdc:	61676e67 	cmnvs	r7, r7, ror #28
    4fe0:	5041006d 	subpl	r0, r1, sp, rrx
    4fe4:	53523242 	cmppl	r2, #536870916	; 0x20000004
    4fe8:	5f005254 	svcpl	0x00005254
    4fec:	544c465f 	strbpl	r4, [ip], #-1631	; 0xfffff9a1
    4ff0:	4e494d5f 	mcrmi	13, 2, r4, cr9, cr15, {2}
    4ff4:	5058455f 	subspl	r4, r8, pc, asr r5
    4ff8:	28205f5f 	stmdacs	r0!, {r0, r1, r2, r3, r4, r6, r8, r9, sl, fp, ip, lr}
    4ffc:	3532312d 	ldrcc	r3, [r2, #-301]!	; 0xfffffed3
    5000:	5f5f0029 	svcpl	0x005f0029
    5004:	544e4957 	strbpl	r4, [lr], #-2391	; 0xfffff6a9
    5008:	4449575f 	strbmi	r5, [r9], #-1887	; 0xfffff8a1
    500c:	5f5f4854 	svcpl	0x005f4854
    5010:	00323320 	eorseq	r3, r2, r0, lsr #6
    5014:	4e495f5f 	mcrmi	15, 2, r5, cr9, cr15, {2}
    5018:	5f343654 	svcpl	0x00343654
    501c:	45505954 	ldrbmi	r5, [r0, #-2388]	; 0xfffff6ac
    5020:	6c205f5f 	stcvs	15, cr5, [r0], #-380	; 0xfffffe84
    5024:	20676e6f 	rsbcs	r6, r7, pc, ror #28
    5028:	676e6f6c 	strbvs	r6, [lr, -ip, ror #30]!
    502c:	746e6920 	strbtvc	r6, [lr], #-2336	; 0xfffff6e0
    5030:	4c5f5f00 	mrrcmi	15, 0, r5, pc, cr0	; <UNPREDICTABLE>
    5034:	43415246 	movtmi	r5, #4678	; 0x1246
    5038:	42465f54 	submi	r5, r6, #84, 30	; 0x150
    503c:	5f5f5449 	svcpl	0x005f5449
    5040:	00313320 	eorseq	r3, r1, r0, lsr #6
    5044:	48435f5f 	stmdami	r3, {r0, r1, r2, r3, r4, r6, r8, r9, sl, fp, ip, lr}^
    5048:	425f5241 	subsmi	r5, pc, #268435460	; 0x10000004
    504c:	5f5f5449 	svcpl	0x005f5449
    5050:	45003820 	strmi	r3, [r0, #-2080]	; 0xfffff7e0
    5054:	5f495458 	svcpl	0x00495458
    5058:	004e4950 	subeq	r4, lr, r0, asr r9
    505c:	4349564e 	movtmi	r5, #38478	; 0x964e
    5060:	5152495f 	cmppl	r2, pc, asr r9
    5064:	58455f36 	stmdapl	r5, {r1, r2, r4, r5, r8, r9, sl, fp, ip, lr}^
    5068:	5f314954 	svcpl	0x00314954
    506c:	42414e45 	submi	r4, r1, #1104	; 0x450
    5070:	2820454c 	stmdacs	r0!, {r2, r3, r6, r8, sl, lr}
    5074:	4349564e 	movtmi	r5, #38478	; 0x964e
    5078:	4553495f 	ldrbmi	r4, [r3, #-2399]	; 0xfffff6a1
    507c:	7c203052 	stcvc	0, cr3, [r0], #-328	; 0xfffffeb8
    5080:	3128203d 			; <UNDEFINED> instruction: 0x3128203d
    5084:	29373c3c 	ldmdbcs	r7!, {r2, r3, r4, r5, sl, fp, ip, sp}
    5088:	5f5f0029 	svcpl	0x005f0029
    508c:	5f445342 	svcpl	0x00445342
    5090:	49534956 	ldmdbmi	r3, {r1, r2, r4, r6, r8, fp, lr}^
    5094:	20454c42 	subcs	r4, r5, r2, asr #24
    5098:	4e490031 	mcrmi	0, 2, r0, cr9, cr1, {1}
    509c:	454c5f54 	strbmi	r5, [ip, #-3924]	; 0xfffff0ac
    50a0:	31545341 	cmpcc	r4, r1, asr #6
    50a4:	494d5f36 	stmdbmi	sp, {r1, r2, r4, r5, r8, r9, sl, fp, ip, lr}^
    50a8:	2d28204e 	stccs	0, cr2, [r8, #-312]!	; 0xfffffec8
    50ac:	4e495f5f 	mcrmi	15, 2, r5, cr9, cr15, {2}
    50b0:	454c5f54 	strbmi	r5, [ip, #-3924]	; 0xfffff0ac
    50b4:	31545341 	cmpcc	r4, r1, asr #6
    50b8:	414d5f36 	cmpmi	sp, r6, lsr pc
    50bc:	205f5f58 	subscs	r5, pc, r8, asr pc	; <UNPREDICTABLE>
    50c0:	2931202d 	ldmdbcs	r1!, {r0, r2, r3, r5, sp}
    50c4:	755f5f00 	ldrbvc	r5, [pc, #-3840]	; 41cc <_Min_Stack_Size+0x3dcc>
    50c8:	6573756e 	ldrbvs	r7, [r3, #-1390]!	; 0xfffffa92
    50cc:	5f5f2064 	svcpl	0x005f2064
    50d0:	72747461 	rsbsvc	r7, r4, #1627389952	; 0x61000000
    50d4:	74756269 	ldrbtvc	r6, [r5], #-617	; 0xfffffd97
    50d8:	285f5f65 	ldmdacs	pc, {r0, r2, r5, r6, r8, r9, sl, fp, ip, lr}^	; <UNPREDICTABLE>
    50dc:	755f5f28 	ldrbvc	r5, [pc, #-3880]	; 41bc <_Min_Stack_Size+0x3dbc>
    50e0:	6573756e 	ldrbvs	r7, [r3, #-1390]!	; 0xfffffa92
    50e4:	295f5f64 	ldmdbcs	pc, {r2, r5, r6, r8, r9, sl, fp, ip, lr}^	; <UNPREDICTABLE>
    50e8:	665f0029 	ldrbvs	r0, [pc], -r9, lsr #32
    50ec:	6c656572 	cfstr64vs	mvdx6, [r5], #-456	; 0xfffffe38
    50f0:	00747369 	rsbseq	r7, r4, r9, ror #6
    50f4:	46555f5f 	usaxmi	r5, r5, pc	; <UNPREDICTABLE>
    50f8:	54434152 	strbpl	r4, [r3], #-338	; 0xfffffeae
    50fc:	58414d5f 	stmdapl	r1, {r0, r1, r2, r3, r4, r6, r8, sl, fp, lr}^
    5100:	30205f5f 	eorcc	r5, r0, pc, asr pc
    5104:	46464658 			; <UNDEFINED> instruction: 0x46464658
    5108:	312d5046 			; <UNDEFINED> instruction: 0x312d5046
    510c:	00525536 	subseq	r5, r2, r6, lsr r5
    5110:	695f5f5f 	ldmdbvs	pc, {r0, r1, r2, r3, r4, r6, r8, r9, sl, fp, ip, lr}^	; <UNPREDICTABLE>
    5114:	6c5f746e 	cfldrdvs	mvd7, [pc], {110}	; 0x6e
    5118:	74736165 	ldrbtvc	r6, [r3], #-357	; 0xfffffe9b
    511c:	745f3436 	ldrbvc	r3, [pc], #-1078	; 5124 <_Min_Stack_Size+0x4d24>
    5120:	6665645f 			; <UNDEFINED> instruction: 0x6665645f
    5124:	64656e69 	strbtvs	r6, [r5], #-3689	; 0xfffff197
    5128:	5f003120 	svcpl	0x00003120
    512c:	4e49555f 	mcrmi	5, 2, r5, cr9, cr15, {2}
    5130:	454c5f54 	strbmi	r5, [ip, #-3924]	; 0xfffff0ac
    5134:	33545341 	cmpcc	r4, #67108865	; 0x4000001
    5138:	59545f32 	ldmdbpl	r4, {r1, r4, r5, r8, r9, sl, fp, ip, lr}^
    513c:	5f5f4550 	svcpl	0x005f4550
    5140:	6e6f6c20 	cdpvs	12, 6, cr6, cr15, cr0, {1}
    5144:	6e752067 	cdpvs	0, 7, cr2, cr5, cr7, {3}
    5148:	6e676973 			; <UNDEFINED> instruction: 0x6e676973
    514c:	69206465 	stmdbvs	r0!, {r0, r2, r5, r6, sl, sp, lr}
    5150:	5f00746e 	svcpl	0x0000746e
    5154:	544e4157 	strbpl	r4, [lr], #-343	; 0xfffffea9
    5158:	4545525f 	strbmi	r5, [r5, #-607]	; 0xfffffda1
    515c:	535f544e 	cmppl	pc, #1308622848	; 0x4e000000
    5160:	4c4c414d 	stfmie	f4, [ip], {77}	; 0x4d
    5164:	5f003120 	svcpl	0x00003120
    5168:	65756c67 	ldrbvs	r6, [r5, #-3175]!	; 0xfffff399
    516c:	626d5f00 	rsbvs	r5, sp, #0, 30
    5170:	74617473 	strbtvc	r7, [r1], #-1139	; 0xfffffb8d
    5174:	00745f65 	rsbseq	r5, r4, r5, ror #30
    5178:	6769735f 			; <UNDEFINED> instruction: 0x6769735f
    517c:	5f5f006e 	svcpl	0x005f006e
    5180:	41524653 	cmpmi	r2, r3, asr r6
    5184:	495f5443 	ldmdbmi	pc, {r0, r1, r6, sl, ip, lr}^	; <UNPREDICTABLE>
    5188:	5f544942 	svcpl	0x00544942
    518c:	0030205f 	eorseq	r2, r0, pc, asr r0
    5190:	4654415f 			; <UNDEFINED> instruction: 0x4654415f
    5194:	5f454c49 	svcpl	0x00454c49
    5198:	52554f53 	subspl	r4, r5, #332	; 0x14c
    519c:	31204543 			; <UNDEFINED> instruction: 0x31204543
    51a0:	535f5f00 	cmppl	pc, #0, 30
    51a4:	4e494454 	mcrmi	4, 2, r4, cr9, cr4, {2}
    51a8:	58455f54 	stmdapl	r5, {r2, r4, r6, r8, r9, sl, fp, ip, lr}^
    51ac:	29782850 	ldmdbcs	r8!, {r4, r6, fp, sp}^
    51b0:	205f5f20 	subscs	r5, pc, r0, lsr #30
    51b4:	20782323 	rsbscs	r2, r8, r3, lsr #6
    51b8:	5f5f2323 	svcpl	0x005f2323
    51bc:	455f5f00 	ldrbmi	r5, [pc, #-3840]	; 42c4 <_Min_Stack_Size+0x3ec4>
    51c0:	78285058 	stmdavc	r8!, {r3, r4, r6, ip, lr}
    51c4:	5f5f2029 	svcpl	0x005f2029
    51c8:	78232320 	stmdavc	r3!, {r5, r8, r9, sp}
    51cc:	5f232320 	svcpl	0x00232320
    51d0:	5f5f005f 	svcpl	0x005f005f
    51d4:	45545942 	ldrbmi	r5, [r4, #-2370]	; 0xfffff6be
    51d8:	44524f5f 	ldrbmi	r4, [r2], #-3935	; 0xfffff0a1
    51dc:	5f5f5245 	svcpl	0x005f5245
    51e0:	4f5f5f20 	svcmi	0x005f5f20
    51e4:	52454452 	subpl	r4, r5, #1375731712	; 0x52000000
    51e8:	54494c5f 	strbpl	r4, [r9], #-3167	; 0xfffff3a1
    51ec:	5f454c54 	svcpl	0x00454c54
    51f0:	49444e45 	stmdbmi	r4, {r0, r2, r6, r9, sl, fp, lr}^
    51f4:	5f5f4e41 	svcpl	0x005f4e41
    51f8:	465f5f00 	ldrbmi	r5, [pc], -r0, lsl #30
    51fc:	3233544c 	eorscc	r5, r3, #76, 8	; 0x4c000000
    5200:	5350455f 	cmppl	r0, #398458880	; 0x17c00000
    5204:	4e4f4c49 	cdpmi	12, 4, cr4, cr15, cr9, {2}
    5208:	31205f5f 			; <UNDEFINED> instruction: 0x31205f5f
    520c:	3239312e 	eorscc	r3, r9, #-2147483637	; 0x8000000b
    5210:	38323930 	ldmdacc	r2!, {r4, r5, r8, fp, ip, sp}
    5214:	30353539 	eorscc	r3, r5, r9, lsr r5
    5218:	32313837 	eorscc	r3, r1, #3604480	; 0x370000
    521c:	372d6535 			; <UNDEFINED> instruction: 0x372d6535
    5220:	00323346 	eorseq	r3, r2, r6, asr #6
    5224:	52415f5f 	subpl	r5, r1, #380	; 0x17c
    5228:	454e5f4d 	strbmi	r5, [lr, #-3917]	; 0xfffff0b3
    522c:	465f4e4f 	ldrbmi	r4, [pc], -pc, asr #28
    5230:	5f5f0050 	svcpl	0x005f0050
    5234:	52464c4c 	subpl	r4, r6, #76, 24	; 0x4c00
    5238:	5f544341 	svcpl	0x00544341
    523c:	5f58414d 	svcpl	0x0058414d
    5240:	5830205f 	ldmdapl	r0!, {r0, r1, r2, r3, r4, r6, sp}
    5244:	46464637 			; <UNDEFINED> instruction: 0x46464637
    5248:	46464646 	strbmi	r4, [r6], -r6, asr #12
    524c:	46464646 	strbmi	r4, [r6], -r6, asr #12
    5250:	46464646 	strbmi	r4, [r6], -r6, asr #12
    5254:	33362d50 	teqcc	r6, #80, 26	; 0x1400
    5258:	00524c4c 	subseq	r4, r2, ip, asr #24
    525c:	534e415f 	movtpl	r4, #57695	; 0xe15f
    5260:	43454449 	movtmi	r4, #21577	; 0x5449
    5264:	5f485f4c 	svcpl	0x00485f4c
    5268:	58450020 	stmdapl	r5, {r5}^
    526c:	30314954 	eorscc	r4, r1, r4, asr r9
    5270:	5152495f 	cmppl	r2, pc, asr r9
    5274:	00303420 	eorseq	r3, r0, r0, lsr #8
    5278:	49545845 	ldmdbmi	r4, {r0, r2, r6, fp, ip, lr}^
    527c:	34435034 	strbcc	r5, [r3], #-52	; 0xffffffcc
    5280:	58452820 	stmdapl	r5, {r5, fp, sp}^
    5284:	475f4954 			; <UNDEFINED> instruction: 0x475f4954
    5288:	5f4f4950 	svcpl	0x004f4950
    528c:	7070614d 	rsbsvc	r6, r0, sp, asr #2
    5290:	5f676e69 	svcpl	0x00676e69
    5294:	457b2974 	ldrbmi	r2, [fp, #-2420]!	; 0xfffff68c
    5298:	34495458 	strbcc	r5, [r9], #-1112	; 0xfffffba8
    529c:	5047202c 	subpl	r2, r7, ip, lsr #32
    52a0:	2c434f49 	mcrrcs	15, 4, r4, r3, cr9
    52a4:	49504720 	ldmdbmi	r0, {r5, r8, r9, sl, lr}^
    52a8:	49505f4f 	ldmdbmi	r0, {r0, r1, r2, r3, r6, r8, r9, sl, fp, ip, lr}^
    52ac:	2c345f4e 	ldccs	15, cr5, [r4], #-312	; 0xfffffec8
    52b0:	54584520 	ldrbpl	r4, [r8], #-1312	; 0xfffffae0
    52b4:	495f3449 	ldmdbmi	pc, {r0, r3, r6, sl, ip, sp}^	; <UNPREDICTABLE>
    52b8:	7d205152 	stfvcs	f5, [r0, #-328]!	; 0xfffffeb8
    52bc:	505f5f00 	subspl	r5, pc, r0, lsl #30
    52c0:	5849534f 	stmdapl	r9, {r0, r1, r2, r3, r6, r8, r9, ip, lr}^
    52c4:	5349565f 	movtpl	r5, #38495	; 0x965f
    52c8:	454c4249 	strbmi	r4, [ip, #-585]	; 0xfffffdb7
    52cc:	30303220 	eorscc	r3, r0, r0, lsr #4
    52d0:	00393038 	eorseq	r3, r9, r8, lsr r0
    52d4:	49545845 	ldmdbmi	r4, {r0, r2, r6, fp, ip, lr}^
    52d8:	495f3431 	ldmdbmi	pc, {r0, r4, r5, sl, ip, sp}^	; <UNPREDICTABLE>
    52dc:	34205152 	strtcc	r5, [r0], #-338	; 0xfffffeae
    52e0:	58450030 	stmdapl	r5, {r4, r5}^
    52e4:	20314954 	eorscs	r4, r1, r4, asr r9
    52e8:	5f5f0031 	svcpl	0x005f0031
    52ec:	41524655 	cmpmi	r2, r5, asr r6
    52f0:	465f5443 	ldrbmi	r5, [pc], -r3, asr #8
    52f4:	5f544942 	svcpl	0x00544942
    52f8:	3631205f 			; <UNDEFINED> instruction: 0x3631205f
    52fc:	555f5f00 	ldrbpl	r5, [pc, #-3840]	; 4404 <_Min_Stack_Size+0x4004>
    5300:	465f5144 	ldrbmi	r5, [pc], -r4, asr #2
    5304:	5f544942 	svcpl	0x00544942
    5308:	3436205f 	ldrtcc	r2, [r6], #-95	; 0xffffffa1
    530c:	475f5f00 	ldrbmi	r5, [pc, -r0, lsl #30]
    5310:	4c43554e 	cfstr64mi	mvdx5, [r3], {78}	; 0x4e
    5314:	5f454b49 	svcpl	0x00454b49
    5318:	4c495542 	cfstr64mi	mvdx5, [r9], {66}	; 0x42
    531c:	5f4e4954 	svcpl	0x004e4954
    5320:	434d454d 	movtmi	r4, #54605	; 0xd54d
    5324:	31205950 			; <UNDEFINED> instruction: 0x31205950
    5328:	4c5f5f00 	mrrcmi	15, 0, r5, pc, cr0	; <UNPREDICTABLE>
    532c:	5f4c4244 	svcpl	0x004c4244
    5330:	5f58414d 	svcpl	0x0058414d
    5334:	455f3031 	ldrbmi	r3, [pc, #-49]	; 530b <_Min_Stack_Size+0x4f0b>
    5338:	5f5f5058 	svcpl	0x005f5058
    533c:	38303320 	ldmdacc	r0!, {r5, r8, r9, ip, sp}
    5340:	735f5f00 	cmpvc	pc, #0, 30
    5344:	61665f66 	cmnvs	r6, r6, ror #30
    5348:	735f656b 	cmpvc	pc, #448790528	; 0x1ac00000
    534c:	756f6474 	strbvc	r6, [pc, #-1140]!	; 4ee0 <_Min_Stack_Size+0x4ae0>
    5350:	5f5f0074 	svcpl	0x005f0074
    5354:	5f4c4244 	svcpl	0x004c4244
    5358:	4f4e4544 	svcmi	0x004e4544
    535c:	4d5f4d52 	ldclmi	13, cr4, [pc, #-328]	; 521c <_Min_Stack_Size+0x4e1c>
    5360:	5f5f4e49 	svcpl	0x005f4e49
    5364:	64282820 	strtvs	r2, [r8], #-2080	; 0xfffff7e0
    5368:	6c62756f 	cfstr64vs	mvdx7, [r2], #-444	; 0xfffffe44
    536c:	2e342965 	vsubcs.f16	s4, s8, s11	; <UNPREDICTABLE>
    5370:	36303439 			; <UNDEFINED> instruction: 0x36303439
    5374:	35343635 	ldrcc	r3, [r4, #-1589]!	; 0xfffff9cb
    5378:	32313438 	eorscc	r3, r1, #56, 8	; 0x38000000
    537c:	34353634 	ldrtcc	r3, [r5], #-1588	; 0xfffff9cc
    5380:	32332d65 	eorscc	r2, r3, #6464	; 0x1940
    5384:	00294c34 	eoreq	r4, r9, r4, lsr ip
    5388:	616c665f 	cmnvs	ip, pc, asr r6
    538c:	00327367 	eorseq	r7, r2, r7, ror #6
    5390:	4e495f5f 	mcrmi	15, 2, r5, cr9, cr15, {2}
    5394:	41465f54 	cmpmi	r6, r4, asr pc
    5398:	32335453 	eorscc	r5, r3, #1392508928	; 0x53000000
    539c:	5059545f 	subspl	r5, r9, pc, asr r4
    53a0:	205f5f45 	subscs	r5, pc, r5, asr #30
    53a4:	00746e69 	rsbseq	r6, r4, r9, ror #28
    53a8:	4e49555f 	mcrmi	5, 2, r5, cr9, cr15, {2}
    53ac:	5f343654 	svcpl	0x00343654
    53b0:	45445f54 	strbmi	r5, [r4, #-3924]	; 0xfffff0ac
    53b4:	52414c43 	subpl	r4, r1, #17152	; 0x4300
    53b8:	00204445 	eoreq	r4, r0, r5, asr #8
    53bc:	334d5453 	movtcc	r5, #54355	; 0xd453
    53c0:	30314632 	eorscc	r4, r1, r2, lsr r6
    53c4:	54364333 	ldrtpl	r4, [r6], #-819	; 0xfffffccd
    53c8:	00312078 	eorseq	r2, r1, r8, ror r0
    53cc:	656d655f 	strbvs	r6, [sp, #-1375]!	; 0xfffffaa1
    53d0:	6e656772 	mcrvs	7, 3, r6, cr5, cr2, {3}
    53d4:	45007963 	strmi	r7, [r0, #-2403]	; 0xfffff69d
    53d8:	36495458 			; <UNDEFINED> instruction: 0x36495458
    53dc:	45003620 	strmi	r3, [r0, #-1568]	; 0xfffff9e0
    53e0:	36495458 			; <UNDEFINED> instruction: 0x36495458
    53e4:	20364350 	eorscs	r4, r6, r0, asr r3
    53e8:	54584528 	ldrbpl	r4, [r8], #-1320	; 0xfffffad8
    53ec:	50475f49 	subpl	r5, r7, r9, asr #30
    53f0:	4d5f4f49 	ldclmi	15, cr4, [pc, #-292]	; 52d4 <_Min_Stack_Size+0x4ed4>
    53f4:	69707061 	ldmdbvs	r0!, {r0, r5, r6, ip, sp, lr}^
    53f8:	745f676e 	ldrbvc	r6, [pc], #-1902	; 5400 <_Min_Stack_Size+0x5000>
    53fc:	58457b29 	stmdapl	r5, {r0, r3, r5, r8, r9, fp, ip, sp, lr}^
    5400:	2c364954 			; <UNDEFINED> instruction: 0x2c364954
    5404:	49504720 	ldmdbmi	r0, {r5, r8, r9, sl, lr}^
    5408:	202c434f 	eorcs	r4, ip, pc, asr #6
    540c:	4f495047 	svcmi	0x00495047
    5410:	4e49505f 	mcrmi	0, 2, r5, cr9, cr15, {2}
    5414:	202c365f 	eorcs	r3, ip, pc, asr r6
    5418:	49545845 	ldmdbmi	r4, {r0, r2, r6, fp, ip, lr}^
    541c:	52495f36 	subpl	r5, r9, #54, 30	; 0xd8
    5420:	007d2051 	rsbseq	r2, sp, r1, asr r0
    5424:	454e5f5f 	strbmi	r5, [lr, #-3935]	; 0xfffff0a1
    5428:	42494c57 	submi	r4, r9, #22272	; 0x5700
    542c:	4e494d5f 	mcrmi	13, 2, r4, cr9, cr15, {2}
    5430:	5f5f524f 	svcpl	0x005f524f
    5434:	5f003020 	svcpl	0x00003020
    5438:	41454c5f 	cmpmi	r5, pc, asr ip
    543c:	20385453 	eorscs	r5, r8, r3, asr r4
    5440:	22686822 	rsbcs	r6, r8, #2228224	; 0x220000
    5444:	54584500 	ldrbpl	r4, [r8], #-1280	; 0xfffffb00
    5448:	495f3549 	ldmdbmi	pc, {r0, r3, r6, r8, sl, ip, sp}^	; <UNPREDICTABLE>
    544c:	32205152 	eorcc	r5, r0, #-2147483628	; 0x80000014
    5450:	535f0033 	cmppl	pc, #51	; 0x33
    5454:	54455a49 	strbpl	r5, [r5], #-2633	; 0xfffff5b7
    5458:	5f00205f 	svcpl	0x0000205f
    545c:	544c465f 	strbpl	r4, [ip], #-1631	; 0xfffff9a1
    5460:	485f3436 	ldmdami	pc, {r1, r2, r4, r5, sl, ip, sp}^	; <UNPREDICTABLE>
    5464:	515f5341 	cmppl	pc, r1, asr #6
    5468:	54454955 	strbpl	r4, [r5], #-2389	; 0xfffff6ab
    546c:	4e414e5f 	mcrmi	14, 2, r4, cr1, cr15, {2}
    5470:	31205f5f 			; <UNDEFINED> instruction: 0x31205f5f
    5474:	4e495500 	cdpmi	5, 4, cr5, cr9, cr0, {0}
    5478:	5f323354 	svcpl	0x00323354
    547c:	29782843 	ldmdbcs	r8!, {r0, r1, r6, fp, sp}^
    5480:	555f5f20 	ldrbpl	r5, [pc, #-3872]	; 4568 <_Min_Stack_Size+0x4168>
    5484:	33544e49 	cmpcc	r4, #1168	; 0x490
    5488:	28435f32 	stmdacs	r3, {r1, r4, r5, r8, r9, sl, fp, ip, lr}^
    548c:	5f002978 	svcpl	0x00002978
    5490:	4153555f 	cmpmi	r3, pc, asr r5
    5494:	4d554343 	ldclmi	3, cr4, [r5, #-268]	; 0xfffffef4
    5498:	4942495f 	stmdbmi	r2, {r0, r1, r2, r3, r4, r6, r8, fp, lr}^
    549c:	205f5f54 	subscs	r5, pc, r4, asr pc	; <UNPREDICTABLE>
    54a0:	5f5f0038 	svcpl	0x005f0038
    54a4:	5f414455 	svcpl	0x00414455
    54a8:	54494246 	strbpl	r4, [r9], #-582	; 0xfffffdba
    54ac:	33205f5f 			; <UNDEFINED> instruction: 0x33205f5f
    54b0:	5f5f0032 	svcpl	0x005f0032
    54b4:	36544c46 	ldrbcc	r4, [r4], -r6, asr #24
    54b8:	41485f34 	cmpmi	r8, r4, lsr pc
    54bc:	45445f53 	strbmi	r5, [r4, #-3923]	; 0xfffff0ad
    54c0:	4d524f4e 	ldclmi	15, cr4, [r2, #-312]	; 0xfffffec8
    54c4:	31205f5f 			; <UNDEFINED> instruction: 0x31205f5f
    54c8:	465f5f00 	ldrbmi	r5, [pc], -r0, lsl #30
    54cc:	445f544c 	ldrbmi	r5, [pc], #-1100	; 54d4 <_Min_Stack_Size+0x50d4>
    54d0:	5f5f4749 	svcpl	0x005f4749
    54d4:	5f003620 	svcpl	0x00003620
    54d8:	4e49555f 	mcrmi	5, 2, r5, cr9, cr15, {2}
    54dc:	58414d54 	stmdapl	r1, {r2, r4, r6, r8, sl, fp, lr}^
    54e0:	5059545f 	subspl	r5, r9, pc, asr r4
    54e4:	205f5f45 	subscs	r5, pc, r5, asr #30
    54e8:	676e6f6c 	strbvs	r6, [lr, -ip, ror #30]!
    54ec:	6e6f6c20 	cdpvs	12, 6, cr6, cr15, cr0, {1}
    54f0:	6e752067 	cdpvs	0, 7, cr2, cr5, cr7, {3}
    54f4:	6e676973 			; <UNDEFINED> instruction: 0x6e676973
    54f8:	69206465 	stmdbvs	r0!, {r0, r2, r5, r6, sl, sp, lr}
    54fc:	5f00746e 	svcpl	0x0000746e
    5500:	41484357 	cmpmi	r8, r7, asr r3
    5504:	5f545f52 	svcpl	0x00545f52
    5508:	4c434544 	cfstr64mi	mvdx4, [r3], {68}	; 0x44
    550c:	44455241 	strbmi	r5, [r5], #-577	; 0xfffffdbf
    5510:	4e490020 	cdpmi	0, 4, cr0, cr9, cr0, {1}
    5514:	41465f54 	cmpmi	r6, r4, asr pc
    5518:	36315453 			; <UNDEFINED> instruction: 0x36315453
    551c:	58414d5f 	stmdapl	r1, {r0, r1, r2, r3, r4, r6, r8, sl, fp, lr}^
    5520:	5f5f2820 	svcpl	0x005f2820
    5524:	5f544e49 	svcpl	0x00544e49
    5528:	54534146 	ldrbpl	r4, [r3], #-326	; 0xfffffeba
    552c:	4d5f3631 	ldclmi	6, cr3, [pc, #-196]	; 5470 <_Min_Stack_Size+0x5070>
    5530:	5f5f5841 	svcpl	0x005f5841
    5534:	58450029 	stmdapl	r5, {r0, r3, r5}^
    5538:	32314954 	eorscc	r4, r1, #84, 18	; 0x150000
    553c:	32314250 	eorscc	r4, r1, #80, 4
    5540:	58452820 	stmdapl	r5, {r5, fp, sp}^
    5544:	475f4954 			; <UNDEFINED> instruction: 0x475f4954
    5548:	5f4f4950 	svcpl	0x004f4950
    554c:	7070614d 	rsbsvc	r6, r0, sp, asr #2
    5550:	5f676e69 	svcpl	0x00676e69
    5554:	457b2974 	ldrbmi	r2, [fp, #-2420]!	; 0xfffff68c
    5558:	31495458 	cmpcc	r9, r8, asr r4
    555c:	47202c32 			; <UNDEFINED> instruction: 0x47202c32
    5560:	424f4950 	submi	r4, pc, #80, 18	; 0x140000
    5564:	5047202c 	subpl	r2, r7, ip, lsr #32
    5568:	505f4f49 	subspl	r4, pc, r9, asr #30
    556c:	315f4e49 	cmpcc	pc, r9, asr #28
    5570:	45202c32 	strmi	r2, [r0, #-3122]!	; 0xfffff3ce
    5574:	31495458 	cmpcc	r9, r8, asr r4
    5578:	52495f32 	subpl	r5, r9, #50, 30	; 0xc8
    557c:	007d2051 	rsbseq	r2, sp, r1, asr r0
    5580:	5359535f 	cmppl	r9, #2080374785	; 0x7c000001
    5584:	4545525f 	strbmi	r5, [r5, #-607]	; 0xfffffda1
    5588:	485f544e 	ldmdami	pc, {r1, r2, r3, r6, sl, ip, lr}^	; <UNPREDICTABLE>
    558c:	5f00205f 	svcpl	0x0000205f
    5590:	544c465f 	strbpl	r4, [ip], #-1631	; 0xfffff9a1
    5594:	4156455f 	cmpmi	r6, pc, asr r5
    5598:	454d5f4c 	strbmi	r5, [sp, #-3916]	; 0xfffff0b4
    559c:	444f4854 	strbmi	r4, [pc], #-2132	; 55a4 <_Min_Stack_Size+0x51a4>
    55a0:	30205f5f 	eorcc	r5, r0, pc, asr pc
    55a4:	695f5f00 	ldmdbvs	pc, {r8, r9, sl, fp, ip, lr}^	; <UNPREDICTABLE>
    55a8:	665f746e 	ldrbvs	r7, [pc], -lr, ror #8
    55ac:	31747361 	cmncc	r4, r1, ror #6
    55b0:	5f745f36 	svcpl	0x00745f36
    55b4:	69666564 	stmdbvs	r6!, {r2, r5, r6, r8, sl, sp, lr}^
    55b8:	2064656e 	rsbcs	r6, r4, lr, ror #10
    55bc:	5f5f0031 	svcpl	0x005f0031
    55c0:	41484353 	cmpmi	r8, r3, asr r3
    55c4:	414d5f52 	cmpmi	sp, r2, asr pc
    55c8:	205f5f58 	subscs	r5, pc, r8, asr pc	; <UNPREDICTABLE>
    55cc:	66377830 			; <UNDEFINED> instruction: 0x66377830
    55d0:	495f5f00 	ldmdbmi	pc, {r8, r9, sl, fp, ip, lr}^	; <UNPREDICTABLE>
    55d4:	465f544e 	ldrbmi	r5, [pc], -lr, asr #8
    55d8:	38545341 	ldmdacc	r4, {r0, r6, r8, r9, ip, lr}^
    55dc:	4449575f 	strbmi	r5, [r9], #-1887	; 0xfffff8a1
    55e0:	5f5f4854 	svcpl	0x005f4854
    55e4:	00323320 	eorseq	r3, r2, r0, lsr #6
    55e8:	54535f5f 	ldrbpl	r5, [r3], #-3935	; 0xfffff0a1
    55ec:	555f4344 	ldrbpl	r4, [pc, #-836]	; 52b0 <_Min_Stack_Size+0x4eb0>
    55f0:	315f4654 	cmpcc	pc, r4, asr r6	; <UNPREDICTABLE>
    55f4:	205f5f36 	subscs	r5, pc, r6, lsr pc	; <UNPREDICTABLE>
    55f8:	525f0031 	subspl	r0, pc, #49	; 0x31
    55fc:	34444e41 	strbcc	r4, [r4], #-3649	; 0xfffff1bf
    5600:	554d5f38 	strbpl	r5, [sp, #-3896]	; 0xfffff0c8
    5604:	325f544c 	subscc	r5, pc, #76, 8	; 0x4c000000
    5608:	78302820 	ldmdavc	r0!, {r5, fp, sp}
    560c:	35303030 	ldrcc	r3, [r0, #-48]!	; 0xffffffd0
    5610:	50470029 	subpl	r0, r7, r9, lsr #32
    5614:	20444f49 	subcs	r4, r4, r9, asr #30
    5618:	50472828 	subpl	r2, r7, r8, lsr #16
    561c:	545f4f49 	ldrbpl	r4, [pc], #-3913	; 5624 <_Min_Stack_Size+0x5224>
    5620:	44657079 	strbtmi	r7, [r5], #-121	; 0xffffff87
    5624:	292a6665 	stmdbcs	sl!, {r0, r2, r5, r6, r9, sl, sp, lr}
    5628:	4f495047 	svcmi	0x00495047
    562c:	41425f44 	cmpmi	r2, r4, asr #30
    5630:	00294553 	eoreq	r4, r9, r3, asr r5
    5634:	4545525f 	strbmi	r5, [r5, #-607]	; 0xfffffda1
    5638:	435f544e 	cmpmi	pc, #1308622848	; 0x4e000000
    563c:	4b434548 	blmi	10d6b64 <_Min_Stack_Size+0x10d6764>
    5640:	53494d5f 	movtpl	r4, #40287	; 0x9d5f
    5644:	61762843 	cmnvs	r6, r3, asr #16
    5648:	5f202972 	svcpl	0x00202972
    564c:	4e454552 	mcrmi	5, 2, r4, cr5, cr2, {2}
    5650:	48435f54 	stmdami	r3, {r2, r4, r6, r8, r9, sl, fp, ip, lr}^
    5654:	284b4345 	stmdacs	fp, {r0, r2, r6, r8, r9, lr}^
    5658:	2c726176 	ldfcse	f6, [r2], #-472	; 0xfffffe28
    565c:	696d5f20 	stmdbvs	sp!, {r5, r8, r9, sl, fp, ip, lr}^
    5660:	202c6373 	eorcs	r6, ip, r3, ror r3
    5664:	75727473 	ldrbvc	r7, [r2, #-1139]!	; 0xfffffb8d
    5668:	5f207463 	svcpl	0x00207463
    566c:	6373696d 	cmnvs	r3, #1785856	; 0x1b4000
    5670:	6565725f 	strbvs	r7, [r5, #-607]!	; 0xfffffda1
    5674:	2a20746e 	bcs	822834 <_Min_Stack_Size+0x822434>
    5678:	6973202c 	ldmdbvs	r3!, {r2, r3, r5, sp}^
    567c:	666f657a 			; <UNDEFINED> instruction: 0x666f657a
    5680:	28282a20 	stmdacs	r8!, {r5, r9, fp, sp}
    5684:	29726176 	ldmdbcs	r2!, {r1, r2, r4, r5, r6, r8, sp, lr}^
    5688:	6d5f3e2d 	ldclvs	14, cr3, [pc, #-180]	; 55dc <_Min_Stack_Size+0x51dc>
    568c:	29637369 	stmdbcs	r3!, {r0, r3, r5, r6, r8, r9, ip, sp, lr}^
    5690:	525f202c 	subspl	r2, pc, #44	; 0x2c
    5694:	544e4545 	strbpl	r4, [lr], #-1349	; 0xfffffabb
    5698:	494e495f 	stmdbmi	lr, {r0, r1, r2, r3, r4, r6, r8, fp, lr}^
    569c:	494d5f54 	stmdbmi	sp, {r2, r4, r6, r8, r9, sl, fp, ip, lr}^
    56a0:	76284353 			; <UNDEFINED> instruction: 0x76284353
    56a4:	29297261 	stmdbcs	r9!, {r0, r5, r6, r9, ip, sp, lr}
    56a8:	5f545f00 	svcpl	0x00545f00
    56ac:	44525450 	ldrbmi	r5, [r2], #-1104	; 0xfffffbb0
    56b0:	20464649 	subcs	r4, r6, r9, asr #12
    56b4:	555f5f00 	ldrbpl	r5, [pc, #-3840]	; 47bc <_Min_Stack_Size+0x43bc>
    56b8:	465f5151 			; <UNDEFINED> instruction: 0x465f5151
    56bc:	5f544942 	svcpl	0x00544942
    56c0:	0038205f 	eorseq	r2, r8, pc, asr r0
    56c4:	7263775f 	rsbvc	r7, r3, #24903680	; 0x17c0000
    56c8:	626d6f74 	rsbvs	r6, sp, #116, 30	; 0x1d0
    56cc:	6174735f 	cmnvs	r4, pc, asr r3
    56d0:	45006574 	strmi	r6, [r0, #-1396]	; 0xfffffa8c
    56d4:	38495458 	stmdacc	r9, {r3, r4, r6, sl, ip, lr}^
    56d8:	20384150 	eorscs	r4, r8, r0, asr r1
    56dc:	54584528 	ldrbpl	r4, [r8], #-1320	; 0xfffffad8
    56e0:	50475f49 	subpl	r5, r7, r9, asr #30
    56e4:	4d5f4f49 	ldclmi	15, cr4, [pc, #-292]	; 55c8 <_Min_Stack_Size+0x51c8>
    56e8:	69707061 	ldmdbvs	r0!, {r0, r5, r6, ip, sp, lr}^
    56ec:	745f676e 	ldrbvc	r6, [pc], #-1902	; 56f4 <_Min_Stack_Size+0x52f4>
    56f0:	58457b29 	stmdapl	r5, {r0, r3, r5, r8, r9, fp, ip, sp, lr}^
    56f4:	2c384954 			; <UNDEFINED> instruction: 0x2c384954
    56f8:	49504720 	ldmdbmi	r0, {r5, r8, r9, sl, lr}^
    56fc:	202c414f 	eorcs	r4, ip, pc, asr #2
    5700:	4f495047 	svcmi	0x00495047
    5704:	4e49505f 	mcrmi	0, 2, r5, cr9, cr15, {2}
    5708:	202c385f 	eorcs	r3, ip, pc, asr r8
    570c:	49545845 	ldmdbmi	r4, {r0, r2, r6, fp, ip, lr}^
    5710:	52495f38 	subpl	r5, r9, #56, 30	; 0xe0
    5714:	007d2051 	rsbseq	r2, sp, r1, asr r0
    5718:	4f495047 	svcmi	0x00495047
    571c:	444f4d5f 	strbmi	r4, [pc], #-3423	; 5724 <_Min_Stack_Size+0x5324>
    5720:	4e495f45 	cdpmi	15, 4, cr5, cr9, cr5, {2}
    5724:	5f545550 	svcpl	0x00545550
    5728:	30205550 	eorcc	r5, r0, r0, asr r5
    572c:	30303078 	eorscc	r3, r0, r8, ror r0
    5730:	30303030 	eorscc	r3, r0, r0, lsr r0
    5734:	69007532 	stmdbvs	r0, {r1, r4, r5, r8, sl, ip, sp, lr}
    5738:	2b20746e 	blcs	8228f8 <_Min_Stack_Size+0x8224f8>
    573c:	5f5f0032 	svcpl	0x005f0032
    5740:	36434544 	strbcc	r4, [r3], -r4, asr #10
    5744:	494d5f34 	stmdbmi	sp, {r2, r4, r5, r8, r9, sl, fp, ip, lr}^
    5748:	58455f4e 	stmdapl	r5, {r1, r2, r3, r6, r8, r9, sl, fp, ip, lr}^
    574c:	205f5f50 	subscs	r5, pc, r0, asr pc	; <UNPREDICTABLE>
    5750:	38332d28 	ldmdacc	r3!, {r3, r5, r8, sl, fp, sp}
    5754:	5f002932 	svcpl	0x00002932
    5758:	4341555f 	movtmi	r5, #5471	; 0x155f
    575c:	5f4d5543 	svcpl	0x004d5543
    5760:	5f58414d 	svcpl	0x0058414d
    5764:	5830205f 	ldmdapl	r0!, {r0, r1, r2, r3, r4, r6, sp}
    5768:	46464646 	strbmi	r4, [r6], -r6, asr #12
    576c:	46464646 	strbmi	r4, [r6], -r6, asr #12
    5770:	36312d50 			; <UNDEFINED> instruction: 0x36312d50
    5774:	5f004b55 	svcpl	0x00004b55
    5778:	4e454552 	mcrmi	5, 2, r4, cr5, cr2, {2}
    577c:	43575f54 	cmpmi	r7, #84, 30	; 0x150
    5780:	424d4f54 	submi	r4, sp, #84, 30	; 0x150
    5784:	4154535f 	cmpmi	r4, pc, asr r3
    5788:	70284554 	eorvc	r4, r8, r4, asr r5
    578c:	20297274 	eorcs	r7, r9, r4, ror r2
    5790:	74702828 	ldrbtvc	r2, [r0], #-2088	; 0xfffff7d8
    5794:	3e2d2972 			; <UNDEFINED> instruction: 0x3e2d2972
    5798:	73696d5f 	cmnvc	r9, #6080	; 0x17c0
    579c:	5f3e2d63 	svcpl	0x003e2d63
    57a0:	6f746377 	svcvs	0x00746377
    57a4:	735f626d 	cmpvc	pc, #-805306362	; 0xd0000006
    57a8:	65746174 	ldrbvs	r6, [r4, #-372]!	; 0xfffffe8c
    57ac:	5f5f0029 	svcpl	0x005f0029
    57b0:	6d5f6d74 	ldclvs	13, cr6, [pc, #-464]	; 55e8 <_Min_Stack_Size+0x51e8>
    57b4:	00796164 	rsbseq	r6, r9, r4, ror #2
    57b8:	72616863 	rsbvc	r6, r1, #6488064	; 0x630000
    57bc:	00302b20 	eorseq	r2, r0, r0, lsr #22
    57c0:	6f6c6c61 	svcvs	0x006c6c61
    57c4:	5f006163 	svcpl	0x00006163
    57c8:	52464c5f 	subpl	r4, r6, #24320	; 0x5f00
    57cc:	5f544341 	svcpl	0x00544341
    57d0:	5f58414d 	svcpl	0x0058414d
    57d4:	5830205f 	ldmdapl	r0!, {r0, r1, r2, r3, r4, r6, sp}
    57d8:	46464637 			; <UNDEFINED> instruction: 0x46464637
    57dc:	46464646 	strbmi	r4, [r6], -r6, asr #12
    57e0:	31332d50 	teqcc	r3, r0, asr sp
    57e4:	5f00524c 	svcpl	0x0000524c
    57e8:	5a49535f 	bpl	125a56c <_Min_Stack_Size+0x125a16c>
    57ec:	5f464f45 	svcpl	0x00464f45
    57f0:	44525450 	ldrbmi	r5, [r2], #-1104	; 0xfffffbb0
    57f4:	5f464649 	svcpl	0x00464649
    57f8:	205f5f54 	subscs	r5, pc, r4, asr pc	; <UNPREDICTABLE>
    57fc:	58450034 	stmdapl	r5, {r2, r4, r5}^
    5800:	31314954 	teqcc	r1, r4, asr r9
    5804:	00313120 	eorseq	r3, r1, r0, lsr #2
    5808:	43575f5f 	cmpmi	r7, #380	; 0x17c
    580c:	5f524148 	svcpl	0x00524148
    5810:	205f5f54 	subscs	r5, pc, r4, asr pc	; <UNPREDICTABLE>
    5814:	54584500 	ldrbpl	r4, [r8], #-1280	; 0xfffffb00
    5818:	50343149 	eorspl	r3, r4, r9, asr #2
    581c:	20343141 	eorscs	r3, r4, r1, asr #2
    5820:	54584528 	ldrbpl	r4, [r8], #-1320	; 0xfffffad8
    5824:	50475f49 	subpl	r5, r7, r9, asr #30
    5828:	4d5f4f49 	ldclmi	15, cr4, [pc, #-292]	; 570c <_Min_Stack_Size+0x530c>
    582c:	69707061 	ldmdbvs	r0!, {r0, r5, r6, ip, sp, lr}^
    5830:	745f676e 	ldrbvc	r6, [pc], #-1902	; 5838 <_Min_Stack_Size+0x5438>
    5834:	58457b29 	stmdapl	r5, {r0, r3, r5, r8, r9, fp, ip, sp, lr}^
    5838:	34314954 	ldrtcc	r4, [r1], #-2388	; 0xfffff6ac
    583c:	5047202c 	subpl	r2, r7, ip, lsr #32
    5840:	2c414f49 	mcrrcs	15, 4, r4, r1, cr9
    5844:	49504720 	ldmdbmi	r0, {r5, r8, r9, sl, lr}^
    5848:	49505f4f 	ldmdbmi	r0, {r0, r1, r2, r3, r6, r8, r9, sl, fp, ip, lr}^
    584c:	34315f4e 	ldrtcc	r5, [r1], #-3918	; 0xfffff0b2
    5850:	5845202c 	stmdapl	r5, {r2, r3, r5, sp}^
    5854:	34314954 	ldrtcc	r4, [r1], #-2388	; 0xfffff6ac
    5858:	5152495f 	cmppl	r2, pc, asr r9
    585c:	5f007d20 	svcpl	0x00007d20
    5860:	6e695f5f 	mcrvs	15, 3, r5, cr9, cr15, {2}
    5864:	656c5f74 	strbvs	r5, [ip, #-3956]!	; 0xfffff08c
    5868:	38747361 	ldmdacc	r4!, {r0, r5, r6, r8, r9, ip, sp, lr}^
    586c:	645f745f 	ldrbvs	r7, [pc], #-1119	; 5874 <_Min_Stack_Size+0x5474>
    5870:	6e696665 	cdpvs	6, 6, cr6, cr9, cr5, {3}
    5874:	31206465 			; <UNDEFINED> instruction: 0x31206465
    5878:	415f5f00 	cmpmi	pc, r0, lsl #30
    587c:	465f4d52 			; <UNDEFINED> instruction: 0x465f4d52
    5880:	55544145 	ldrbpl	r4, [r4, #-325]	; 0xfffffebb
    5884:	495f4552 	ldmdbmi	pc, {r1, r4, r6, r8, sl, lr}^	; <UNPREDICTABLE>
    5888:	20564944 	subscs	r4, r6, r4, asr #18
    588c:	5f5f0031 	svcpl	0x005f0031
    5890:	54464f53 	strbpl	r4, [r6], #-3923	; 0xfffff0ad
    5894:	5f5f5046 	svcpl	0x005f5046
    5898:	5f003120 	svcpl	0x00003120
    589c:	4f4c465f 	svcmi	0x004c465f
    58a0:	575f5441 	ldrbpl	r5, [pc, -r1, asr #8]
    58a4:	5f44524f 	svcpl	0x0044524f
    58a8:	4544524f 	strbmi	r5, [r4, #-591]	; 0xfffffdb1
    58ac:	205f5f52 	subscs	r5, pc, r2, asr pc	; <UNPREDICTABLE>
    58b0:	524f5f5f 	subpl	r5, pc, #380	; 0x17c
    58b4:	5f524544 	svcpl	0x00524544
    58b8:	5454494c 	ldrbpl	r4, [r4], #-2380	; 0xfffff6b4
    58bc:	455f454c 	ldrbmi	r4, [pc, #-1356]	; 5378 <_Min_Stack_Size+0x4f78>
    58c0:	4149444e 	cmpmi	r9, lr, asr #8
    58c4:	005f5f4e 	subseq	r5, pc, lr, asr #30
    58c8:	4d544e49 	ldclmi	14, cr4, [r4, #-292]	; 0xfffffedc
    58cc:	4d5f5841 	ldclmi	8, cr5, [pc, #-260]	; 57d0 <_Min_Stack_Size+0x53d0>
    58d0:	28204e49 	stmdacs	r0!, {r0, r3, r6, r9, sl, fp, lr}
    58d4:	544e492d 	strbpl	r4, [lr], #-2349	; 0xfffff6d3
    58d8:	5f58414d 	svcpl	0x0058414d
    58dc:	2058414d 	subscs	r4, r8, sp, asr #2
    58e0:	2931202d 	ldmdbcs	r1!, {r0, r2, r3, r5, sp}
    58e4:	43475f00 	movtmi	r5, #32512	; 0x7f00
    58e8:	43575f43 	cmpmi	r7, #268	; 0x10c
    58ec:	5f524148 	svcpl	0x00524148
    58f0:	5f002054 	svcpl	0x00002054
    58f4:	6c6e755f 	cfstr64vs	mvdx7, [lr], #-380	; 0xfffffe84
    58f8:	736b636f 	cmnvc	fp, #-1140850687	; 0xbc000001
    58fc:	2e2e2e28 	cdpcs	14, 2, cr2, cr14, cr8, {1}
    5900:	5f5f2029 	svcpl	0x005f2029
    5904:	6b636f6c 	blvs	18e16bc <_Min_Stack_Size+0x18e12bc>
    5908:	6e6e615f 	mcrvs	1, 3, r6, cr14, cr15, {2}
    590c:	7461746f 	strbtvc	r7, [r1], #-1135	; 0xfffffb91
    5910:	6e752865 	cdpvs	8, 7, cr2, cr5, cr5, {3}
    5914:	6b636f6c 	blvs	18e16cc <_Min_Stack_Size+0x18e12cc>
    5918:	6e75665f 	mrcvs	6, 3, r6, cr5, cr15, {2}
    591c:	6f697463 	svcvs	0x00697463
    5920:	5f5f286e 	svcpl	0x005f286e
    5924:	415f4156 	cmpmi	pc, r6, asr r1	; <UNPREDICTABLE>
    5928:	5f534752 	svcpl	0x00534752
    592c:	0029295f 	eoreq	r2, r9, pc, asr r9
    5930:	58455f5f 	stmdapl	r5, {r0, r1, r2, r3, r4, r6, r8, r9, sl, fp, ip, lr}^
    5934:	54524f50 	ldrbpl	r4, [r2], #-3920	; 0xfffff0b0
    5938:	775f0020 	ldrbvc	r0, [pc, -r0, lsr #32]
    593c:	6d6f7463 	cfstrdvs	mvd7, [pc, #-396]!	; 57b8 <_Min_Stack_Size+0x53b8>
    5940:	74735f62 	ldrbtvc	r5, [r3], #-3938	; 0xfffff09e
    5944:	00657461 	rsbeq	r7, r5, r1, ror #8
    5948:	424f5f5f 	submi	r5, pc, #380	; 0x17c
    594c:	454c4f53 	strbmi	r4, [ip, #-3923]	; 0xfffff0ad
    5950:	4d5f4554 	cfldr64mi	mvdx4, [pc, #-336]	; 5808 <_Min_Stack_Size+0x5408>
    5954:	5f485441 	svcpl	0x00485441
    5958:	41464544 	cmpmi	r6, r4, asr #10
    595c:	20544c55 	subscs	r4, r4, r5, asr ip
    5960:	6d5f0031 	ldclvs	0, cr0, [pc, #-196]	; 58a4 <_Min_Stack_Size+0x54a4>
    5964:	61747362 	cmnvs	r4, r2, ror #6
    5968:	5f006574 	svcpl	0x00006574
    596c:	4343535f 	movtmi	r5, #13151	; 0x335f
    5970:	28444953 	stmdacs	r4, {r0, r1, r4, r6, r8, fp, lr}^
    5974:	73202973 			; <UNDEFINED> instruction: 0x73202973
    5978:	63757274 	cmnvs	r5, #116, 4	; 0x40000007
    597c:	5f5f2074 	svcpl	0x005f2074
    5980:	6b636168 	blvs	18ddf28 <_Min_Stack_Size+0x18ddb28>
    5984:	72614800 	rsbvc	r4, r1, #0, 16
    5988:	75614664 	strbvc	r4, [r1, #-1636]!	; 0xfffff99c
    598c:	485f746c 	ldmdami	pc, {r2, r3, r5, r6, sl, ip, sp, lr}^	; <UNPREDICTABLE>
    5990:	6c646e61 	stclvs	14, cr6, [r4], #-388	; 0xfffffe7c
    5994:	5f007265 	svcpl	0x00007265
    5998:	5248535f 	subpl	r5, r8, #2080374785	; 0x7c000001
    599c:	49575f54 	ldmdbmi	r7, {r2, r4, r6, r8, r9, sl, fp, ip, lr}^
    59a0:	5f485444 	svcpl	0x00485444
    59a4:	3631205f 			; <UNDEFINED> instruction: 0x3631205f
    59a8:	4f5f5f00 	svcmi	0x005f5f00
    59ac:	52454452 	subpl	r4, r5, #1375731712	; 0x52000000
    59b0:	5044505f 	subpl	r5, r4, pc, asr r0
    59b4:	444e455f 	strbmi	r4, [lr], #-1375	; 0xfffffaa1
    59b8:	5f4e4149 	svcpl	0x004e4149
    59bc:	3433205f 	ldrtcc	r2, [r3], #-95	; 0xffffffa1
    59c0:	5f003231 	svcpl	0x00003231
    59c4:	646e6172 	strbtvs	r6, [lr], #-370	; 0xfffffe8e
    59c8:	78656e5f 	stmdavc	r5!, {r0, r1, r2, r3, r4, r6, r9, sl, fp, sp, lr}^
    59cc:	5f5f0074 	svcpl	0x005f0074
    59d0:	31434544 	cmpcc	r3, r4, asr #10
    59d4:	4d5f3832 	ldclmi	8, cr3, [pc, #-200]	; 5914 <_Min_Stack_Size+0x5514>
    59d8:	455f5841 	ldrbmi	r5, [pc, #-2113]	; 519f <_Min_Stack_Size+0x4d9f>
    59dc:	5f5f5058 	svcpl	0x005f5058
    59e0:	34313620 	ldrtcc	r3, [r1], #-1568	; 0xfffff9e0
    59e4:	665f0035 			; <UNDEFINED> instruction: 0x665f0035
    59e8:	7367616c 	cmnvc	r7, #108, 2
    59ec:	495f5f00 	ldmdbmi	pc, {r8, r9, sl, fp, ip, lr}^	; <UNPREDICTABLE>
    59f0:	524f504d 	subpl	r5, pc, #77	; 0x4d
    59f4:	5f002054 	svcpl	0x00002054
    59f8:	444e4152 	strbmi	r4, [lr], #-338	; 0xfffffeae
    59fc:	535f3834 	cmppl	pc, #52, 16	; 0x340000
    5a00:	5f444545 	svcpl	0x00444545
    5a04:	30282032 	eorcc	r2, r8, r2, lsr r0
    5a08:	33323178 	teqcc	r2, #120, 2
    5a0c:	5f002934 	svcpl	0x00002934
    5a10:	44525450 	ldrbmi	r5, [r2], #-1104	; 0xfffffbb0
    5a14:	5f464649 	svcpl	0x00464649
    5a18:	45445f54 	strbmi	r5, [r4, #-3924]	; 0xfffff0ac
    5a1c:	52414c43 	subpl	r4, r1, #17152	; 0x4300
    5a20:	00204445 	eoreq	r4, r0, r5, asr #8
    5a24:	53555f5f 	cmppl	r5, #380	; 0x17c
    5a28:	42465f41 	submi	r5, r6, #260	; 0x104
    5a2c:	5f5f5449 	svcpl	0x005f5449
    5a30:	00363120 	eorseq	r3, r6, r0, lsr #2
    5a34:	6f765f5f 	svcvs	0x00765f5f
    5a38:	6974616c 	ldmdbvs	r4!, {r2, r3, r5, r6, r8, sp, lr}^
    5a3c:	7620656c 	strtvc	r6, [r0], -ip, ror #10
    5a40:	74616c6f 	strbtvc	r6, [r1], #-3183	; 0xfffff391
    5a44:	00656c69 	rsbeq	r6, r5, r9, ror #24
    5a48:	45495f5f 	strbmi	r5, [r9, #-3935]	; 0xfffff0a1
    5a4c:	4c5f4545 	cfldr64mi	mvdx4, [pc], {69}	; 0x45
    5a50:	4c545449 	cfldrdmi	mvd5, [r4], {73}	; 0x49
    5a54:	4e455f45 	cdpmi	15, 4, cr5, cr5, cr5, {2}
    5a58:	4e414944 	vmlsmi.f16	s9, s2, s8	; <UNPREDICTABLE>
    5a5c:	5f5f0020 	svcpl	0x005f0020
    5a60:	4c42444c 	cfstrdmi	mvd4, [r2], {76}	; 0x4c
    5a64:	4e494d5f 	mcrmi	13, 2, r4, cr9, cr15, {2}
    5a68:	5f30315f 	svcpl	0x0030315f
    5a6c:	5f505845 	svcpl	0x00505845
    5a70:	2d28205f 	stccs	0, cr2, [r8, #-380]!	; 0xfffffe84
    5a74:	29373033 	ldmdbcs	r7!, {r0, r1, r4, r5, ip, sp}
    5a78:	465f5f00 	ldrbmi	r5, [pc], -r0, lsl #30
    5a7c:	485f544c 	ldmdami	pc, {r2, r3, r6, sl, ip, lr}^	; <UNPREDICTABLE>
    5a80:	515f5341 	cmppl	pc, r1, asr #6
    5a84:	54454955 	strbpl	r4, [r5], #-2389	; 0xfffff6ab
    5a88:	4e414e5f 	mcrmi	14, 2, r4, cr1, cr15, {2}
    5a8c:	31205f5f 			; <UNDEFINED> instruction: 0x31205f5f
    5a90:	475f5f00 	ldrbmi	r5, [pc, -r0, lsl #30]
    5a94:	415f4343 	cmpmi	pc, r3, asr #6
    5a98:	494d4f54 	stmdbmi	sp, {r2, r4, r6, r8, r9, sl, fp, lr}^
    5a9c:	48435f43 	stmdami	r3, {r0, r1, r6, r8, r9, sl, fp, ip, lr}^
    5aa0:	4c5f5241 	lfmmi	f5, 2, [pc], {65}	; 0x41
    5aa4:	5f4b434f 	svcpl	0x004b434f
    5aa8:	45455246 	strbmi	r5, [r5, #-582]	; 0xfffffdba
    5aac:	45003220 	strmi	r3, [r0, #-544]	; 0xfffffde0
    5ab0:	31495458 	cmpcc	r9, r8, asr r4
    5ab4:	35312035 	ldrcc	r2, [r1, #-53]!	; 0xffffffcb
    5ab8:	49504700 	ldmdbmi	r0, {r8, r9, sl, lr}^
    5abc:	49505f4f 	ldmdbmi	r0, {r0, r1, r2, r3, r6, r8, r9, sl, fp, ip, lr}^
    5ac0:	34315f4e 	ldrtcc	r5, [r1], #-3918	; 0xfffff0b2
    5ac4:	75282820 	strvc	r2, [r8, #-2080]!	; 0xfffff7e0
    5ac8:	31746e69 	cmncc	r4, r9, ror #28
    5acc:	29745f36 	ldmdbcs	r4!, {r1, r2, r4, r5, r8, r9, sl, fp, ip, lr}^
    5ad0:	30347830 	eorscc	r7, r4, r0, lsr r8
    5ad4:	00293030 	eoreq	r3, r9, r0, lsr r0
    5ad8:	464c5f5f 			; <UNDEFINED> instruction: 0x464c5f5f
    5adc:	54434152 	strbpl	r4, [r3], #-338	; 0xfffffeae
    5ae0:	5350455f 	cmppl	r0, #398458880	; 0x17c00000
    5ae4:	4e4f4c49 	cdpmi	12, 4, cr4, cr15, cr9, {2}
    5ae8:	30205f5f 	eorcc	r5, r0, pc, asr pc
    5aec:	2d503178 	ldfcse	f3, [r0, #-480]	; 0xfffffe20
    5af0:	524c3133 	subpl	r3, ip, #-1073741812	; 0xc000000c
    5af4:	705f5f00 	subsvc	r5, pc, r0, lsl #30
    5af8:	69646572 	stmdbvs	r4!, {r1, r4, r5, r6, r8, sl, sp, lr}^
    5afc:	665f7463 	ldrbvs	r7, [pc], -r3, ror #8
    5b00:	65736c61 	ldrbvs	r6, [r3, #-3169]!	; 0xfffff39f
    5b04:	70786528 	rsbsvc	r6, r8, r8, lsr #10
    5b08:	5f5f2029 	svcpl	0x005f2029
    5b0c:	6c697562 	cfstr64vs	mvdx7, [r9], #-392	; 0xfffffe78
    5b10:	5f6e6974 	svcpl	0x006e6974
    5b14:	65707865 	ldrbvs	r7, [r0, #-2149]!	; 0xfffff79b
    5b18:	28287463 	stmdacs	r8!, {r0, r1, r5, r6, sl, ip, sp, lr}
    5b1c:	29707865 	ldmdbcs	r0!, {r0, r2, r5, r6, fp, ip, sp, lr}^
    5b20:	2930202c 	ldmdbcs	r0!, {r2, r3, r5, sp}
    5b24:	45425f00 	strbmi	r5, [r2, #-3840]	; 0xfffff100
    5b28:	5f4e4947 	svcpl	0x004e4947
    5b2c:	5f445453 	svcpl	0x00445453
    5b30:	5f002043 	svcpl	0x00002043
    5b34:	4e454552 	mcrmi	5, 2, r4, cr5, cr2, {2}
    5b38:	48435f54 	stmdami	r3, {r2, r4, r6, r8, r9, sl, fp, ip, lr}^
    5b3c:	5f4b4345 	svcpl	0x004b4345
    5b40:	54435341 	strbpl	r5, [r3], #-833	; 0xfffffcbf
    5b44:	5f454d49 	svcpl	0x00454d49
    5b48:	28465542 	stmdacs	r6, {r1, r6, r8, sl, ip, lr}^
    5b4c:	29726176 	ldmdbcs	r2!, {r1, r2, r4, r5, r6, r8, sp, lr}^
    5b50:	45525f20 	ldrbmi	r5, [r2, #-3872]	; 0xfffff0e0
    5b54:	5f544e45 	svcpl	0x00544e45
    5b58:	43454843 	movtmi	r4, #22595	; 0x5843
    5b5c:	6176284b 	cmnvs	r6, fp, asr #16
    5b60:	5f202c72 	svcpl	0x00202c72
    5b64:	74637361 	strbtvc	r7, [r3], #-865	; 0xfffffc9f
    5b68:	5f656d69 	svcpl	0x00656d69
    5b6c:	2c667562 	cfstr64cs	mvdx7, [r6], #-392	; 0xfffffe78
    5b70:	61686320 	cmnvs	r8, r0, lsr #6
    5b74:	2c2a2072 	stccs	0, cr2, [sl], #-456	; 0xfffffe38
    5b78:	45525f20 	ldrbmi	r5, [r2, #-3872]	; 0xfffff0e0
    5b7c:	5f544e45 	svcpl	0x00544e45
    5b80:	54435341 	strbpl	r5, [r3], #-833	; 0xfffffcbf
    5b84:	5f454d49 	svcpl	0x00454d49
    5b88:	455a4953 	ldrbmi	r4, [sl, #-2387]	; 0xfffff6ad
    5b8c:	656d202c 	strbvs	r2, [sp, #-44]!	; 0xffffffd4
    5b90:	7465736d 	strbtvc	r7, [r5], #-877	; 0xfffffc93
    5b94:	61762828 	cmnvs	r6, r8, lsr #16
    5b98:	3e2d2972 			; <UNDEFINED> instruction: 0x3e2d2972
    5b9c:	6373615f 	cmnvs	r3, #-1073741801	; 0xc0000017
    5ba0:	656d6974 	strbvs	r6, [sp, #-2420]!	; 0xfffff68c
    5ba4:	6675625f 			; <UNDEFINED> instruction: 0x6675625f
    5ba8:	2c30202c 	ldccs	0, cr2, [r0], #-176	; 0xffffff50
    5bac:	45525f20 	ldrbmi	r5, [r2, #-3872]	; 0xfffff0e0
    5bb0:	5f544e45 	svcpl	0x00544e45
    5bb4:	54435341 	strbpl	r5, [r3], #-833	; 0xfffffcbf
    5bb8:	5f454d49 	svcpl	0x00454d49
    5bbc:	455a4953 	ldrbmi	r4, [sl, #-2387]	; 0xfffff6ad
    5bc0:	45002929 	strmi	r2, [r0, #-2345]	; 0xfffff6d7
    5bc4:	35495458 	strbcc	r5, [r9, #-1112]	; 0xfffffba8
    5bc8:	20354250 	eorscs	r4, r5, r0, asr r2
    5bcc:	54584528 	ldrbpl	r4, [r8], #-1320	; 0xfffffad8
    5bd0:	50475f49 	subpl	r5, r7, r9, asr #30
    5bd4:	4d5f4f49 	ldclmi	15, cr4, [pc, #-292]	; 5ab8 <_Min_Stack_Size+0x56b8>
    5bd8:	69707061 	ldmdbvs	r0!, {r0, r5, r6, ip, sp, lr}^
    5bdc:	745f676e 	ldrbvc	r6, [pc], #-1902	; 5be4 <_Min_Stack_Size+0x57e4>
    5be0:	58457b29 	stmdapl	r5, {r0, r3, r5, r8, r9, fp, ip, sp, lr}^
    5be4:	2c354954 			; <UNDEFINED> instruction: 0x2c354954
    5be8:	49504720 	ldmdbmi	r0, {r5, r8, r9, sl, lr}^
    5bec:	202c424f 	eorcs	r4, ip, pc, asr #4
    5bf0:	4f495047 	svcmi	0x00495047
    5bf4:	4e49505f 	mcrmi	0, 2, r5, cr9, cr15, {2}
    5bf8:	202c355f 	eorcs	r3, ip, pc, asr r5
    5bfc:	49545845 	ldmdbmi	r4, {r0, r2, r6, fp, ip, lr}^
    5c00:	52495f35 	subpl	r5, r9, #53, 30	; 0xd4
    5c04:	007d2051 	rsbseq	r2, sp, r1, asr r0
    5c08:	52415f5f 	subpl	r5, r1, #380	; 0x17c
    5c0c:	49535f4d 	ldmdbmi	r3, {r0, r2, r3, r6, r8, r9, sl, fp, ip, lr}^
    5c10:	464f455a 			; <UNDEFINED> instruction: 0x464f455a
    5c14:	4e494d5f 	mcrmi	13, 2, r4, cr9, cr15, {2}
    5c18:	4c414d49 	mcrrmi	13, 4, r4, r1, cr9
    5c1c:	554e455f 	strbpl	r4, [lr, #-1375]	; 0xfffffaa1
    5c20:	0031204d 	eorseq	r2, r1, sp, asr #32
    5c24:	72615f5f 	rsbvc	r5, r1, #380	; 0x17c
    5c28:	205f5f6d 	subscs	r5, pc, sp, ror #30
    5c2c:	525f0031 	subspl	r0, pc, #49	; 0x31
    5c30:	544e4545 	strbpl	r4, [lr], #-1349	; 0xfffffabb
    5c34:	414d535f 	cmpmi	sp, pc, asr r3
    5c38:	435f4c4c 	cmpmi	pc, #76, 24	; 0x4c00
    5c3c:	4b434548 	blmi	10d7164 <_Min_Stack_Size+0x10d6d64>
    5c40:	494e495f 	stmdbmi	lr, {r0, r1, r2, r3, r4, r6, r8, fp, lr}^
    5c44:	74702854 	ldrbtvc	r2, [r0], #-2132	; 0xfffff7ac
    5c48:	64202972 	strtvs	r2, [r0], #-2418	; 0xfffff68e
    5c4c:	207b206f 	rsbscs	r2, fp, pc, rrx
    5c50:	28206669 	stmdacs	r0!, {r0, r3, r5, r6, r9, sl, sp, lr}
    5c54:	72747028 	rsbsvc	r7, r4, #40	; 0x28
    5c58:	26262029 	strtcs	r2, [r6], -r9, lsr #32
    5c5c:	70282120 	eorvc	r2, r8, r0, lsr #2
    5c60:	2d297274 	sfmcs	f7, 4, [r9, #-464]!	; 0xfffffe30
    5c64:	735f5f3e 	cmpvc	pc, #62, 30	; 0xf8
    5c68:	69646964 	stmdbvs	r4!, {r2, r5, r6, r8, fp, sp, lr}^
    5c6c:	2974696e 	ldmdbcs	r4!, {r1, r2, r3, r5, r6, r8, fp, sp, lr}^
    5c70:	735f5f20 	cmpvc	pc, #32, 30	; 0x80
    5c74:	74696e69 	strbtvc	r6, [r9], #-3689	; 0xfffff197
    5c78:	74702820 	ldrbtvc	r2, [r0], #-2080	; 0xfffff7e0
    5c7c:	203b2972 	eorscs	r2, fp, r2, ror r9
    5c80:	6877207d 	ldmdavs	r7!, {r0, r2, r3, r4, r5, r6, sp}^
    5c84:	20656c69 	rsbcs	r6, r5, r9, ror #24
    5c88:	00293028 	eoreq	r3, r9, r8, lsr #32
    5c8c:	4c465f5f 	mcrrmi	15, 5, r5, r6, cr15
    5c90:	5f323354 	svcpl	0x00323354
    5c94:	5f4e494d 	svcpl	0x004e494d
    5c98:	455f3031 	ldrbmi	r3, [pc, #-49]	; 5c6f <_Min_Stack_Size+0x586f>
    5c9c:	5f5f5058 	svcpl	0x005f5058
    5ca0:	332d2820 			; <UNDEFINED> instruction: 0x332d2820
    5ca4:	5f002937 	svcpl	0x00002937
    5ca8:	756f635f 	strbvc	r6, [pc, #-863]!	; 5951 <_Min_Stack_Size+0x5551>
    5cac:	5f00746e 	svcpl	0x0000746e
    5cb0:	636f6c5f 	cmnvs	pc, #24320	; 0x5f00
    5cb4:	72745f6b 	rsbsvc	r5, r4, #428	; 0x1ac
    5cb8:	63615f79 	cmnvs	r1, #484	; 0x1e4
    5cbc:	72697571 	rsbvc	r7, r9, #473956352	; 0x1c400000
    5cc0:	6f6c2865 	svcvs	0x006c2865
    5cc4:	20296b63 	eorcs	r6, r9, r3, ror #22
    5cc8:	6f762828 	svcvs	0x00762828
    5ccc:	20296469 	eorcs	r6, r9, r9, ror #8
    5cd0:	5f002930 	svcpl	0x00002930
    5cd4:	4f53495f 	svcmi	0x0053495f
    5cd8:	565f435f 			; <UNDEFINED> instruction: 0x565f435f
    5cdc:	42495349 	submi	r5, r9, #603979777	; 0x24000001
    5ce0:	3220454c 	eorcc	r4, r0, #76, 10	; 0x13000000
    5ce4:	00313130 	eorseq	r3, r1, r0, lsr r1
    5ce8:	52415f5f 	subpl	r5, r1, #380	; 0x17c
    5cec:	50465f4d 	subpl	r5, r6, sp, asr #30
    5cf0:	465f3631 			; <UNDEFINED> instruction: 0x465f3631
    5cf4:	414d524f 	cmpmi	sp, pc, asr #4
    5cf8:	4c415f54 	mcrrmi	15, 5, r5, r1, cr4
    5cfc:	4e524554 	mrcmi	5, 2, r4, cr2, cr4, {2}
    5d00:	56495441 	strbpl	r5, [r9], -r1, asr #8
    5d04:	58450045 	stmdapl	r5, {r0, r2, r6}^
    5d08:	50384954 	eorspl	r4, r8, r4, asr r9
    5d0c:	28203844 	stmdacs	r0!, {r2, r6, fp, ip, sp}
    5d10:	49545845 	ldmdbmi	r4, {r0, r2, r6, fp, ip, lr}^
    5d14:	4950475f 	ldmdbmi	r0, {r0, r1, r2, r3, r4, r6, r8, r9, sl, lr}^
    5d18:	614d5f4f 	cmpvs	sp, pc, asr #30
    5d1c:	6e697070 	mcrvs	0, 3, r7, cr9, cr0, {3}
    5d20:	29745f67 	ldmdbcs	r4!, {r0, r1, r2, r5, r6, r8, r9, sl, fp, ip, lr}^
    5d24:	5458457b 	ldrbpl	r4, [r8], #-1403	; 0xfffffa85
    5d28:	202c3849 	eorcs	r3, ip, r9, asr #16
    5d2c:	4f495047 	svcmi	0x00495047
    5d30:	47202c44 	strmi	r2, [r0, -r4, asr #24]!
    5d34:	5f4f4950 	svcpl	0x004f4950
    5d38:	5f4e4950 	svcpl	0x004e4950
    5d3c:	45202c38 	strmi	r2, [r0, #-3128]!	; 0xfffff3c8
    5d40:	38495458 	stmdacc	r9, {r3, r4, r6, sl, ip, lr}^
    5d44:	5152495f 	cmppl	r2, pc, asr r9
    5d48:	5f007d20 	svcpl	0x00007d20
    5d4c:	4345445f 	movtmi	r4, #21599	; 0x545f
    5d50:	4d5f3233 	lfmmi	f3, 2, [pc, #-204]	; 5c8c <_Min_Stack_Size+0x588c>
    5d54:	5f544e41 	svcpl	0x00544e41
    5d58:	5f474944 	svcpl	0x00474944
    5d5c:	0037205f 	eorseq	r2, r7, pc, asr r0
    5d60:	5f544e49 	svcpl	0x00544e49
    5d64:	54534146 	ldrbpl	r4, [r3], #-326	; 0xfffffeba
    5d68:	4d5f3436 	cfldrdmi	mvd3, [pc, #-216]	; 5c98 <_Min_Stack_Size+0x5898>
    5d6c:	28204e49 	stmdacs	r0!, {r0, r3, r6, r9, sl, fp, lr}
    5d70:	495f5f2d 	ldmdbmi	pc, {r0, r2, r3, r5, r8, r9, sl, fp, ip, lr}^	; <UNPREDICTABLE>
    5d74:	465f544e 	ldrbmi	r5, [pc], -lr, asr #8
    5d78:	36545341 	ldrbcc	r5, [r4], -r1, asr #6
    5d7c:	414d5f34 	cmpmi	sp, r4, lsr pc
    5d80:	205f5f58 	subscs	r5, pc, r8, asr pc	; <UNPREDICTABLE>
    5d84:	2931202d 	ldmdbcs	r1!, {r0, r2, r3, r5, sp}
    5d88:	414d5f00 	cmpmi	sp, r0, lsl #30
    5d8c:	4e494843 	cdpmi	8, 4, cr4, cr9, cr3, {2}
    5d90:	445f5f45 	ldrbmi	r5, [pc], #-3909	; 5d98 <_Min_Stack_Size+0x5998>
    5d94:	55414645 	strbpl	r4, [r1, #-1605]	; 0xfffff9bb
    5d98:	545f544c 	ldrbpl	r5, [pc], #-1100	; 5da0 <_Min_Stack_Size+0x59a0>
    5d9c:	53455059 	movtpl	r5, #20569	; 0x5059
    5da0:	0020485f 	eoreq	r4, r0, pc, asr r8
    5da4:	49425f5f 	stmdbmi	r2, {r0, r1, r2, r3, r4, r6, r8, r9, sl, fp, ip, lr}^
    5da8:	53454747 	movtpl	r4, #22343	; 0x5747
    5dac:	4c415f54 	mcrrmi	15, 5, r5, r1, cr4
    5db0:	4d4e4749 	stclmi	7, cr4, [lr, #-292]	; 0xfffffedc
    5db4:	5f544e45 	svcpl	0x00544e45
    5db8:	0038205f 	eorseq	r2, r8, pc, asr r0
    5dbc:	4349564e 	movtmi	r5, #38478	; 0x964e
    5dc0:	5152495f 	cmppl	r2, pc, asr r9
    5dc4:	58455f36 	stmdapl	r5, {r1, r2, r4, r5, r8, r9, sl, fp, ip, lr}^
    5dc8:	30314954 	eorscc	r4, r1, r4, asr r9
    5dcc:	5f35315f 	svcpl	0x0035315f
    5dd0:	41534944 	cmpmi	r3, r4, asr #18
    5dd4:	20454c42 	subcs	r4, r5, r2, asr #24
    5dd8:	49564e28 	ldmdbmi	r6, {r3, r5, r9, sl, fp, lr}^
    5ddc:	43495f43 	movtmi	r5, #40771	; 0x9f43
    5de0:	20315245 	eorscs	r5, r1, r5, asr #4
    5de4:	28203d7c 	stmdacs	r0!, {r2, r3, r4, r5, r6, r8, sl, fp, ip, sp}
    5de8:	383c3c31 	ldmdacc	ip!, {r0, r4, r5, sl, fp, ip, sp}
    5dec:	5f002929 	svcpl	0x00002929
    5df0:	7361685f 	cmnvc	r1, #6225920	; 0x5f0000
    5df4:	6165665f 	cmnvs	r5, pc, asr r6
    5df8:	65727574 	ldrbvs	r7, [r2, #-1396]!	; 0xfffffa8c
    5dfc:	20297828 	eorcs	r7, r9, r8, lsr #16
    5e00:	475f0030 	smmlarmi	pc, r0, r0, r0	; <UNPREDICTABLE>
    5e04:	505f4343 	subspl	r4, pc, r3, asr #6
    5e08:	49445254 	stmdbmi	r4, {r2, r4, r6, r9, ip, lr}^
    5e0c:	545f4646 	ldrbpl	r4, [pc], #-1606	; 5e14 <_Min_Stack_Size+0x5a14>
    5e10:	5f5f0020 	svcpl	0x005f0020
    5e14:	43554e47 	cmpmi	r5, #1136	; 0x470
    5e18:	454b494c 	strbmi	r4, [fp, #-2380]	; 0xfffff6b4
    5e1c:	4955425f 	ldmdbmi	r5, {r0, r1, r2, r3, r4, r6, r9, lr}^
    5e20:	4e49544c 	cdpmi	4, 4, cr5, cr9, cr12, {2}
    5e24:	58454e5f 	stmdapl	r5, {r0, r1, r2, r3, r4, r6, r9, sl, fp, lr}^
    5e28:	52415f54 	subpl	r5, r1, #84, 30	; 0x150
    5e2c:	00312047 	eorseq	r2, r1, r7, asr #32
    5e30:	41545f5f 	cmpmi	r4, pc, asr pc
    5e34:	4942495f 	stmdbmi	r2, {r0, r1, r2, r3, r4, r6, r8, fp, lr}^
    5e38:	205f5f54 	subscs	r5, pc, r4, asr pc	; <UNPREDICTABLE>
    5e3c:	47003436 	smladxmi	r0, r6, r4, r3
    5e40:	444f4950 	strbmi	r4, [pc], #-2384	; 5e48 <_Min_Stack_Size+0x5a48>
    5e44:	5341425f 	movtpl	r4, #4703	; 0x125f
    5e48:	78302045 	ldmdavc	r0!, {r0, r2, r6, sp}
    5e4c:	31303034 	teqcc	r0, r4, lsr r0
    5e50:	30303431 	eorscc	r3, r0, r1, lsr r4
    5e54:	45004c55 	strmi	r4, [r0, #-3157]	; 0xfffff3ab
    5e58:	35495458 	strbcc	r5, [r9, #-1112]	; 0xfffffba8
    5e5c:	20354450 	eorscs	r4, r5, r0, asr r4
    5e60:	54584528 	ldrbpl	r4, [r8], #-1320	; 0xfffffad8
    5e64:	50475f49 	subpl	r5, r7, r9, asr #30
    5e68:	4d5f4f49 	ldclmi	15, cr4, [pc, #-292]	; 5d4c <_Min_Stack_Size+0x594c>
    5e6c:	69707061 	ldmdbvs	r0!, {r0, r5, r6, ip, sp, lr}^
    5e70:	745f676e 	ldrbvc	r6, [pc], #-1902	; 5e78 <_Min_Stack_Size+0x5a78>
    5e74:	58457b29 	stmdapl	r5, {r0, r3, r5, r8, r9, fp, ip, sp, lr}^
    5e78:	2c354954 			; <UNDEFINED> instruction: 0x2c354954
    5e7c:	49504720 	ldmdbmi	r0, {r5, r8, r9, sl, lr}^
    5e80:	202c444f 	eorcs	r4, ip, pc, asr #8
    5e84:	4f495047 	svcmi	0x00495047
    5e88:	4e49505f 	mcrmi	0, 2, r5, cr9, cr15, {2}
    5e8c:	202c355f 	eorcs	r3, ip, pc, asr r5
    5e90:	49545845 	ldmdbmi	r4, {r0, r2, r6, fp, ip, lr}^
    5e94:	52495f35 	subpl	r5, r9, #53, 30	; 0xd4
    5e98:	007d2051 	rsbseq	r2, sp, r1, asr r0
    5e9c:	334d5453 	movtcc	r5, #54355	; 0xd453
    5ea0:	00312032 	eorseq	r2, r1, r2, lsr r0
    5ea4:	41525f5f 	cmpmi	r2, pc, asr pc
    5ea8:	4d5f444e 	cfldrdmi	mvd4, [pc, #-312]	; 5d78 <_Min_Stack_Size+0x5978>
    5eac:	30205841 	eorcc	r5, r0, r1, asr #16
    5eb0:	66663778 			; <UNDEFINED> instruction: 0x66663778
    5eb4:	66666666 	strbtvs	r6, [r6], -r6, ror #12
    5eb8:	5f5f0066 	svcpl	0x005f0066
    5ebc:	4b434f4c 	blmi	10d9bf4 <_Min_Stack_Size+0x10d97f4>
    5ec0:	494e495f 	stmdbmi	lr, {r0, r1, r2, r3, r4, r6, r8, fp, lr}^
    5ec4:	6c632854 	stclvs	8, cr2, [r3], #-336	; 0xfffffeb0
    5ec8:	2c737361 	ldclcs	3, cr7, [r3], #-388	; 0xfffffe7c
    5ecc:	6b636f6c 	blvs	18e1c84 <_Min_Stack_Size+0x18e1884>
    5ed0:	74732029 	ldrbtvc	r2, [r3], #-41	; 0xffffffd7
    5ed4:	63697461 	cmnvs	r9, #1627389952	; 0x61000000
    5ed8:	746e6920 	strbtvc	r6, [lr], #-2336	; 0xfffff6e0
    5edc:	636f6c20 	cmnvs	pc, #32, 24	; 0x2000
    5ee0:	203d206b 	eorscs	r2, sp, fp, rrx
    5ee4:	45003b30 	strmi	r3, [r0, #-2864]	; 0xfffff4d0
    5ee8:	34495458 	strbcc	r5, [r9], #-1112	; 0xfffffba8
    5eec:	5f003420 	svcpl	0x00003420
    5ef0:	5f6d745f 	svcpl	0x006d745f
    5ef4:	79616477 	stmdbvc	r1!, {r0, r1, r2, r4, r5, r6, sl, sp, lr}^
    5ef8:	415f5f00 	cmpmi	pc, r0, lsl #30
    5efc:	465f4d52 			; <UNDEFINED> instruction: 0x465f4d52
    5f00:	55544145 	ldrbpl	r4, [r4, #-325]	; 0xfffffebb
    5f04:	515f4552 	cmppl	pc, r2, asr r5	; <UNPREDICTABLE>
    5f08:	584d4452 	stmdapl	sp, {r1, r4, r6, sl, lr}^
    5f0c:	41485f00 	cmpmi	r8, r0, lsl #30
    5f10:	435f4556 	cmpmi	pc, #360710144	; 0x15800000
    5f14:	4e495f43 	cdpmi	15, 4, cr5, cr9, cr3, {2}
    5f18:	49424948 	stmdbmi	r2, {r3, r6, r8, fp, lr}^
    5f1c:	4f4c5f54 	svcmi	0x004c5f54
    5f20:	545f504f 	ldrbpl	r5, [pc], #-79	; 5f28 <_Min_Stack_Size+0x5b28>
    5f24:	494c5f4f 	stmdbmi	ip, {r0, r1, r2, r3, r6, r8, r9, sl, fp, ip, lr}^
    5f28:	4c414342 	mcrrmi	3, 4, r4, r1, cr2
    5f2c:	0031204c 	eorseq	r2, r1, ip, asr #32
    5f30:	52415f5f 	subpl	r5, r1, #380	; 0x17c
    5f34:	52415f4d 	subpl	r5, r1, #308	; 0x134
    5f38:	495f4843 	ldmdbmi	pc, {r0, r1, r6, fp, lr}^	; <UNPREDICTABLE>
    5f3c:	545f4153 	ldrbpl	r4, [pc], #-339	; 5f44 <_Min_Stack_Size+0x5b44>
    5f40:	424d5548 	submi	r5, sp, #72, 10	; 0x12000000
    5f44:	41003220 	tstmi	r0, r0, lsr #4
    5f48:	5f4f4946 	svcpl	0x004f4946
    5f4c:	5f4b4c43 	svcpl	0x004b4c43
    5f50:	29284e45 	stmdbcs	r8!, {r0, r2, r6, r9, sl, fp, lr}
    5f54:	43522820 	cmpmi	r2, #32, 16	; 0x200000
    5f58:	413e2d43 	teqmi	lr, r3, asr #26
    5f5c:	45324250 	ldrmi	r4, [r2, #-592]!	; 0xfffffdb0
    5f60:	7c20524e 	sfmvc	f5, 4, [r0], #-312	; 0xfffffec8
    5f64:	3128203d 			; <UNDEFINED> instruction: 0x3128203d
    5f68:	29303c3c 	ldmdbcs	r0!, {r2, r3, r4, r5, sl, fp, ip, sp}
    5f6c:	5f5f0029 	svcpl	0x005f0029
    5f70:	474e4f4c 	strbmi	r4, [lr, -ip, asr #30]
    5f74:	4e4f4c5f 	mcrmi	12, 2, r4, cr15, cr15, {2}
    5f78:	414d5f47 	cmpmi	sp, r7, asr #30
    5f7c:	205f5f58 	subscs	r5, pc, r8, asr pc	; <UNPREDICTABLE>
    5f80:	66377830 			; <UNDEFINED> instruction: 0x66377830
    5f84:	66666666 	strbtvs	r6, [r6], -r6, ror #12
    5f88:	66666666 	strbtvs	r6, [r6], -r6, ror #12
    5f8c:	66666666 	strbtvs	r6, [r6], -r6, ror #12
    5f90:	4c4c6666 	mcrrmi	6, 6, r6, ip, cr6
    5f94:	43435200 	movtmi	r5, #12800	; 0x3200
    5f98:	4950475f 	ldmdbmi	r0, {r0, r1, r2, r3, r4, r6, r8, r9, sl, lr}^
    5f9c:	435f444f 	cmpmi	pc, #1325400064	; 0x4f000000
    5fa0:	455f4b4c 	ldrbmi	r4, [pc, #-2892]	; 545c <_Min_Stack_Size+0x505c>
    5fa4:	2029284e 	eorcs	r2, r9, lr, asr #16
    5fa8:	43435228 	movtmi	r5, #12840	; 0x3228
    5fac:	50413e2d 	subpl	r3, r1, sp, lsr #28
    5fb0:	4e453242 	cdpmi	2, 4, cr3, cr5, cr2, {2}
    5fb4:	3d7c2052 	ldclcc	0, cr2, [ip, #-328]!	; 0xfffffeb8
    5fb8:	3c312820 	ldccc	8, cr2, [r1], #-128	; 0xffffff80
    5fbc:	2929353c 	stmdbcs	r9!, {r2, r3, r4, r5, r8, sl, ip, sp}
    5fc0:	6c635f00 	stclvs	15, cr5, [r3], #-0
    5fc4:	0065736f 	rsbeq	r7, r5, pc, ror #6
    5fc8:	72615f5f 	rsbvc	r5, r1, #380	; 0x17c
    5fcc:	79745f67 	ldmdbvc	r4!, {r0, r1, r2, r5, r6, r8, r9, sl, fp, ip, lr}^
    5fd0:	745f6570 	ldrbvc	r6, [pc], #-1392	; 5fd8 <_Min_Stack_Size+0x5bd8>
    5fd4:	61286761 			; <UNDEFINED> instruction: 0x61286761
    5fd8:	6b5f6772 	blvs	17dfda8 <_Min_Stack_Size+0x17df9a8>
    5fdc:	2c646e69 	stclcs	14, cr6, [r4], #-420	; 0xfffffe5c
    5fe0:	5f677261 	svcpl	0x00677261
    5fe4:	2c786469 	cfldrdcs	mvd6, [r8], #-420	; 0xfffffe5c
    5fe8:	65707974 	ldrbvs	r7, [r0, #-2420]!	; 0xfffff68c
    5fec:	6761745f 			; <UNDEFINED> instruction: 0x6761745f
    5ff0:	7864695f 	stmdavc	r4!, {r0, r1, r2, r3, r4, r6, r8, fp, sp, lr}^
    5ff4:	5f002029 	svcpl	0x00002029
    5ff8:	5254535f 	subspl	r5, r4, #2080374785	; 0x7c000001
    5ffc:	28474e49 	stmdacs	r7, {r0, r3, r6, r9, sl, fp, lr}^
    6000:	23202978 			; <UNDEFINED> instruction: 0x23202978
    6004:	5f5f0078 	svcpl	0x005f0078
    6008:	795f6d74 	ldmdbvc	pc, {r2, r4, r5, r6, r8, sl, fp, sp, lr}^	; <UNPREDICTABLE>
    600c:	00796164 	rsbseq	r6, r9, r4, ror #2
    6010:	726f6873 	rsbvc	r6, pc, #7536640	; 0x730000
    6014:	525f0074 	subspl	r0, pc, #116	; 0x74
    6018:	544e4545 	strbpl	r4, [lr], #-1349	; 0xfffffabb
    601c:	494e495f 	stmdbmi	lr, {r0, r1, r2, r3, r4, r6, r8, fp, lr}^
    6020:	54505f54 	ldrbpl	r5, [r0], #-3924	; 0xfffff0ac
    6024:	61762852 	cmnvs	r6, r2, asr r8
    6028:	7b202972 	blvc	8105f8 <_Min_Stack_Size+0x8101f8>
    602c:	6d656d20 	stclvs	13, cr6, [r5, #-128]!	; 0xffffff80
    6030:	28746573 	ldmdacs	r4!, {r0, r1, r4, r5, r6, r8, sl, sp, lr}^
    6034:	72617628 	rsbvc	r7, r1, #40, 12	; 0x2800000
    6038:	30202c29 	eorcc	r2, r0, r9, lsr #24
    603c:	6973202c 	ldmdbvs	r3!, {r2, r3, r5, sp}^
    6040:	666f657a 			; <UNDEFINED> instruction: 0x666f657a
    6044:	76282a28 	strtvc	r2, [r8], -r8, lsr #20
    6048:	29297261 	stmdbcs	r9!, {r0, r5, r6, r9, ip, sp, lr}
    604c:	5f203b29 	svcpl	0x00203b29
    6050:	4e454552 	mcrmi	5, 2, r4, cr5, cr2, {2}
    6054:	4e495f54 	mcrmi	15, 2, r5, cr9, cr4, {2}
    6058:	505f5449 	subspl	r5, pc, r9, asr #8
    605c:	5a5f5254 	bpl	17da9b4 <_Min_Stack_Size+0x17da5b4>
    6060:	454f5245 	strbmi	r5, [pc, #-581]	; 5e23 <_Min_Stack_Size+0x5a23>
    6064:	61762844 	cmnvs	r6, r4, asr #16
    6068:	203b2972 	eorscs	r2, fp, r2, ror r9
    606c:	5f5f007d 	svcpl	0x005f007d
    6070:	59504f43 	ldmdbpl	r0, {r0, r1, r6, r8, r9, sl, fp, lr}^
    6074:	48474952 	stmdami	r7, {r1, r4, r6, r8, fp, lr}^
    6078:	29732854 	ldmdbcs	r3!, {r2, r4, r6, fp, sp}^
    607c:	72747320 	rsbsvc	r7, r4, #32, 6	; 0x80000000
    6080:	20746375 	rsbscs	r6, r4, r5, ror r3
    6084:	61685f5f 	cmnvs	r8, pc, asr pc
    6088:	5f006b63 	svcpl	0x00006b63
    608c:	5246555f 	subpl	r5, r6, #398458880	; 0x17c00000
    6090:	5f544341 	svcpl	0x00544341
    6094:	54494249 	strbpl	r4, [r9], #-585	; 0xfffffdb7
    6098:	30205f5f 	eorcc	r5, r0, pc, asr pc
    609c:	415f5f00 	cmpmi	pc, r0, lsl #30
    60a0:	335f4d52 	cmpcc	pc, #5248	; 0x1480
    60a4:	54494232 	strbpl	r4, [r9], #-562	; 0xfffffdce
    60a8:	4154535f 	cmpmi	r4, pc, asr r3
    60ac:	31204554 			; <UNDEFINED> instruction: 0x31204554
    60b0:	495f5f00 	ldmdbmi	pc, {r8, r9, sl, fp, ip, lr}^	; <UNPREDICTABLE>
    60b4:	5f38544e 	svcpl	0x0038544e
    60b8:	29632843 	stmdbcs	r3!, {r0, r1, r6, fp, sp}^
    60bc:	5f006320 	svcpl	0x00006320
    60c0:	52464c5f 	subpl	r4, r6, #24320	; 0x5f00
    60c4:	5f544341 	svcpl	0x00544341
    60c8:	54494249 	strbpl	r4, [r9], #-585	; 0xfffffdb7
    60cc:	30205f5f 	eorcc	r5, r0, pc, asr pc
    60d0:	54535f00 	ldrbpl	r5, [r3], #-3840	; 0xfffff100
    60d4:	46454444 	strbmi	r4, [r5], -r4, asr #8
    60d8:	205f485f 	subscs	r4, pc, pc, asr r8	; <UNPREDICTABLE>
    60dc:	49504700 	ldmdbmi	r0, {r8, r9, sl, lr}^
    60e0:	50535f4f 	subspl	r5, r3, pc, asr #30
    60e4:	5f444545 	svcpl	0x00444545
    60e8:	204d3031 	subcs	r3, sp, r1, lsr r0
    60ec:	30307830 	eorscc	r7, r0, r0, lsr r8
    60f0:	30303030 	eorscc	r3, r0, r0, lsr r0
    60f4:	00753130 	rsbseq	r3, r5, r0, lsr r1
    60f8:	42445f5f 	submi	r5, r4, #380	; 0x17c
    60fc:	494d5f4c 	stmdbmi	sp, {r2, r3, r6, r8, r9, sl, fp, ip, lr}^
    6100:	58455f4e 	stmdapl	r5, {r1, r2, r3, r6, r8, r9, sl, fp, ip, lr}^
    6104:	205f5f50 	subscs	r5, pc, r0, asr pc	; <UNPREDICTABLE>
    6108:	30312d28 	eorscc	r2, r1, r8, lsr #26
    610c:	00293132 	eoreq	r3, r9, r2, lsr r1
    6110:	49535f5f 	ldmdbmi	r3, {r0, r1, r2, r3, r4, r6, r8, r9, sl, fp, ip, lr}^
    6114:	545f455a 	ldrbpl	r4, [pc], #-1370	; 611c <_Min_Stack_Size+0x5d1c>
    6118:	6c610020 	stclvs	0, cr0, [r1], #-128	; 0xffffff80
    611c:	61636f6c 	cmnvs	r3, ip, ror #30
    6120:	7a697328 	bvc	1a62dc8 <_Min_Stack_Size+0x1a629c8>
    6124:	5f202965 	svcpl	0x00202965
    6128:	6975625f 	ldmdbvs	r5!, {r0, r1, r2, r3, r4, r6, r9, sp, lr}^
    612c:	6e69746c 	cdpvs	4, 6, cr7, cr9, cr12, {3}
    6130:	6c6c615f 	stfvse	f6, [ip], #-380	; 0xfffffe84
    6134:	2861636f 	stmdacs	r1!, {r0, r1, r2, r3, r5, r6, r8, r9, sp, lr}^
    6138:	657a6973 	ldrbvs	r6, [sl, #-2419]!	; 0xfffff68d
    613c:	735f0029 	cmpvc	pc, #41	; 0x29
    6140:	00646565 	rsbeq	r6, r4, r5, ror #10
    6144:	72705f5f 	rsbsvc	r5, r0, #380	; 0x17c
    6148:	66746e69 	ldrbtvs	r6, [r4], -r9, ror #28
    614c:	6b696c30 	blvs	1a61214 <_Min_Stack_Size+0x1a60e14>
    6150:	6d662865 	stclvs	8, cr2, [r6, #-404]!	; 0xfffffe6c
    6154:	67726174 			; <UNDEFINED> instruction: 0x67726174
    6158:	7269662c 	rsbvc	r6, r9, #44, 12	; 0x2c00000
    615c:	61767473 	cmnvs	r6, r3, ror r4
    6160:	67726172 			; <UNDEFINED> instruction: 0x67726172
    6164:	45002029 	strmi	r2, [r0, #-41]	; 0xffffffd7
    6168:	31495458 	cmpcc	r9, r8, asr r4
    616c:	31435032 	cmpcc	r3, r2, lsr r0
    6170:	45282032 	strmi	r2, [r8, #-50]!	; 0xffffffce
    6174:	5f495458 	svcpl	0x00495458
    6178:	4f495047 	svcmi	0x00495047
    617c:	70614d5f 	rsbvc	r4, r1, pc, asr sp
    6180:	676e6970 			; <UNDEFINED> instruction: 0x676e6970
    6184:	7b29745f 	blvc	a63308 <_Min_Stack_Size+0xa62f08>
    6188:	49545845 	ldmdbmi	r4, {r0, r2, r6, fp, ip, lr}^
    618c:	202c3231 	eorcs	r3, ip, r1, lsr r2
    6190:	4f495047 	svcmi	0x00495047
    6194:	47202c43 	strmi	r2, [r0, -r3, asr #24]!
    6198:	5f4f4950 	svcpl	0x004f4950
    619c:	5f4e4950 	svcpl	0x004e4950
    61a0:	202c3231 	eorcs	r3, ip, r1, lsr r2
    61a4:	49545845 	ldmdbmi	r4, {r0, r2, r6, fp, ip, lr}^
    61a8:	495f3231 	ldmdbmi	pc, {r0, r4, r5, r9, ip, sp}^	; <UNPREDICTABLE>
    61ac:	7d205152 	stfvcs	f5, [r0, #-328]!	; 0xfffffeb8
    61b0:	465f5f00 	ldrbmi	r5, [pc], -r0, lsl #30
    61b4:	3233544c 	eorscc	r5, r3, #76, 8	; 0x4c000000
    61b8:	4749445f 	smlsldmi	r4, r9, pc, r4	; <UNPREDICTABLE>
    61bc:	36205f5f 	qsaxcc	r5, r0, pc	; <UNPREDICTABLE>
    61c0:	65735f00 	ldrbvs	r5, [r3, #-3840]!	; 0xfffff100
    61c4:	5f006b65 	svcpl	0x00006b65
    61c8:	6165645f 	cmnvs	r5, pc, asr r4
    61cc:	5f203264 	svcpl	0x00203264
    61d0:	7474615f 	ldrbtvc	r6, [r4], #-351	; 0xfffffea1
    61d4:	75626972 	strbvc	r6, [r2, #-2418]!	; 0xfffff68e
    61d8:	5f5f6574 	svcpl	0x005f6574
    61dc:	5f5f2828 	svcpl	0x005f2828
    61e0:	65726f6e 	ldrbvs	r6, [r2, #-3950]!	; 0xfffff092
    61e4:	6e727574 	mrcvs	5, 3, r7, cr2, cr4, {3}
    61e8:	29295f5f 	stmdbcs	r9!, {r0, r1, r2, r3, r4, r6, r8, r9, sl, fp, ip, lr}
    61ec:	4c5f5f00 	mrrcmi	15, 0, r5, pc, cr0	; <UNPREDICTABLE>
    61f0:	54534145 	ldrbpl	r4, [r3], #-325	; 0xfffffebb
    61f4:	22203436 	eorcs	r3, r0, #905969664	; 0x36000000
    61f8:	00226c6c 	eoreq	r6, r2, ip, ror #24
    61fc:	4f495047 	svcmi	0x00495047
    6200:	444f4d5f 	strbmi	r4, [pc], #-3423	; 6208 <_Min_Stack_Size+0x5e08>
    6204:	554f5f45 	strbpl	r5, [pc, #-3909]	; 52c7 <_Min_Stack_Size+0x4ec7>
    6208:	54555054 	ldrbpl	r5, [r5], #-84	; 0xffffffac
    620c:	5f46415f 	svcpl	0x0046415f
    6210:	3020444f 	eorcc	r4, r0, pc, asr #8
    6214:	30303078 	eorscc	r3, r0, r8, ror r0
    6218:	30303030 	eorscc	r3, r0, r0, lsr r0
    621c:	5f007537 	svcpl	0x00007537
    6220:	6d6f635f 	stclvs	3, cr6, [pc, #-380]!	; 60ac <_Min_Stack_Size+0x5cac>
    6224:	5f726170 	svcpl	0x00726170
    6228:	745f6e66 	ldrbvc	r6, [pc], #-3686	; 6230 <_Min_Stack_Size+0x5e30>
    622c:	6665645f 			; <UNDEFINED> instruction: 0x6665645f
    6230:	64656e69 	strbtvs	r6, [r5], #-3689	; 0xfffff197
    6234:	58450020 	stmdapl	r5, {r5}^
    6238:	50354954 	eorspl	r4, r5, r4, asr r9
    623c:	28203541 	stmdacs	r0!, {r0, r6, r8, sl, ip, sp}
    6240:	49545845 	ldmdbmi	r4, {r0, r2, r6, fp, ip, lr}^
    6244:	4950475f 	ldmdbmi	r0, {r0, r1, r2, r3, r4, r6, r8, r9, sl, lr}^
    6248:	614d5f4f 	cmpvs	sp, pc, asr #30
    624c:	6e697070 	mcrvs	0, 3, r7, cr9, cr0, {3}
    6250:	29745f67 	ldmdbcs	r4!, {r0, r1, r2, r5, r6, r8, r9, sl, fp, ip, lr}^
    6254:	5458457b 	ldrbpl	r4, [r8], #-1403	; 0xfffffa85
    6258:	202c3549 	eorcs	r3, ip, r9, asr #10
    625c:	4f495047 	svcmi	0x00495047
    6260:	47202c41 	strmi	r2, [r0, -r1, asr #24]!
    6264:	5f4f4950 	svcpl	0x004f4950
    6268:	5f4e4950 	svcpl	0x004e4950
    626c:	45202c35 	strmi	r2, [r0, #-3125]!	; 0xfffff3cb
    6270:	35495458 	strbcc	r5, [r9, #-1112]	; 0xfffffba8
    6274:	5152495f 	cmppl	r2, pc, asr r9
    6278:	55007d20 	strpl	r7, [r0, #-3360]	; 0xfffff2e0
    627c:	4d544e49 	ldclmi	14, cr4, [r4, #-292]	; 0xfffffedc
    6280:	435f5841 	cmpmi	pc, #4259840	; 0x410000
    6284:	20297828 	eorcs	r7, r9, r8, lsr #16
    6288:	49555f5f 	ldmdbmi	r5, {r0, r1, r2, r3, r4, r6, r8, r9, sl, fp, ip, lr}^
    628c:	414d544e 	cmpmi	sp, lr, asr #8
    6290:	28435f58 	stmdacs	r3, {r3, r4, r6, r8, r9, sl, fp, ip, lr}^
    6294:	4e002978 			; <UNDEFINED> instruction: 0x4e002978
    6298:	5f434956 	svcpl	0x00434956
    629c:	36515249 	ldrbcc	r5, [r1], -r9, asr #4
    62a0:	5458455f 	ldrbpl	r4, [r8], #-1375	; 0xfffffaa1
    62a4:	455f3249 	ldrbmi	r3, [pc, #-585]	; 6063 <_Min_Stack_Size+0x5c63>
    62a8:	4c42414e 	stfmie	f4, [r2], {78}	; 0x4e
    62ac:	4e282045 	cdpmi	0, 2, cr2, cr8, cr5, {2}
    62b0:	5f434956 	svcpl	0x00434956
    62b4:	52455349 	subpl	r5, r5, #603979777	; 0x24000001
    62b8:	3d7c2030 	ldclcc	0, cr2, [ip, #-192]!	; 0xffffff40
    62bc:	3c312820 	ldccc	8, cr2, [r1], #-128	; 0xffffff80
    62c0:	2929383c 	stmdbcs	r9!, {r2, r3, r4, r5, fp, ip, sp}
    62c4:	455f5f00 	ldrbmi	r5, [pc, #-3840]	; 53cc <_Min_Stack_Size+0x4fcc>
    62c8:	5f005058 	svcpl	0x00005058
    62cc:	736f7066 	cmnvc	pc, #102	; 0x66
    62d0:	5f00745f 	svcpl	0x0000745f
    62d4:	42444c5f 	submi	r4, r4, #24320	; 0x5f00
    62d8:	41485f4c 	cmpmi	r8, ip, asr #30
    62dc:	45445f53 	strbmi	r5, [r4, #-3923]	; 0xfffff0ad
    62e0:	4d524f4e 	ldclmi	15, cr4, [r2, #-312]	; 0xfffffec8
    62e4:	31205f5f 			; <UNDEFINED> instruction: 0x31205f5f
    62e8:	775f5f00 	ldrbvc	r5, [pc, -r0, lsl #30]
    62ec:	00626863 	rsbeq	r6, r2, r3, ror #16
    62f0:	43475f5f 	movtmi	r5, #32607	; 0x7f5f
    62f4:	41485f43 	cmpmi	r8, r3, asr #30
    62f8:	535f4556 	cmppl	pc, #360710144	; 0x15800000
    62fc:	5f434e59 	svcpl	0x00434e59
    6300:	504d4f43 	subpl	r4, sp, r3, asr #30
    6304:	5f455241 	svcpl	0x00455241
    6308:	5f444e41 	svcpl	0x00444e41
    630c:	50415753 	subpl	r5, r1, r3, asr r7
    6310:	3120345f 			; <UNDEFINED> instruction: 0x3120345f
    6314:	49504700 	ldmdbmi	r0, {r8, r9, sl, lr}^
    6318:	2820424f 	stmdacs	r0!, {r0, r1, r2, r3, r6, r9, lr}
    631c:	49504728 	ldmdbmi	r0, {r3, r5, r8, r9, sl, lr}^
    6320:	79545f4f 	ldmdbvc	r4, {r0, r1, r2, r3, r6, r8, r9, sl, fp, ip, lr}^
    6324:	65446570 	strbvs	r6, [r4, #-1392]	; 0xfffffa90
    6328:	47292a66 	strmi	r2, [r9, -r6, ror #20]!
    632c:	424f4950 	submi	r4, pc, #80, 18	; 0x140000
    6330:	5341425f 	movtpl	r4, #4703	; 0x125f
    6334:	41002945 	tstmi	r0, r5, asr #18
    6338:	52314250 	eorspl	r4, r1, #80, 4
    633c:	00525453 	subseq	r5, r2, r3, asr r4
    6340:	43415f5f 	movtmi	r5, #8031	; 0x1f5f
    6344:	5f4d5543 	svcpl	0x004d5543
    6348:	5f4e494d 	svcpl	0x004e494d
    634c:	2d28205f 	stccs	0, cr2, [r8, #-380]!	; 0xfffffe84
    6350:	50315830 	eorspl	r5, r1, r0, lsr r8
    6354:	2d4b3531 	cfstr64cs	mvdx3, [fp, #-196]	; 0xffffff3c
    6358:	50315830 	eorspl	r5, r1, r0, lsr r8
    635c:	294b3531 	stmdbcs	fp, {r0, r4, r5, r8, sl, ip, sp}^
    6360:	475f5f00 	ldrbmi	r5, [pc, -r0, lsl #30]
    6364:	5f43554e 	svcpl	0x0043554e
    6368:	4c5f4156 	ldfmie	f4, [pc], {86}	; 0x56
    636c:	5f545349 	svcpl	0x00545349
    6370:	504d4f43 	subpl	r4, sp, r3, asr #30
    6374:	42495441 	submi	r5, r9, #1090519040	; 0x41000000
    6378:	54494c49 	strbpl	r4, [r9], #-3145	; 0xfffff3b7
    637c:	00312059 	eorseq	r2, r1, r9, asr r0
    6380:	52415f5f 	subpl	r5, r1, #380	; 0x17c
    6384:	45465f4d 	strbmi	r5, [r6, #-3917]	; 0xfffff0b3
    6388:	52555441 	subspl	r5, r5, #1090519040	; 0x41000000
    638c:	52435f45 	subpl	r5, r3, #276	; 0x114
    6390:	4f545059 	svcmi	0x00545059
    6394:	535f5f00 	cmppl	pc, #0, 30
    6398:	4f455a49 	svcmi	0x00455a49
    639c:	43575f46 	cmpmi	r7, #280	; 0x118
    63a0:	5f524148 	svcpl	0x00524148
    63a4:	205f5f54 	subscs	r5, pc, r4, asr pc	; <UNPREDICTABLE>
    63a8:	50410034 	subpl	r0, r1, r4, lsr r0
    63ac:	4e453142 	dvfmism	f3, f5, f2
    63b0:	6d5f0052 	ldclvs	0, cr0, [pc, #-328]	; 6270 <_Min_Stack_Size+0x5e70>
    63b4:	776f7462 	strbvc	r7, [pc, -r2, ror #8]!
    63b8:	74735f63 	ldrbtvc	r5, [r3], #-3939	; 0xfffff09d
    63bc:	00657461 	rsbeq	r7, r5, r1, ror #8
    63c0:	4f495047 	svcmi	0x00495047
    63c4:	28282045 	stmdacs	r8!, {r0, r2, r6, sp}
    63c8:	4f495047 	svcmi	0x00495047
    63cc:	7079545f 	rsbsvc	r5, r9, pc, asr r4
    63d0:	66654465 	strbtvs	r4, [r5], -r5, ror #8
    63d4:	5047292a 	subpl	r2, r7, sl, lsr #18
    63d8:	5f454f49 	svcpl	0x00454f49
    63dc:	45534142 	ldrbmi	r4, [r3, #-322]	; 0xfffffebe
    63e0:	5f5f0029 	svcpl	0x005f0029
    63e4:	544e4955 	strbpl	r4, [lr], #-2389	; 0xfffff6ab
    63e8:	41454c5f 	cmpmi	r5, pc, asr ip
    63ec:	34365453 	ldrtcc	r5, [r6], #-1107	; 0xfffffbad
    63f0:	58414d5f 	stmdapl	r1, {r0, r1, r2, r3, r4, r6, r8, sl, fp, lr}^
    63f4:	30205f5f 	eorcc	r5, r0, pc, asr pc
    63f8:	66666678 			; <UNDEFINED> instruction: 0x66666678
    63fc:	66666666 	strbtvs	r6, [r6], -r6, ror #12
    6400:	66666666 	strbtvs	r6, [r6], -r6, ror #12
    6404:	66666666 	strbtvs	r6, [r6], -r6, ror #12
    6408:	4c4c5566 	cfstr64mi	mvdx5, [ip], {102}	; 0x66
    640c:	465f5f00 	ldrbmi	r5, [pc], -r0, lsl #30
    6410:	54434152 	strbpl	r4, [r3], #-338	; 0xfffffeae
    6414:	4942495f 	stmdbmi	r2, {r0, r1, r2, r3, r4, r6, r8, fp, lr}^
    6418:	205f5f54 	subscs	r5, pc, r4, asr pc	; <UNPREDICTABLE>
    641c:	58450030 	stmdapl	r5, {r4, r5}^
    6420:	31314954 	teqcc	r1, r4, asr r9
    6424:	5152495f 	cmppl	r2, pc, asr r9
    6428:	00303420 	eorseq	r3, r0, r0, lsr #8
    642c:	4e495f5f 	mcrmi	15, 2, r5, cr9, cr15, {2}
    6430:	49575f54 	ldmdbmi	r7, {r2, r4, r6, r8, r9, sl, fp, ip, lr}^
    6434:	5f485444 	svcpl	0x00485444
    6438:	3233205f 	eorscc	r2, r3, #95	; 0x5f
    643c:	4e5f5f00 	cdpmi	15, 5, cr5, cr15, cr0, {0}
    6440:	494c5745 	stmdbmi	ip, {r0, r2, r6, r8, r9, sl, ip, lr}^
    6444:	41505f42 	cmpmi	r0, r2, asr #30
    6448:	4c484354 	mcrrmi	3, 5, r4, r8, cr4
    644c:	4c455645 	mcrrmi	6, 4, r5, r5, cr5
    6450:	30205f5f 	eorcc	r5, r0, pc, asr pc
    6454:	4f5f5f00 	svcmi	0x005f5f00
    6458:	52454452 	subpl	r4, r5, #1375731712	; 0x52000000
    645c:	54494c5f 	strbpl	r4, [r9], #-3167	; 0xfffff3a1
    6460:	5f454c54 	svcpl	0x00454c54
    6464:	49444e45 	stmdbmi	r4, {r0, r2, r6, r9, sl, fp, lr}^
    6468:	5f5f4e41 	svcpl	0x005f4e41
    646c:	33323120 	teqcc	r2, #32, 2
    6470:	5f5f0034 	svcpl	0x005f0034
    6474:	657a6973 	ldrbvs	r6, [sl, #-2419]!	; 0xfffff68d
    6478:	5f00745f 	svcpl	0x0000745f
    647c:	5f43435f 	svcpl	0x0043435f
    6480:	50505553 	subspl	r5, r0, r3, asr r5
    6484:	5354524f 	cmppl	r4, #-268435452	; 0xf0000004
    6488:	4c4e495f 	mcrrmi	9, 5, r4, lr, cr15	; <UNPREDICTABLE>
    648c:	20454e49 	subcs	r4, r5, r9, asr #28
    6490:	5f5f0031 	svcpl	0x005f0031
    6494:	53544f44 	cmppl	r4, #68, 30	; 0x110
    6498:	2e202c20 	cdpcs	12, 2, cr2, cr0, cr0, {1}
    649c:	5f002e2e 	svcpl	0x00002e2e
    64a0:	4345445f 	movtmi	r4, #21599	; 0x545f
    64a4:	4d5f3436 	cfldrdmi	mvd3, [pc, #-216]	; 63d4 <_Min_Stack_Size+0x5fd4>
    64a8:	5f544e41 	svcpl	0x00544e41
    64ac:	5f474944 	svcpl	0x00474944
    64b0:	3631205f 			; <UNDEFINED> instruction: 0x3631205f
    64b4:	45525f00 	ldrbmi	r5, [r2, #-3840]	; 0xfffff100
    64b8:	5f544e45 	svcpl	0x00544e45
    64bc:	44544547 	ldrbmi	r4, [r4], #-1351	; 0xfffffab9
    64c0:	5f455441 	svcpl	0x00455441
    64c4:	5f525245 	svcpl	0x00525245
    64c8:	74702850 	ldrbtvc	r2, [r0], #-2128	; 0xfffff7b0
    64cc:	28202972 	stmdacs	r0!, {r1, r4, r5, r6, r8, fp, sp}
    64d0:	70282826 	eorvc	r2, r8, r6, lsr #16
    64d4:	2d297274 	sfmcs	f7, 4, [r9, #-464]!	; 0xfffffe30
    64d8:	696d5f3e 	stmdbvs	sp!, {r1, r2, r3, r4, r5, r8, r9, sl, fp, ip, lr}^
    64dc:	3e2d6373 	mcrcc	3, 1, r6, cr13, cr3, {3}
    64e0:	7465675f 	strbtvc	r6, [r5], #-1887	; 0xfffff8a1
    64e4:	65746164 	ldrbvs	r6, [r4, #-356]!	; 0xfffffe9c
    64e8:	7272655f 	rsbsvc	r6, r2, #398458880	; 0x17c00000
    64ec:	5f002929 	svcpl	0x00002929
    64f0:	544c465f 	strbpl	r4, [ip], #-1631	; 0xfffff9a1
    64f4:	4e494d5f 	mcrmi	13, 2, r4, cr9, cr15, {2}
    64f8:	5f30315f 	svcpl	0x0030315f
    64fc:	5f505845 	svcpl	0x00505845
    6500:	2d28205f 	stccs	0, cr2, [r8, #-380]!	; 0xfffffe84
    6504:	00293733 	eoreq	r3, r9, r3, lsr r7
    6508:	49545845 	ldmdbmi	r4, {r0, r2, r6, fp, ip, lr}^
    650c:	32435032 	subcc	r5, r3, #50	; 0x32
    6510:	58452820 	stmdapl	r5, {r5, fp, sp}^
    6514:	475f4954 			; <UNDEFINED> instruction: 0x475f4954
    6518:	5f4f4950 	svcpl	0x004f4950
    651c:	7070614d 	rsbsvc	r6, r0, sp, asr #2
    6520:	5f676e69 	svcpl	0x00676e69
    6524:	457b2974 	ldrbmi	r2, [fp, #-2420]!	; 0xfffff68c
    6528:	32495458 	subcc	r5, r9, #88, 8	; 0x58000000
    652c:	5047202c 	subpl	r2, r7, ip, lsr #32
    6530:	2c434f49 	mcrrcs	15, 4, r4, r3, cr9
    6534:	49504720 	ldmdbmi	r0, {r5, r8, r9, sl, lr}^
    6538:	49505f4f 	ldmdbmi	r0, {r0, r1, r2, r3, r6, r8, r9, sl, fp, ip, lr}^
    653c:	2c325f4e 	ldccs	15, cr5, [r2], #-312	; 0xfffffec8
    6540:	54584520 	ldrbpl	r4, [r8], #-1312	; 0xfffffae0
    6544:	495f3249 	ldmdbmi	pc, {r0, r3, r6, r9, ip, sp}^	; <UNPREDICTABLE>
    6548:	7d205152 	stfvcs	f5, [r0, #-328]!	; 0xfffffeb8
    654c:	555f5f00 	ldrbpl	r5, [pc, #-3840]	; 5654 <_Min_Stack_Size+0x5254>
    6550:	4343414c 	movtmi	r4, #12620	; 0x314c
    6554:	495f4d55 	ldmdbmi	pc, {r0, r2, r4, r6, r8, sl, fp, lr}^	; <UNPREDICTABLE>
    6558:	5f544942 	svcpl	0x00544942
    655c:	3233205f 	eorscc	r2, r3, #95	; 0x5f
    6560:	535f5f00 	cmppl	pc, #0, 30
    6564:	5f545248 	svcpl	0x00545248
    6568:	5f58414d 	svcpl	0x0058414d
    656c:	7830205f 	ldmdavc	r0!, {r0, r1, r2, r3, r4, r6, sp}
    6570:	66666637 			; <UNDEFINED> instruction: 0x66666637
    6574:	4e495500 	cdpmi	5, 4, cr5, cr9, cr0, {0}
    6578:	41465f54 	cmpmi	r6, r4, asr pc
    657c:	5f385453 	svcpl	0x00385453
    6580:	2058414d 	subscs	r4, r8, sp, asr #2
    6584:	555f5f28 	ldrbpl	r5, [pc, #-3880]	; 5664 <_Min_Stack_Size+0x5264>
    6588:	5f544e49 	svcpl	0x00544e49
    658c:	54534146 	ldrbpl	r4, [r3], #-326	; 0xfffffeba
    6590:	414d5f38 	cmpmi	sp, r8, lsr pc
    6594:	295f5f58 	ldmdbcs	pc, {r3, r4, r6, r8, r9, sl, fp, ip, lr}^	; <UNPREDICTABLE>
    6598:	555f5f00 	ldrbpl	r5, [pc, #-3840]	; 56a0 <_Min_Stack_Size+0x52a0>
    659c:	43414c4c 	movtmi	r4, #7244	; 0x1c4c
    65a0:	5f4d5543 	svcpl	0x004d5543
    65a4:	49535045 	ldmdbmi	r3, {r0, r2, r6, ip, lr}^
    65a8:	5f4e4f4c 	svcpl	0x004e4f4c
    65ac:	7830205f 	ldmdavc	r0!, {r0, r1, r2, r3, r4, r6, sp}
    65b0:	332d5031 			; <UNDEFINED> instruction: 0x332d5031
    65b4:	4c4c5532 	cfstr64mi	mvdx5, [ip], {50}	; 0x32
    65b8:	535f004b 	cmppl	pc, #75	; 0x4b
    65bc:	5f455a49 	svcpl	0x00455a49
    65c0:	45445f54 	strbmi	r5, [r4, #-3924]	; 0xfffff0ac
    65c4:	454e4946 	strbmi	r4, [lr, #-2374]	; 0xfffff6ba
    65c8:	5f002044 	svcpl	0x00002044
    65cc:	5f51445f 	svcpl	0x0051445f
    65d0:	54494246 	strbpl	r4, [r9], #-582	; 0xfffffdba
    65d4:	36205f5f 	qsaxcc	r5, r0, pc	; <UNPREDICTABLE>
    65d8:	58450033 	stmdapl	r5, {r0, r1, r4, r5}^
    65dc:	50384954 	eorspl	r4, r8, r4, asr r9
    65e0:	28203842 	stmdacs	r0!, {r1, r6, fp, ip, sp}
    65e4:	49545845 	ldmdbmi	r4, {r0, r2, r6, fp, ip, lr}^
    65e8:	4950475f 	ldmdbmi	r0, {r0, r1, r2, r3, r4, r6, r8, r9, sl, lr}^
    65ec:	614d5f4f 	cmpvs	sp, pc, asr #30
    65f0:	6e697070 	mcrvs	0, 3, r7, cr9, cr0, {3}
    65f4:	29745f67 	ldmdbcs	r4!, {r0, r1, r2, r5, r6, r8, r9, sl, fp, ip, lr}^
    65f8:	5458457b 	ldrbpl	r4, [r8], #-1403	; 0xfffffa85
    65fc:	202c3849 	eorcs	r3, ip, r9, asr #16
    6600:	4f495047 	svcmi	0x00495047
    6604:	47202c42 	strmi	r2, [r0, -r2, asr #24]!
    6608:	5f4f4950 	svcpl	0x004f4950
    660c:	5f4e4950 	svcpl	0x004e4950
    6610:	45202c38 	strmi	r2, [r0, #-3128]!	; 0xfffff3c8
    6614:	38495458 	stmdacc	r9, {r3, r4, r6, sl, ip, lr}^
    6618:	5152495f 	cmppl	r2, pc, asr r9
    661c:	5f007d20 	svcpl	0x00007d20
    6620:	554e475f 	strbpl	r4, [lr, #-1887]	; 0xfffff8a1
    6624:	5349565f 	movtpl	r5, #38495	; 0x965f
    6628:	454c4249 	strbmi	r4, [ip, #-585]	; 0xfffffdb7
    662c:	47003020 	strmi	r3, [r0, -r0, lsr #32]
    6630:	424f4950 	submi	r4, pc, #80, 18	; 0x140000
    6634:	5341425f 	movtpl	r4, #4703	; 0x125f
    6638:	78302045 	ldmdavc	r0!, {r0, r2, r6, sp}
    663c:	31303034 	teqcc	r0, r4, lsr r0
    6640:	30304330 	eorscc	r4, r0, r0, lsr r3
    6644:	5f004c55 	svcpl	0x00004c55
    6648:	5254505f 	subspl	r5, r4, #95	; 0x5f
    664c:	46464944 	strbmi	r4, [r6], -r4, asr #18
    6650:	0020545f 	eoreq	r5, r0, pc, asr r4
    6654:	48555f5f 	ldmdami	r5, {r0, r1, r2, r3, r4, r6, r8, r9, sl, fp, ip, lr}^
    6658:	42495f51 	submi	r5, r9, #324	; 0x144
    665c:	5f5f5449 	svcpl	0x005f5449
    6660:	47003020 	strmi	r3, [r0, -r0, lsr #32]
    6664:	5f4f4950 	svcpl	0x004f4950
    6668:	5f4e4950 	svcpl	0x004e4950
    666c:	28282035 	stmdacs	r8!, {r0, r2, r4, r5, sp}
    6670:	746e6975 	strbtvc	r6, [lr], #-2421	; 0xfffff68b
    6674:	745f3631 	ldrbvc	r3, [pc], #-1585	; 667c <_Min_Stack_Size+0x627c>
    6678:	30783029 	rsbscc	r3, r8, r9, lsr #32
    667c:	29303230 	ldmdbcs	r0!, {r4, r5, r9, ip, sp}
    6680:	73645f00 	cmnvc	r4, #0, 30
    6684:	61685f6f 	cmnvs	r8, pc, ror #30
    6688:	656c646e 	strbvs	r6, [ip, #-1134]!	; 0xfffffb92
    668c:	495f5f00 	ldmdbmi	pc, {r8, r9, sl, fp, ip, lr}^	; <UNPREDICTABLE>
    6690:	465f544e 	ldrbmi	r5, [pc], -lr, asr #8
    6694:	31545341 	cmpcc	r4, r1, asr #6
    6698:	59545f36 	ldmdbpl	r4, {r1, r2, r4, r5, r8, r9, sl, fp, ip, lr}^
    669c:	5f5f4550 	svcpl	0x005f4550
    66a0:	746e6920 	strbtvc	r6, [lr], #-2336	; 0xfffff6e0
    66a4:	49555f00 	ldmdbmi	r5, {r8, r9, sl, fp, ip, lr}^
    66a8:	414d544e 	cmpmi	sp, lr, asr #8
    66ac:	5f545f58 	svcpl	0x00545f58
    66b0:	4c434544 	cfstr64mi	mvdx4, [r3], {68}	; 0x44
    66b4:	44455241 	strbmi	r5, [r5], #-577	; 0xfffffdbf
    66b8:	5f5f0020 	svcpl	0x005f0020
    66bc:	43434153 	movtmi	r4, #12627	; 0x3153
    66c0:	4d5f4d55 	ldclmi	13, cr4, [pc, #-340]	; 6574 <_Min_Stack_Size+0x6174>
    66c4:	5f5f4e49 	svcpl	0x005f4e49
    66c8:	302d2820 	eorcc	r2, sp, r0, lsr #16
    66cc:	37503158 			; <UNDEFINED> instruction: 0x37503158
    66d0:	302d4b48 	eorcc	r4, sp, r8, asr #22
    66d4:	37503158 			; <UNDEFINED> instruction: 0x37503158
    66d8:	00294b48 	eoreq	r4, r9, r8, asr #22
    66dc:	6e61725f 	mcrvs	2, 3, r7, cr1, cr15, {2}
    66e0:	00383464 	eorseq	r3, r8, r4, ror #8
    66e4:	49555f5f 	ldmdbmi	r5, {r0, r1, r2, r3, r4, r6, r8, r9, sl, fp, ip, lr}^
    66e8:	4c5f544e 	cfldrdmi	mvd5, [pc], {78}	; 0x4e
    66ec:	54534145 	ldrbpl	r4, [r3], #-325	; 0xfffffebb
    66f0:	545f3631 	ldrbpl	r3, [pc], #-1585	; 66f8 <_Min_Stack_Size+0x62f8>
    66f4:	5f455059 	svcpl	0x00455059
    66f8:	6873205f 	ldmdavs	r3!, {r0, r1, r2, r3, r4, r6, sp}^
    66fc:	2074726f 	rsbscs	r7, r4, pc, ror #4
    6700:	69736e75 	ldmdbvs	r3!, {r0, r2, r4, r5, r6, r9, sl, fp, sp, lr}^
    6704:	64656e67 	strbtvs	r6, [r5], #-3687	; 0xfffff199
    6708:	746e6920 	strbtvc	r6, [lr], #-2336	; 0xfffff6e0
    670c:	415f5f00 	cmpmi	pc, r0, lsl #30
    6710:	465f4d52 			; <UNDEFINED> instruction: 0x465f4d52
    6714:	55544145 	ldrbpl	r4, [r4, #-325]	; 0xfffffebb
    6718:	465f4552 			; <UNDEFINED> instruction: 0x465f4552
    671c:	5f00414d 	svcpl	0x0000414d
    6720:	43414c5f 	movtmi	r4, #7263	; 0x1c5f
    6724:	5f4d5543 	svcpl	0x004d5543
    6728:	5f58414d 	svcpl	0x0058414d
    672c:	5830205f 	ldmdapl	r0!, {r0, r1, r2, r3, r4, r6, sp}
    6730:	46464637 			; <UNDEFINED> instruction: 0x46464637
    6734:	46464646 	strbmi	r4, [r6], -r6, asr #12
    6738:	46464646 	strbmi	r4, [r6], -r6, asr #12
    673c:	46464646 	strbmi	r4, [r6], -r6, asr #12
    6740:	31332d50 	teqcc	r3, r0, asr sp
    6744:	5f004b4c 	svcpl	0x00004b4c
    6748:	4148435f 	cmpmi	r8, pc, asr r3
    674c:	5f363152 	svcpl	0x00363152
    6750:	45505954 	ldrbmi	r5, [r0, #-2388]	; 0xfffff6ac
    6754:	73205f5f 			; <UNDEFINED> instruction: 0x73205f5f
    6758:	74726f68 	ldrbtvc	r6, [r2], #-3944	; 0xfffff098
    675c:	736e7520 	cmnvc	lr, #32, 10	; 0x8000000
    6760:	656e6769 	strbvs	r6, [lr, #-1897]!	; 0xfffff897
    6764:	6e692064 	cdpvs	0, 6, cr2, cr9, cr4, {3}
    6768:	50470074 	subpl	r0, r7, r4, ror r0
    676c:	505f4f49 	subspl	r4, pc, r9, asr #30
    6770:	0074726f 	rsbseq	r7, r4, pc, ror #4
    6774:	4f495047 	svcmi	0x00495047
    6778:	4e49505f 	mcrmi	0, 2, r5, cr9, cr15, {2}
    677c:	2820365f 	stmdacs	r0!, {r0, r1, r2, r3, r4, r6, r9, sl, ip, sp}
    6780:	6e697528 	cdpvs	5, 6, cr7, cr9, cr8, {1}
    6784:	5f363174 	svcpl	0x00363174
    6788:	78302974 	ldmdavc	r0!, {r2, r4, r5, r6, r8, fp, sp}
    678c:	30343030 	eorscc	r3, r4, r0, lsr r0
    6790:	5f5f0029 	svcpl	0x005f0029
    6794:	33544c46 	cmpcc	r4, #17920	; 0x4600
    6798:	445f5832 	ldrbmi	r5, [pc], #-2098	; 67a0 <_Min_Stack_Size+0x63a0>
    679c:	5f5f4749 	svcpl	0x005f4749
    67a0:	00353120 	eorseq	r3, r5, r0, lsr #2
    67a4:	69735f5f 	ldmdbvs	r3!, {r0, r1, r2, r3, r4, r6, r8, r9, sl, fp, ip, lr}^
    67a8:	64656e67 	strbtvs	r6, [r5], #-3687	; 0xfffff199
    67ac:	67697320 	strbvs	r7, [r9, -r0, lsr #6]!
    67b0:	0064656e 	rsbeq	r6, r4, lr, ror #10
    67b4:	5f515249 	svcpl	0x00515249
    67b8:	5f004e45 	svcpl	0x00004e45
    67bc:	5154555f 	cmppl	r4, pc, asr r5
    67c0:	4942465f 	stmdbmi	r2, {r0, r1, r2, r3, r4, r6, r9, sl, lr}^
    67c4:	205f5f54 	subscs	r5, pc, r4, asr pc	; <UNPREDICTABLE>
    67c8:	00383231 	eorseq	r3, r8, r1, lsr r2
    67cc:	4f495047 	svcmi	0x00495047
    67d0:	28282043 	stmdacs	r8!, {r0, r1, r6, sp}
    67d4:	4f495047 	svcmi	0x00495047
    67d8:	7079545f 	rsbsvc	r5, r9, pc, asr r4
    67dc:	66654465 	strbtvs	r4, [r5], -r5, ror #8
    67e0:	5047292a 	subpl	r2, r7, sl, lsr #18
    67e4:	5f434f49 	svcpl	0x00434f49
    67e8:	45534142 	ldrbmi	r4, [r3, #-322]	; 0xfffffebe
    67ec:	58450029 	stmdapl	r5, {r0, r3, r5}^
    67f0:	50304954 	eorspl	r4, r0, r4, asr r9
    67f4:	28203044 	stmdacs	r0!, {r2, r6, ip, sp}
    67f8:	49545845 	ldmdbmi	r4, {r0, r2, r6, fp, ip, lr}^
    67fc:	4950475f 	ldmdbmi	r0, {r0, r1, r2, r3, r4, r6, r8, r9, sl, lr}^
    6800:	614d5f4f 	cmpvs	sp, pc, asr #30
    6804:	6e697070 	mcrvs	0, 3, r7, cr9, cr0, {3}
    6808:	29745f67 	ldmdbcs	r4!, {r0, r1, r2, r5, r6, r8, r9, sl, fp, ip, lr}^
    680c:	5458457b 	ldrbpl	r4, [r8], #-1403	; 0xfffffa85
    6810:	202c3049 	eorcs	r3, ip, r9, asr #32
    6814:	4f495047 	svcmi	0x00495047
    6818:	47202c44 	strmi	r2, [r0, -r4, asr #24]!
    681c:	5f4f4950 	svcpl	0x004f4950
    6820:	5f4e4950 	svcpl	0x004e4950
    6824:	45202c30 	strmi	r2, [r0, #-3120]!	; 0xfffff3d0
    6828:	30495458 	subcc	r5, r9, r8, asr r4
    682c:	5152495f 	cmppl	r2, pc, asr r9
    6830:	5f007d20 	svcpl	0x00007d20
    6834:	4e49465f 	mcrmi	6, 2, r4, cr9, cr15, {2}
    6838:	5f455449 	svcpl	0x00455449
    683c:	4854414d 	ldmdami	r4, {r0, r2, r3, r6, r8, lr}^
    6840:	4c4e4f5f 	mcrrmi	15, 5, r4, lr, cr15
    6844:	205f5f59 	subscs	r5, pc, r9, asr pc	; <UNPREDICTABLE>
    6848:	5f5f0030 	svcpl	0x005f0030
    684c:	5f544e49 	svcpl	0x00544e49
    6850:	54534146 	ldrbpl	r4, [r3], #-326	; 0xfffffeba
    6854:	4d5f3631 	ldclmi	6, cr3, [pc, #-196]	; 6798 <_Min_Stack_Size+0x6398>
    6858:	5f5f5841 	svcpl	0x005f5841
    685c:	37783020 	ldrbcc	r3, [r8, -r0, lsr #32]!
    6860:	66666666 	strbtvs	r6, [r6], -r6, ror #12
    6864:	00666666 	rsbeq	r6, r6, r6, ror #12
    6868:	61685f5f 	cmnvs	r8, pc, asr pc
    686c:	6c5f6576 	cfldr64vs	mvdx6, [pc], {118}	; 0x76
    6870:	6c676e6f 	stclvs	14, cr6, [r7], #-444	; 0xfffffe44
    6874:	36676e6f 	strbtcc	r6, [r7], -pc, ror #28
    6878:	00312034 	eorseq	r2, r1, r4, lsr r0
    687c:	4f494641 	svcmi	0x00494641
    6880:	41282820 			; <UNDEFINED> instruction: 0x41282820
    6884:	5f4f4946 	svcpl	0x004f4946
    6888:	65707954 	ldrbvs	r7, [r0, #-2388]!	; 0xfffff6ac
    688c:	2a666544 	bcs	199fda4 <_Min_Stack_Size+0x199f9a4>
    6890:	49464129 	stmdbmi	r6, {r0, r3, r5, r8, lr}^
    6894:	41425f4f 	cmpmi	r2, pc, asr #30
    6898:	00294553 	eoreq	r4, r9, r3, asr r5
    689c:	6b6c625f 	blvs	1b1f220 <_Min_Stack_Size+0x1b1ee20>
    68a0:	657a6973 	ldrbvs	r6, [sl, #-2419]!	; 0xfffff68d
    68a4:	49555f00 	ldmdbmi	r5, {r8, r9, sl, fp, ip, lr}^
    68a8:	5f38544e 	svcpl	0x0038544e
    68ac:	45445f54 	strbmi	r5, [r4, #-3924]	; 0xfffff0ac
    68b0:	52414c43 	subpl	r4, r1, #17152	; 0x4300
    68b4:	00204445 	eoreq	r4, r0, r5, asr #8
    68b8:	4f495047 	svcmi	0x00495047
    68bc:	4e49505f 	mcrmi	0, 2, r5, cr9, cr15, {2}
    68c0:	49555f00 	ldmdbmi	r5, {r8, r9, sl, fp, ip, lr}^
    68c4:	5450544e 	ldrbpl	r5, [r0], #-1102	; 0xfffffbb2
    68c8:	5f545f52 	svcpl	0x00545f52
    68cc:	4c434544 	cfstr64mi	mvdx4, [r3], {68}	; 0x44
    68d0:	44455241 	strbmi	r5, [r5], #-577	; 0xfffffdbf
    68d4:	58450020 	stmdapl	r5, {r5}^
    68d8:	35314954 	ldrcc	r4, [r1, #-2388]!	; 0xfffff6ac
    68dc:	5152495f 	cmppl	r2, pc, asr r9
    68e0:	00303420 	eorseq	r3, r0, r0, lsr #8
    68e4:	4843575f 	stmdami	r3, {r0, r1, r2, r3, r4, r6, r8, r9, sl, ip, lr}^
    68e8:	545f5241 	ldrbpl	r5, [pc], #-577	; 68f0 <_Min_Stack_Size+0x64f0>
    68ec:	4645445f 			; <UNDEFINED> instruction: 0x4645445f
    68f0:	44454e49 	strbmi	r4, [r5], #-3657	; 0xfffff1b7
    68f4:	625f0020 	subsvs	r0, pc, #32
    68f8:	00657361 	rsbeq	r7, r5, r1, ror #6
    68fc:	4c555f5f 	mrrcmi	15, 5, r5, r5, cr15	; <UNPREDICTABLE>
    6900:	55434341 	strbpl	r4, [r3, #-833]	; 0xfffffcbf
    6904:	414d5f4d 	cmpmi	sp, sp, asr #30
    6908:	205f5f58 	subscs	r5, pc, r8, asr pc	; <UNPREDICTABLE>
    690c:	46465830 			; <UNDEFINED> instruction: 0x46465830
    6910:	46464646 	strbmi	r4, [r6], -r6, asr #12
    6914:	46464646 	strbmi	r4, [r6], -r6, asr #12
    6918:	46464646 	strbmi	r4, [r6], -r6, asr #12
    691c:	2d504646 	ldclcs	6, cr4, [r0, #-280]	; 0xfffffee8
    6920:	4c553233 	lfmmi	f3, 2, [r5], {51}	; 0x33
    6924:	5f5f004b 	svcpl	0x005f004b
    6928:	6c797274 	lfmvs	f7, 2, [r9], #-464	; 0xfffffe30
    692c:	736b636f 	cmnvc	fp, #-1140850687	; 0xbc000001
    6930:	6378655f 	cmnvs	r8, #398458880	; 0x17c00000
    6934:	6973756c 	ldmdbvs	r3!, {r2, r3, r5, r6, r8, sl, ip, sp, lr}^
    6938:	2e286576 	mcrcs	5, 1, r6, cr8, cr6, {3}
    693c:	20292e2e 	eorcs	r2, r9, lr, lsr #28
    6940:	6f6c5f5f 	svcvs	0x006c5f5f
    6944:	615f6b63 	cmpvs	pc, r3, ror #22
    6948:	746f6e6e 	strbtvc	r6, [pc], #-3694	; 6950 <_Min_Stack_Size+0x6550>
    694c:	28657461 	stmdacs	r5!, {r0, r5, r6, sl, ip, sp, lr}^
    6950:	6c637865 	stclvs	8, cr7, [r3], #-404	; 0xfffffe6c
    6954:	76697375 			; <UNDEFINED> instruction: 0x76697375
    6958:	72745f65 	rsbsvc	r5, r4, #404	; 0x194
    695c:	636f6c79 	cmnvs	pc, #30976	; 0x7900
    6960:	75665f6b 	strbvc	r5, [r6, #-3947]!	; 0xfffff095
    6964:	6974636e 	ldmdbvs	r4!, {r1, r2, r3, r5, r6, r8, r9, sp, lr}^
    6968:	5f286e6f 	svcpl	0x00286e6f
    696c:	5f41565f 	svcpl	0x0041565f
    6970:	53475241 	movtpl	r5, #29249	; 0x7241
    6974:	29295f5f 	stmdbcs	r9!, {r0, r1, r2, r3, r4, r6, r8, r9, sl, fp, ip, lr}
    6978:	495f5f00 	ldmdbmi	pc, {r8, r9, sl, fp, ip, lr}^	; <UNPREDICTABLE>
    697c:	3631544e 	ldrtcc	r5, [r1], -lr, asr #8
    6980:	6328435f 			; <UNDEFINED> instruction: 0x6328435f
    6984:	00632029 	rsbeq	r2, r3, r9, lsr #32
    6988:	4545525f 	strbmi	r5, [r5, #-607]	; 0xfffffda1
    698c:	525f544e 	subspl	r5, pc, #1308622848	; 0x4e000000
    6990:	5f444e41 	svcpl	0x00444e41
    6994:	5458454e 	ldrbpl	r4, [r8], #-1358	; 0xfffffab2
    6998:	72747028 	rsbsvc	r7, r4, #40	; 0x28
    699c:	28282029 	stmdacs	r8!, {r0, r3, r5, sp}
    69a0:	29727470 	ldmdbcs	r2!, {r4, r5, r6, sl, ip, sp, lr}^
    69a4:	725f3e2d 	subsvc	r3, pc, #720	; 0x2d0
    69a8:	3e2d3834 	mcrcc	8, 1, r3, cr13, cr4, {1}
    69ac:	6e61725f 	mcrvs	2, 3, r7, cr1, cr15, {2}
    69b0:	656e5f64 	strbvs	r5, [lr, #-3940]!	; 0xfffff09c
    69b4:	00297478 	eoreq	r7, r9, r8, ror r4
    69b8:	49545845 	ldmdbmi	r4, {r0, r2, r6, fp, ip, lr}^
    69bc:	52495f30 	subpl	r5, r9, #48, 30	; 0xc0
    69c0:	00362051 	eorseq	r2, r6, r1, asr r0
    69c4:	4c555f5f 	mrrcmi	15, 5, r5, r5, cr15	; <UNPREDICTABLE>
    69c8:	43415246 	movtmi	r5, #4678	; 0x1246
    69cc:	494d5f54 	stmdbmi	sp, {r2, r4, r6, r8, r9, sl, fp, ip, lr}^
    69d0:	205f5f4e 	subscs	r5, pc, lr, asr #30
    69d4:	55302e30 	ldrpl	r2, [r0, #-3632]!	; 0xfffff1d0
    69d8:	5f00524c 	svcpl	0x0000524c
    69dc:	74727473 	ldrbtvc	r7, [r2], #-1139	; 0xfffffb8d
    69e0:	6c5f6b6f 	mrrcvs	11, 6, r6, pc, cr15	; <UNPREDICTABLE>
    69e4:	00747361 	rsbseq	r7, r4, r1, ror #6
    69e8:	51445f5f 	cmppl	r4, pc, asr pc
    69ec:	4942495f 	stmdbmi	r2, {r0, r1, r2, r3, r4, r6, r8, fp, lr}^
    69f0:	205f5f54 	subscs	r5, pc, r4, asr pc	; <UNPREDICTABLE>
    69f4:	58450030 	stmdapl	r5, {r4, r5}^
    69f8:	31314954 	teqcc	r1, r4, asr r9
    69fc:	31314250 	teqcc	r1, r0, asr r2
    6a00:	58452820 	stmdapl	r5, {r5, fp, sp}^
    6a04:	475f4954 			; <UNDEFINED> instruction: 0x475f4954
    6a08:	5f4f4950 	svcpl	0x004f4950
    6a0c:	7070614d 	rsbsvc	r6, r0, sp, asr #2
    6a10:	5f676e69 	svcpl	0x00676e69
    6a14:	457b2974 	ldrbmi	r2, [fp, #-2420]!	; 0xfffff68c
    6a18:	31495458 	cmpcc	r9, r8, asr r4
    6a1c:	47202c31 			; <UNDEFINED> instruction: 0x47202c31
    6a20:	424f4950 	submi	r4, pc, #80, 18	; 0x140000
    6a24:	5047202c 	subpl	r2, r7, ip, lsr #32
    6a28:	505f4f49 	subspl	r4, pc, r9, asr #30
    6a2c:	315f4e49 	cmpcc	pc, r9, asr #28
    6a30:	45202c31 	strmi	r2, [r0, #-3121]!	; 0xfffff3cf
    6a34:	31495458 	cmpcc	r9, r8, asr r4
    6a38:	52495f31 	subpl	r5, r9, #49, 30	; 0xc4
    6a3c:	007d2051 	rsbseq	r2, sp, r1, asr r0
    6a40:	4e495f5f 	mcrmi	15, 2, r5, cr9, cr15, {2}
    6a44:	5f323354 	svcpl	0x00323354
    6a48:	45505954 	ldrbmi	r5, [r0, #-2388]	; 0xfffff6ac
    6a4c:	6c205f5f 	stcvs	15, cr5, [r0], #-380	; 0xfffffe84
    6a50:	20676e6f 	rsbcs	r6, r7, pc, ror #28
    6a54:	00746e69 	rsbseq	r6, r4, r9, ror #28
    6a58:	6c615f5f 	stclvs	15, cr5, [r1], #-380	; 0xfffffe84
    6a5c:	73796177 	cmnvc	r9, #-1073741795	; 0xc000001d
    6a60:	6c6e695f 			; <UNDEFINED> instruction: 0x6c6e695f
    6a64:	20656e69 	rsbcs	r6, r5, r9, ror #28
    6a68:	6e695f5f 	mcrvs	15, 3, r5, cr9, cr15, {2}
    6a6c:	656e696c 	strbvs	r6, [lr, #-2412]!	; 0xfffff694
    6a70:	5f205f5f 	svcpl	0x00205f5f
    6a74:	7474615f 	ldrbtvc	r6, [r4], #-351	; 0xfffffea1
    6a78:	75626972 	strbvc	r6, [r2, #-2418]!	; 0xfffff68e
    6a7c:	5f5f6574 	svcpl	0x005f6574
    6a80:	5f5f2828 	svcpl	0x005f2828
    6a84:	61776c61 	cmnvs	r7, r1, ror #24
    6a88:	695f7379 	ldmdbvs	pc, {r0, r3, r4, r5, r6, r8, r9, ip, sp, lr}^	; <UNPREDICTABLE>
    6a8c:	6e696c6e 	cdpvs	12, 6, cr6, cr9, cr14, {3}
    6a90:	295f5f65 	ldmdbcs	pc, {r0, r2, r5, r6, r8, r9, sl, fp, ip, lr}^	; <UNPREDICTABLE>
    6a94:	6d5f0029 	ldclvs	0, cr0, [pc, #-164]	; 69f8 <_Min_Stack_Size+0x65f8>
    6a98:	6f747262 	svcvs	0x00747262
    6a9c:	735f6377 	cmpvc	pc, #-603979775	; 0xdc000001
    6aa0:	65746174 	ldrbvs	r6, [r4, #-372]!	; 0xfffffe8c
    6aa4:	635f5f00 	cmpvs	pc, #0, 30
    6aa8:	61746e6f 	cmnvs	r4, pc, ror #28
    6aac:	72656e69 	rsbvc	r6, r5, #1680	; 0x690
    6ab0:	7828666f 	stmdavc	r8!, {r0, r1, r2, r3, r5, r6, r9, sl, sp, lr}
    6ab4:	6d2c732c 	stcvs	3, cr7, [ip, #-176]!	; 0xffffff50
    6ab8:	7b282029 	blvc	a0eb64 <_Min_Stack_Size+0xa0e764>
    6abc:	6e6f6320 	cdpvs	3, 6, cr6, cr15, cr0, {1}
    6ac0:	76207473 			; <UNDEFINED> instruction: 0x76207473
    6ac4:	74616c6f 	strbtvc	r6, [r1], #-3183	; 0xfffff391
    6ac8:	20656c69 	rsbcs	r6, r5, r9, ror #24
    6acc:	79745f5f 	ldmdbvc	r4!, {r0, r1, r2, r3, r4, r6, r8, r9, sl, fp, ip, lr}^
    6ad0:	666f6570 			; <UNDEFINED> instruction: 0x666f6570
    6ad4:	73282828 			; <UNDEFINED> instruction: 0x73282828
    6ad8:	30292a20 	eorcc	r2, r9, r0, lsr #20
    6adc:	6d3e2d29 	ldcvs	13, cr2, [lr, #-164]!	; 0xffffff5c
    6ae0:	5f2a2029 	svcpl	0x002a2029
    6ae4:	3d20785f 	stccc	8, cr7, [r0, #-380]!	; 0xfffffe84
    6ae8:	29782820 	ldmdbcs	r8!, {r5, fp, sp}^
    6aec:	5f5f203b 	svcpl	0x005f203b
    6af0:	55514544 	ldrbpl	r4, [r1, #-1348]	; 0xfffffabc
    6af4:	46494c41 	strbmi	r4, [r9], -r1, asr #24
    6af8:	20732859 	rsbscs	r2, r3, r9, asr r8
    6afc:	28202c2a 	stmdacs	r0!, {r1, r3, r5, sl, fp, sp}
    6b00:	736e6f63 	cmnvc	lr, #396	; 0x18c
    6b04:	6f762074 	svcvs	0x00762074
    6b08:	6974616c 	ldmdbvs	r4!, {r2, r3, r5, r6, r8, sp, lr}^
    6b0c:	6320656c 			; <UNDEFINED> instruction: 0x6320656c
    6b10:	20726168 	rsbscs	r6, r2, r8, ror #2
    6b14:	5f5f292a 	svcpl	0x005f292a
    6b18:	202d2078 	eorcs	r2, sp, r8, ror r0
    6b1c:	666f5f5f 	uqsaxvs	r5, pc, pc	; <UNPREDICTABLE>
    6b20:	74657366 	strbtvc	r7, [r5], #-870	; 0xfffffc9a
    6b24:	7328666f 			; <UNDEFINED> instruction: 0x7328666f
    6b28:	296d202c 	stmdbcs	sp!, {r2, r3, r5, sp}^
    6b2c:	297d3b29 	ldmdbcs	sp!, {r0, r3, r5, r8, r9, fp, ip, sp}^
    6b30:	49555f00 	ldmdbmi	r5, {r8, r9, sl, fp, ip, lr}^
    6b34:	3233544e 	eorscc	r5, r3, #1308622848	; 0x4e000000
    6b38:	445f545f 	ldrbmi	r5, [pc], #-1119	; 6b40 <_Min_Stack_Size+0x6740>
    6b3c:	414c4345 	cmpmi	ip, r5, asr #6
    6b40:	20444552 	subcs	r4, r4, r2, asr r5
    6b44:	53425f00 	movtpl	r5, #12032	; 0x2f00
    6b48:	49535f44 	ldmdbmi	r3, {r2, r6, r8, r9, sl, fp, ip, lr}^
    6b4c:	545f455a 	ldrbpl	r4, [pc], #-1370	; 6b54 <_Min_Stack_Size+0x6754>
    6b50:	5f00205f 	svcpl	0x0000205f
    6b54:	5f6f6e5f 	svcpl	0x006f6e5f
    6b58:	6b636f6c 	blvs	18e2910 <_Min_Stack_Size+0x18e2510>
    6b5c:	616e615f 	cmnvs	lr, pc, asr r1
    6b60:	6973796c 	ldmdbvs	r3!, {r2, r3, r5, r6, r8, fp, ip, sp, lr}^
    6b64:	5f5f2073 	svcpl	0x005f2073
    6b68:	6b636f6c 	blvs	18e2920 <_Min_Stack_Size+0x18e2520>
    6b6c:	6e6e615f 	mcrvs	1, 3, r6, cr14, cr15, {2}
    6b70:	7461746f 	strbtvc	r7, [r1], #-1135	; 0xfffffb91
    6b74:	6f6e2865 	svcvs	0x006e2865
    6b78:	7268745f 	rsbvc	r7, r8, #1593835520	; 0x5f000000
    6b7c:	5f646165 	svcpl	0x00646165
    6b80:	65666173 	strbvs	r6, [r6, #-371]!	; 0xfffffe8d
    6b84:	615f7974 	cmpvs	pc, r4, ror r9	; <UNPREDICTABLE>
    6b88:	796c616e 	stmdbvc	ip!, {r1, r2, r3, r5, r6, r8, sp, lr}^
    6b8c:	29736973 	ldmdbcs	r3!, {r0, r1, r4, r5, r6, r8, fp, sp, lr}^
    6b90:	6c665f00 	stclvs	15, cr5, [r6], #-0
    6b94:	5f6b636f 	svcpl	0x006b636f
    6b98:	58450074 	stmdapl	r5, {r2, r4, r5, r6}^
    6b9c:	545f4954 	ldrbpl	r4, [pc], #-2388	; 6ba4 <_Min_Stack_Size+0x67a4>
    6ba0:	67676972 			; <UNDEFINED> instruction: 0x67676972
    6ba4:	525f7265 	subspl	r7, pc, #1342177286	; 0x50000006
    6ba8:	6e697369 	cdpvs	3, 6, cr7, cr9, cr9, {3}
    6bac:	646e4167 	strbtvs	r4, [lr], #-359	; 0xfffffe99
    6bb0:	6c6c6146 	stfvse	f6, [ip], #-280	; 0xfffffee8
    6bb4:	20676e69 	rsbcs	r6, r7, r9, ror #28
    6bb8:	5f5f0032 	svcpl	0x005f0032
    6bbc:	454c4946 	strbmi	r4, [ip, #-2374]	; 0xfffff6ba
    6bc0:	45525f00 	ldrbmi	r5, [r2, #-3840]	; 0xfffff100
    6bc4:	5f544e45 	svcpl	0x00544e45
    6bc8:	465f504d 	ldrbmi	r5, [pc], -sp, asr #32
    6bcc:	4c454552 	cfstr64mi	mvdx4, [r5], {82}	; 0x52
    6bd0:	28545349 	ldmdacs	r4, {r0, r3, r6, r8, r9, ip, lr}^
    6bd4:	29727470 	ldmdbcs	r2!, {r4, r5, r6, sl, ip, sp, lr}^
    6bd8:	70282820 	eorvc	r2, r8, r0, lsr #16
    6bdc:	2d297274 	sfmcs	f7, 4, [r9, #-464]!	; 0xfffffe30
    6be0:	706d5f3e 	rsbvc	r5, sp, lr, lsr pc
    6be4:	665f3e2d 	ldrbvs	r3, [pc], -sp, lsr #28
    6be8:	6c656572 	cfstr64vs	mvdx6, [r5], #-456	; 0xfffffe38
    6bec:	29747369 	ldmdbcs	r4!, {r0, r3, r5, r6, r8, r9, ip, sp, lr}^
    6bf0:	49545f00 	ldmdbmi	r4, {r8, r9, sl, fp, ip, lr}^
    6bf4:	545f454d 	ldrbpl	r4, [pc], #-1357	; 6bfc <_Min_Stack_Size+0x67fc>
    6bf8:	5f5f205f 	svcpl	0x005f205f
    6bfc:	5f746e69 	svcpl	0x00746e69
    6c00:	7361656c 	cmnvc	r1, #108, 10	; 0x1b000000
    6c04:	5f343674 	svcpl	0x00343674
    6c08:	435f0074 	cmpmi	pc, #116	; 0x74
    6c0c:	4b434f4c 	blmi	10da944 <_Min_Stack_Size+0x10da544>
    6c10:	545f4449 	ldrbpl	r4, [pc], #-1097	; 6c18 <_Min_Stack_Size+0x6818>
    6c14:	6e75205f 	mrcvs	0, 3, r2, cr5, cr15, {2}
    6c18:	6e676973 			; <UNDEFINED> instruction: 0x6e676973
    6c1c:	6c206465 	cfstrsvs	mvf6, [r0], #-404	; 0xfffffe6c
    6c20:	00676e6f 	rsbeq	r6, r7, pc, ror #28
    6c24:	544e4955 	strbpl	r4, [lr], #-2389	; 0xfffff6ab
    6c28:	435f3631 	cmpmi	pc, #51380224	; 0x3100000
    6c2c:	20297828 	eorcs	r7, r9, r8, lsr #16
    6c30:	49555f5f 	ldmdbmi	r5, {r0, r1, r2, r3, r4, r6, r8, r9, sl, fp, ip, lr}^
    6c34:	3631544e 	ldrtcc	r5, [r1], -lr, asr #8
    6c38:	7828435f 	stmdavc	r8!, {r0, r1, r2, r3, r4, r6, r8, r9, lr}
    6c3c:	5f5f0029 	svcpl	0x005f0029
    6c40:	5f515455 	svcpl	0x00515455
    6c44:	54494249 	strbpl	r4, [r9], #-585	; 0xfffffdb7
    6c48:	30205f5f 	eorcc	r5, r0, pc, asr pc
    6c4c:	54584500 	ldrbpl	r4, [r8], #-1280	; 0xfffffb00
    6c50:	32203249 	eorcc	r3, r0, #-1879048188	; 0x90000004
    6c54:	535f5f00 	cmppl	pc, #0, 30
    6c58:	42465f41 	submi	r5, r6, #260	; 0x104
    6c5c:	5f5f5449 	svcpl	0x005f5449
    6c60:	00353120 	eorseq	r3, r5, r0, lsr #2
    6c64:	4e495f5f 	mcrmi	15, 2, r5, cr9, cr15, {2}
    6c68:	43575f54 	cmpmi	r7, #84, 30	; 0x150
    6c6c:	5f524148 	svcpl	0x00524148
    6c70:	20485f54 	subcs	r5, r8, r4, asr pc
    6c74:	465f5f00 	ldrbmi	r5, [pc], -r0, lsl #30
    6c78:	3233544c 	eorscc	r5, r3, #76, 8	; 0x4c000000
    6c7c:	414d5f58 	cmpmi	sp, r8, asr pc
    6c80:	205f5f58 	subscs	r5, pc, r8, asr pc	; <UNPREDICTABLE>
    6c84:	39372e31 	ldmdbcc	r7!, {r0, r4, r5, r9, sl, fp, sp}
    6c88:	33393637 	teqcc	r9, #57671680	; 0x3700000
    6c8c:	38343331 	ldmdacc	r4!, {r0, r4, r5, r8, r9, ip, sp}
    6c90:	31333236 	teqcc	r3, r6, lsr r2
    6c94:	2b653735 	blcs	1954970 <_Min_Stack_Size+0x1954570>
    6c98:	46383033 			; <UNDEFINED> instruction: 0x46383033
    6c9c:	00783233 	rsbseq	r3, r8, r3, lsr r2
    6ca0:	41484357 	cmpmi	r8, r7, asr r3
    6ca4:	414d5f52 	cmpmi	sp, r2, asr pc
    6ca8:	5f282058 	svcpl	0x00282058
    6cac:	4843575f 	stmdami	r3, {r0, r1, r2, r3, r4, r6, r8, r9, sl, ip, lr}^
    6cb0:	4d5f5241 	lfmmi	f5, 2, [pc, #-260]	; 6bb4 <_Min_Stack_Size+0x67b4>
    6cb4:	5f5f5841 	svcpl	0x005f5841
    6cb8:	5f5f0029 	svcpl	0x005f0029
    6cbc:	33544c46 	cmpcc	r4, #17920	; 0x4600
    6cc0:	494d5f32 	stmdbmi	sp, {r1, r4, r5, r8, r9, sl, fp, ip, lr}^
    6cc4:	205f5f4e 	subscs	r5, pc, lr, asr #30
    6cc8:	37312e31 			; <UNDEFINED> instruction: 0x37312e31
    6ccc:	34393435 	ldrtcc	r3, [r9], #-1077	; 0xfffffbcb
    6cd0:	38303533 	ldmdacc	r0!, {r0, r1, r4, r5, r8, sl, ip, sp}
    6cd4:	38323232 	ldmdacc	r2!, {r1, r4, r5, r9, ip, sp}
    6cd8:	2d653537 	cfstr64cs	mvdx3, [r5, #-220]!	; 0xffffff24
    6cdc:	33463833 	movtcc	r3, #26675	; 0x6833
    6ce0:	725f0032 	subsvc	r0, pc, #50	; 0x32
    6ce4:	5f003834 	svcpl	0x00003834
    6ce8:	4341555f 	movtmi	r5, #5471	; 0x155f
    6cec:	5f4d5543 	svcpl	0x004d5543
    6cf0:	54494249 	strbpl	r4, [r9], #-585	; 0xfffffdb7
    6cf4:	31205f5f 			; <UNDEFINED> instruction: 0x31205f5f
    6cf8:	5f5f0036 	svcpl	0x005f0036
    6cfc:	5f464c45 	svcpl	0x00464c45
    6d00:	0031205f 	eorseq	r2, r1, pc, asr r0
    6d04:	33544e49 	cmpcc	r4, #1168	; 0x490
    6d08:	494d5f32 	stmdbmi	sp, {r1, r4, r5, r8, r9, sl, fp, ip, lr}^
    6d0c:	2d28204e 	stccs	0, cr2, [r8, #-312]!	; 0xfffffec8
    6d10:	4e495f5f 	mcrmi	15, 2, r5, cr9, cr15, {2}
    6d14:	5f323354 	svcpl	0x00323354
    6d18:	5f58414d 	svcpl	0x0058414d
    6d1c:	202d205f 	eorcs	r2, sp, pc, asr r0
    6d20:	5f002931 	svcpl	0x00002931
    6d24:	5548545f 	strbpl	r5, [r8, #-1119]	; 0xfffffba1
    6d28:	4c45424d 	sfmmi	f4, 2, [r5], {77}	; 0x4d
    6d2c:	31205f5f 			; <UNDEFINED> instruction: 0x31205f5f
    6d30:	4e495500 	cdpmi	5, 4, cr5, cr9, cr0, {0}
    6d34:	435f3854 	cmpmi	pc, #84, 16	; 0x540000
    6d38:	20297828 	eorcs	r7, r9, r8, lsr #16
    6d3c:	49555f5f 	ldmdbmi	r5, {r0, r1, r2, r3, r4, r6, r8, r9, sl, fp, ip, lr}^
    6d40:	5f38544e 	svcpl	0x0038544e
    6d44:	29782843 	ldmdbcs	r8!, {r0, r1, r6, fp, sp}^
    6d48:	4e495f00 	cdpmi	15, 4, cr5, cr9, cr0, {0}
    6d4c:	545f3854 	ldrbpl	r3, [pc], #-2132	; 6d54 <_Min_Stack_Size+0x6954>
    6d50:	4345445f 	movtmi	r4, #21599	; 0x545f
    6d54:	4552414c 	ldrbmi	r4, [r2, #-332]	; 0xfffffeb4
    6d58:	5f002044 	svcpl	0x00002044
    6d5c:	5f51515f 	svcpl	0x0051515f
    6d60:	54494249 	strbpl	r4, [r9], #-585	; 0xfffffdb7
    6d64:	30205f5f 	eorcc	r5, r0, pc, asr pc
    6d68:	725f5f00 	subsvc	r5, pc, #0, 30
    6d6c:	746e6565 	strbtvc	r6, [lr], #-1381	; 0xfffffa9b
    6d70:	7373615f 	cmnvc	r3, #-1073741801	; 0xc0000017
    6d74:	28747265 	ldmdacs	r4!, {r0, r2, r5, r6, r9, ip, sp, lr}^
    6d78:	28202978 	stmdacs	r0!, {r3, r4, r5, r6, r8, fp, sp}
    6d7c:	696f7628 	stmdbvs	pc!, {r3, r5, r9, sl, ip, sp, lr}^	; <UNPREDICTABLE>
    6d80:	29302964 	ldmdbcs	r0!, {r2, r5, r6, r8, fp, sp}
    6d84:	4e495500 	cdpmi	5, 4, cr5, cr9, cr0, {0}
    6d88:	5f343654 	svcpl	0x00343654
    6d8c:	29782843 	ldmdbcs	r8!, {r0, r1, r6, fp, sp}^
    6d90:	555f5f20 	ldrbpl	r5, [pc, #-3872]	; 5e78 <_Min_Stack_Size+0x5a78>
    6d94:	36544e49 	ldrbcc	r4, [r4], -r9, asr #28
    6d98:	28435f34 	stmdacs	r3, {r2, r4, r5, r8, r9, sl, fp, ip, lr}^
    6d9c:	5f002978 	svcpl	0x00002978
    6da0:	414c4c5f 	cmpmi	ip, pc, asr ip
    6da4:	4d554343 	ldclmi	3, cr4, [r5, #-268]	; 0xfffffef4
    6da8:	4942465f 	stmdbmi	r2, {r0, r1, r2, r3, r4, r6, r9, sl, lr}^
    6dac:	205f5f54 	subscs	r5, pc, r4, asr pc	; <UNPREDICTABLE>
    6db0:	5f003133 	svcpl	0x00003133
    6db4:	61746164 	cmnvs	r4, r4, ror #2
    6db8:	4e495500 	cdpmi	5, 4, cr5, cr9, cr0, {0}
    6dbc:	5f363154 	svcpl	0x00363154
    6dc0:	2058414d 	subscs	r4, r8, sp, asr #2
    6dc4:	555f5f28 	ldrbpl	r5, [pc, #-3880]	; 5ea4 <_Min_Stack_Size+0x5aa4>
    6dc8:	31544e49 	cmpcc	r4, r9, asr #28
    6dcc:	414d5f36 	cmpmi	sp, r6, lsr pc
    6dd0:	295f5f58 	ldmdbcs	pc, {r3, r4, r6, r8, r9, sl, fp, ip, lr}^	; <UNPREDICTABLE>
    6dd4:	465f5f00 	ldrbmi	r5, [pc], -r0, lsl #30
    6dd8:	3233544c 	eorscc	r5, r3, #76, 8	; 0x4c000000
    6ddc:	494d5f58 	stmdbmi	sp, {r3, r4, r6, r8, r9, sl, fp, ip, lr}^
    6de0:	30315f4e 	eorscc	r5, r1, lr, asr #30
    6de4:	5058455f 	subspl	r4, r8, pc, asr r5
    6de8:	28205f5f 	stmdacs	r0!, {r0, r1, r2, r3, r4, r6, r8, r9, sl, fp, ip, lr}
    6dec:	3730332d 	ldrcc	r3, [r0, -sp, lsr #6]!
    6df0:	49550029 	ldmdbmi	r5, {r0, r3, r5}^
    6df4:	4c5f544e 	cfldrdmi	mvd5, [pc], {78}	; 0x4e
    6df8:	54534145 	ldrbpl	r4, [r3], #-325	; 0xfffffebb
    6dfc:	414d5f38 	cmpmi	sp, r8, lsr pc
    6e00:	5f282058 	svcpl	0x00282058
    6e04:	4e49555f 	mcrmi	5, 2, r5, cr9, cr15, {2}
    6e08:	454c5f54 	strbmi	r5, [ip, #-3924]	; 0xfffff0ac
    6e0c:	38545341 	ldmdacc	r4, {r0, r6, r8, r9, ip, lr}^
    6e10:	58414d5f 	stmdapl	r1, {r0, r1, r2, r3, r4, r6, r8, sl, fp, lr}^
    6e14:	00295f5f 	eoreq	r5, r9, pc, asr pc
    6e18:	53555f5f 	cmppl	r5, #380	; 0x17c
    6e1c:	42495f51 	submi	r5, r9, #324	; 0x144
    6e20:	5f5f5449 	svcpl	0x005f5449
    6e24:	5f003020 	svcpl	0x00003020
    6e28:	554e475f 	strbpl	r4, [lr, #-1887]	; 0xfffff8a1
    6e2c:	494d5f43 	stmdbmi	sp, {r0, r1, r6, r8, r9, sl, fp, ip, lr}^
    6e30:	5f524f4e 	svcpl	0x00524f4e
    6e34:	0033205f 	eorseq	r2, r3, pc, asr r0
    6e38:	6f6c5f5f 	svcvs	0x006c5f5f
    6e3c:	725f6b63 	subsvc	r6, pc, #101376	; 0x18c00
    6e40:	61656c65 	cmnvs	r5, r5, ror #24
    6e44:	725f6573 	subsvc	r6, pc, #482344960	; 0x1cc00000
    6e48:	72756365 	rsbsvc	r6, r5, #-1811939327	; 0x94000001
    6e4c:	65766973 	ldrbvs	r6, [r6, #-2419]!	; 0xfffff68d
    6e50:	636f6c28 	cmnvs	pc, #40, 24	; 0x2800
    6e54:	2820296b 	stmdacs	r0!, {r0, r1, r3, r5, r6, r8, fp, sp}
    6e58:	696f7628 	stmdbvs	pc!, {r3, r5, r9, sl, ip, sp, lr}^	; <UNPREDICTABLE>
    6e5c:	30202964 	eorcc	r2, r0, r4, ror #18
    6e60:	5f5f0029 	svcpl	0x005f0029
    6e64:	455a4953 	ldrbmi	r4, [sl, #-2387]	; 0xfffff6ad
    6e68:	5f5f545f 	svcpl	0x005f545f
    6e6c:	495f0020 	ldmdbmi	pc, {r5}^	; <UNPREDICTABLE>
    6e70:	3233544e 	eorscc	r5, r3, #1308622848	; 0x4e000000
    6e74:	445f545f 	ldrbmi	r5, [pc], #-1119	; 6e7c <_Min_Stack_Size+0x6a7c>
    6e78:	414c4345 	cmpmi	ip, r5, asr #6
    6e7c:	20444552 	subcs	r4, r4, r2, asr r5
    6e80:	415f5f00 	cmpmi	pc, r0, lsl #30
    6e84:	465f4d52 			; <UNDEFINED> instruction: 0x465f4d52
    6e88:	55544145 	ldrbpl	r4, [r4, #-325]	; 0xfffffebb
    6e8c:	4e5f4552 	mrcmi	5, 2, r4, cr15, cr2, {2}
    6e90:	52454d55 	subpl	r4, r5, #5440	; 0x1540
    6e94:	4d5f4349 	ldclmi	3, cr4, [pc, #-292]	; 6d78 <_Min_Stack_Size+0x6978>
    6e98:	494d5841 	stmdbmi	sp, {r0, r6, fp, ip, lr}^
    6e9c:	525f004e 	subspl	r0, pc, #78	; 0x4e
    6ea0:	34444e41 	strbcc	r4, [r4], #-3649	; 0xfffff1bf
    6ea4:	554d5f38 	strbpl	r5, [sp, #-3896]	; 0xfffff0c8
    6ea8:	315f544c 	cmpcc	pc, ip, asr #8
    6eac:	78302820 	ldmdavc	r0!, {r5, fp, sp}
    6eb0:	63656564 	cmnvs	r5, #100, 10	; 0x19000000
    6eb4:	5f5f0029 	svcpl	0x005f0029
    6eb8:	4d544e49 	ldclmi	14, cr4, [r4, #-292]	; 0xfffffedc
    6ebc:	545f5841 	ldrbpl	r5, [pc], #-2113	; 6ec4 <_Min_Stack_Size+0x6ac4>
    6ec0:	5f455059 	svcpl	0x00455059
    6ec4:	6f6c205f 	svcvs	0x006c205f
    6ec8:	6c20676e 	stcvs	7, cr6, [r0], #-440	; 0xfffffe48
    6ecc:	20676e6f 	rsbcs	r6, r7, pc, ror #28
    6ed0:	00746e69 	rsbseq	r6, r4, r9, ror #28
    6ed4:	544e4955 	strbpl	r4, [lr], #-2389	; 0xfffff6ab
    6ed8:	5341465f 	movtpl	r4, #5727	; 0x165f
    6edc:	5f323354 	svcpl	0x00323354
    6ee0:	2058414d 	subscs	r4, r8, sp, asr #2
    6ee4:	555f5f28 	ldrbpl	r5, [pc, #-3880]	; 5fc4 <_Min_Stack_Size+0x5bc4>
    6ee8:	5f544e49 	svcpl	0x00544e49
    6eec:	54534146 	ldrbpl	r4, [r3], #-326	; 0xfffffeba
    6ef0:	4d5f3233 	lfmmi	f3, 2, [pc, #-204]	; 6e2c <_Min_Stack_Size+0x6a2c>
    6ef4:	5f5f5841 	svcpl	0x005f5841
    6ef8:	5f5f0029 	svcpl	0x005f0029
    6efc:	5f434347 	svcpl	0x00434347
    6f00:	4d4f5441 	cfstrdmi	mvd5, [pc, #-260]	; 6e04 <_Min_Stack_Size+0x6a04>
    6f04:	495f4349 	ldmdbmi	pc, {r0, r3, r6, r8, r9, lr}^	; <UNPREDICTABLE>
    6f08:	4c5f544e 	cfldrdmi	mvd5, [pc], {78}	; 0x4e
    6f0c:	5f4b434f 	svcpl	0x004b434f
    6f10:	45455246 	strbmi	r5, [r5, #-582]	; 0xfffffdba
    6f14:	5f003220 	svcpl	0x00003220
    6f18:	444e4152 	strbmi	r4, [lr], #-338	; 0xfffffeae
    6f1c:	535f3834 	cmppl	pc, #52, 16	; 0x340000
    6f20:	5f444545 	svcpl	0x00444545
    6f24:	30282030 	eorcc	r2, r8, r0, lsr r0
    6f28:	30333378 	eorscc	r3, r3, r8, ror r3
    6f2c:	4e002965 	vmlsmi.f16	s4, s0, s11	; <UNPREDICTABLE>
    6f30:	5f434956 	svcpl	0x00434956
    6f34:	52455349 	subpl	r5, r5, #603979777	; 0x24000001
    6f38:	282a2032 	stmdacs	sl!, {r1, r4, r5, sp}
    6f3c:	616c6f76 	smcvs	50934	; 0xc6f6
    6f40:	656c6974 	strbvs	r6, [ip, #-2420]!	; 0xfffff68c
    6f44:	6e697520 	cdpvs	5, 6, cr7, cr9, cr0, {1}
    6f48:	5f323374 	svcpl	0x00323374
    6f4c:	292a2074 	stmdbcs	sl!, {r2, r4, r5, r6, sp}
    6f50:	49564e28 	ldmdbmi	r6, {r3, r5, r9, sl, fp, lr}^
    6f54:	41425f43 	cmpmi	r2, r3, asr #30
    6f58:	2b204553 	blcs	8184ac <_Min_Stack_Size+0x8180ac>
    6f5c:	30783020 	rsbscc	r3, r8, r0, lsr #32
    6f60:	00293830 	eoreq	r3, r9, r0, lsr r8
    6f64:	49545845 	ldmdbmi	r4, {r0, r2, r6, fp, ip, lr}^
    6f68:	44503231 	ldrbmi	r3, [r0], #-561	; 0xfffffdcf
    6f6c:	28203231 	stmdacs	r0!, {r0, r4, r5, r9, ip, sp}
    6f70:	49545845 	ldmdbmi	r4, {r0, r2, r6, fp, ip, lr}^
    6f74:	4950475f 	ldmdbmi	r0, {r0, r1, r2, r3, r4, r6, r8, r9, sl, lr}^
    6f78:	614d5f4f 	cmpvs	sp, pc, asr #30
    6f7c:	6e697070 	mcrvs	0, 3, r7, cr9, cr0, {3}
    6f80:	29745f67 	ldmdbcs	r4!, {r0, r1, r2, r5, r6, r8, r9, sl, fp, ip, lr}^
    6f84:	5458457b 	ldrbpl	r4, [r8], #-1403	; 0xfffffa85
    6f88:	2c323149 	ldfcss	f3, [r2], #-292	; 0xfffffedc
    6f8c:	49504720 	ldmdbmi	r0, {r5, r8, r9, sl, lr}^
    6f90:	202c444f 	eorcs	r4, ip, pc, asr #8
    6f94:	4f495047 	svcmi	0x00495047
    6f98:	4e49505f 	mcrmi	0, 2, r5, cr9, cr15, {2}
    6f9c:	2c32315f 	ldfcss	f3, [r2], #-380	; 0xfffffe84
    6fa0:	54584520 	ldrbpl	r4, [r8], #-1312	; 0xfffffae0
    6fa4:	5f323149 	svcpl	0x00323149
    6fa8:	20515249 	subscs	r5, r1, r9, asr #4
    6fac:	475f007d 			; <UNDEFINED> instruction: 0x475f007d
    6fb0:	4d5f4343 	ldclmi	3, cr4, [pc, #-268]	; 6eac <_Min_Stack_Size+0x6aac>
    6fb4:	415f5841 	cmpmi	pc, r1, asr #16
    6fb8:	4e47494c 	vmlsmi.f16	s9, s14, s24	; <UNPREDICTABLE>
    6fbc:	0020545f 	eoreq	r5, r0, pc, asr r4
    6fc0:	6f4c5f5f 	svcvs	0x004c5f5f
    6fc4:	6c20676e 	stcvs	7, cr6, [r0], #-440	; 0xfffffe48
    6fc8:	00676e6f 	rsbeq	r6, r7, pc, ror #28
    6fcc:	52415f5f 	subpl	r5, r1, #380	; 0x17c
    6fd0:	45465f4d 	strbmi	r5, [r6, #-3917]	; 0xfffff0b3
    6fd4:	52555441 	subspl	r5, r5, #1090519040	; 0x41000000
    6fd8:	50465f45 	subpl	r5, r6, r5, asr #30
    6fdc:	535f3631 	cmppl	pc, #51380224	; 0x3100000
    6fe0:	414c4143 	cmpmi	ip, r3, asr #2
    6fe4:	52415f52 	subpl	r5, r1, #328	; 0x148
    6fe8:	4d485449 	cfstrdmi	mvd5, [r8, #-292]	; 0xfffffedc
    6fec:	43495445 	movtmi	r5, #37957	; 0x9445
    6ff0:	54535f00 	ldrbpl	r5, [r3], #-3840	; 0xfffff100
    6ff4:	42494c44 	submi	r4, r9, #68, 24	; 0x4400
    6ff8:	205f485f 	subscs	r4, pc, pc, asr r8	; <UNPREDICTABLE>
    6ffc:	445f5f00 	ldrbmi	r5, [pc], #-3840	; 7004 <_Min_Stack_Size+0x6c04>
    7000:	485f4c42 	ldmdami	pc, {r1, r6, sl, fp, lr}^	; <UNPREDICTABLE>
    7004:	515f5341 	cmppl	pc, r1, asr #6
    7008:	54454955 	strbpl	r4, [r5], #-2389	; 0xfffff6ab
    700c:	4e414e5f 	mcrmi	14, 2, r4, cr1, cr15, {2}
    7010:	31205f5f 			; <UNDEFINED> instruction: 0x31205f5f
    7014:	49504700 	ldmdbmi	r0, {r8, r9, sl, lr}^
    7018:	425f434f 	subsmi	r4, pc, #1006632961	; 0x3c000001
    701c:	20455341 	subcs	r5, r5, r1, asr #6
    7020:	30347830 	eorscc	r7, r4, r0, lsr r8
    7024:	30313130 	eorscc	r3, r1, r0, lsr r1
    7028:	4c553030 	mrrcmi	0, 3, r3, r5, cr0
    702c:	49504700 	ldmdbmi	r0, {r8, r9, sl, lr}^
    7030:	49505f4f 	ldmdbmi	r0, {r0, r1, r2, r3, r6, r8, r9, sl, fp, ip, lr}^
    7034:	20375f4e 	eorscs	r5, r7, lr, asr #30
    7038:	69752828 	ldmdbvs	r5!, {r3, r5, fp, sp}^
    703c:	3631746e 	ldrtcc	r7, [r1], -lr, ror #8
    7040:	3029745f 	eorcc	r7, r9, pc, asr r4
    7044:	38303078 	ldmdacc	r0!, {r3, r4, r5, r6, ip, sp}
    7048:	49002930 	stmdbmi	r0, {r4, r5, r8, fp, sp}
    704c:	3233544e 	eorscc	r5, r3, #1308622848	; 0x4e000000
    7050:	7828435f 	stmdavc	r8!, {r0, r1, r2, r3, r4, r6, r8, r9, lr}
    7054:	5f5f2029 	svcpl	0x005f2029
    7058:	33544e49 	cmpcc	r4, #1168	; 0x490
    705c:	28435f32 	stmdacs	r3, {r1, r4, r5, r8, r9, sl, fp, ip, lr}^
    7060:	5f002978 	svcpl	0x00002978
    7064:	7274705f 	rsbsvc	r7, r4, #95	; 0x5f
    7068:	756c6176 	strbvc	r6, [ip, #-374]!	; 0xfffffe8a
    706c:	5f002065 	svcpl	0x00002065
    7070:	4e494f4e 	cdpmi	15, 4, cr4, cr9, cr14, {2}
    7074:	454e494c 	strbmi	r4, [lr, #-2380]	; 0xfffff6b4
    7078:	4154535f 	cmpmi	r4, pc, asr r3
    707c:	20434954 	subcs	r4, r3, r4, asr r9
    7080:	494f4e5f 	stmdbmi	pc, {r0, r1, r2, r3, r4, r6, r9, sl, fp, lr}^	; <UNPREDICTABLE>
    7084:	4e494c4e 	cdpmi	12, 4, cr4, cr9, cr14, {2}
    7088:	74732045 	ldrbtvc	r2, [r3], #-69	; 0xffffffbb
    708c:	63697461 	cmnvs	r9, #1627389952	; 0x61000000
    7090:	414d5f00 	cmpmi	sp, r0, lsl #30
    7094:	4e494843 	cdpmi	8, 4, cr4, cr9, cr3, {2}
    7098:	545f5f45 	ldrbpl	r5, [pc], #-3909	; 70a0 <_Min_Stack_Size+0x6ca0>
    709c:	53455059 	movtpl	r5, #20569	; 0x5059
    70a0:	0020485f 	eoreq	r4, r0, pc, asr r8
    70a4:	6f635f5f 	svcvs	0x00635f5f
    70a8:	2074736e 	rsbscs	r7, r4, lr, ror #6
    70ac:	736e6f63 	cmnvc	lr, #396	; 0x18c
    70b0:	49550074 	ldmdbmi	r5, {r2, r4, r5, r6}^
    70b4:	4c5f544e 	cfldrdmi	mvd5, [pc], {78}	; 0x4e
    70b8:	54534145 	ldrbpl	r4, [r3], #-325	; 0xfffffebb
    70bc:	4d5f3233 	lfmmi	f3, 2, [pc, #-204]	; 6ff8 <_Min_Stack_Size+0x6bf8>
    70c0:	28205841 	stmdacs	r0!, {r0, r6, fp, ip, lr}
    70c4:	49555f5f 	ldmdbmi	r5, {r0, r1, r2, r3, r4, r6, r8, r9, sl, fp, ip, lr}^
    70c8:	4c5f544e 	cfldrdmi	mvd5, [pc], {78}	; 0x4e
    70cc:	54534145 	ldrbpl	r4, [r3], #-325	; 0xfffffebb
    70d0:	4d5f3233 	lfmmi	f3, 2, [pc, #-204]	; 700c <_Min_Stack_Size+0x6c0c>
    70d4:	5f5f5841 	svcpl	0x005f5841
    70d8:	50470029 	subpl	r0, r7, r9, lsr #32
    70dc:	5f414f49 	svcpl	0x00414f49
    70e0:	45534142 	ldrbmi	r4, [r3, #-322]	; 0xfffffebe
    70e4:	34783020 	ldrbtcc	r3, [r8], #-32	; 0xffffffe0
    70e8:	30313030 	eorscc	r3, r1, r0, lsr r0
    70ec:	55303038 	ldrpl	r3, [r0, #-56]!	; 0xffffffc8
    70f0:	5f5f004c 	svcpl	0x005f004c
    70f4:	43434153 	movtmi	r4, #12627	; 0x3153
    70f8:	4d5f4d55 	ldclmi	13, cr4, [pc, #-340]	; 6fac <_Min_Stack_Size+0x6bac>
    70fc:	5f5f5841 	svcpl	0x005f5841
    7100:	37583020 	ldrbcc	r3, [r8, -r0, lsr #32]
    7104:	50464646 	subpl	r4, r6, r6, asr #12
    7108:	4b48372d 	blmi	1214dc4 <_Min_Stack_Size+0x12149c4>
    710c:	495f5f00 	ldmdbmi	pc, {r8, r9, sl, fp, ip, lr}^	; <UNPREDICTABLE>
    7110:	5450544e 	ldrbpl	r5, [r0], #-1102	; 0xfffffbb2
    7114:	59545f52 	ldmdbpl	r4, {r1, r4, r6, r8, r9, sl, fp, ip, lr}^
    7118:	5f5f4550 	svcpl	0x005f4550
    711c:	746e6920 	strbtvc	r6, [lr], #-2336	; 0xfffff6e0
    7120:	54584500 	ldrbpl	r4, [r8], #-1280	; 0xfffffb00
    7124:	495f3849 	ldmdbmi	pc, {r0, r3, r6, fp, ip, sp}^	; <UNPREDICTABLE>
    7128:	32205152 	eorcc	r5, r0, #-2147483628	; 0x80000014
    712c:	5f5f0033 	svcpl	0x005f0033
    7130:	544e4955 	strbpl	r4, [lr], #-2389	; 0xfffff6ab
    7134:	5f525450 	svcpl	0x00525450
    7138:	45505954 	ldrbmi	r5, [r0, #-2388]	; 0xfffff6ac
    713c:	75205f5f 	strvc	r5, [r0, #-3935]!	; 0xfffff0a1
    7140:	6769736e 	strbvs	r7, [r9, -lr, ror #6]!
    7144:	2064656e 	rsbcs	r6, r4, lr, ror #10
    7148:	00746e69 	rsbseq	r6, r4, r9, ror #28
    714c:	45525f5f 	ldrbmi	r5, [r2, #-3935]	; 0xfffff0a1
    7150:	54534947 	ldrbpl	r4, [r3], #-2375	; 0xfffff6b9
    7154:	505f5245 	subspl	r5, pc, r5, asr #4
    7158:	49464552 	stmdbmi	r6, {r1, r4, r6, r8, sl, lr}^
    715c:	205f5f58 	subscs	r5, pc, r8, asr pc	; <UNPREDICTABLE>
    7160:	465f5f00 	ldrbmi	r5, [pc], -r0, lsl #30
    7164:	3233544c 	eorscc	r5, r3, #76, 8	; 0x4c000000
    7168:	58414d5f 	stmdapl	r1, {r0, r1, r2, r3, r4, r6, r8, sl, fp, lr}^
    716c:	33205f5f 			; <UNDEFINED> instruction: 0x33205f5f
    7170:	3230342e 	eorscc	r3, r0, #771751936	; 0x2e000000
    7174:	34333238 	ldrtcc	r3, [r3], #-568	; 0xfffffdc8
    7178:	38333636 	ldmdacc	r3!, {r1, r2, r4, r5, r9, sl, ip, sp}
    717c:	38383235 	ldmdacc	r8!, {r0, r2, r4, r5, r9, ip, sp}
    7180:	332b6536 			; <UNDEFINED> instruction: 0x332b6536
    7184:	32334638 	eorscc	r4, r3, #56, 12	; 0x3800000
    7188:	445f5f00 	ldrbmi	r5, [pc], #-3840	; 7190 <_Min_Stack_Size+0x6d90>
    718c:	445f4c42 	ldrbmi	r4, [pc], #-3138	; 7194 <_Min_Stack_Size+0x6d94>
    7190:	5f5f4749 	svcpl	0x005f4749
    7194:	00353120 	eorseq	r3, r5, r0, lsr #2
    7198:	4c555f5f 	mrrcmi	15, 5, r5, r5, cr15	; <UNPREDICTABLE>
    719c:	43415246 	movtmi	r5, #4678	; 0x1246
    71a0:	50455f54 	subpl	r5, r5, r4, asr pc
    71a4:	4f4c4953 	svcmi	0x004c4953
    71a8:	205f5f4e 	subscs	r5, pc, lr, asr #30
    71ac:	50317830 	eorspl	r7, r1, r0, lsr r8
    71b0:	5532332d 	ldrpl	r3, [r2, #-813]!	; 0xfffffcd3
    71b4:	5f00524c 	svcpl	0x0000524c
    71b8:	5343525f 	movtpl	r5, #12895	; 0x325f
    71bc:	73284449 			; <UNDEFINED> instruction: 0x73284449
    71c0:	74732029 	ldrbtvc	r2, [r3], #-41	; 0xffffffd7
    71c4:	74637572 	strbtvc	r7, [r3], #-1394	; 0xfffffa8e
    71c8:	685f5f20 	ldmdavs	pc, {r5, r8, r9, sl, fp, ip, lr}^	; <UNPREDICTABLE>
    71cc:	006b6361 	rsbeq	r6, fp, r1, ror #6
    71d0:	4f495047 	svcmi	0x00495047
    71d4:	444f4d5f 	strbmi	r4, [pc], #-3423	; 71dc <_Min_Stack_Size+0x6ddc>
    71d8:	554f5f45 	strbpl	r5, [pc, #-3909]	; 629b <_Min_Stack_Size+0x5e9b>
    71dc:	54555054 	ldrbpl	r5, [r5], #-84	; 0xffffffac
    71e0:	2050505f 	subscs	r5, r0, pc, asr r0
    71e4:	30307830 	eorscc	r7, r0, r0, lsr r8
    71e8:	30303030 	eorscc	r3, r0, r0, lsr r0
    71ec:	00753430 	rsbseq	r3, r5, r0, lsr r4
    71f0:	4545525f 	strbmi	r5, [r5, #-607]	; 0xfffffda1
    71f4:	4c5f544e 	cfldrdmi	mvd5, [pc], {78}	; 0x4e
    71f8:	5f413436 	svcpl	0x00413436
    71fc:	28465542 	stmdacs	r6, {r1, r6, r8, sl, ip, lr}^
    7200:	29727470 	ldmdbcs	r2!, {r4, r5, r6, sl, ip, sp, lr}^
    7204:	70282820 	eorvc	r2, r8, r0, lsr #16
    7208:	2d297274 	sfmcs	f7, 4, [r9, #-464]!	; 0xfffffe30
    720c:	696d5f3e 	stmdbvs	sp!, {r1, r2, r3, r4, r5, r8, r9, sl, fp, ip, lr}^
    7210:	3e2d6373 	mcrcc	3, 1, r6, cr13, cr3, {3}
    7214:	34366c5f 	ldrtcc	r6, [r6], #-3167	; 0xfffff3a1
    7218:	75625f61 	strbvc	r5, [r2, #-3937]!	; 0xfffff09f
    721c:	5f002966 	svcpl	0x00002966
    7220:	5a49535f 	bpl	125bfa4 <_Min_Stack_Size+0x125bba4>
    7224:	5f464f45 	svcpl	0x00464f45
    7228:	455a4953 	ldrbmi	r4, [sl, #-2387]	; 0xfffff6ad
    722c:	5f5f545f 	svcpl	0x005f545f
    7230:	5f003420 	svcpl	0x00003420
    7234:	636f6c5f 	cmnvs	pc, #24320	; 0x5f00
    7238:	6c635f6b 	stclvs	15, cr5, [r3], #-428	; 0xfffffe54
    723c:	5f65736f 	svcpl	0x0065736f
    7240:	75636572 	strbvc	r6, [r3, #-1394]!	; 0xfffffa8e
    7244:	76697372 			; <UNDEFINED> instruction: 0x76697372
    7248:	6f6c2865 	svcvs	0x006c2865
    724c:	20296b63 	eorcs	r6, r9, r3, ror #22
    7250:	6f762828 	svcvs	0x00762828
    7254:	20296469 	eorcs	r6, r9, r9, ror #8
    7258:	45002930 	strmi	r2, [r0, #-2352]	; 0xfffff6d0
    725c:	5f495458 	svcpl	0x00495458
    7260:	00474643 	subeq	r4, r7, r3, asr #12
    7264:	45445f5f 	strbmi	r5, [r4, #-3935]	; 0xfffff0a1
    7268:	38323143 	ldmdacc	r2!, {r0, r1, r6, r8, ip, sp}
    726c:	4e494d5f 	mcrmi	13, 2, r4, cr9, cr15, {2}
    7270:	31205f5f 			; <UNDEFINED> instruction: 0x31205f5f
    7274:	31362d45 	teqcc	r6, r5, asr #26
    7278:	4c443334 	mcrrmi	3, 3, r3, r4, cr4
    727c:	495f5f00 	ldmdbmi	pc, {r8, r9, sl, fp, ip, lr}^	; <UNPREDICTABLE>
    7280:	3436544e 	ldrtcc	r5, [r6], #-1102	; 0xfffffbb2
    7284:	6328435f 			; <UNDEFINED> instruction: 0x6328435f
    7288:	20632029 	rsbcs	r2, r3, r9, lsr #32
    728c:	4c202323 	stcmi	3, cr2, [r0], #-140	; 0xffffff74
    7290:	4148004c 	cmpmi	r8, ip, asr #32
    7294:	495f4556 	ldmdbmi	pc, {r1, r2, r4, r6, r8, sl, lr}^	; <UNPREDICTABLE>
    7298:	4654494e 	ldrbmi	r4, [r4], -lr, asr #18
    729c:	5f494e49 	svcpl	0x00494e49
    72a0:	41525241 	cmpmi	r2, r1, asr #4
    72a4:	00312059 	eorseq	r2, r1, r9, asr r0
    72a8:	6f6c5f5f 	svcvs	0x006c5f5f
    72ac:	62616b63 	rsbvs	r6, r1, #101376	; 0x18c00
    72b0:	5f20656c 	svcpl	0x0020656c
    72b4:	636f6c5f 	cmnvs	pc, #24320	; 0x5f00
    72b8:	6e615f6b 	cdpvs	15, 6, cr5, cr1, cr11, {3}
    72bc:	61746f6e 	cmnvs	r4, lr, ror #30
    72c0:	6c286574 	cfstr32vs	mvfx6, [r8], #-464	; 0xfffffe30
    72c4:	616b636f 	cmnvs	fp, pc, ror #6
    72c8:	29656c62 	stmdbcs	r5!, {r1, r5, r6, sl, fp, sp, lr}^
    72cc:	455f5f00 	ldrbmi	r5, [pc, #-3840]	; 63d4 <_Min_Stack_Size+0x5fd4>
    72d0:	445f444e 	ldrbmi	r4, [pc], #-1102	; 72d8 <_Min_Stack_Size+0x6ed8>
    72d4:	534c4345 	movtpl	r4, #49989	; 0xc345
    72d8:	52530020 	subspl	r0, r3, #32
    72dc:	4d5f4d41 	ldclmi	13, cr4, [pc, #-260]	; 71e0 <_Min_Stack_Size+0x6de0>
    72e0:	524f4d45 	subpl	r4, pc, #4416	; 0x1140
    72e4:	41425f59 	cmpmi	r2, r9, asr pc
    72e8:	30204553 	eorcc	r4, r0, r3, asr r5
    72ec:	30303278 	eorscc	r3, r0, r8, ror r2
    72f0:	30303030 	eorscc	r3, r0, r0, lsr r0
    72f4:	004c5530 	subeq	r5, ip, r0, lsr r5
    72f8:	4f495047 	svcmi	0x00495047
    72fc:	4e49505f 	mcrmi	0, 2, r5, cr9, cr15, {2}
    7300:	414d5f53 	cmpmi	sp, r3, asr pc
    7304:	30204b53 	eorcc	r4, r0, r3, asr fp
    7308:	30303078 	eorscc	r3, r0, r8, ror r0
    730c:	46464630 			; <UNDEFINED> instruction: 0x46464630
    7310:	5f007546 	svcpl	0x00007546
    7314:	42444c5f 	submi	r4, r4, #24320	; 0x5f00
    7318:	494d5f4c 	stmdbmi	sp, {r2, r3, r6, r8, r9, sl, fp, ip, lr}^
    731c:	205f5f4e 	subscs	r5, pc, lr, asr #30
    7320:	32322e32 	eorscc	r2, r2, #800	; 0x320
    7324:	33373035 	teqcc	r7, #53	; 0x35
    7328:	35383538 	ldrcc	r3, [r8, #-1336]!	; 0xfffffac8
    732c:	30323730 	eorscc	r3, r2, r0, lsr r7
    7330:	2d653431 	cfstrdcs	mvd3, [r5, #-196]!	; 0xffffff3c
    7334:	4c383033 	ldcmi	0, cr3, [r8], #-204	; 0xffffff34
    7338:	415f5f00 	cmpmi	pc, r0, lsl #30
    733c:	4d554343 	ldclmi	3, cr4, [r5, #-268]	; 0xfffffef4
    7340:	4942495f 	stmdbmi	r2, {r0, r1, r2, r3, r4, r6, r8, fp, lr}^
    7344:	205f5f54 	subscs	r5, pc, r4, asr pc	; <UNPREDICTABLE>
    7348:	52003631 	andpl	r3, r0, #51380224	; 0x3100000
    734c:	545f4343 	ldrbpl	r4, [pc], #-835	; 7354 <_Min_Stack_Size+0x6f54>
    7350:	44657079 	strbtmi	r7, [r5], #-121	; 0xffffff87
    7354:	75006665 	strvc	r6, [r0, #-1637]	; 0xfffff99b
    7358:	6769736e 	strbvs	r7, [r9, -lr, ror #6]!
    735c:	0064656e 	rsbeq	r6, r4, lr, ror #10
    7360:	4f494641 	svcmi	0x00494641
    7364:	5341425f 	movtpl	r4, #4703	; 0x125f
    7368:	78302045 	ldmdavc	r0!, {r0, r2, r6, sp}
    736c:	31303034 	teqcc	r0, r4, lsr r0
    7370:	30303030 	eorscc	r3, r0, r0, lsr r0
    7374:	5f004c55 	svcpl	0x00004c55
    7378:	656c626d 	strbvs	r6, [ip, #-621]!	; 0xfffffd93
    737c:	74735f6e 	ldrbtvc	r5, [r3], #-3950	; 0xfffff092
    7380:	00657461 	rsbeq	r7, r5, r1, ror #8
    7384:	61685f5f 	cmnvs	r8, pc, asr pc
    7388:	75625f73 	strbvc	r5, [r2, #-3955]!	; 0xfffff08d
    738c:	69746c69 	ldmdbvs	r4!, {r0, r3, r5, r6, sl, fp, sp, lr}^
    7390:	2978286e 	ldmdbcs	r8!, {r1, r2, r3, r5, r6, fp, sp}^
    7394:	5f003020 	svcpl	0x00003020
    7398:	5f74705f 	svcpl	0x0074705f
    739c:	72617567 	rsbvc	r7, r1, #432013312	; 0x19c00000
    73a0:	5f646564 	svcpl	0x00646564
    73a4:	78287962 	stmdavc	r8!, {r1, r5, r6, r8, fp, ip, sp, lr}
    73a8:	5f5f2029 	svcpl	0x005f2029
    73ac:	6b636f6c 	blvs	18e3164 <_Min_Stack_Size+0x18e2d64>
    73b0:	6e6e615f 	mcrvs	1, 3, r6, cr14, cr15, {2}
    73b4:	7461746f 	strbtvc	r7, [r1], #-1135	; 0xfffffb91
    73b8:	74702865 	ldrbtvc	r2, [r0], #-2149	; 0xfffff79b
    73bc:	6175675f 	cmnvs	r5, pc, asr r7
    73c0:	64656472 	strbtvs	r6, [r5], #-1138	; 0xfffffb8e
    73c4:	2879625f 	ldmdacs	r9!, {r0, r1, r2, r3, r4, r6, r9, sp, lr}^
    73c8:	00292978 	eoreq	r2, r9, r8, ror r9
    73cc:	75675f5f 	strbvc	r5, [r7, #-3935]!	; 0xfffff0a1
    73d0:	65647261 	strbvs	r7, [r4, #-609]!	; 0xfffffd9f
    73d4:	79625f64 	stmdbvc	r2!, {r2, r5, r6, r8, r9, sl, fp, ip, lr}^
    73d8:	20297828 	eorcs	r7, r9, r8, lsr #16
    73dc:	6f6c5f5f 	svcvs	0x006c5f5f
    73e0:	615f6b63 	cmpvs	pc, r3, ror #22
    73e4:	746f6e6e 	strbtvc	r6, [pc], #-3694	; 73ec <_Min_Stack_Size+0x6fec>
    73e8:	28657461 	stmdacs	r5!, {r0, r5, r6, sl, ip, sp, lr}^
    73ec:	72617567 	rsbvc	r7, r1, #432013312	; 0x19c00000
    73f0:	5f646564 	svcpl	0x00646564
    73f4:	78287962 	stmdavc	r8!, {r1, r5, r6, r8, fp, ip, sp, lr}
    73f8:	45002929 	strmi	r2, [r0, #-2345]	; 0xfffff6d7
    73fc:	31495458 	cmpcc	r9, r8, asr r4
    7400:	52495f32 	subpl	r5, r9, #50, 30	; 0xc8
    7404:	30342051 	eorscc	r2, r4, r1, asr r0
    7408:	475f5f00 	ldrbmi	r5, [pc, -r0, lsl #30]
    740c:	4c43554e 	cfstr64mi	mvdx5, [r3], {78}	; 0x4e
    7410:	5f454b49 	svcpl	0x00454b49
    7414:	464f5f5f 			; <UNDEFINED> instruction: 0x464f5f5f
    7418:	54455346 	strbpl	r5, [r5], #-838	; 0xfffffcba
    741c:	3120464f 			; <UNDEFINED> instruction: 0x3120464f
    7420:	555f5f00 	ldrbpl	r5, [pc, #-3840]	; 6528 <_Min_Stack_Size+0x6128>
    7424:	31544e49 	cmpcc	r4, r9, asr #28
    7428:	28435f36 	stmdacs	r3, {r1, r2, r4, r5, r8, r9, sl, fp, ip, lr}^
    742c:	63202963 			; <UNDEFINED> instruction: 0x63202963
    7430:	735f5f00 	cmpvc	pc, #0, 30
    7434:	635f6d79 	cmpvs	pc, #7744	; 0x1e40
    7438:	61706d6f 	cmnvs	r0, pc, ror #26
    743c:	79732874 	ldmdbvc	r3!, {r2, r4, r5, r6, fp, sp}^
    7440:	6d692c6d 	stclvs	12, cr2, [r9, #-436]!	; 0xfffffe4c
    7444:	762c6c70 			; <UNDEFINED> instruction: 0x762c6c70
    7448:	64697265 	strbtvs	r7, [r9], #-613	; 0xfffffd9b
    744c:	5f5f2029 	svcpl	0x005f2029
    7450:	5f6d7361 	svcpl	0x006d7361
    7454:	2e22285f 	mcrcs	8, 1, r2, cr2, cr15, {2}
    7458:	766d7973 			; <UNDEFINED> instruction: 0x766d7973
    745c:	22207265 	eorcs	r7, r0, #1342177286	; 0x50000006
    7460:	6d692320 	stclvs	3, cr2, [r9, #-128]!	; 0xffffff80
    7464:	22206c70 	eorcs	r6, r0, #112, 24	; 0x7000
    7468:	2022202c 	eorcs	r2, r2, ip, lsr #32
    746c:	6d797323 	ldclvs	3, cr7, [r9, #-140]!	; 0xffffff74
    7470:	22402220 	subcs	r2, r0, #32, 4
    7474:	65762320 	ldrbvs	r2, [r6, #-800]!	; 0xfffffce0
    7478:	29646972 	stmdbcs	r4!, {r1, r4, r5, r6, r8, fp, sp, lr}^
    747c:	435f5f00 	cmpmi	pc, #0, 30
    7480:	55535f43 	ldrbpl	r5, [r3, #-3907]	; 0xfffff0bd
    7484:	524f5050 	subpl	r5, pc, #80	; 0x50
    7488:	5f5f5354 	svcpl	0x005f5354
    748c:	4c4e495f 	mcrrmi	9, 5, r4, lr, cr15	; <UNPREDICTABLE>
    7490:	5f454e49 	svcpl	0x00454e49
    7494:	0031205f 	eorseq	r2, r1, pc, asr r0
    7498:	44555f5f 	ldrbmi	r5, [r5], #-3935	; 0xfffff0a1
    749c:	42495f41 	submi	r5, r9, #260	; 0x104
    74a0:	5f5f5449 	svcpl	0x005f5449
    74a4:	00323320 	eorseq	r3, r2, r0, lsr #6
    74a8:	454c5f5f 	strbmi	r5, [ip, #-3935]	; 0xfffff0a1
    74ac:	31545341 	cmpcc	r4, r1, asr #6
    74b0:	68222036 	stmdavs	r2!, {r1, r2, r4, r5, sp}
    74b4:	5f5f0022 	svcpl	0x005f0022
    74b8:	6e697270 	mcrvs	2, 3, r7, cr9, cr0, {3}
    74bc:	696c6674 	stmdbvs	ip!, {r2, r4, r5, r6, r9, sl, sp, lr}^
    74c0:	6628656b 	strtvs	r6, [r8], -fp, ror #10
    74c4:	7261746d 	rsbvc	r7, r1, #1828716544	; 0x6d000000
    74c8:	69662c67 	stmdbvs	r6!, {r0, r1, r2, r5, r6, sl, fp, sp}^
    74cc:	76747372 			; <UNDEFINED> instruction: 0x76747372
    74d0:	72617261 	rsbvc	r7, r1, #268435462	; 0x10000006
    74d4:	5f202967 	svcpl	0x00202967
    74d8:	7474615f 	ldrbtvc	r6, [r4], #-351	; 0xfffffea1
    74dc:	75626972 	strbvc	r6, [r2, #-2418]!	; 0xfffff68e
    74e0:	5f5f6574 	svcpl	0x005f6574
    74e4:	5f5f2828 	svcpl	0x005f2828
    74e8:	6d726f66 	ldclvs	15, cr6, [r2, #-408]!	; 0xfffffe68
    74ec:	5f5f7461 	svcpl	0x005f7461
    74f0:	5f5f2820 	svcpl	0x005f2820
    74f4:	6e697270 	mcrvs	2, 3, r7, cr9, cr0, {3}
    74f8:	5f5f6674 	svcpl	0x005f6674
    74fc:	6d66202c 	stclvs	0, cr2, [r6, #-176]!	; 0xffffff50
    7500:	67726174 			; <UNDEFINED> instruction: 0x67726174
    7504:	6966202c 	stmdbvs	r6!, {r2, r3, r5, sp}^
    7508:	76747372 			; <UNDEFINED> instruction: 0x76747372
    750c:	72617261 	rsbvc	r7, r1, #268435462	; 0x10000006
    7510:	29292967 	stmdbcs	r9!, {r0, r1, r2, r5, r6, r8, fp, sp}
    7514:	4e5f5f00 	cdpmi	15, 5, cr5, cr15, cr0, {0}
    7518:	4e495f4f 	cdpmi	15, 4, cr5, cr9, cr15, {2}
    751c:	454e494c 	strbmi	r4, [lr, #-2380]	; 0xfffff6b4
    7520:	31205f5f 			; <UNDEFINED> instruction: 0x31205f5f
    7524:	665f5f00 	ldrbvs	r5, [pc], -r0, lsl #30
    7528:	63747361 	cmnvs	r4, #-2080374783	; 0x84000001
    752c:	206c6c61 	rsbcs	r6, ip, r1, ror #24
    7530:	74615f5f 	strbtvc	r5, [r1], #-3935	; 0xfffff0a1
    7534:	62697274 	rsbvs	r7, r9, #116, 4	; 0x40000007
    7538:	5f657475 	svcpl	0x00657475
    753c:	5f28285f 	svcpl	0x0028285f
    7540:	7361665f 	cmnvc	r1, #99614720	; 0x5f00000
    7544:	6c616374 	stclvs	3, cr6, [r1], #-464	; 0xfffffe30
    7548:	295f5f6c 	ldmdbcs	pc, {r2, r3, r5, r6, r8, r9, sl, fp, ip, lr}^	; <UNPREDICTABLE>
    754c:	4e490029 	cdpmi	0, 4, cr0, cr9, cr9, {1}
    7550:	5f343654 	svcpl	0x00343654
    7554:	204e494d 	subcs	r4, lr, sp, asr #18
    7558:	5f5f2d28 	svcpl	0x005f2d28
    755c:	36544e49 	ldrbcc	r4, [r4], -r9, asr #28
    7560:	414d5f34 	cmpmi	sp, r4, lsr pc
    7564:	205f5f58 	subscs	r5, pc, r8, asr pc	; <UNPREDICTABLE>
    7568:	2931202d 	ldmdbcs	r1!, {r0, r2, r3, r5, sp}
    756c:	6c5f5f00 	mrrcvs	15, 0, r5, pc, cr0	; <UNPREDICTABLE>
    7570:	5f6b636f 	svcpl	0x006b636f
    7574:	6f6e6e61 	svcvs	0x006e6e61
    7578:	65746174 	ldrbvs	r6, [r4, #-372]!	; 0xfffffe8c
    757c:	20297828 	eorcs	r7, r9, r8, lsr #16
    7580:	494c5f00 	stmdbmi	ip, {r8, r9, sl, fp, ip, lr}^
    7584:	455f4554 	ldrbmi	r4, [pc, #-1364]	; 7038 <_Min_Stack_Size+0x6c38>
    7588:	20544958 	subscs	r4, r4, r8, asr r9
    758c:	5f5f0031 	svcpl	0x005f0031
    7590:	4d4f5441 	cfstrdmi	mvd5, [pc, #-260]	; 7494 <_Min_Stack_Size+0x7094>
    7594:	525f4349 	subspl	r4, pc, #603979777	; 0x24000001
    7598:	58414c45 	stmdapl	r1, {r0, r2, r6, sl, fp, lr}^
    759c:	30204445 	eorcc	r4, r0, r5, asr #8
    75a0:	54415f00 	strbpl	r5, [r1], #-3840	; 0xfffff100
    75a4:	42495254 	submi	r5, r9, #84, 4	; 0x40000005
    75a8:	28455455 	stmdacs	r5, {r0, r2, r4, r6, sl, ip, lr}^
    75ac:	72747461 	rsbsvc	r7, r4, #1627389952	; 0x61000000
    75b0:	5f202973 	svcpl	0x00202973
    75b4:	7474615f 	ldrbtvc	r6, [r4], #-351	; 0xfffffea1
    75b8:	75626972 	strbvc	r6, [r2, #-2418]!	; 0xfffff68e
    75bc:	5f5f6574 	svcpl	0x005f6574
    75c0:	74612820 	strbtvc	r2, [r1], #-2080	; 0xfffff7e0
    75c4:	29737274 	ldmdbcs	r3!, {r2, r4, r5, r6, r9, ip, sp, lr}^
    75c8:	465f5f00 	ldrbmi	r5, [pc], -r0, lsl #30
    75cc:	38545341 	ldmdacc	r4, {r0, r6, r8, r9, ip, lr}^
    75d0:	564e0020 	strbpl	r0, [lr], -r0, lsr #32
    75d4:	495f4349 	ldmdbmi	pc, {r0, r3, r6, r8, r9, lr}^	; <UNPREDICTABLE>
    75d8:	32524543 	subscc	r4, r2, #281018368	; 0x10c00000
    75dc:	76282a20 	strtvc	r2, [r8], -r0, lsr #20
    75e0:	74616c6f 	strbtvc	r6, [r1], #-3183	; 0xfffff391
    75e4:	20656c69 	rsbcs	r6, r5, r9, ror #24
    75e8:	746e6975 	strbtvc	r6, [lr], #-2421	; 0xfffff68b
    75ec:	745f3233 	ldrbvc	r3, [pc], #-563	; 75f4 <_Min_Stack_Size+0x71f4>
    75f0:	28292a20 	stmdacs	r9!, {r5, r9, fp, sp}
    75f4:	4349564e 	movtmi	r5, #38478	; 0x964e
    75f8:	5341425f 	movtpl	r4, #4703	; 0x125f
    75fc:	202b2045 	eorcs	r2, fp, r5, asr #32
    7600:	38307830 	ldmdacc	r0!, {r4, r5, fp, ip, sp, lr}
    7604:	5f002938 	svcpl	0x00002938
    7608:	5454415f 	ldrbpl	r4, [r4], #-351	; 0xfffffea1
    760c:	55424952 	strbpl	r4, [r2, #-2386]	; 0xfffff6ae
    7610:	495f4554 	ldmdbmi	pc, {r2, r4, r6, r8, sl, lr}^	; <UNPREDICTABLE>
    7614:	5255504d 	subspl	r5, r5, #77	; 0x4d
    7618:	54505f45 	ldrbpl	r5, [r0], #-3909	; 0xfffff0bb
    761c:	205f5f52 	subscs	r5, pc, r2, asr pc	; <UNPREDICTABLE>
    7620:	445f5f00 	ldrbmi	r5, [pc], #-3840	; 7628 <_Min_Stack_Size+0x7228>
    7624:	485f4c42 	ldmdami	pc, {r1, r6, sl, fp, lr}^	; <UNPREDICTABLE>
    7628:	495f5341 	ldmdbmi	pc, {r0, r6, r8, r9, ip, lr}^	; <UNPREDICTABLE>
    762c:	4e49464e 	cdpmi	6, 4, cr4, cr9, cr14, {2}
    7630:	5f595449 	svcpl	0x00595449
    7634:	0031205f 	eorseq	r2, r1, pc, asr r0
    7638:	49535f5f 	ldmdbmi	r3, {r0, r1, r2, r3, r4, r6, r8, r9, sl, fp, ip, lr}^
    763c:	54415f47 	strbpl	r5, [r1], #-3911	; 0xfffff0b9
    7640:	43494d4f 	movtmi	r4, #40271	; 0x9d4f
    7644:	58414d5f 	stmdapl	r1, {r0, r1, r2, r3, r4, r6, r8, sl, fp, lr}^
    7648:	30205f5f 	eorcc	r5, r0, pc, asr pc
    764c:	66663778 			; <UNDEFINED> instruction: 0x66663778
    7650:	66666666 	strbtvs	r6, [r6], -r6, ror #12
    7654:	4c460066 	mcrrmi	0, 6, r0, r6, cr6
    7658:	5f485341 	svcpl	0x00485341
    765c:	4f4d454d 	svcmi	0x004d454d
    7660:	425f5952 	subsmi	r5, pc, #1343488	; 0x148000
    7664:	20455341 	subcs	r5, r5, r1, asr #6
    7668:	38307830 	ldmdacc	r0!, {r4, r5, fp, ip, sp, lr}
    766c:	30303030 	eorscc	r3, r0, r0, lsr r0
    7670:	4c553030 	mrrcmi	0, 3, r3, r5, cr0
    7674:	465f5f00 	ldrbmi	r5, [pc], -r0, lsl #30
    7678:	3436544c 	ldrtcc	r5, [r6], #-1100	; 0xfffffbb4
    767c:	4e414d5f 	mcrmi	13, 2, r4, cr1, cr15, {2}
    7680:	49445f54 	stmdbmi	r4, {r2, r4, r6, r8, r9, sl, fp, ip, lr}^
    7684:	205f5f47 	subscs	r5, pc, r7, asr #30
    7688:	43003335 	movwmi	r3, #821	; 0x335
    768c:	63415550 	movtvs	r5, #5456	; 0x1550
    7690:	73736563 	cmnvc	r3, #415236096	; 0x18c00000
    7694:	6576654c 	ldrbvs	r6, [r6, #-1356]!	; 0xfffffab4
    7698:	525f006c 	subspl	r0, pc, #108	; 0x6c
    769c:	544e4545 	strbpl	r4, [lr], #-1349	; 0xfffffabb
    76a0:	4548435f 	strbmi	r4, [r8, #-863]	; 0xfffffca1
    76a4:	525f4b43 	subspl	r4, pc, #68608	; 0x10c00
    76a8:	34444e41 	strbcc	r4, [r4], #-3649	; 0xfffff1bf
    76ac:	61762838 	cmnvs	r6, r8, lsr r8
    76b0:	5f202972 	svcpl	0x00202972
    76b4:	4e454552 	mcrmi	5, 2, r4, cr5, cr2, {2}
    76b8:	48435f54 	stmdami	r3, {r2, r4, r6, r8, r9, sl, fp, ip, lr}^
    76bc:	284b4345 	stmdacs	fp, {r0, r2, r6, r8, r9, lr}^
    76c0:	2c726176 	ldfcse	f6, [r2], #-472	; 0xfffffe28
    76c4:	34725f20 	ldrbtcc	r5, [r2], #-3872	; 0xfffff0e0
    76c8:	73202c38 			; <UNDEFINED> instruction: 0x73202c38
    76cc:	63757274 	cmnvs	r5, #116, 4	; 0x40000007
    76d0:	725f2074 	subsvc	r2, pc, #116	; 0x74
    76d4:	34646e61 	strbtcc	r6, [r4], #-3681	; 0xfffff19f
    76d8:	2c2a2038 	stccs	0, cr2, [sl], #-224	; 0xffffff20
    76dc:	7a697320 	bvc	1a64364 <_Min_Stack_Size+0x1a63f64>
    76e0:	20666f65 	rsbcs	r6, r6, r5, ror #30
    76e4:	7628282a 	strtvc	r2, [r8], -sl, lsr #16
    76e8:	2d297261 	sfmcs	f7, 4, [r9, #-388]!	; 0xfffffe7c
    76ec:	34725f3e 	ldrbtcc	r5, [r2], #-3902	; 0xfffff0c2
    76f0:	202c2938 	eorcs	r2, ip, r8, lsr r9
    76f4:	4545525f 	strbmi	r5, [r5, #-607]	; 0xfffffda1
    76f8:	495f544e 	ldmdbmi	pc, {r1, r2, r3, r6, sl, ip, lr}^	; <UNPREDICTABLE>
    76fc:	5f54494e 	svcpl	0x0054494e
    7700:	444e4152 	strbmi	r4, [lr], #-338	; 0xfffffeae
    7704:	28283834 	stmdacs	r8!, {r2, r4, r5, fp, ip, sp}
    7708:	29726176 	ldmdbcs	r2!, {r1, r2, r4, r5, r6, r8, sp, lr}^
    770c:	45002929 	strmi	r2, [r0, #-2345]	; 0xfffff6d7
    7710:	37495458 	smlsldcc	r5, r9, r8, r4
    7714:	20374150 	eorscs	r4, r7, r0, asr r1
    7718:	54584528 	ldrbpl	r4, [r8], #-1320	; 0xfffffad8
    771c:	50475f49 	subpl	r5, r7, r9, asr #30
    7720:	4d5f4f49 	ldclmi	15, cr4, [pc, #-292]	; 7604 <_Min_Stack_Size+0x7204>
    7724:	69707061 	ldmdbvs	r0!, {r0, r5, r6, ip, sp, lr}^
    7728:	745f676e 	ldrbvc	r6, [pc], #-1902	; 7730 <_Min_Stack_Size+0x7330>
    772c:	58457b29 	stmdapl	r5, {r0, r3, r5, r8, r9, fp, ip, sp, lr}^
    7730:	2c374954 			; <UNDEFINED> instruction: 0x2c374954
    7734:	49504720 	ldmdbmi	r0, {r5, r8, r9, sl, lr}^
    7738:	202c414f 	eorcs	r4, ip, pc, asr #2
    773c:	4f495047 	svcmi	0x00495047
    7740:	4e49505f 	mcrmi	0, 2, r5, cr9, cr15, {2}
    7744:	202c375f 	eorcs	r3, ip, pc, asr r7
    7748:	49545845 	ldmdbmi	r4, {r0, r2, r6, fp, ip, lr}^
    774c:	52495f37 	subpl	r5, r9, #55, 30	; 0xdc
    7750:	007d2051 	rsbseq	r2, sp, r1, asr r0
    7754:	49545845 	ldmdbmi	r4, {r0, r2, r6, fp, ip, lr}^
    7758:	52495f37 	subpl	r5, r9, #55, 30	; 0xdc
    775c:	33322051 	teqcc	r2, #81	; 0x51
    7760:	725f5f00 	subsvc	r5, pc, #0, 30
    7764:	65676e61 	strbvs	r6, [r7, #-3681]!	; 0xfffff19f
    7768:	7428666f 	strtvc	r6, [r8], #-1647	; 0xfffff991
    776c:	2c657079 	stclcs	0, cr7, [r5], #-484	; 0xfffffe1c
    7770:	72617473 	rsbvc	r7, r1, #1929379840	; 0x73000000
    7774:	6e652c74 	mcrvs	12, 3, r2, cr5, cr4, {3}
    7778:	28202964 	stmdacs	r0!, {r2, r5, r6, r8, fp, sp}
    777c:	666f5f5f 	uqsaxvs	r5, pc, pc	; <UNPREDICTABLE>
    7780:	74657366 	strbtvc	r7, [r5], #-870	; 0xfffffc9a
    7784:	7428666f 	strtvc	r6, [r8], #-1647	; 0xfffff991
    7788:	2c657079 	stclcs	0, cr7, [r5], #-484	; 0xfffffe1c
    778c:	646e6520 	strbtvs	r6, [lr], #-1312	; 0xfffffae0
    7790:	202d2029 	eorcs	r2, sp, r9, lsr #32
    7794:	666f5f5f 	uqsaxvs	r5, pc, pc	; <UNPREDICTABLE>
    7798:	74657366 	strbtvc	r7, [r5], #-870	; 0xfffffc9a
    779c:	7428666f 	strtvc	r6, [r8], #-1647	; 0xfffff991
    77a0:	2c657079 	stclcs	0, cr7, [r5], #-484	; 0xfffffe1c
    77a4:	61747320 	cmnvs	r4, r0, lsr #6
    77a8:	29297472 	stmdbcs	r9!, {r1, r4, r5, r6, sl, ip, sp, lr}
    77ac:	62757300 	rsbsvs	r7, r5, #0, 6
    77b0:	6174706f 	cmnvs	r4, pc, rrx
    77b4:	45006772 	strmi	r6, [r0, #-1906]	; 0xfffff88e
    77b8:	31495458 	cmpcc	r9, r8, asr r4
    77bc:	20314250 	eorscs	r4, r1, r0, asr r2
    77c0:	54584528 	ldrbpl	r4, [r8], #-1320	; 0xfffffad8
    77c4:	50475f49 	subpl	r5, r7, r9, asr #30
    77c8:	4d5f4f49 	ldclmi	15, cr4, [pc, #-292]	; 76ac <_Min_Stack_Size+0x72ac>
    77cc:	69707061 	ldmdbvs	r0!, {r0, r5, r6, ip, sp, lr}^
    77d0:	745f676e 	ldrbvc	r6, [pc], #-1902	; 77d8 <_Min_Stack_Size+0x73d8>
    77d4:	58457b29 	stmdapl	r5, {r0, r3, r5, r8, r9, fp, ip, sp, lr}^
    77d8:	2c314954 			; <UNDEFINED> instruction: 0x2c314954
    77dc:	49504720 	ldmdbmi	r0, {r5, r8, r9, sl, lr}^
    77e0:	202c424f 	eorcs	r4, ip, pc, asr #4
    77e4:	4f495047 	svcmi	0x00495047
    77e8:	4e49505f 	mcrmi	0, 2, r5, cr9, cr15, {2}
    77ec:	202c315f 	eorcs	r3, ip, pc, asr r1
    77f0:	49545845 	ldmdbmi	r4, {r0, r2, r6, fp, ip, lr}^
    77f4:	52495f31 	subpl	r5, r9, #49, 30	; 0xc4
    77f8:	007d2051 	rsbseq	r2, sp, r1, asr r0
    77fc:	53555f5f 	cmppl	r5, #380	; 0x17c
    7800:	495f5345 	ldmdbmi	pc, {r0, r2, r6, r8, r9, ip, lr}^	; <UNPREDICTABLE>
    7804:	4654494e 	ldrbmi	r4, [r4], -lr, asr #18
    7808:	5f494e49 	svcpl	0x00494e49
    780c:	0031205f 	eorseq	r2, r1, pc, asr r0
    7810:	6f6c5f5f 	svcvs	0x006c5f5f
    7814:	695f6b63 	ldmdbvs	pc, {r0, r1, r5, r6, r8, r9, fp, sp, lr}^	; <UNPREDICTABLE>
    7818:	2874696e 	ldmdacs	r4!, {r1, r2, r3, r5, r6, r8, fp, sp, lr}^
    781c:	6b636f6c 	blvs	18e35d4 <_Min_Stack_Size+0x18e31d4>
    7820:	28282029 	stmdacs	r8!, {r0, r3, r5, sp}
    7824:	64696f76 	strbtvs	r6, [r9], #-3958	; 0xfffff08a
    7828:	29302029 	ldmdbcs	r0!, {r0, r3, r5, sp}
    782c:	445f5f00 	ldrbmi	r5, [pc], #-3840	; 7834 <_Min_Stack_Size+0x7434>
    7830:	34364345 	ldrtcc	r4, [r6], #-837	; 0xfffffcbb
    7834:	4e494d5f 	mcrmi	13, 2, r4, cr9, cr15, {2}
    7838:	31205f5f 			; <UNDEFINED> instruction: 0x31205f5f
    783c:	38332d45 	ldmdacc	r3!, {r0, r2, r6, r8, sl, fp, sp}
    7840:	00444433 	subeq	r4, r4, r3, lsr r4
    7844:	656e5f5f 	strbvs	r5, [lr, #-3935]!	; 0xfffff0a1
    7848:	705f6465 	subsvc	r6, pc, r5, ror #8
    784c:	69647274 	stmdbvs	r4!, {r2, r4, r5, r6, r9, ip, sp, lr}^
    7850:	745f6666 	ldrbvc	r6, [pc], #-1638	; 7858 <_Min_Stack_Size+0x7458>
    7854:	555f5f00 	ldrbpl	r5, [pc, #-3840]	; 695c <_Min_Stack_Size+0x655c>
    7858:	4152464c 	cmpmi	r2, ip, asr #12
    785c:	4d5f5443 	cfldrdmi	mvd5, [pc, #-268]	; 7758 <_Min_Stack_Size+0x7358>
    7860:	5f5f5841 	svcpl	0x005f5841
    7864:	46583020 	ldrbmi	r3, [r8], -r0, lsr #32
    7868:	46464646 	strbmi	r4, [r6], -r6, asr #12
    786c:	50464646 	subpl	r4, r6, r6, asr #12
    7870:	5532332d 	ldrpl	r3, [r2, #-813]!	; 0xfffffcd3
    7874:	5f00524c 	svcpl	0x0000524c
    7878:	4c42445f 	cfstrdmi	mvd4, [r2], {95}	; 0x5f
    787c:	4345445f 	movtmi	r4, #21599	; 0x545f
    7880:	4c414d49 	mcrrmi	13, 4, r4, r1, cr9
    7884:	4749445f 	smlsldmi	r4, r9, pc, r4	; <UNPREDICTABLE>
    7888:	31205f5f 			; <UNDEFINED> instruction: 0x31205f5f
    788c:	6d5f0037 	ldclvs	0, cr0, [pc, #-220]	; 77b8 <_Min_Stack_Size+0x73b8>
    7890:	64777861 	ldrbtvs	r7, [r7], #-2145	; 0xfffff79f
    7894:	5f5f0073 	svcpl	0x005f0073
    7898:	65766168 	ldrbvs	r6, [r6, #-360]!	; 0xfffffe98
    789c:	6e6f6c5f 	mcrvs	12, 3, r6, cr15, cr15, {2}
    78a0:	20323367 	eorscs	r3, r2, r7, ror #6
    78a4:	4e490031 	mcrmi	0, 2, r0, cr9, cr1, {1}
    78a8:	454c5f54 	strbmi	r5, [ip, #-3924]	; 0xfffff0ac
    78ac:	38545341 	ldmdacc	r4, {r0, r6, r8, r9, ip, lr}^
    78b0:	4e494d5f 	mcrmi	13, 2, r4, cr9, cr15, {2}
    78b4:	5f2d2820 	svcpl	0x002d2820
    78b8:	544e495f 	strbpl	r4, [lr], #-2399	; 0xfffff6a1
    78bc:	41454c5f 	cmpmi	r5, pc, asr ip
    78c0:	5f385453 	svcpl	0x00385453
    78c4:	5f58414d 	svcpl	0x0058414d
    78c8:	202d205f 	eorcs	r2, sp, pc, asr r0
    78cc:	5f002931 	svcpl	0x00002931
    78d0:	424f4c47 	submi	r4, pc, #18176	; 0x4700
    78d4:	525f4c41 	subspl	r4, pc, #16640	; 0x4100
    78d8:	544e4545 	strbpl	r4, [lr], #-1349	; 0xfffffabb
    78dc:	6c675f20 	stclvs	15, cr5, [r7], #-128	; 0xffffff80
    78e0:	6c61626f 	sfmvs	f6, 2, [r1], #-444	; 0xfffffe44
    78e4:	706d695f 	rsbvc	r6, sp, pc, asr r9
    78e8:	5f657275 	svcpl	0x00657275
    78ec:	00727470 	rsbseq	r7, r2, r0, ror r4
    78f0:	4c554e5f 	mrrcmi	14, 5, r4, r5, cr15
    78f4:	0030204c 	eorseq	r2, r0, ip, asr #32
    78f8:	6c665f5f 	stclvs	15, cr5, [r6], #-380	; 0xfffffe84
    78fc:	72617865 	rsbvc	r7, r1, #6619136	; 0x650000
    7900:	305b2072 	subscc	r2, fp, r2, ror r0
    7904:	5f5f005d 	svcpl	0x005f005d
    7908:	795f6d74 	ldmdbvc	pc, {r2, r4, r5, r6, r8, sl, fp, sp, lr}^	; <UNPREDICTABLE>
    790c:	00726165 	rsbseq	r6, r2, r5, ror #2
    7910:	45424841 	strbmi	r4, [r2, #-2113]	; 0xfffff7bf
    7914:	5f00524e 	svcpl	0x0000524e
    7918:	4e454552 	mcrmi	5, 2, r4, cr5, cr2, {2}
    791c:	4e495f54 	mcrmi	15, 2, r5, cr9, cr4, {2}
    7920:	505f5449 	subspl	r5, pc, r9, asr #8
    7924:	5a5f5254 	bpl	17dc27c <_Min_Stack_Size+0x17dbe7c>
    7928:	454f5245 	strbmi	r5, [pc, #-581]	; 76eb <_Min_Stack_Size+0x72eb>
    792c:	61762844 	cmnvs	r6, r4, asr #16
    7930:	7b202972 	blvc	811f00 <_Min_Stack_Size+0x811b00>
    7934:	61762820 	cmnvs	r6, r0, lsr #16
    7938:	3e2d2972 			; <UNDEFINED> instruction: 0x3e2d2972
    793c:	6474735f 	ldrbtvs	r7, [r4], #-863	; 0xfffffca1
    7940:	3d206e69 	stccc	14, cr6, [r0, #-420]!	; 0xfffffe5c
    7944:	5f5f2820 	svcpl	0x005f2820
    7948:	454c4946 	strbmi	r4, [ip, #-2374]	; 0xfffff6ba
    794c:	26292a20 	strtcs	r2, [r9], -r0, lsr #20
    7950:	66735f5f 	uhsaxvs	r5, r3, pc	; <UNPREDICTABLE>
    7954:	6b61665f 	blvs	18612d8 <_Min_Stack_Size+0x1860ed8>
    7958:	74735f65 	ldrbtvc	r5, [r3], #-3941	; 0xfffff09b
    795c:	3b6e6964 	blcc	1ba1ef4 <_Min_Stack_Size+0x1ba1af4>
    7960:	61762820 	cmnvs	r6, r0, lsr #16
    7964:	3e2d2972 			; <UNDEFINED> instruction: 0x3e2d2972
    7968:	6474735f 	ldrbtvs	r7, [r4], #-863	; 0xfffffca1
    796c:	2074756f 	rsbscs	r7, r4, pc, ror #10
    7970:	5f28203d 	svcpl	0x0028203d
    7974:	4c49465f 	mcrrmi	6, 5, r4, r9, cr15
    7978:	292a2045 	stmdbcs	sl!, {r0, r2, r6, sp}
    797c:	735f5f26 	cmpvc	pc, #38, 30	; 0x98
    7980:	61665f66 	cmnvs	r6, r6, ror #30
    7984:	735f656b 	cmpvc	pc, #448790528	; 0x1ac00000
    7988:	756f6474 	strbvc	r6, [pc, #-1140]!	; 751c <_Min_Stack_Size+0x711c>
    798c:	28203b74 	stmdacs	r0!, {r2, r4, r5, r6, r8, r9, fp, ip, sp}
    7990:	29726176 	ldmdbcs	r2!, {r1, r2, r4, r5, r6, r8, sp, lr}^
    7994:	735f3e2d 	cmpvc	pc, #720	; 0x2d0
    7998:	72656474 	rsbvc	r6, r5, #116, 8	; 0x74000000
    799c:	203d2072 	eorscs	r2, sp, r2, ror r0
    79a0:	465f5f28 	ldrbmi	r5, [pc], -r8, lsr #30
    79a4:	20454c49 	subcs	r4, r5, r9, asr #24
    79a8:	5f26292a 	svcpl	0x0026292a
    79ac:	5f66735f 	svcpl	0x0066735f
    79b0:	656b6166 	strbvs	r6, [fp, #-358]!	; 0xfffffe9a
    79b4:	6474735f 	ldrbtvs	r7, [r4], #-863	; 0xfffffca1
    79b8:	3b727265 	blcc	1ca4354 <_Min_Stack_Size+0x1ca3f54>
    79bc:	5f007d20 	svcpl	0x00007d20
    79c0:	544e495f 	strbpl	r4, [lr], #-2399	; 0xfffff6a1
    79c4:	4d5f3631 	ldclmi	6, cr3, [pc, #-196]	; 7908 <_Min_Stack_Size+0x7508>
    79c8:	5f5f5841 	svcpl	0x005f5841
    79cc:	37783020 	ldrbcc	r3, [r8, -r0, lsr #32]!
    79d0:	00666666 	rsbeq	r6, r6, r6, ror #12
    79d4:	59535f5f 	ldmdbpl	r3, {r0, r1, r2, r3, r4, r6, r8, r9, sl, fp, ip, lr}^
    79d8:	4f435f53 	svcmi	0x00435f53
    79dc:	4749464e 	strbmi	r4, [r9, -lr, asr #12]
    79e0:	5f5f485f 	svcpl	0x005f485f
    79e4:	5f5f0020 	svcpl	0x005f0020
    79e8:	4f564544 	svcmi	0x00564544
    79ec:	4954414c 	ldmdbmi	r4, {r2, r3, r6, r8, lr}^
    79f0:	7428454c 	strtvc	r4, [r8], #-1356	; 0xfffffab4
    79f4:	2c657079 	stclcs	0, cr7, [r5], #-484	; 0xfffffe1c
    79f8:	29726176 	ldmdbcs	r2!, {r1, r2, r4, r5, r6, r8, sp, lr}^
    79fc:	74282820 	strtvc	r2, [r8], #-2080	; 0xfffff7e0
    7a00:	29657079 	stmdbcs	r5!, {r0, r3, r4, r5, r6, ip, sp, lr}^
    7a04:	755f5f28 	ldrbvc	r5, [pc, #-3880]	; 6ae4 <_Min_Stack_Size+0x66e4>
    7a08:	70746e69 	rsbsvc	r6, r4, r9, ror #28
    7a0c:	745f7274 	ldrbvc	r7, [pc], #-628	; 7a14 <_Min_Stack_Size+0x7614>
    7a10:	6f762829 	svcvs	0x00762829
    7a14:	6974616c 	ldmdbvs	r4!, {r2, r3, r5, r6, r8, sp, lr}^
    7a18:	7620656c 	strtvc	r6, [r0], -ip, ror #10
    7a1c:	2064696f 	rsbcs	r6, r4, pc, ror #18
    7a20:	7628292a 	strtvc	r2, [r8], -sl, lsr #18
    7a24:	29297261 	stmdbcs	r9!, {r0, r5, r6, r9, ip, sp, lr}
    7a28:	49504700 	ldmdbmi	r0, {r8, r9, sl, lr}^
    7a2c:	49505f4f 	ldmdbmi	r0, {r0, r1, r2, r3, r6, r8, r9, sl, fp, ip, lr}^
    7a30:	35315f4e 	ldrcc	r5, [r1, #-3918]!	; 0xfffff0b2
    7a34:	75282820 	strvc	r2, [r8, #-2080]!	; 0xfffff7e0
    7a38:	31746e69 	cmncc	r4, r9, ror #28
    7a3c:	29745f36 	ldmdbcs	r4!, {r1, r2, r4, r5, r8, r9, sl, fp, ip, lr}^
    7a40:	30387830 	eorscc	r7, r8, r0, lsr r8
    7a44:	00293030 	eoreq	r3, r9, r0, lsr r0
    7a48:	53535f5f 	cmppl	r3, #380	; 0x17c
    7a4c:	4f465f50 	svcmi	0x00465f50
    7a50:	46495452 			; <UNDEFINED> instruction: 0x46495452
    7a54:	454c5f59 	strbmi	r5, [ip, #-3929]	; 0xfffff0a7
    7a58:	204c4556 	subcs	r4, ip, r6, asr r5
    7a5c:	5f5f0030 	svcpl	0x005f0030
    7a60:	43554e47 	cmpmi	r5, #1136	; 0x470
    7a64:	454b494c 	strbmi	r4, [fp, #-2380]	; 0xfffff6b4
    7a68:	4955425f 	ldmdbmi	r5, {r0, r1, r2, r3, r4, r6, r9, lr}^
    7a6c:	4e49544c 	cdpmi	4, 4, cr5, cr9, cr12, {2}
    7a70:	4454535f 	ldrbmi	r5, [r4], #-863	; 0xfffffca1
    7a74:	20475241 	subcs	r5, r7, r1, asr #4
    7a78:	5f5f0031 	svcpl	0x005f0031
    7a7c:	75736572 	ldrbvc	r6, [r3, #-1394]!	; 0xfffffa8e
    7a80:	755f746c 	ldrbvc	r7, [pc, #-1132]	; 761c <_Min_Stack_Size+0x721c>
    7a84:	635f6573 	cmpvs	pc, #482344960	; 0x1cc00000
    7a88:	6b636568 	blvs	18e1030 <_Min_Stack_Size+0x18e0c30>
    7a8c:	615f5f20 	cmpvs	pc, r0, lsr #30
    7a90:	69727474 	ldmdbvs	r2!, {r2, r4, r5, r6, sl, ip, sp, lr}^
    7a94:	65747562 	ldrbvs	r7, [r4, #-1378]!	; 0xfffffa9e
    7a98:	28285f5f 	stmdacs	r8!, {r0, r1, r2, r3, r4, r6, r8, r9, sl, fp, ip, lr}
    7a9c:	61775f5f 	cmnvs	r7, pc, asr pc
    7aa0:	755f6e72 	ldrbvc	r6, [pc, #-3698]	; 6c36 <_Min_Stack_Size+0x6836>
    7aa4:	6573756e 	ldrbvs	r7, [r3, #-1390]!	; 0xfffffa92
    7aa8:	65725f64 	ldrbvs	r5, [r2, #-3940]!	; 0xfffff09c
    7aac:	746c7573 	strbtvc	r7, [ip], #-1395	; 0xfffffa8d
    7ab0:	29295f5f 	stmdbcs	r9!, {r0, r1, r2, r3, r4, r6, r8, r9, sl, fp, ip, lr}
    7ab4:	585f5f00 	ldmdapl	pc, {r8, r9, sl, fp, ip, lr}^	; <UNPREDICTABLE>
    7ab8:	565f4953 			; <UNDEFINED> instruction: 0x565f4953
    7abc:	42495349 	submi	r5, r9, #603979777	; 0x24000001
    7ac0:	3020454c 	eorcc	r4, r0, ip, asr #10
    7ac4:	49504700 	ldmdbmi	r0, {r8, r9, sl, lr}^
    7ac8:	45525f4f 	ldrbmi	r5, [r2, #-3919]	; 0xfffff0b1
    7acc:	4e525554 	mrcmi	5, 2, r5, cr2, cr4, {2}
    7ad0:	434f4c5f 	movtmi	r4, #64607	; 0xfc5f
    7ad4:	4e455f4b 	cdpmi	15, 4, cr5, cr5, cr11, {2}
    7ad8:	454c4241 	strbmi	r4, [ip, #-577]	; 0xfffffdbf
    7adc:	00312044 	eorseq	r2, r1, r4, asr #32
    7ae0:	4349564e 	movtmi	r5, #38478	; 0x964e
    7ae4:	5152495f 	cmppl	r2, pc, asr r9
    7ae8:	58455f36 	stmdapl	r5, {r1, r2, r4, r5, r8, r9, sl, fp, ip, lr}^
    7aec:	5f344954 	svcpl	0x00344954
    7af0:	42414e45 	submi	r4, r1, #1104	; 0x450
    7af4:	2820454c 	stmdacs	r0!, {r2, r3, r6, r8, sl, lr}
    7af8:	4349564e 	movtmi	r5, #38478	; 0x964e
    7afc:	4553495f 	ldrbmi	r4, [r3, #-2399]	; 0xfffff6a1
    7b00:	7c203052 	stcvc	0, cr3, [r0], #-328	; 0xfffffeb8
    7b04:	3128203d 			; <UNDEFINED> instruction: 0x3128203d
    7b08:	30313c3c 	eorscc	r3, r1, ip, lsr ip
    7b0c:	45002929 	strmi	r2, [r0, #-2345]	; 0xfffff6d7
    7b10:	37495458 	smlsldcc	r5, r9, r8, r4
    7b14:	42003720 	andmi	r3, r0, #32, 14	; 0x800000
    7b18:	00525253 	subseq	r5, r2, r3, asr r2
    7b1c:	43475f5f 	movtmi	r5, #32607	; 0x7f5f
    7b20:	54415f43 	strbpl	r5, [r1], #-3907	; 0xfffff0bd
    7b24:	43494d4f 	movtmi	r4, #40271	; 0x9d4f
    7b28:	5345545f 	movtpl	r5, #21599	; 0x545f
    7b2c:	4e415f54 	mcrmi	15, 2, r5, cr1, cr4, {2}
    7b30:	45535f44 	ldrbmi	r5, [r3, #-3908]	; 0xfffff0bc
    7b34:	52545f54 	subspl	r5, r4, #84, 30	; 0x150
    7b38:	41564555 	cmpmi	r6, r5, asr r5
    7b3c:	0031204c 	eorseq	r2, r1, ip, asr #32
    7b40:	41465f5f 	cmpmi	r6, pc, asr pc
    7b44:	32335453 	eorscc	r5, r3, #1392508928	; 0x53000000
    7b48:	5f5f0020 	svcpl	0x005f0020
    7b4c:	5f474953 	svcpl	0x00474953
    7b50:	4d4f5441 	cfstrdmi	mvd5, [pc, #-260]	; 7a54 <_Min_Stack_Size+0x7654>
    7b54:	575f4349 	ldrbpl	r4, [pc, -r9, asr #6]
    7b58:	48544449 	ldmdami	r4, {r0, r3, r6, sl, lr}^
    7b5c:	33205f5f 			; <UNDEFINED> instruction: 0x33205f5f
    7b60:	5f5f0032 	svcpl	0x005f0032
    7b64:	36544c46 	ldrbcc	r4, [r4], -r6, asr #24
    7b68:	50455f34 	subpl	r5, r5, r4, lsr pc
    7b6c:	4f4c4953 	svcmi	0x004c4953
    7b70:	205f5f4e 	subscs	r5, pc, lr, asr #30
    7b74:	32322e32 	eorscc	r2, r2, #800	; 0x320
    7b78:	36343430 			; <UNDEFINED> instruction: 0x36343430
    7b7c:	32393430 	eorscc	r3, r9, #48, 8	; 0x30000000
    7b80:	31333035 	teqcc	r3, r5, lsr r0
    7b84:	2d653133 	stfcse	f3, [r5, #-204]!	; 0xffffff34
    7b88:	36463631 			; <UNDEFINED> instruction: 0x36463631
    7b8c:	525f0034 	subspl	r0, pc, #52	; 0x34
    7b90:	544e4545 	strbpl	r4, [lr], #-1349	; 0xfffffabb
    7b94:	494e495f 	stmdbmi	lr, {r0, r1, r2, r3, r4, r6, r8, fp, lr}^
    7b98:	54415f54 	strbpl	r5, [r1], #-3924	; 0xfffff0ac
    7b9c:	54495845 	strbpl	r5, [r9], #-2117	; 0xfffff7bb
    7ba0:	5f5f0020 	svcpl	0x005f0020
    7ba4:	43554e47 	cmpmi	r5, #1136	; 0x470
    7ba8:	4552505f 	ldrbmi	r5, [r2, #-95]	; 0xffffffa1
    7bac:	5f514552 	svcpl	0x00514552
    7bb0:	616d285f 	cmnvs	sp, pc, asr r8
    7bb4:	29696d2c 	stmdbcs	r9!, {r2, r3, r5, r8, sl, fp, sp, lr}^
    7bb8:	475f5f20 	ldrbmi	r5, [pc, -r0, lsr #30]
    7bbc:	5f43554e 	svcpl	0x0043554e
    7bc0:	52455250 	subpl	r5, r5, #80, 4
    7bc4:	6d285145 	stfvss	f5, [r8, #-276]!	; 0xfffffeec
    7bc8:	6d202c61 	stcvs	12, cr2, [r0, #-388]!	; 0xfffffe7c
    7bcc:	5f002969 	svcpl	0x00002969
    7bd0:	4154555f 	cmpmi	r4, pc, asr r5
    7bd4:	4942495f 	stmdbmi	r2, {r0, r1, r2, r3, r4, r6, r8, fp, lr}^
    7bd8:	205f5f54 	subscs	r5, pc, r4, asr pc	; <UNPREDICTABLE>
    7bdc:	5f003436 	svcpl	0x00003436
    7be0:	4c4c555f 	cfstr64mi	mvdx5, [ip], {95}	; 0x5f
    7be4:	55434341 	strbpl	r4, [r3, #-833]	; 0xfffffcbf
    7be8:	42495f4d 	submi	r5, r9, #308	; 0x134
    7bec:	5f5f5449 	svcpl	0x005f5449
    7bf0:	00323320 	eorseq	r3, r2, r0, lsr #6
    7bf4:	74735f5f 	ldrbtvc	r5, [r3], #-3935	; 0xfffff0a1
    7bf8:	676e6f72 			; <UNDEFINED> instruction: 0x676e6f72
    7bfc:	6665725f 			; <UNDEFINED> instruction: 0x6665725f
    7c00:	6e657265 	cdpvs	2, 6, cr7, cr5, cr5, {3}
    7c04:	73286563 			; <UNDEFINED> instruction: 0x73286563
    7c08:	612c6d79 			; <UNDEFINED> instruction: 0x612c6d79
    7c0c:	7361696c 	cmnvc	r1, #108, 18	; 0x1b0000
    7c10:	296d7973 	stmdbcs	sp!, {r0, r1, r4, r5, r6, r8, fp, ip, sp, lr}^
    7c14:	74786520 	ldrbtvc	r6, [r8], #-1312	; 0xfffffae0
    7c18:	206e7265 	rsbcs	r7, lr, r5, ror #4
    7c1c:	79745f5f 	ldmdbvc	r4!, {r0, r1, r2, r3, r4, r6, r8, r9, sl, fp, ip, lr}^
    7c20:	666f6570 			; <UNDEFINED> instruction: 0x666f6570
    7c24:	79732820 	ldmdbvc	r3!, {r5, fp, sp}^
    7c28:	6120296d 			; <UNDEFINED> instruction: 0x6120296d
    7c2c:	7361696c 	cmnvc	r1, #108, 18	; 0x1b0000
    7c30:	206d7973 	rsbcs	r7, sp, r3, ror r9
    7c34:	74615f5f 	strbtvc	r5, [r1], #-3935	; 0xfffff0a1
    7c38:	62697274 	rsbvs	r7, r9, #116, 4	; 0x40000007
    7c3c:	5f657475 	svcpl	0x00657475
    7c40:	2828205f 	stmdacs	r8!, {r0, r1, r2, r3, r4, r6, sp}
    7c44:	6c615f5f 	stclvs	15, cr5, [r1], #-380	; 0xfffffe84
    7c48:	5f736169 	svcpl	0x00736169
    7c4c:	2328205f 			; <UNDEFINED> instruction: 0x2328205f
    7c50:	296d7973 	stmdbcs	sp!, {r0, r1, r4, r5, r6, r8, fp, ip, sp, lr}^
    7c54:	47002929 	strmi	r2, [r0, -r9, lsr #18]
    7c58:	5f4f4950 	svcpl	0x004f4950
    7c5c:	65707954 	ldrbvs	r7, [r0, #-2388]!	; 0xfffff6ac
    7c60:	00666544 	rsbeq	r6, r6, r4, asr #10
    7c64:	4c555f5f 	mrrcmi	15, 5, r5, r5, cr15	; <UNPREDICTABLE>
    7c68:	4152464c 	cmpmi	r2, ip, asr #12
    7c6c:	455f5443 	ldrbmi	r5, [pc, #-1091]	; 7831 <_Min_Stack_Size+0x7431>
    7c70:	4c495350 	mcrrmi	3, 5, r5, r9, cr0
    7c74:	5f5f4e4f 	svcpl	0x005f4e4f
    7c78:	31783020 	cmncc	r8, r0, lsr #32
    7c7c:	34362d50 	ldrtcc	r2, [r6], #-3408	; 0xfffff2b0
    7c80:	524c4c55 	subpl	r4, ip, #21760	; 0x5500
    7c84:	49545f00 	ldmdbmi	r4, {r8, r9, sl, fp, ip, lr}^
    7c88:	5f52454d 	svcpl	0x0052454d
    7c8c:	75205f54 	strvc	r5, [r0, #-3924]!	; 0xfffff0ac
    7c90:	6769736e 	strbvs	r7, [r9, -lr, ror #6]!
    7c94:	2064656e 	rsbcs	r6, r4, lr, ror #10
    7c98:	676e6f6c 	strbvs	r6, [lr, -ip, ror #30]!
    7c9c:	626c5f00 	rsbvs	r5, ip, #0, 30
    7ca0:	7a697366 	bvc	1a64a40 <_Min_Stack_Size+0x1a64640>
    7ca4:	73550065 	cmpvc	r5, #101	; 0x65
    7ca8:	46656761 	strbtmi	r6, [r5], -r1, ror #14
    7cac:	746c7561 	strbtvc	r7, [ip], #-1377	; 0xfffffa9f
    7cb0:	6e61485f 	mcrvs	8, 3, r4, cr1, cr15, {2}
    7cb4:	72656c64 	rsbvc	r6, r5, #100, 24	; 0x6400
    7cb8:	54415f00 	strbpl	r5, [r1], #-3840	; 0xfffff100
    7cbc:	54495845 	strbpl	r5, [r9], #-2117	; 0xfffff7bb
    7cc0:	5a49535f 	bpl	125ca44 <_Min_Stack_Size+0x125c644>
    7cc4:	32332045 	eorscc	r2, r3, #69	; 0x45
    7cc8:	535f5f00 	cmppl	pc, #0, 30
    7ccc:	4f455a49 	svcmi	0x00455a49
    7cd0:	49575f46 	ldmdbmi	r7, {r1, r2, r6, r8, r9, sl, fp, ip, lr}^
    7cd4:	545f544e 	ldrbpl	r5, [pc], #-1102	; 7cdc <_Min_Stack_Size+0x78dc>
    7cd8:	34205f5f 	strtcc	r5, [r0], #-3935	; 0xfffff0a1
    7cdc:	6e695f00 	cdpvs	15, 6, cr5, cr9, cr0, {0}
    7ce0:	5f5f0064 	svcpl	0x005f0064
    7ce4:	5f4d5241 	svcpl	0x004d5241
    7ce8:	54414546 	strbpl	r4, [r1], #-1350	; 0xfffffaba
    7cec:	5f455255 	svcpl	0x00455255
    7cf0:	4c414e55 	mcrrmi	14, 5, r4, r1, cr5
    7cf4:	454e4749 	strbmi	r4, [lr, #-1865]	; 0xfffff8b7
    7cf8:	00312044 	eorseq	r2, r1, r4, asr #32
    7cfc:	54535f5f 	ldrbpl	r5, [r3], #-3935	; 0xfffff0a1
    7d00:	5f5f4344 	svcpl	0x005f4344
    7d04:	5f003120 	svcpl	0x00003120
    7d08:	42444c5f 	submi	r4, r4, #24320	; 0x5f00
    7d0c:	45445f4c 	strbmi	r5, [r4, #-3916]	; 0xfffff0b4
    7d10:	414d4943 	cmpmi	sp, r3, asr #18
    7d14:	49445f4c 	stmdbmi	r4, {r2, r3, r6, r8, r9, sl, fp, ip, lr}^
    7d18:	205f5f47 	subscs	r5, pc, r7, asr #30
    7d1c:	5f003731 	svcpl	0x00003731
    7d20:	554e475f 	strbpl	r4, [lr, #-1887]	; 0xfffff8a1
    7d24:	4b494c43 	blmi	125ae38 <_Min_Stack_Size+0x125aa38>
    7d28:	53415f45 	movtpl	r5, #8005	; 0x1f45
    7d2c:	0033204d 	eorseq	r2, r3, sp, asr #32
    7d30:	414c5f5f 	cmpmi	ip, pc, asr pc
    7d34:	4d554343 	ldclmi	3, cr4, [r5, #-268]	; 0xfffffef4
    7d38:	4e494d5f 	mcrmi	13, 2, r4, cr9, cr15, {2}
    7d3c:	28205f5f 	stmdacs	r0!, {r0, r1, r2, r3, r4, r6, r8, r9, sl, fp, ip, lr}
    7d40:	3158302d 	cmpcc	r8, sp, lsr #32
    7d44:	4c313350 	ldcmi	3, cr3, [r1], #-320	; 0xfffffec0
    7d48:	58302d4b 	ldmdapl	r0!, {r0, r1, r3, r6, r8, sl, fp, sp}
    7d4c:	31335031 	teqcc	r3, r1, lsr r0
    7d50:	00294b4c 	eoreq	r4, r9, ip, asr #22
    7d54:	4e495f5f 	mcrmi	15, 2, r5, cr9, cr15, {2}
    7d58:	41465f54 	cmpmi	r6, r4, asr pc
    7d5c:	5f385453 	svcpl	0x00385453
    7d60:	5f58414d 	svcpl	0x0058414d
    7d64:	7830205f 	ldmdavc	r0!, {r0, r1, r2, r3, r4, r6, sp}
    7d68:	66666637 			; <UNDEFINED> instruction: 0x66666637
    7d6c:	66666666 	strbtvs	r6, [r6], -r6, ror #12
    7d70:	465f5f00 	ldrbmi	r5, [pc], -r0, lsl #30
    7d74:	3233544c 	eorscc	r5, r3, #76, 8	; 0x4c000000
    7d78:	5341485f 	movtpl	r4, #6239	; 0x185f
    7d7c:	4e45445f 	mcrmi	4, 2, r4, cr5, cr15, {2}
    7d80:	5f4d524f 	svcpl	0x004d524f
    7d84:	0031205f 	eorseq	r2, r1, pc, asr r0
    7d88:	63735f5f 	cmnvs	r3, #380	; 0x17c
    7d8c:	6c666e61 	stclvs	14, cr6, [r6], #-388	; 0xfffffe7c
    7d90:	28656b69 	stmdacs	r5!, {r0, r3, r5, r6, r8, r9, fp, sp, lr}^
    7d94:	61746d66 	cmnvs	r4, r6, ror #26
    7d98:	662c6772 			; <UNDEFINED> instruction: 0x662c6772
    7d9c:	74737269 	ldrbtvc	r7, [r3], #-617	; 0xfffffd97
    7da0:	61726176 	cmnvs	r2, r6, ror r1
    7da4:	20296772 	eorcs	r6, r9, r2, ror r7
    7da8:	74615f5f 	strbtvc	r5, [r1], #-3935	; 0xfffff0a1
    7dac:	62697274 	rsbvs	r7, r9, #116, 4	; 0x40000007
    7db0:	5f657475 	svcpl	0x00657475
    7db4:	5f28285f 	svcpl	0x0028285f
    7db8:	726f665f 	rsbvc	r6, pc, #99614720	; 0x5f00000
    7dbc:	5f74616d 	svcpl	0x0074616d
    7dc0:	5f28205f 	svcpl	0x0028205f
    7dc4:	6163735f 	cmnvs	r3, pc, asr r3
    7dc8:	5f5f666e 	svcpl	0x005f666e
    7dcc:	6d66202c 	stclvs	0, cr2, [r6, #-176]!	; 0xffffff50
    7dd0:	67726174 			; <UNDEFINED> instruction: 0x67726174
    7dd4:	6966202c 	stmdbvs	r6!, {r2, r3, r5, sp}^
    7dd8:	76747372 			; <UNDEFINED> instruction: 0x76747372
    7ddc:	72617261 	rsbvc	r7, r1, #268435462	; 0x10000006
    7de0:	29292967 	stmdbcs	r9!, {r0, r1, r2, r5, r6, r8, fp, sp}
    7de4:	45525f00 	ldrbmi	r5, [r2, #-3840]	; 0xfffff100
    7de8:	5f544e45 	svcpl	0x00544e45
    7dec:	4c414d53 	mcrrmi	13, 5, r4, r1, cr3
    7df0:	4700204c 	strmi	r2, [r0, -ip, asr #32]
    7df4:	5f4f4950 	svcpl	0x004f4950
    7df8:	45444f4d 	strbmi	r4, [r4, #-3917]	; 0xfffff0b3
    7dfc:	54554f5f 	ldrbpl	r4, [r5], #-3935	; 0xfffff0a1
    7e00:	5f545550 	svcpl	0x00545550
    7e04:	505f4641 	subspl	r4, pc, r1, asr #12
    7e08:	78302050 	ldmdavc	r0!, {r4, r6, sp}
    7e0c:	30303030 	eorscc	r3, r0, r0, lsr r0
    7e10:	36303030 			; <UNDEFINED> instruction: 0x36303030
    7e14:	5f5f0075 	svcpl	0x005f0075
    7e18:	414c4c55 	cmpmi	ip, r5, asr ip
    7e1c:	4d554343 	ldclmi	3, cr4, [r5, #-268]	; 0xfffffef4
    7e20:	4e494d5f 	mcrmi	13, 2, r4, cr9, cr15, {2}
    7e24:	30205f5f 	eorcc	r5, r0, pc, asr pc
    7e28:	4c55302e 	mrrcmi	0, 2, r3, r5, cr14
    7e2c:	5f004b4c 	svcpl	0x00004b4c
    7e30:	5f535953 	svcpl	0x00535953
    7e34:	5059545f 	subspl	r5, r9, pc, asr r4
    7e38:	485f5345 	ldmdami	pc, {r0, r2, r6, r8, r9, ip, lr}^	; <UNPREDICTABLE>
    7e3c:	5f5f0020 	svcpl	0x005f0020
    7e40:	5f544e49 	svcpl	0x00544e49
    7e44:	54534146 	ldrbpl	r4, [r3], #-326	; 0xfffffeba
    7e48:	575f3233 	smmlarpl	pc, r3, r2, r3	; <UNPREDICTABLE>
    7e4c:	48544449 	ldmdami	r4, {r0, r3, r6, sl, lr}^
    7e50:	33205f5f 			; <UNDEFINED> instruction: 0x33205f5f
    7e54:	525f0032 	subspl	r0, pc, #50	; 0x32
    7e58:	34444e41 	strbcc	r4, [r4], #-3649	; 0xfffff1bf
    7e5c:	554d5f38 	strbpl	r5, [sp, #-3896]	; 0xfffff0c8
    7e60:	305f544c 	subscc	r5, pc, ip, asr #8
    7e64:	78302820 	ldmdavc	r0!, {r5, fp, sp}
    7e68:	64363665 	ldrtvs	r3, [r6], #-1637	; 0xfffff99b
    7e6c:	695f0029 	ldmdbvs	pc, {r0, r3, r5}^	; <UNPREDICTABLE>
    7e70:	78635f73 	stmdavc	r3!, {r0, r1, r4, r5, r6, r8, r9, sl, fp, ip, lr}^
    7e74:	5f5f0061 	svcpl	0x005f0061
    7e78:	43554e47 	cmpmi	r5, #1136	; 0x470
    7e7c:	454b494c 	strbmi	r4, [fp, #-2380]	; 0xfffff6b4
    7e80:	4955425f 	ldmdbmi	r5, {r0, r1, r2, r3, r4, r6, r9, lr}^
    7e84:	4e49544c 	cdpmi	4, 4, cr5, cr9, cr12, {2}
    7e88:	4141565f 	cmpmi	r1, pc, asr r6
    7e8c:	5453494c 	ldrbpl	r4, [r3], #-2380	; 0xfffff6b4
    7e90:	5f003120 	svcpl	0x00003120
    7e94:	4c57454e 	cfldr64mi	mvdx4, [r7], {78}	; 0x4e
    7e98:	415f4249 	cmpmi	pc, r9, asr #4
    7e9c:	434f4c4c 	movtmi	r4, #64588	; 0xfc4c
    7ea0:	20485f41 	subcs	r5, r8, r1, asr #30
    7ea4:	495f5f00 	ldmdbmi	pc, {r8, r9, sl, fp, ip, lr}^	; <UNPREDICTABLE>
    7ea8:	3233544e 	eorscc	r5, r3, #1308622848	; 0x4e000000
    7eac:	226c2220 	rsbcs	r2, ip, #32, 4
    7eb0:	415f5f00 	cmpmi	pc, r0, lsl #30
    7eb4:	415f4d52 	cmpmi	pc, r2, asr sp	; <UNPREDICTABLE>
    7eb8:	535f4d53 	cmppl	pc, #5312	; 0x14c0
    7ebc:	41544e59 	cmpmi	r4, r9, asr lr
    7ec0:	4e555f58 	mrcmi	15, 2, r5, cr5, cr8, {2}
    7ec4:	45494649 	strbmi	r4, [r9, #-1609]	; 0xfffff9b7
    7ec8:	205f5f44 	subscs	r5, pc, r4, asr #30
    7ecc:	74730031 	ldrbtvc	r0, [r3], #-49	; 0xffffffcf
    7ed0:	646f7472 	strbtvs	r7, [pc], #-1138	; 7ed8 <_Min_Stack_Size+0x7ad8>
    7ed4:	74732066 	ldrbtvc	r2, [r3], #-102	; 0xffffff9a
    7ed8:	666f7472 			; <UNDEFINED> instruction: 0x666f7472
    7edc:	555f5f00 	ldrbpl	r5, [pc, #-3840]	; 6fe4 <_Min_Stack_Size+0x6be4>
    7ee0:	33544e49 	cmpcc	r4, #1168	; 0x490
    7ee4:	59545f32 	ldmdbpl	r4, {r1, r4, r5, r8, r9, sl, fp, ip, lr}^
    7ee8:	5f5f4550 	svcpl	0x005f4550
    7eec:	6e6f6c20 	cdpvs	12, 6, cr6, cr15, cr0, {1}
    7ef0:	6e752067 	cdpvs	0, 7, cr2, cr5, cr7, {3}
    7ef4:	6e676973 			; <UNDEFINED> instruction: 0x6e676973
    7ef8:	69206465 	stmdbvs	r0!, {r0, r2, r5, r6, sl, sp, lr}
    7efc:	5f00746e 	svcpl	0x0000746e
    7f00:	554e475f 	strbpl	r4, [lr, #-1887]	; 0xfffff8a1
    7f04:	4b494c43 	blmi	125b018 <_Min_Stack_Size+0x125ac18>
    7f08:	414d5f45 	cmpmi	sp, r5, asr #30
    7f0c:	425f4854 	subsmi	r4, pc, #84, 16	; 0x540000
    7f10:	544c4955 	strbpl	r4, [ip], #-2389	; 0xfffff6ab
    7f14:	435f4e49 	cmpmi	pc, #1168	; 0x490
    7f18:	54534e4f 	ldrbpl	r4, [r3], #-3663	; 0xfffff1b1
    7f1c:	53544e41 	cmppl	r4, #1040	; 0x410
    7f20:	58450020 	stmdapl	r5, {r5}^
    7f24:	50314954 	eorspl	r4, r1, r4, asr r9
    7f28:	28203141 	stmdacs	r0!, {r0, r6, r8, ip, sp}
    7f2c:	49545845 	ldmdbmi	r4, {r0, r2, r6, fp, ip, lr}^
    7f30:	4950475f 	ldmdbmi	r0, {r0, r1, r2, r3, r4, r6, r8, r9, sl, lr}^
    7f34:	614d5f4f 	cmpvs	sp, pc, asr #30
    7f38:	6e697070 	mcrvs	0, 3, r7, cr9, cr0, {3}
    7f3c:	29745f67 	ldmdbcs	r4!, {r0, r1, r2, r5, r6, r8, r9, sl, fp, ip, lr}^
    7f40:	5458457b 	ldrbpl	r4, [r8], #-1403	; 0xfffffa85
    7f44:	202c3149 	eorcs	r3, ip, r9, asr #2
    7f48:	4f495047 	svcmi	0x00495047
    7f4c:	47202c41 	strmi	r2, [r0, -r1, asr #24]!
    7f50:	5f4f4950 	svcpl	0x004f4950
    7f54:	5f4e4950 	svcpl	0x004e4950
    7f58:	45202c31 	strmi	r2, [r0, #-3121]!	; 0xfffff3cf
    7f5c:	31495458 	cmpcc	r9, r8, asr r4
    7f60:	5152495f 	cmppl	r2, pc, asr r9
    7f64:	5f007d20 	svcpl	0x00007d20
    7f68:	7568745f 	strbvc	r7, [r8, #-1119]!	; 0xfffffba1
    7f6c:	5f32626d 	svcpl	0x0032626d
    7f70:	0031205f 	eorseq	r2, r1, pc, asr r0
    7f74:	72706d5f 	rsbsvc	r6, r0, #6080	; 0x17c0
    7f78:	5f006365 	svcpl	0x00006365
    7f7c:	41464544 	cmpmi	r6, r4, asr #10
    7f80:	5f544c55 	svcpl	0x00544c55
    7f84:	52554f53 	subspl	r4, r5, #332	; 0x14c
    7f88:	73004543 	movwvc	r4, #1347	; 0x543
    7f8c:	74726f68 	ldrbtvc	r6, [r2], #-3944	; 0xfffff098
    7f90:	00312b20 	eorseq	r2, r1, r0, lsr #22
    7f94:	4343475f 	movtmi	r4, #14175	; 0x375f
    7f98:	5a49535f 	bpl	125cd1c <_Min_Stack_Size+0x125c91c>
    7f9c:	20545f45 	subscs	r5, r4, r5, asr #30
    7fa0:	696d5f00 	stmdbvs	sp!, {r8, r9, sl, fp, ip, lr}^
    7fa4:	5f006373 	svcpl	0x00006373
    7fa8:	4c4c555f 	cfstr64mi	mvdx5, [ip], {95}	; 0x5f
    7fac:	43415246 	movtmi	r5, #4678	; 0x1246
    7fb0:	494d5f54 	stmdbmi	sp, {r2, r4, r6, r8, r9, sl, fp, ip, lr}^
    7fb4:	205f5f4e 	subscs	r5, pc, lr, asr #30
    7fb8:	55302e30 	ldrpl	r2, [r0, #-3632]!	; 0xfffff1d0
    7fbc:	00524c4c 	subseq	r4, r2, ip, asr #24
    7fc0:	575f545f 			; <UNDEFINED> instruction: 0x575f545f
    7fc4:	52414843 	subpl	r4, r1, #4390912	; 0x430000
    7fc8:	5f00205f 	svcpl	0x0000205f
    7fcc:	61636f6c 	cmnvs	r3, ip, ror #30
    7fd0:	5f00656c 	svcpl	0x0000656c
    7fd4:	6f4c555f 	svcvs	0x004c555f
    7fd8:	5f00676e 	svcpl	0x0000676e
    7fdc:	4d52415f 	ldfmie	f4, [r2, #-380]	; 0xfffffe84
    7fe0:	3150465f 	cmpcc	r0, pc, asr r6
    7fe4:	52415f36 	subpl	r5, r1, #54, 30	; 0xd8
    7fe8:	5f005347 	svcpl	0x00005347
    7fec:	636f6c5f 	cmnvs	pc, #24320	; 0x5f00
    7ff0:	65725f6b 	ldrbvs	r5, [r2, #-3947]!	; 0xfffff095
    7ff4:	7361656c 	cmnvc	r1, #108, 10	; 0x1b000000
    7ff8:	6f6c2865 	svcvs	0x006c2865
    7ffc:	20296b63 	eorcs	r6, r9, r3, ror #22
    8000:	6f762828 	svcvs	0x00762828
    8004:	20296469 	eorcs	r6, r9, r9, ror #8
    8008:	5f002930 	svcpl	0x00002930
    800c:	5a49535f 	bpl	125cd90 <_Min_Stack_Size+0x125c990>
    8010:	5f464f45 	svcpl	0x00464f45
    8014:	5f544e49 	svcpl	0x00544e49
    8018:	0034205f 	eorseq	r2, r4, pc, asr r0
    801c:	4453425f 	ldrbmi	r4, [r3], #-607	; 0xfffffda1
    8020:	4843575f 	stmdami	r3, {r0, r1, r2, r3, r4, r6, r8, r9, sl, ip, lr}^
    8024:	545f5241 	ldrbpl	r5, [pc], #-577	; 802c <_Min_Stack_Size+0x7c2c>
    8028:	5f5f005f 	svcpl	0x005f005f
    802c:	52464c4c 	subpl	r4, r6, #76, 24	; 0x4c00
    8030:	5f544341 	svcpl	0x00544341
    8034:	54494249 	strbpl	r4, [r9], #-585	; 0xfffffdb7
    8038:	30205f5f 	eorcc	r5, r0, pc, asr pc
    803c:	435f5f00 	cmpmi	pc, #0, 30
    8040:	55535f43 	ldrbpl	r5, [r3, #-3907]	; 0xfffff0bd
    8044:	524f5050 	subpl	r5, pc, #80	; 0x50
    8048:	565f5354 			; <UNDEFINED> instruction: 0x565f5354
    804c:	44415241 	strbmi	r5, [r1], #-577	; 0xfffffdbf
    8050:	585f4349 	ldmdapl	pc, {r0, r3, r6, r8, r9, lr}^	; <UNPREDICTABLE>
    8054:	31205858 			; <UNDEFINED> instruction: 0x31205858
    8058:	54584500 	ldrbpl	r4, [r8], #-1280	; 0xfffffb00
    805c:	41503949 	cmpmi	r0, r9, asr #18
    8060:	45282039 	strmi	r2, [r8, #-57]!	; 0xffffffc7
    8064:	5f495458 	svcpl	0x00495458
    8068:	4f495047 	svcmi	0x00495047
    806c:	70614d5f 	rsbvc	r4, r1, pc, asr sp
    8070:	676e6970 			; <UNDEFINED> instruction: 0x676e6970
    8074:	7b29745f 	blvc	a651f8 <_Min_Stack_Size+0xa64df8>
    8078:	49545845 	ldmdbmi	r4, {r0, r2, r6, fp, ip, lr}^
    807c:	47202c39 			; <UNDEFINED> instruction: 0x47202c39
    8080:	414f4950 	cmpmi	pc, r0, asr r9	; <UNPREDICTABLE>
    8084:	5047202c 	subpl	r2, r7, ip, lsr #32
    8088:	505f4f49 	subspl	r4, pc, r9, asr #30
    808c:	395f4e49 	ldmdbcc	pc, {r0, r3, r6, r9, sl, fp, lr}^	; <UNPREDICTABLE>
    8090:	5845202c 	stmdapl	r5, {r2, r3, r5, sp}^
    8094:	5f394954 	svcpl	0x00394954
    8098:	20515249 	subscs	r5, r1, r9, asr #4
    809c:	735f007d 	cmpvc	pc, #125	; 0x7d
    80a0:	00657a69 	rsbeq	r7, r5, r9, ror #20
    80a4:	5359535f 	cmppl	r9, #2080374785	; 0x7c000001
    80a8:	4e495f5f 	mcrmi	15, 2, r5, cr9, cr15, {2}
    80ac:	50555354 	subspl	r5, r5, r4, asr r3
    80b0:	0020485f 	eoreq	r4, r0, pc, asr r8
    80b4:	41535f5f 	cmpmi	r3, pc, asr pc
    80b8:	4d554343 	ldclmi	3, cr4, [r5, #-268]	; 0xfffffef4
    80bc:	5350455f 	cmppl	r0, #398458880	; 0x17c00000
    80c0:	4e4f4c49 	cdpmi	12, 4, cr4, cr15, cr9, {2}
    80c4:	30205f5f 	eorcc	r5, r0, pc, asr pc
    80c8:	2d503178 	ldfcse	f3, [r0, #-480]	; 0xfffffe20
    80cc:	004b4837 	subeq	r4, fp, r7, lsr r8
    80d0:	7365725f 	cmnvc	r5, #-268435451	; 0xf0000005
    80d4:	00746c75 	rsbseq	r6, r4, r5, ror ip
    80d8:	5f544e49 	svcpl	0x00544e49
    80dc:	54534146 	ldrbpl	r4, [r3], #-326	; 0xfffffeba
    80e0:	4d5f3436 	cfldrdmi	mvd3, [pc, #-216]	; 8010 <_Min_Stack_Size+0x7c10>
    80e4:	28205841 	stmdacs	r0!, {r0, r6, fp, ip, lr}
    80e8:	4e495f5f 	mcrmi	15, 2, r5, cr9, cr15, {2}
    80ec:	41465f54 	cmpmi	r6, r4, asr pc
    80f0:	34365453 	ldrtcc	r5, [r6], #-1107	; 0xfffffbad
    80f4:	58414d5f 	stmdapl	r1, {r0, r1, r2, r3, r4, r6, r8, sl, fp, lr}^
    80f8:	00295f5f 	eoreq	r5, r9, pc, asr pc
    80fc:	534f505f 	movtpl	r5, #61535	; 0xf05f
    8100:	535f5849 	cmppl	pc, #4784128	; 0x490000
    8104:	4352554f 	cmpmi	r2, #331350016	; 0x13c00000
    8108:	00312045 	eorseq	r2, r1, r5, asr #32
    810c:	4f495047 	svcmi	0x00495047
    8110:	444f4d5f 	strbmi	r4, [pc], #-3423	; 8118 <_Min_Stack_Size+0x7d18>
    8114:	46415f45 	strbmi	r5, [r1], -r5, asr #30
    8118:	504e495f 	subpl	r4, lr, pc, asr r9
    811c:	30205455 	eorcc	r5, r0, r5, asr r4
    8120:	30303078 	eorscc	r3, r0, r8, ror r0
    8124:	30303030 	eorscc	r3, r0, r0, lsr r0
    8128:	5f007538 	svcpl	0x00007538
    812c:	4e49555f 	mcrmi	5, 2, r5, cr9, cr15, {2}
    8130:	41465f54 	cmpmi	r6, r4, asr pc
    8134:	36315453 			; <UNDEFINED> instruction: 0x36315453
    8138:	5059545f 	subspl	r5, r9, pc, asr r4
    813c:	205f5f45 	subscs	r5, pc, r5, asr #30
    8140:	69736e75 	ldmdbvs	r3!, {r0, r2, r4, r5, r6, r9, sl, fp, sp, lr}^
    8144:	64656e67 	strbtvs	r6, [r5], #-3687	; 0xfffff199
    8148:	746e6920 	strbtvc	r6, [lr], #-2336	; 0xfffff6e0
    814c:	555f5f00 	ldrbpl	r5, [pc, #-3840]	; 7254 <_Min_Stack_Size+0x6e54>
    8150:	495f4148 	ldmdbmi	pc, {r3, r6, r8, lr}^	; <UNPREDICTABLE>
    8154:	5f544942 	svcpl	0x00544942
    8158:	0038205f 	eorseq	r2, r8, pc, asr r0
    815c:	656e5f5f 	strbvs	r5, [lr, #-3935]!	; 0xfffff0a1
    8160:	775f6465 	ldrbvc	r6, [pc, -r5, ror #8]
    8164:	5f746e69 	svcpl	0x00746e69
    8168:	5f002074 	svcpl	0x00002074
    816c:	4343415f 	movtmi	r4, #12639	; 0x315f
    8170:	455f4d55 	ldrbmi	r4, [pc, #-3413]	; 7423 <_Min_Stack_Size+0x7023>
    8174:	4c495350 	mcrrmi	3, 5, r5, r9, cr0
    8178:	5f5f4e4f 	svcpl	0x005f4e4f
    817c:	31783020 	cmncc	r8, r0, lsr #32
    8180:	35312d50 	ldrcc	r2, [r1, #-3408]!	; 0xfffff2b0
    8184:	5f5f004b 	svcpl	0x005f004b
    8188:	43414c55 	movtmi	r4, #7253	; 0x1c55
    818c:	5f4d5543 	svcpl	0x004d5543
    8190:	49535045 	ldmdbmi	r3, {r0, r2, r6, ip, lr}^
    8194:	5f4e4f4c 	svcpl	0x004e4f4c
    8198:	7830205f 	ldmdavc	r0!, {r0, r1, r2, r3, r4, r6, sp}
    819c:	332d5031 			; <UNDEFINED> instruction: 0x332d5031
    81a0:	4b4c5532 	blmi	131d670 <_Min_Stack_Size+0x131d270>
    81a4:	4c5f5f00 	mrrcmi	15, 0, r5, pc, cr0	; <UNPREDICTABLE>
    81a8:	5f4c4244 	svcpl	0x004c4244
    81ac:	5f474944 	svcpl	0x00474944
    81b0:	3531205f 	ldrcc	r2, [r1, #-95]!	; 0xffffffa1
    81b4:	54584500 	ldrbpl	r4, [r8], #-1280	; 0xfffffb00
    81b8:	43503549 	cmpmi	r0, #306184192	; 0x12400000
    81bc:	45282035 	strmi	r2, [r8, #-53]!	; 0xffffffcb
    81c0:	5f495458 	svcpl	0x00495458
    81c4:	4f495047 	svcmi	0x00495047
    81c8:	70614d5f 	rsbvc	r4, r1, pc, asr sp
    81cc:	676e6970 			; <UNDEFINED> instruction: 0x676e6970
    81d0:	7b29745f 	blvc	a65354 <_Min_Stack_Size+0xa64f54>
    81d4:	49545845 	ldmdbmi	r4, {r0, r2, r6, fp, ip, lr}^
    81d8:	47202c35 			; <UNDEFINED> instruction: 0x47202c35
    81dc:	434f4950 	movtmi	r4, #63824	; 0xf950
    81e0:	5047202c 	subpl	r2, r7, ip, lsr #32
    81e4:	505f4f49 	subspl	r4, pc, r9, asr #30
    81e8:	355f4e49 	ldrbcc	r4, [pc, #-3657]	; 73a7 <_Min_Stack_Size+0x6fa7>
    81ec:	5845202c 	stmdapl	r5, {r2, r3, r5, sp}^
    81f0:	5f354954 	svcpl	0x00354954
    81f4:	20515249 	subscs	r5, r1, r9, asr #4
    81f8:	5f5f007d 	svcpl	0x005f007d
    81fc:	5f4c4244 	svcpl	0x004c4244
    8200:	5f4e494d 	svcpl	0x004e494d
    8204:	2828205f 	stmdacs	r8!, {r0, r1, r2, r3, r4, r6, sp}
    8208:	62756f64 	rsbsvs	r6, r5, #100, 30	; 0x190
    820c:	3229656c 	eorcc	r6, r9, #108, 10	; 0x1b000000
    8210:	3532322e 	ldrcc	r3, [r2, #-558]!	; 0xfffffdd2
    8214:	38333730 	ldmdacc	r3!, {r4, r5, r8, r9, sl, ip, sp}
    8218:	30353835 	eorscc	r3, r5, r5, lsr r8
    821c:	31303237 	teqcc	r0, r7, lsr r2
    8220:	332d6534 			; <UNDEFINED> instruction: 0x332d6534
    8224:	294c3830 	stmdbcs	ip, {r4, r5, fp, ip, sp}^
    8228:	535f5f00 	cmppl	pc, #0, 30
    822c:	5f455a49 	svcpl	0x00455a49
    8230:	54444957 	strbpl	r4, [r4], #-2391	; 0xfffff6a9
    8234:	205f5f48 	subscs	r5, pc, r8, asr #30
    8238:	5f003233 	svcpl	0x00003233
    823c:	4e454552 	mcrmi	5, 2, r4, cr5, cr2, {2}
    8240:	504d5f54 	subpl	r5, sp, r4, asr pc
    8244:	5345525f 	movtpl	r5, #21087	; 0x525f
    8248:	28544c55 	ldmdacs	r4, {r0, r2, r4, r6, sl, fp, lr}^
    824c:	29727470 	ldmdbcs	r2!, {r4, r5, r6, sl, ip, sp, lr}^
    8250:	70282820 	eorvc	r2, r8, r0, lsr #16
    8254:	2d297274 	sfmcs	f7, 4, [r9, #-464]!	; 0xfffffe30
    8258:	706d5f3e 	rsbvc	r5, sp, lr, lsr pc
    825c:	725f3e2d 	subsvc	r3, pc, #720	; 0x2d0
    8260:	6c757365 	ldclvs	3, cr7, [r5], #-404	; 0xfffffe6c
    8264:	45002974 	strmi	r2, [r0, #-2420]	; 0xfffff68c
    8268:	34495458 	strbcc	r5, [r9], #-1112	; 0xfffffba8
    826c:	20344250 	eorscs	r4, r4, r0, asr r2
    8270:	54584528 	ldrbpl	r4, [r8], #-1320	; 0xfffffad8
    8274:	50475f49 	subpl	r5, r7, r9, asr #30
    8278:	4d5f4f49 	ldclmi	15, cr4, [pc, #-292]	; 815c <_Min_Stack_Size+0x7d5c>
    827c:	69707061 	ldmdbvs	r0!, {r0, r5, r6, ip, sp, lr}^
    8280:	745f676e 	ldrbvc	r6, [pc], #-1902	; 8288 <_Min_Stack_Size+0x7e88>
    8284:	58457b29 	stmdapl	r5, {r0, r3, r5, r8, r9, fp, ip, sp, lr}^
    8288:	2c344954 			; <UNDEFINED> instruction: 0x2c344954
    828c:	49504720 	ldmdbmi	r0, {r5, r8, r9, sl, lr}^
    8290:	202c424f 	eorcs	r4, ip, pc, asr #4
    8294:	4f495047 	svcmi	0x00495047
    8298:	4e49505f 	mcrmi	0, 2, r5, cr9, cr15, {2}
    829c:	202c345f 	eorcs	r3, ip, pc, asr r4
    82a0:	49545845 	ldmdbmi	r4, {r0, r2, r6, fp, ip, lr}^
    82a4:	52495f34 	subpl	r5, r9, #52, 30	; 0xd0
    82a8:	007d2051 	rsbseq	r2, sp, r1, asr r0
    82ac:	49575f5f 	ldmdbmi	r7, {r0, r1, r2, r3, r4, r6, r8, r9, sl, fp, ip, lr}^
    82b0:	4d5f544e 	cfldrdmi	mvd5, [pc, #-312]	; 8180 <_Min_Stack_Size+0x7d80>
    82b4:	5f5f4e49 	svcpl	0x005f4e49
    82b8:	00553020 	subseq	r3, r5, r0, lsr #32
    82bc:	49545845 	ldmdbmi	r4, {r0, r2, r6, fp, ip, lr}^
    82c0:	41503031 	cmpmi	r0, r1, lsr r0
    82c4:	28203031 	stmdacs	r0!, {r0, r4, r5, ip, sp}
    82c8:	49545845 	ldmdbmi	r4, {r0, r2, r6, fp, ip, lr}^
    82cc:	4950475f 	ldmdbmi	r0, {r0, r1, r2, r3, r4, r6, r8, r9, sl, lr}^
    82d0:	614d5f4f 	cmpvs	sp, pc, asr #30
    82d4:	6e697070 	mcrvs	0, 3, r7, cr9, cr0, {3}
    82d8:	29745f67 	ldmdbcs	r4!, {r0, r1, r2, r5, r6, r8, r9, sl, fp, ip, lr}^
    82dc:	5458457b 	ldrbpl	r4, [r8], #-1403	; 0xfffffa85
    82e0:	2c303149 	ldfcss	f3, [r0], #-292	; 0xfffffedc
    82e4:	49504720 	ldmdbmi	r0, {r5, r8, r9, sl, lr}^
    82e8:	202c414f 	eorcs	r4, ip, pc, asr #2
    82ec:	4f495047 	svcmi	0x00495047
    82f0:	4e49505f 	mcrmi	0, 2, r5, cr9, cr15, {2}
    82f4:	2c30315f 	ldfcss	f3, [r0], #-380	; 0xfffffe84
    82f8:	54584520 	ldrbpl	r4, [r8], #-1312	; 0xfffffae0
    82fc:	5f303149 	svcpl	0x00303149
    8300:	20515249 	subscs	r5, r1, r9, asr #4
    8304:	6f5f007d 	svcvs	0x005f007d
    8308:	745f6666 	ldrbvc	r6, [pc], #-1638	; 8310 <_Min_Stack_Size+0x7f10>
    830c:	465f5f00 	ldrbmi	r5, [pc], -r0, lsl #30
    8310:	3436544c 	ldrtcc	r5, [r6], #-1100	; 0xfffffbb4
    8314:	4749445f 	smlsldmi	r4, r9, pc, r4	; <UNPREDICTABLE>
    8318:	31205f5f 			; <UNDEFINED> instruction: 0x31205f5f
    831c:	5f5f0035 	svcpl	0x005f0035
    8320:	36434544 	strbcc	r4, [r3], -r4, asr #10
    8324:	50455f34 	subpl	r5, r5, r4, lsr pc
    8328:	4f4c4953 	svcmi	0x004c4953
    832c:	205f5f4e 	subscs	r5, pc, lr, asr #30
    8330:	312d4531 			; <UNDEFINED> instruction: 0x312d4531
    8334:	00444435 	subeq	r4, r4, r5, lsr r4
    8338:	49575f5f 	ldmdbmi	r7, {r0, r1, r2, r3, r4, r6, r8, r9, sl, fp, ip, lr}^
    833c:	4d5f544e 	cfldrdmi	mvd5, [pc, #-312]	; 820c <_Min_Stack_Size+0x7e0c>
    8340:	5f5f5841 	svcpl	0x005f5841
    8344:	66783020 	ldrbtvs	r3, [r8], -r0, lsr #32
    8348:	66666666 	strbtvs	r6, [r6], -r6, ror #12
    834c:	55666666 	strbpl	r6, [r6, #-1638]!	; 0xfffff99a
    8350:	49564e00 	ldmdbmi	r6, {r9, sl, fp, lr}^
    8354:	52495f43 	subpl	r5, r9, #268	; 0x10c
    8358:	455f3651 	ldrbmi	r3, [pc, #-1617]	; 7d0f <_Min_Stack_Size+0x790f>
    835c:	30495458 	subcc	r5, r9, r8, asr r4
    8360:	5349445f 	movtpl	r4, #37983	; 0x945f
    8364:	454c4241 	strbmi	r4, [ip, #-577]	; 0xfffffdbf
    8368:	564e2820 	strbpl	r2, [lr], -r0, lsr #16
    836c:	495f4349 	ldmdbmi	pc, {r0, r3, r6, r8, r9, lr}^	; <UNPREDICTABLE>
    8370:	30524543 	subscc	r4, r2, r3, asr #10
    8374:	203d7c20 	eorscs	r7, sp, r0, lsr #24
    8378:	3c3c3128 	ldfccs	f3, [ip], #-160	; 0xffffff60
    837c:	00292936 	eoreq	r2, r9, r6, lsr r9
    8380:	4e495f5f 	mcrmi	15, 2, r5, cr9, cr15, {2}
    8384:	454c5f54 	strbmi	r5, [ip, #-3924]	; 0xfffff0ac
    8388:	38545341 	ldmdacc	r4, {r0, r6, r8, r9, ip, lr}^
    838c:	4449575f 	strbmi	r5, [r9], #-1887	; 0xfffff8a1
    8390:	5f5f4854 	svcpl	0x005f4854
    8394:	5f003820 	svcpl	0x00003820
    8398:	4e454552 	mcrmi	5, 2, r4, cr5, cr2, {2}
    839c:	504d5f54 	subpl	r5, sp, r4, asr pc
    83a0:	5345525f 	movtpl	r5, #21087	; 0x525f
    83a4:	5f544c55 	svcpl	0x00544c55
    83a8:	7470284b 	ldrbtvc	r2, [r0], #-2123	; 0xfffff7b5
    83ac:	28202972 	stmdacs	r0!, {r1, r4, r5, r6, r8, fp, sp}
    83b0:	72747028 	rsbsvc	r7, r4, #40	; 0x28
    83b4:	5f3e2d29 	svcpl	0x003e2d29
    83b8:	3e2d706d 	cdpcc	0, 2, cr7, cr13, cr13, {3}
    83bc:	7365725f 	cmnvc	r5, #-268435451	; 0xf0000005
    83c0:	5f746c75 	svcpl	0x00746c75
    83c4:	5f00296b 	svcpl	0x0000296b
    83c8:	6e6f6c5f 	mcrvs	12, 3, r6, cr15, cr15, {2}
    83cc:	6f645f67 	svcvs	0x00645f67
    83d0:	656c6275 	strbvs	r6, [ip, #-629]!	; 0xfffffd8b
    83d4:	6c20745f 	cfstrsvs	mvf7, [r0], #-380	; 0xfffffe84
    83d8:	20676e6f 	rsbcs	r6, r7, pc, ror #28
    83dc:	62756f64 	rsbsvs	r6, r5, #100, 30	; 0x190
    83e0:	5f00656c 	svcpl	0x0000656c
    83e4:	544e495f 	strbpl	r4, [lr], #-2399	; 0xfffff6a1
    83e8:	41454c5f 	cmpmi	r5, pc, asr ip
    83ec:	36315453 			; <UNDEFINED> instruction: 0x36315453
    83f0:	5059545f 	subspl	r5, r9, pc, asr r4
    83f4:	205f5f45 	subscs	r5, pc, r5, asr #30
    83f8:	726f6873 	rsbvc	r6, pc, #7536640	; 0x730000
    83fc:	6e692074 	mcrvs	0, 3, r2, cr9, cr4, {3}
    8400:	615f0074 	cmpvs	pc, r4, ror r0	; <UNPREDICTABLE>
    8404:	5f006464 	svcpl	0x00006464
    8408:	5f51515f 	svcpl	0x0051515f
    840c:	54494246 	strbpl	r4, [r9], #-582	; 0xfffffdba
    8410:	37205f5f 			; <UNDEFINED> instruction: 0x37205f5f
    8414:	445f5f00 	ldrbmi	r5, [pc], #-3840	; 841c <_Min_Stack_Size+0x801c>
    8418:	4d5f4c42 	ldclmi	12, cr4, [pc, #-264]	; 8318 <_Min_Stack_Size+0x7f18>
    841c:	5f5f5841 	svcpl	0x005f5841
    8420:	64282820 	strtvs	r2, [r8], #-2080	; 0xfffff7e0
    8424:	6c62756f 	cfstr64vs	mvdx7, [r2], #-444	; 0xfffffe44
    8428:	2e312965 	vsubcs.f16	s4, s2, s11	; <UNPREDICTABLE>
    842c:	36373937 			; <UNDEFINED> instruction: 0x36373937
    8430:	33313339 	teqcc	r1, #-469762048	; 0xe4000000
    8434:	32363834 	eorscc	r3, r6, #52, 16	; 0x340000
    8438:	37353133 			; <UNDEFINED> instruction: 0x37353133
    843c:	30332b65 	eorscc	r2, r3, r5, ror #22
    8440:	00294c38 	eoreq	r4, r9, r8, lsr ip
    8444:	4c4c5f5f 	mcrrmi	15, 5, r5, ip, cr15
    8448:	43415246 	movtmi	r5, #4678	; 0x1246
    844c:	42465f54 	submi	r5, r6, #84, 30	; 0x150
    8450:	5f5f5449 	svcpl	0x005f5449
    8454:	00333620 	eorseq	r3, r3, r0, lsr #12
    8458:	6d745f5f 	ldclvs	15, cr5, [r4, #-380]!	; 0xfffffe84
    845c:	756f685f 	strbvc	r6, [pc, #-2143]!	; 7c05 <_Min_Stack_Size+0x7805>
    8460:	5f5f0072 	svcpl	0x005f0072
    8464:	6d756874 	ldclvs	8, cr6, [r5, #-464]!	; 0xfffffe30
    8468:	205f5f62 	subscs	r5, pc, r2, ror #30
    846c:	5f5f0031 	svcpl	0x005f0031
    8470:	4c494673 	mcrrmi	6, 7, r4, r9, cr3
    8474:	5f5f0045 	svcpl	0x005f0045
    8478:	454d5241 	strbmi	r5, [sp, #-577]	; 0xfffffdbf
    847c:	205f5f4c 	subscs	r5, pc, ip, asr #30
    8480:	495f0031 	ldmdbmi	pc, {r0, r4, r5}^	; <UNPREDICTABLE>
    8484:	414d544e 	cmpmi	sp, lr, asr #8
    8488:	5f545f58 	svcpl	0x00545f58
    848c:	4c434544 	cfstr64mi	mvdx4, [r3], {68}	; 0x44
    8490:	44455241 	strbmi	r5, [r5], #-577	; 0xfffffdbf
    8494:	5f5f0020 	svcpl	0x005f0020
    8498:	6d726f66 	ldclvs	15, cr6, [r2, #-408]!	; 0xfffffe68
    849c:	615f7461 	cmpvs	pc, r1, ror #8
    84a0:	66286772 			; <UNDEFINED> instruction: 0x66286772
    84a4:	7261746d 	rsbvc	r7, r1, #1828716544	; 0x6d000000
    84a8:	5f202967 	svcpl	0x00202967
    84ac:	7474615f 	ldrbtvc	r6, [r4], #-351	; 0xfffffea1
    84b0:	75626972 	strbvc	r6, [r2, #-2418]!	; 0xfffff68e
    84b4:	5f5f6574 	svcpl	0x005f6574
    84b8:	5f5f2828 	svcpl	0x005f2828
    84bc:	6d726f66 	ldclvs	15, cr6, [r2, #-408]!	; 0xfffffe68
    84c0:	615f7461 	cmpvs	pc, r1, ror #8
    84c4:	5f5f6772 	svcpl	0x005f6772
    84c8:	6d662820 	stclvs	8, cr2, [r6, #-128]!	; 0xffffff80
    84cc:	67726174 			; <UNDEFINED> instruction: 0x67726174
    84d0:	00292929 	eoreq	r2, r9, r9, lsr #18
    84d4:	6f635f5f 	svcvs	0x00635f5f
    84d8:	6c69706d 	stclvs	0, cr7, [r9], #-436	; 0xfffffe4c
    84dc:	6d5f7265 	lfmvs	f7, 2, [pc, #-404]	; 8350 <_Min_Stack_Size+0x7f50>
    84e0:	61626d65 	cmnvs	r2, r5, ror #26
    84e4:	20292872 	eorcs	r2, r9, r2, ror r8
    84e8:	73615f5f 	cmnvc	r1, #380	; 0x17c
    84ec:	5f5f206d 	svcpl	0x005f206d
    84f0:	616c6f76 	smcvs	50934	; 0xc6f6
    84f4:	656c6974 	strbvs	r6, [ip, #-2420]!	; 0xfffff68c
    84f8:	22202228 	eorcs	r2, r0, #40, 4	; 0x80000002
    84fc:	3a203a20 	bcc	816d84 <_Min_Stack_Size+0x816984>
    8500:	22203a20 	eorcs	r3, r0, #32, 20	; 0x20000
    8504:	6f6d656d 	svcvs	0x006d656d
    8508:	29227972 	stmdbcs	r2!, {r1, r4, r5, r6, r8, fp, ip, sp, lr}
    850c:	485f5f00 	ldmdami	pc, {r8, r9, sl, fp, ip, lr}^	; <UNPREDICTABLE>
    8510:	42465f51 	submi	r5, r6, #324	; 0x144
    8514:	5f5f5449 	svcpl	0x005f5449
    8518:	00353120 	eorseq	r3, r5, r0, lsr #2
    851c:	61645f5f 	cmnvs	r4, pc, asr pc
    8520:	79746174 	ldmdbvc	r4!, {r2, r4, r5, r6, r8, sp, lr}^
    8524:	745f6570 	ldrbvc	r6, [pc], #-1392	; 852c <_Min_Stack_Size+0x812c>
    8528:	5f657079 	svcpl	0x00657079
    852c:	28676174 	stmdacs	r7!, {r2, r4, r5, r6, r8, sp, lr}^
    8530:	646e696b 	strbtvs	r6, [lr], #-2411	; 0xfffff695
    8534:	7079742c 	rsbsvc	r7, r9, ip, lsr #8
    8538:	00202965 	eoreq	r2, r0, r5, ror #18
    853c:	6f6c5f5f 	svcvs	0x006c5f5f
    8540:	745f6b63 	ldrbvc	r6, [pc], #-2915	; 8548 <_Min_Stack_Size+0x8148>
    8544:	615f7972 	cmpvs	pc, r2, ror r9	; <UNPREDICTABLE>
    8548:	69757163 	ldmdbvs	r5!, {r0, r1, r5, r6, r8, ip, sp, lr}^
    854c:	725f6572 	subsvc	r6, pc, #478150656	; 0x1c800000
    8550:	72756365 	rsbsvc	r6, r5, #-1811939327	; 0x94000001
    8554:	65766973 	ldrbvs	r6, [r6, #-2419]!	; 0xfffff68d
    8558:	636f6c28 	cmnvs	pc, #40, 24	; 0x2800
    855c:	2820296b 	stmdacs	r0!, {r0, r1, r3, r5, r6, r8, fp, sp}
    8560:	696f7628 	stmdbvs	pc!, {r3, r5, r9, sl, ip, sp, lr}^	; <UNPREDICTABLE>
    8564:	30202964 	eorcc	r2, r0, r4, ror #18
    8568:	5f5f0029 	svcpl	0x005f0029
    856c:	455a4953 	ldrbmi	r4, [sl, #-2387]	; 0xfffff6ad
    8570:	58414d5f 	stmdapl	r1, {r0, r1, r2, r3, r4, r6, r8, sl, fp, lr}^
    8574:	30205f5f 	eorcc	r5, r0, pc, asr pc
    8578:	66666678 			; <UNDEFINED> instruction: 0x66666678
    857c:	66666666 	strbtvs	r6, [r6], -r6, ror #12
    8580:	47005566 	strmi	r5, [r0, -r6, ror #10]
    8584:	5f4f4950 	svcpl	0x004f4950
    8588:	5f4e4950 	svcpl	0x004e4950
    858c:	45534552 	ldrbmi	r4, [r3, #-1362]	; 0xfffffaae
    8590:	00302054 	eorseq	r2, r0, r4, asr r0
    8594:	73626d5f 	cmnvc	r2, #6080	; 0x17c0
    8598:	776f7472 			; <UNDEFINED> instruction: 0x776f7472
    859c:	735f7363 	cmpvc	pc, #-1946157055	; 0x8c000001
    85a0:	65746174 	ldrbvs	r6, [r4, #-372]!	; 0xfffffe8c
    85a4:	495f5f00 	ldmdbmi	pc, {r8, r9, sl, fp, ip, lr}^	; <UNPREDICTABLE>
    85a8:	3436544e 	ldrtcc	r5, [r6], #-1102	; 0xfffffbb2
    85ac:	6c6c2220 	sfmvs	f2, 2, [ip], #-128	; 0xffffff80
    85b0:	49550022 	ldmdbmi	r5, {r1, r5}^
    85b4:	5f38544e 	svcpl	0x0038544e
    85b8:	2058414d 	subscs	r4, r8, sp, asr #2
    85bc:	555f5f28 	ldrbpl	r5, [pc, #-3880]	; 769c <_Min_Stack_Size+0x729c>
    85c0:	38544e49 	ldmdacc	r4, {r0, r3, r6, r9, sl, fp, lr}^
    85c4:	58414d5f 	stmdapl	r1, {r0, r1, r2, r3, r4, r6, r8, sl, fp, lr}^
    85c8:	00295f5f 	eoreq	r5, r9, pc, asr pc
    85cc:	4f4c5f5f 	svcmi	0x004c5f5f
    85d0:	4d5f474e 	ldclmi	7, cr4, [pc, #-312]	; 84a0 <_Min_Stack_Size+0x80a0>
    85d4:	5f5f5841 	svcpl	0x005f5841
    85d8:	37783020 	ldrbcc	r3, [r8, -r0, lsr #32]!
    85dc:	66666666 	strbtvs	r6, [r6], -r6, ror #12
    85e0:	4c666666 	stclmi	6, cr6, [r6], #-408	; 0xfffffe68
    85e4:	49504700 	ldmdbmi	r0, {r8, r9, sl, lr}^
    85e8:	50535f4f 	subspl	r5, r3, pc, asr #30
    85ec:	5f444545 	svcpl	0x00444545
    85f0:	30204d32 	eorcc	r4, r0, r2, lsr sp
    85f4:	30303078 	eorscc	r3, r0, r8, ror r0
    85f8:	30303030 	eorscc	r3, r0, r0, lsr r0
    85fc:	5f007532 	svcpl	0x00007532
    8600:	5f535953 	svcpl	0x00535953
    8604:	46454443 	strbmi	r4, [r5], -r3, asr #8
    8608:	5f485f53 	svcpl	0x00485f53
    860c:	4e470020 	cdpmi	0, 4, cr0, cr7, cr0, {1}
    8610:	31432055 	qdaddcc	r2, r5, r3
    8614:	2e372031 	mrccs	0, 1, r2, cr7, cr1, {1}
    8618:	20312e33 	eorscs	r2, r1, r3, lsr lr
    861c:	38313032 	ldmdacc	r1!, {r1, r4, r5, ip, sp}
    8620:	32323630 	eorscc	r3, r2, #48, 12	; 0x3000000
    8624:	65722820 	ldrbvs	r2, [r2, #-2080]!	; 0xfffff7e0
    8628:	7361656c 	cmnvc	r1, #108, 10	; 0x1b000000
    862c:	5b202965 	blpl	812bc8 <_Min_Stack_Size+0x8127c8>
    8630:	2f4d5241 	svccs	0x004d5241
    8634:	65626d65 	strbvs	r6, [r2, #-3429]!	; 0xfffff29b
    8638:	64656464 	strbtvs	r6, [r5], #-1124	; 0xfffffb9c
    863c:	622d372d 	eorvs	r3, sp, #11796480	; 0xb40000
    8640:	636e6172 	cmnvs	lr, #-2147483620	; 0x8000001c
    8644:	65722068 	ldrbvs	r2, [r2, #-104]!	; 0xffffff98
    8648:	69736976 	ldmdbvs	r3!, {r1, r2, r4, r5, r6, r8, fp, sp, lr}^
    864c:	32206e6f 	eorcc	r6, r0, #1776	; 0x6f0
    8650:	30393136 	eorscc	r3, r9, r6, lsr r1
    8654:	2d205d37 	stccs	13, cr5, [r0, #-220]!	; 0xffffff24
    8658:	7570636d 	ldrbvc	r6, [r0, #-877]!	; 0xfffffc93
    865c:	726f633d 	rsbvc	r6, pc, #-201326592	; 0xf4000000
    8660:	2d786574 	cfldr64cs	mvdx6, [r8, #-464]!	; 0xfffffe30
    8664:	2d20336d 	stccs	3, cr3, [r0, #-436]!	; 0xfffffe4c
    8668:	6f6c666d 	svcvs	0x006c666d
    866c:	612d7461 			; <UNDEFINED> instruction: 0x612d7461
    8670:	733d6962 	teqvc	sp, #1605632	; 0x188000
    8674:	2074666f 	rsbscs	r6, r4, pc, ror #12
    8678:	68746d2d 	ldmdavs	r4!, {r0, r2, r3, r5, r8, sl, fp, sp, lr}^
    867c:	20626d75 	rsbcs	r6, r2, r5, ror sp
    8680:	7764672d 	strbvc	r6, [r4, -sp, lsr #14]!
    8684:	2d667261 	sfmcs	f7, 2, [r6, #-388]!	; 0xfffffe7c
    8688:	672d2032 			; <UNDEFINED> instruction: 0x672d2032
    868c:	4f2d2033 	svcmi	0x002d2033
    8690:	732d2030 			; <UNDEFINED> instruction: 0x732d2030
    8694:	673d6474 			; <UNDEFINED> instruction: 0x673d6474
    8698:	3131756e 	teqcc	r1, lr, ror #10
    869c:	66662d20 	strbtvs	r2, [r6], -r0, lsr #26
    86a0:	74636e75 	strbtvc	r6, [r3], #-3701	; 0xfffff18b
    86a4:	2d6e6f69 	stclcs	15, cr6, [lr, #-420]!	; 0xfffffe5c
    86a8:	74636573 	strbtvc	r6, [r3], #-1395	; 0xfffffa8d
    86ac:	736e6f69 	cmnvc	lr, #420	; 0x1a4
    86b0:	64662d20 	strbtvs	r2, [r6], #-3360	; 0xfffff2e0
    86b4:	2d617461 	cfstrdcs	mvd7, [r1, #-388]!	; 0xfffffe7c
    86b8:	74636573 	strbtvc	r6, [r3], #-1395	; 0xfffffa8d
    86bc:	736e6f69 	cmnvc	lr, #420	; 0x1a4
    86c0:	73662d20 	cmnvc	r6, #32, 26	; 0x800
    86c4:	6b636174 	blvs	18e0c9c <_Min_Stack_Size+0x18e089c>
    86c8:	6173752d 	cmnvs	r3, sp, lsr #10
    86cc:	6c006567 	cfstr32vs	mvfx6, [r0], {103}	; 0x67
    86d0:	20676e6f 	rsbcs	r6, r7, pc, ror #28
    86d4:	4700342b 	strmi	r3, [r0, -fp, lsr #8]
    86d8:	5f4f4950 	svcpl	0x004f4950
    86dc:	45444f4d 	strbmi	r4, [r4, #-3917]	; 0xfffff0b3
    86e0:	54554f5f 	ldrbpl	r4, [r5], #-3935	; 0xfffff0a1
    86e4:	5f545550 	svcpl	0x00545550
    86e8:	3020444f 	eorcc	r4, r0, pc, asr #8
    86ec:	30303078 	eorscc	r3, r0, r8, ror r0
    86f0:	30303030 	eorscc	r3, r0, r0, lsr r0
    86f4:	5f007535 	svcpl	0x00007535
    86f8:	6e6f6e5f 	mcrvs	14, 3, r6, cr15, cr15, {2}
    86fc:	6c6c756e 	cfstr64vs	mvdx7, [ip], #-440	; 0xfffffe48
    8700:	20297828 	eorcs	r7, r9, r8, lsr #16
    8704:	74615f5f 	strbtvc	r5, [r1], #-3935	; 0xfffff0a1
    8708:	62697274 	rsbvs	r7, r9, #116, 4	; 0x40000007
    870c:	5f657475 	svcpl	0x00657475
    8710:	5f28285f 	svcpl	0x0028285f
    8714:	6e6f6e5f 	mcrvs	14, 3, r6, cr15, cr15, {2}
    8718:	6c6c756e 	cfstr64vs	mvdx7, [ip], #-440	; 0xfffffe48
    871c:	78205f5f 	stmdavc	r0!, {r0, r1, r2, r3, r4, r6, r8, r9, sl, fp, ip, lr}
    8720:	5f002929 	svcpl	0x00002929
    8724:	444e4152 	strbmi	r4, [lr], #-338	; 0xfffffeae
    8728:	415f3834 	cmpmi	pc, r4, lsr r8	; <UNPREDICTABLE>
    872c:	28204444 	stmdacs	r0!, {r2, r6, sl, lr}
    8730:	30307830 	eorscc	r7, r0, r0, lsr r8
    8734:	00296230 	eoreq	r6, r9, r0, lsr r2
    8738:	54495845 	strbpl	r5, [r9], #-2117	; 0xfffff7bb
    873c:	4941465f 	stmdbmi	r1, {r0, r1, r2, r3, r4, r6, r9, sl, lr}^
    8740:	4552554c 	ldrbmi	r5, [r2, #-1356]	; 0xfffffab4
    8744:	45003120 	strmi	r3, [r0, #-288]	; 0xfffffee0
    8748:	31495458 	cmpcc	r9, r8, asr r4
    874c:	33312033 	teqcc	r1, #51	; 0x33
    8750:	415f5f00 	cmpmi	pc, r0, lsl #30
    8754:	465f4d52 			; <UNDEFINED> instruction: 0x465f4d52
    8758:	55544145 	ldrbpl	r4, [r4, #-325]	; 0xfffffebb
    875c:	4c5f4552 	cfldr64mi	mvdx4, [pc], {82}	; 0x52
    8760:	58455244 	stmdapl	r5, {r2, r6, r9, ip, lr}^
    8764:	45003720 	strmi	r3, [r0, #-1824]	; 0xfffff8e0
    8768:	39495458 	stmdbcc	r9, {r3, r4, r6, sl, ip, lr}^
    876c:	20394450 	eorscs	r4, r9, r0, asr r4
    8770:	54584528 	ldrbpl	r4, [r8], #-1320	; 0xfffffad8
    8774:	50475f49 	subpl	r5, r7, r9, asr #30
    8778:	4d5f4f49 	ldclmi	15, cr4, [pc, #-292]	; 865c <_Min_Stack_Size+0x825c>
    877c:	69707061 	ldmdbvs	r0!, {r0, r5, r6, ip, sp, lr}^
    8780:	745f676e 	ldrbvc	r6, [pc], #-1902	; 8788 <_Min_Stack_Size+0x8388>
    8784:	58457b29 	stmdapl	r5, {r0, r3, r5, r8, r9, fp, ip, sp, lr}^
    8788:	2c394954 			; <UNDEFINED> instruction: 0x2c394954
    878c:	49504720 	ldmdbmi	r0, {r5, r8, r9, sl, lr}^
    8790:	202c444f 	eorcs	r4, ip, pc, asr #8
    8794:	4f495047 	svcmi	0x00495047
    8798:	4e49505f 	mcrmi	0, 2, r5, cr9, cr15, {2}
    879c:	202c395f 	eorcs	r3, ip, pc, asr r9
    87a0:	49545845 	ldmdbmi	r4, {r0, r2, r6, fp, ip, lr}^
    87a4:	52495f39 	subpl	r5, r9, #57, 30	; 0xe4
    87a8:	007d2051 	rsbseq	r2, sp, r1, asr r0
    87ac:	49545845 	ldmdbmi	r4, {r0, r2, r6, fp, ip, lr}^
    87b0:	41503331 	cmpmi	r0, r1, lsr r3
    87b4:	28203331 	stmdacs	r0!, {r0, r4, r5, r8, r9, ip, sp}
    87b8:	49545845 	ldmdbmi	r4, {r0, r2, r6, fp, ip, lr}^
    87bc:	4950475f 	ldmdbmi	r0, {r0, r1, r2, r3, r4, r6, r8, r9, sl, lr}^
    87c0:	614d5f4f 	cmpvs	sp, pc, asr #30
    87c4:	6e697070 	mcrvs	0, 3, r7, cr9, cr0, {3}
    87c8:	29745f67 	ldmdbcs	r4!, {r0, r1, r2, r5, r6, r8, r9, sl, fp, ip, lr}^
    87cc:	5458457b 	ldrbpl	r4, [r8], #-1403	; 0xfffffa85
    87d0:	2c333149 	ldfcss	f3, [r3], #-292	; 0xfffffedc
    87d4:	49504720 	ldmdbmi	r0, {r5, r8, r9, sl, lr}^
    87d8:	202c414f 	eorcs	r4, ip, pc, asr #2
    87dc:	4f495047 	svcmi	0x00495047
    87e0:	4e49505f 	mcrmi	0, 2, r5, cr9, cr15, {2}
    87e4:	2c33315f 	ldfcss	f3, [r3], #-380	; 0xfffffe84
    87e8:	54584520 	ldrbpl	r4, [r8], #-1312	; 0xfffffae0
    87ec:	5f333149 	svcpl	0x00333149
    87f0:	20515249 	subscs	r5, r1, r9, asr #4
    87f4:	495f007d 	ldmdbmi	pc, {r0, r2, r3, r4, r5, r6}^	; <UNPREDICTABLE>
    87f8:	3233544e 	eorscc	r5, r3, #1308622848	; 0x4e000000
    87fc:	5f51455f 	svcpl	0x0051455f
    8800:	474e4f4c 	strbmi	r4, [lr, -ip, asr #30]
    8804:	525f0020 	subspl	r0, pc, #32
    8808:	544e4545 	strbpl	r4, [lr], #-1349	; 0xfffffabb
    880c:	4353415f 	cmpmi	r3, #-1073741801	; 0xc0000017
    8810:	454d4954 	strbmi	r4, [sp, #-2388]	; 0xfffff6ac
    8814:	5a49535f 	bpl	125d598 <_Min_Stack_Size+0x125d198>
    8818:	36322045 	ldrtcc	r2, [r2], -r5, asr #32
    881c:	73754200 	cmnvc	r5, #0, 4
    8820:	6c756146 	ldfvse	f6, [r5], #-280	; 0xfffffee8
    8824:	61485f74 	hvcvs	34292	; 0x85f4
    8828:	656c646e 	strbvs	r6, [ip, #-1134]!	; 0xfffffb92
    882c:	5f5f0072 	svcpl	0x005f0072
    8830:	52464c4c 	subpl	r4, r6, #76, 24	; 0x4c00
    8834:	5f544341 	svcpl	0x00544341
    8838:	49535045 	ldmdbmi	r3, {r0, r2, r6, ip, lr}^
    883c:	5f4e4f4c 	svcpl	0x004e4f4c
    8840:	7830205f 	ldmdavc	r0!, {r0, r1, r2, r3, r4, r6, sp}
    8844:	362d5031 			; <UNDEFINED> instruction: 0x362d5031
    8848:	524c4c33 	subpl	r4, ip, #13056	; 0x3300
    884c:	415f5f00 	cmpmi	pc, r0, lsl #30
    8850:	465f4d52 			; <UNDEFINED> instruction: 0x465f4d52
    8854:	55544145 	ldrbpl	r4, [r4, #-325]	; 0xfffffebb
    8858:	535f4552 	cmppl	pc, #343932928	; 0x14800000
    885c:	33444d49 	movtcc	r4, #19785	; 0x4d49
    8860:	5f5f0032 	svcpl	0x005f0032
    8864:	33544c46 	cmpcc	r4, #17920	; 0x4600
    8868:	4d5f5832 	ldclmi	8, cr5, [pc, #-200]	; 87a8 <_Min_Stack_Size+0x83a8>
    886c:	5f544e41 	svcpl	0x00544e41
    8870:	5f474944 	svcpl	0x00474944
    8874:	3335205f 	teqcc	r5, #95	; 0x5f
    8878:	54584500 	ldrbpl	r4, [r8], #-1280	; 0xfffffb00
    887c:	38203849 	stmdacc	r0!, {r0, r3, r6, fp, ip, sp}
    8880:	49504700 	ldmdbmi	r0, {r8, r9, sl, lr}^
    8884:	49505f4f 	ldmdbmi	r0, {r0, r1, r2, r3, r6, r8, r9, sl, fp, ip, lr}^
    8888:	31315f4e 	teqcc	r1, lr, asr #30
    888c:	75282820 	strvc	r2, [r8, #-2080]!	; 0xfffff7e0
    8890:	31746e69 	cmncc	r4, r9, ror #28
    8894:	29745f36 	ldmdbcs	r4!, {r1, r2, r4, r5, r8, r9, sl, fp, ip, lr}^
    8898:	38307830 	ldmdacc	r0!, {r4, r5, fp, ip, sp, lr}
    889c:	00293030 	eoreq	r3, r9, r0, lsr r0
    88a0:	43575f5f 	cmpmi	r7, #380	; 0x17c
    88a4:	5f524148 	svcpl	0x00524148
    88a8:	54444957 	strbpl	r4, [r4], #-2391	; 0xfffff6a9
    88ac:	205f5f48 	subscs	r5, pc, r8, asr #30
    88b0:	5f003233 	svcpl	0x00003233
    88b4:	36544e49 	ldrbcc	r4, [r4], -r9, asr #28
    88b8:	5f545f34 	svcpl	0x00545f34
    88bc:	4c434544 	cfstr64mi	mvdx4, [r3], {68}	; 0x44
    88c0:	44455241 	strbmi	r5, [r5], #-577	; 0xfffffdbf
    88c4:	5f5f0020 	svcpl	0x005f0020
    88c8:	756c6773 	strbvc	r6, [ip, #-1907]!	; 0xfffff88d
    88cc:	58450065 	stmdapl	r5, {r0, r2, r5, r6}^
    88d0:	50364954 	eorspl	r4, r6, r4, asr r9
    88d4:	28203644 	stmdacs	r0!, {r2, r6, r9, sl, ip, sp}
    88d8:	49545845 	ldmdbmi	r4, {r0, r2, r6, fp, ip, lr}^
    88dc:	4950475f 	ldmdbmi	r0, {r0, r1, r2, r3, r4, r6, r8, r9, sl, lr}^
    88e0:	614d5f4f 	cmpvs	sp, pc, asr #30
    88e4:	6e697070 	mcrvs	0, 3, r7, cr9, cr0, {3}
    88e8:	29745f67 	ldmdbcs	r4!, {r0, r1, r2, r5, r6, r8, r9, sl, fp, ip, lr}^
    88ec:	5458457b 	ldrbpl	r4, [r8], #-1403	; 0xfffffa85
    88f0:	202c3649 	eorcs	r3, ip, r9, asr #12
    88f4:	4f495047 	svcmi	0x00495047
    88f8:	47202c44 	strmi	r2, [r0, -r4, asr #24]!
    88fc:	5f4f4950 	svcpl	0x004f4950
    8900:	5f4e4950 	svcpl	0x004e4950
    8904:	45202c36 	strmi	r2, [r0, #-3126]!	; 0xfffff3ca
    8908:	36495458 			; <UNDEFINED> instruction: 0x36495458
    890c:	5152495f 	cmppl	r2, pc, asr r9
    8910:	5f007d20 	svcpl	0x00007d20
    8914:	48544f4e 	ldmdami	r4, {r1, r2, r3, r6, r8, r9, sl, fp, lr}^
    8918:	20574f52 	subscs	r4, r7, r2, asr pc
    891c:	54564900 	ldrbpl	r4, [r6], #-2304	; 0xfffff700
    8920:	5152495f 	cmppl	r2, pc, asr r9
    8924:	6d754e5f 	ldclvs	14, cr4, [r5, #-380]!	; 0xfffffe84
    8928:	00726562 	rsbseq	r6, r2, r2, ror #10
    892c:	41445f5f 	cmpmi	r4, pc, asr pc
    8930:	4942495f 	stmdbmi	r2, {r0, r1, r2, r3, r4, r6, r8, fp, lr}^
    8934:	205f5f54 	subscs	r5, pc, r4, asr pc	; <UNPREDICTABLE>
    8938:	47003233 	smladxmi	r0, r3, r2, r3
    893c:	454f4950 	strbmi	r4, [pc, #-2384]	; 7ff4 <_Min_Stack_Size+0x7bf4>
    8940:	5341425f 	movtpl	r4, #4703	; 0x125f
    8944:	78302045 	ldmdavc	r0!, {r0, r2, r6, sp}
    8948:	31303034 	teqcc	r0, r4, lsr r0
    894c:	30303831 	eorscc	r3, r0, r1, lsr r8
    8950:	5f004c55 	svcpl	0x00004c55
    8954:	7274735f 	rsbsvc	r7, r4, #2080374785	; 0x7c000001
    8958:	6d697466 	cfstrdvs	mvd7, [r9, #-408]!	; 0xfffffe68
    895c:	6b696c65 	blvs	1a63af8 <_Min_Stack_Size+0x1a636f8>
    8960:	6d662865 	stclvs	8, cr2, [r6, #-404]!	; 0xfffffe6c
    8964:	67726174 			; <UNDEFINED> instruction: 0x67726174
    8968:	7269662c 	rsbvc	r6, r9, #44, 12	; 0x2c00000
    896c:	61767473 	cmnvs	r6, r3, ror r4
    8970:	67726172 			; <UNDEFINED> instruction: 0x67726172
    8974:	5f5f2029 	svcpl	0x005f2029
    8978:	72747461 	rsbsvc	r7, r4, #1627389952	; 0x61000000
    897c:	74756269 	ldrbtvc	r6, [r5], #-617	; 0xfffffd97
    8980:	285f5f65 	ldmdacs	pc, {r0, r2, r5, r6, r8, r9, sl, fp, ip, lr}^	; <UNPREDICTABLE>
    8984:	665f5f28 	ldrbvs	r5, [pc], -r8, lsr #30
    8988:	616d726f 	cmnvs	sp, pc, ror #4
    898c:	205f5f74 	subscs	r5, pc, r4, ror pc	; <UNPREDICTABLE>
    8990:	735f5f28 	cmpvc	pc, #40, 30	; 0xa0
    8994:	74667274 	strbtvc	r7, [r6], #-628	; 0xfffffd8c
    8998:	5f656d69 	svcpl	0x00656d69
    899c:	66202c5f 			; <UNDEFINED> instruction: 0x66202c5f
    89a0:	7261746d 	rsbvc	r7, r1, #1828716544	; 0x6d000000
    89a4:	66202c67 	strtvs	r2, [r0], -r7, ror #24
    89a8:	74737269 	ldrbtvc	r7, [r3], #-617	; 0xfffffd97
    89ac:	61726176 	cmnvs	r2, r6, ror r1
    89b0:	29296772 	stmdbcs	r9!, {r1, r4, r5, r6, r8, r9, sl, sp, lr}
    89b4:	5f5f0029 	svcpl	0x005f0029
    89b8:	695f6d74 	ldmdbvs	pc, {r2, r4, r5, r6, r8, sl, fp, sp, lr}^	; <UNPREDICTABLE>
    89bc:	74736473 	ldrbtvc	r6, [r3], #-1139	; 0xfffffb8d
    89c0:	445f5f00 	ldrbmi	r5, [pc], #-3840	; 89c8 <_Min_Stack_Size+0x85c8>
    89c4:	41555145 	cmpmi	r5, r5, asr #2
    89c8:	5946494c 	stmdbpl	r6, {r2, r3, r6, r8, fp, lr}^
    89cc:	70797428 	rsbsvc	r7, r9, r8, lsr #8
    89d0:	61762c65 	cmnvs	r6, r5, ror #24
    89d4:	28202972 	stmdacs	r0!, {r1, r4, r5, r6, r8, fp, sp}
    89d8:	70797428 	rsbsvc	r7, r9, r8, lsr #8
    89dc:	5f282965 	svcpl	0x00282965
    89e0:	6e69755f 	mcrvs	5, 3, r7, cr9, cr15, {2}
    89e4:	72747074 	rsbsvc	r7, r4, #116	; 0x74
    89e8:	2829745f 	stmdacs	r9!, {r0, r1, r2, r3, r4, r6, sl, ip, sp, lr}
    89ec:	736e6f63 	cmnvc	lr, #396	; 0x18c
    89f0:	6f762074 	svcvs	0x00762074
    89f4:	6974616c 	ldmdbvs	r4!, {r2, r3, r5, r6, r8, sp, lr}^
    89f8:	7620656c 	strtvc	r6, [r0], -ip, ror #10
    89fc:	2064696f 	rsbcs	r6, r4, pc, ror #18
    8a00:	7628292a 	strtvc	r2, [r8], -sl, lsr #18
    8a04:	29297261 	stmdbcs	r9!, {r0, r5, r6, r9, ip, sp, lr}
    8a08:	54584500 	ldrbpl	r4, [r8], #-1280	; 0xfffffb00
    8a0c:	41503449 	cmpmi	r0, r9, asr #8
    8a10:	45282034 	strmi	r2, [r8, #-52]!	; 0xffffffcc
    8a14:	5f495458 	svcpl	0x00495458
    8a18:	4f495047 	svcmi	0x00495047
    8a1c:	70614d5f 	rsbvc	r4, r1, pc, asr sp
    8a20:	676e6970 			; <UNDEFINED> instruction: 0x676e6970
    8a24:	7b29745f 	blvc	a65ba8 <_Min_Stack_Size+0xa657a8>
    8a28:	49545845 	ldmdbmi	r4, {r0, r2, r6, fp, ip, lr}^
    8a2c:	47202c34 			; <UNDEFINED> instruction: 0x47202c34
    8a30:	414f4950 	cmpmi	pc, r0, asr r9	; <UNPREDICTABLE>
    8a34:	5047202c 	subpl	r2, r7, ip, lsr #32
    8a38:	505f4f49 	subspl	r4, pc, r9, asr #30
    8a3c:	345f4e49 	ldrbcc	r4, [pc], #-3657	; 8a44 <_Min_Stack_Size+0x8644>
    8a40:	5845202c 	stmdapl	r5, {r2, r3, r5, sp}^
    8a44:	5f344954 	svcpl	0x00344954
    8a48:	20515249 	subscs	r5, r1, r9, asr #4
    8a4c:	5f5f007d 	svcpl	0x005f007d
    8a50:	4d4f5441 	cfstrdmi	mvd5, [pc, #-260]	; 8954 <_Min_Stack_Size+0x8554>
    8a54:	415f4349 	cmpmi	pc, r9, asr #6
    8a58:	525f5143 	subspl	r5, pc, #-1073741808	; 0xc0000010
    8a5c:	34204c45 	strtcc	r4, [r0], #-3141	; 0xfffff3bb
    8a60:	49564e00 	ldmdbmi	r6, {r9, sl, fp, lr}^
    8a64:	52495f43 	subpl	r5, r9, #268	; 0x10c
    8a68:	455f3651 	ldrbmi	r3, [pc, #-1617]	; 841f <_Min_Stack_Size+0x801f>
    8a6c:	31495458 	cmpcc	r9, r8, asr r4
    8a70:	5349445f 	movtpl	r4, #37983	; 0x945f
    8a74:	454c4241 	strbmi	r4, [ip, #-577]	; 0xfffffdbf
    8a78:	564e2820 	strbpl	r2, [lr], -r0, lsr #16
    8a7c:	495f4349 	ldmdbmi	pc, {r0, r3, r6, r8, r9, lr}^	; <UNPREDICTABLE>
    8a80:	30524543 	subscc	r4, r2, r3, asr #10
    8a84:	203d7c20 	eorscs	r7, sp, r0, lsr #24
    8a88:	3c3c3128 	ldfccs	f3, [ip], #-160	; 0xffffff60
    8a8c:	00292937 	eoreq	r2, r9, r7, lsr r9
    8a90:	51485f5f 	cmppl	r8, pc, asr pc
    8a94:	4942495f 	stmdbmi	r2, {r0, r1, r2, r3, r4, r6, r8, fp, lr}^
    8a98:	205f5f54 	subscs	r5, pc, r4, asr pc	; <UNPREDICTABLE>
    8a9c:	5f5f0030 	svcpl	0x005f0030
    8aa0:	6b636170 	blvs	18e1068 <_Min_Stack_Size+0x18e0c68>
    8aa4:	5f206465 	svcpl	0x00206465
    8aa8:	7474615f 	ldrbtvc	r6, [r4], #-351	; 0xfffffea1
    8aac:	75626972 	strbvc	r6, [r2, #-2418]!	; 0xfffff68e
    8ab0:	5f5f6574 	svcpl	0x005f6574
    8ab4:	5f5f2828 	svcpl	0x005f2828
    8ab8:	6b636170 	blvs	18e1080 <_Min_Stack_Size+0x18e0c80>
    8abc:	5f5f6465 	svcpl	0x005f6465
    8ac0:	5f002929 	svcpl	0x00002929
    8ac4:	41484357 	cmpmi	r8, r7, asr r3
    8ac8:	5f545f52 	svcpl	0x00545f52
    8acc:	49464544 	stmdbmi	r6, {r2, r6, r8, sl, lr}^
    8ad0:	5f44454e 	svcpl	0x0044454e
    8ad4:	54530020 	ldrbpl	r0, [r3], #-32	; 0xffffffe0
    8ad8:	4632334d 	ldrtmi	r3, [r2], -sp, asr #6
    8adc:	00312031 	eorseq	r2, r1, r1, lsr r0
    8ae0:	4e495f5f 	mcrmi	15, 2, r5, cr9, cr15, {2}
    8ae4:	5f363154 	svcpl	0x00363154
    8ae8:	45505954 	ldrbmi	r5, [r0, #-2388]	; 0xfffff6ac
    8aec:	73205f5f 			; <UNDEFINED> instruction: 0x73205f5f
    8af0:	74726f68 	ldrbtvc	r6, [r2], #-3944	; 0xfffff098
    8af4:	746e6920 	strbtvc	r6, [lr], #-2336	; 0xfffff6e0
    8af8:	615f5f00 	cmpvs	pc, r0, lsl #30
    8afc:	72657373 	rsbvc	r7, r5, #-872415231	; 0xcc000001
    8b00:	735f7374 	cmpvc	pc, #116, 6	; 0xd0000001
    8b04:	65726168 	ldrbvs	r6, [r2, #-360]!	; 0xfffffe98
    8b08:	2e2e2864 	cdpcs	8, 2, cr2, cr14, cr4, {3}
    8b0c:	5f20292e 	svcpl	0x0020292e
    8b10:	636f6c5f 	cmnvs	pc, #24320	; 0x5f00
    8b14:	6e615f6b 	cdpvs	15, 6, cr5, cr1, cr11, {3}
    8b18:	61746f6e 	cmnvs	r4, lr, ror #30
    8b1c:	61286574 			; <UNDEFINED> instruction: 0x61286574
    8b20:	72657373 	rsbvc	r7, r5, #-872415231	; 0xcc000001
    8b24:	68735f74 	ldmdavs	r3!, {r2, r4, r5, r6, r8, r9, sl, fp, ip, lr}^
    8b28:	64657261 	strbtvs	r7, [r5], #-609	; 0xfffffd9f
    8b2c:	636f6c5f 	cmnvs	pc, #24320	; 0x5f00
    8b30:	5f5f286b 	svcpl	0x005f286b
    8b34:	415f4156 	cmpmi	pc, r6, asr r1	; <UNPREDICTABLE>
    8b38:	5f534752 	svcpl	0x00534752
    8b3c:	0029295f 	eoreq	r2, r9, pc, asr r9
    8b40:	59535f5f 	ldmdbpl	r3, {r0, r1, r2, r3, r4, r6, r8, r9, sl, fp, ip, lr}^
    8b44:	4f4c5f53 	svcmi	0x004c5f53
    8b48:	485f4b43 	ldmdami	pc, {r0, r1, r6, r8, r9, fp, lr}^	; <UNPREDICTABLE>
    8b4c:	00205f5f 	eoreq	r5, r0, pc, asr pc
    8b50:	6e695f5f 	mcrvs	15, 3, r5, cr9, cr15, {2}
    8b54:	00303274 	eorseq	r3, r0, r4, ror r2
    8b58:	4e414e5f 	mcrmi	14, 2, r4, cr1, cr15, {2}
    8b5c:	4f465f4f 	svcmi	0x00465f4f
    8b60:	54414d52 	strbpl	r4, [r1], #-3410	; 0xfffff2ae
    8b64:	5f444554 	svcpl	0x00444554
    8b68:	31204f49 			; <UNDEFINED> instruction: 0x31204f49
    8b6c:	544e4900 	strbpl	r4, [lr], #-2304	; 0xfffff700
    8b70:	5341465f 	movtpl	r4, #5727	; 0x165f
    8b74:	5f323354 	svcpl	0x00323354
    8b78:	2058414d 	subscs	r4, r8, sp, asr #2
    8b7c:	495f5f28 	ldmdbmi	pc, {r3, r5, r8, r9, sl, fp, ip, lr}^	; <UNPREDICTABLE>
    8b80:	465f544e 	ldrbmi	r5, [pc], -lr, asr #8
    8b84:	33545341 	cmpcc	r4, #67108865	; 0x4000001
    8b88:	414d5f32 	cmpmi	sp, r2, lsr pc
    8b8c:	295f5f58 	ldmdbcs	pc, {r3, r4, r6, r8, r9, sl, fp, ip, lr}^	; <UNPREDICTABLE>
    8b90:	745f5f00 	ldrbvc	r5, [pc], #-3840	; 8b98 <_Min_Stack_Size+0x8798>
    8b94:	696d5f6d 	stmdbvs	sp!, {r0, r2, r3, r5, r6, r8, r9, sl, fp, ip, lr}^
    8b98:	4f43006e 	svcmi	0x0043006e
    8b9c:	58455452 	stmdapl	r5, {r1, r4, r6, sl, ip, lr}^
    8ba0:	5f334d5f 	svcpl	0x00334d5f
    8ba4:	45544e49 	ldrbmi	r4, [r4, #-3657]	; 0xfffff1b7
    8ba8:	4c414e52 	mcrrmi	14, 5, r4, r1, cr2
    8bac:	5245505f 	subpl	r5, r5, #95	; 0x5f
    8bb0:	45485049 	strbmi	r5, [r8, #-73]	; 0xffffffb7
    8bb4:	534c4152 	movtpl	r4, #49490	; 0xc152
    8bb8:	5341425f 	movtpl	r4, #4703	; 0x125f
    8bbc:	78302045 	ldmdavc	r0!, {r0, r2, r6, sp}
    8bc0:	30303045 	eorscc	r3, r0, r5, asr #32
    8bc4:	30303030 	eorscc	r3, r0, r0, lsr r0
    8bc8:	45004c55 	strmi	r4, [r0, #-3157]	; 0xfffff3ab
    8bcc:	5f495458 	svcpl	0x00495458
    8bd0:	4f495047 	svcmi	0x00495047
    8bd4:	70614d5f 	rsbvc	r4, r1, pc, asr sp
    8bd8:	676e6970 			; <UNDEFINED> instruction: 0x676e6970
    8bdc:	5200745f 	andpl	r7, r0, #1593835520	; 0x5f000000
    8be0:	475f4343 	ldrbmi	r4, [pc, -r3, asr #6]
    8be4:	414f4950 	cmpmi	pc, r0, asr r9	; <UNPREDICTABLE>
    8be8:	4b4c435f 	blmi	131996c <_Min_Stack_Size+0x131956c>
    8bec:	284e455f 	stmdacs	lr, {r0, r1, r2, r3, r4, r6, r8, sl, lr}^
    8bf0:	52282029 	eorpl	r2, r8, #41	; 0x29
    8bf4:	3e2d4343 	cdpcc	3, 2, cr4, cr13, cr3, {2}
    8bf8:	32425041 	subcc	r5, r2, #65	; 0x41
    8bfc:	20524e45 	subscs	r4, r2, r5, asr #28
    8c00:	28203d7c 	stmdacs	r0!, {r2, r3, r4, r5, r6, r8, sl, fp, ip, sp}
    8c04:	323c3c31 	eorscc	r3, ip, #12544	; 0x3100
    8c08:	49002929 	stmdbmi	r0, {r0, r3, r5, r8, fp, sp}
    8c0c:	5450544e 	ldrbpl	r5, [r0], #-1102	; 0xfffffbb2
    8c10:	494d5f52 	stmdbmi	sp, {r1, r4, r6, r8, r9, sl, fp, ip, lr}^
    8c14:	2d28204e 	stccs	0, cr2, [r8, #-312]!	; 0xfffffec8
    8c18:	4e495f5f 	mcrmi	15, 2, r5, cr9, cr15, {2}
    8c1c:	52545054 	subspl	r5, r4, #84	; 0x54
    8c20:	58414d5f 	stmdapl	r1, {r0, r1, r2, r3, r4, r6, r8, sl, fp, lr}^
    8c24:	2d205f5f 	stccs	15, cr5, [r0, #-380]!	; 0xfffffe84
    8c28:	00293120 	eoreq	r3, r9, r0, lsr #2
    8c2c:	44525450 	ldrbmi	r5, [r2], #-1104	; 0xfffffbb0
    8c30:	5f464649 	svcpl	0x00464649
    8c34:	204e494d 	subcs	r4, lr, sp, asr #18
    8c38:	54502d28 	ldrbpl	r2, [r0], #-3368	; 0xfffff2d8
    8c3c:	46494452 			; <UNDEFINED> instruction: 0x46494452
    8c40:	414d5f46 	cmpmi	sp, r6, asr #30
    8c44:	202d2058 	eorcs	r2, sp, r8, asr r0
    8c48:	5f002931 	svcpl	0x00002931
    8c4c:	49534f50 	ldmdbmi	r3, {r4, r6, r8, r9, sl, fp, lr}^
    8c50:	5f435f58 	svcpl	0x00435f58
    8c54:	52554f53 	subspl	r4, r5, #332	; 0x14c
    8c58:	5f004543 	svcpl	0x00004543
    8c5c:	4e49555f 	mcrmi	5, 2, r5, cr9, cr15, {2}
    8c60:	58414d54 	stmdapl	r1, {r2, r4, r6, r8, sl, fp, lr}^
    8c64:	58414d5f 	stmdapl	r1, {r0, r1, r2, r3, r4, r6, r8, sl, fp, lr}^
    8c68:	30205f5f 	eorcc	r5, r0, pc, asr pc
    8c6c:	66666678 			; <UNDEFINED> instruction: 0x66666678
    8c70:	66666666 	strbtvs	r6, [r6], -r6, ror #12
    8c74:	66666666 	strbtvs	r6, [r6], -r6, ror #12
    8c78:	66666666 	strbtvs	r6, [r6], -r6, ror #12
    8c7c:	4c4c5566 	cfstr64mi	mvdx5, [ip], {102}	; 0x66
    8c80:	445f5f00 	ldrbmi	r5, [pc], #-3840	; 8c88 <_Min_Stack_Size+0x8888>
    8c84:	4d5f4c42 	ldclmi	12, cr4, [pc, #-264]	; 8b84 <_Min_Stack_Size+0x8784>
    8c88:	5f544e41 	svcpl	0x00544e41
    8c8c:	5f474944 	svcpl	0x00474944
    8c90:	3335205f 	teqcc	r5, #95	; 0x5f
    8c94:	555f5f00 	ldrbpl	r5, [pc, #-3840]	; 7d9c <_Min_Stack_Size+0x799c>
    8c98:	4152464c 	cmpmi	r2, ip, asr #12
    8c9c:	495f5443 	ldmdbmi	pc, {r0, r1, r6, sl, ip, lr}^	; <UNPREDICTABLE>
    8ca0:	5f544942 	svcpl	0x00544942
    8ca4:	0030205f 	eorseq	r2, r0, pc, asr r0
    8ca8:	41545f5f 	cmpmi	r4, pc, asr pc
    8cac:	4942465f 	stmdbmi	r2, {r0, r1, r2, r3, r4, r6, r9, sl, lr}^
    8cb0:	205f5f54 	subscs	r5, pc, r4, asr pc	; <UNPREDICTABLE>
    8cb4:	5f003336 	svcpl	0x00003336
    8cb8:	4d52415f 	ldfmie	f4, [r2, #-380]	; 0xfffffe84
    8cbc:	4241455f 	submi	r4, r1, #398458880	; 0x17c00000
    8cc0:	205f5f49 	subscs	r5, pc, r9, asr #30
    8cc4:	5f5f0031 	svcpl	0x005f0031
    8cc8:	5f544e49 	svcpl	0x00544e49
    8ccc:	5341454c 	movtpl	r4, #5452	; 0x154c
    8cd0:	5f343654 	svcpl	0x00343654
    8cd4:	45505954 	ldrbmi	r5, [r0, #-2388]	; 0xfffff6ac
    8cd8:	6c205f5f 	stcvs	15, cr5, [r0], #-380	; 0xfffffe84
    8cdc:	20676e6f 	rsbcs	r6, r7, pc, ror #28
    8ce0:	676e6f6c 	strbvs	r6, [lr, -ip, ror #30]!
    8ce4:	746e6920 	strbtvc	r6, [lr], #-2336	; 0xfffff6e0
    8ce8:	54584500 	ldrbpl	r4, [r8], #-1280	; 0xfffffb00
    8cec:	41503249 	cmpmi	r0, r9, asr #4
    8cf0:	45282032 	strmi	r2, [r8, #-50]!	; 0xffffffce
    8cf4:	5f495458 	svcpl	0x00495458
    8cf8:	4f495047 	svcmi	0x00495047
    8cfc:	70614d5f 	rsbvc	r4, r1, pc, asr sp
    8d00:	676e6970 			; <UNDEFINED> instruction: 0x676e6970
    8d04:	7b29745f 	blvc	a65e88 <_Min_Stack_Size+0xa65a88>
    8d08:	49545845 	ldmdbmi	r4, {r0, r2, r6, fp, ip, lr}^
    8d0c:	47202c32 			; <UNDEFINED> instruction: 0x47202c32
    8d10:	414f4950 	cmpmi	pc, r0, asr r9	; <UNPREDICTABLE>
    8d14:	5047202c 	subpl	r2, r7, ip, lsr #32
    8d18:	505f4f49 	subspl	r4, pc, r9, asr #30
    8d1c:	325f4e49 	subscc	r4, pc, #1168	; 0x490
    8d20:	5845202c 	stmdapl	r5, {r2, r3, r5, sp}^
    8d24:	5f324954 	svcpl	0x00324954
    8d28:	20515249 	subscs	r5, r1, r9, asr #4
    8d2c:	5f5f007d 	svcpl	0x005f007d
    8d30:	43434153 	movtmi	r4, #12627	; 0x3153
    8d34:	465f4d55 			; <UNDEFINED> instruction: 0x465f4d55
    8d38:	5f544942 	svcpl	0x00544942
    8d3c:	0037205f 	eorseq	r2, r7, pc, asr r0
    8d40:	49545845 	ldmdbmi	r4, {r0, r2, r6, fp, ip, lr}^
    8d44:	44503331 	ldrbmi	r3, [r0], #-817	; 0xfffffccf
    8d48:	28203331 	stmdacs	r0!, {r0, r4, r5, r8, r9, ip, sp}
    8d4c:	49545845 	ldmdbmi	r4, {r0, r2, r6, fp, ip, lr}^
    8d50:	4950475f 	ldmdbmi	r0, {r0, r1, r2, r3, r4, r6, r8, r9, sl, lr}^
    8d54:	614d5f4f 	cmpvs	sp, pc, asr #30
    8d58:	6e697070 	mcrvs	0, 3, r7, cr9, cr0, {3}
    8d5c:	29745f67 	ldmdbcs	r4!, {r0, r1, r2, r5, r6, r8, r9, sl, fp, ip, lr}^
    8d60:	5458457b 	ldrbpl	r4, [r8], #-1403	; 0xfffffa85
    8d64:	2c333149 	ldfcss	f3, [r3], #-292	; 0xfffffedc
    8d68:	49504720 	ldmdbmi	r0, {r5, r8, r9, sl, lr}^
    8d6c:	202c444f 	eorcs	r4, ip, pc, asr #8
    8d70:	4f495047 	svcmi	0x00495047
    8d74:	4e49505f 	mcrmi	0, 2, r5, cr9, cr15, {2}
    8d78:	2c33315f 	ldfcss	f3, [r3], #-380	; 0xfffffe84
    8d7c:	54584520 	ldrbpl	r4, [r8], #-1312	; 0xfffffae0
    8d80:	5f333149 	svcpl	0x00333149
    8d84:	20515249 	subscs	r5, r1, r9, asr #4
    8d88:	2e2e007d 	mcrcs	0, 1, r0, cr14, cr13, {3}
    8d8c:	6174532f 	cmnvs	r4, pc, lsr #6
    8d90:	70757472 	rsbsvc	r7, r5, r2, ror r4
    8d94:	6174732f 	cmnvs	r4, pc, lsr #6
    8d98:	70757472 	rsbsvc	r7, r5, r2, ror r4
    8d9c:	6d74735f 	ldclvs	3, cr7, [r4, #-380]!	; 0xfffffe84
    8da0:	31663233 	cmncc	r6, r3, lsr r2
    8da4:	36633330 			; <UNDEFINED> instruction: 0x36633330
    8da8:	732e7874 			; <UNDEFINED> instruction: 0x732e7874
    8dac:	2f3a4400 	svccs	0x003a4400
    8db0:	7473614d 	ldrbtvc	r6, [r3], #-333	; 0xfffffeb3
    8db4:	6e697265 	cdpvs	2, 6, cr7, cr9, cr5, {3}
    8db8:	6d452067 	stclvs	0, cr2, [r5, #-412]	; 0xfffffe64
    8dbc:	64646562 	strbtvs	r6, [r4], #-1378	; 0xfffffa9e
    8dc0:	53206465 			; <UNDEFINED> instruction: 0x53206465
    8dc4:	65747379 	ldrbvs	r7, [r4, #-889]!	; 0xfffffc87
    8dc8:	552f736d 	strpl	r7, [pc, #-877]!	; 8a63 <_Min_Stack_Size+0x8663>
    8dcc:	2074696e 	rsbscs	r6, r4, lr, ror #18
    8dd0:	41203431 			; <UNDEFINED> instruction: 0x41203431
    8dd4:	752f4d52 	strvc	r4, [pc, #-3410]!	; 808a <_Min_Stack_Size+0x7c8a>
    8dd8:	3174696e 	cmncc	r4, lr, ror #18
    8ddc:	656c5f34 	strbvs	r5, [ip, #-3892]!	; 0xfffff0cc
    8de0:	6e6f7373 	mcrvs	3, 3, r7, cr15, cr3, {3}
    8de4:	616c5f32 	cmnvs	ip, r2, lsr pc
    8de8:	442f3162 	strtmi	r3, [pc], #-354	; 8df0 <_Min_Stack_Size+0x89f0>
    8dec:	65766972 	ldrbvs	r6, [r6, #-2418]!	; 0xfffff68e
    8df0:	442f7372 	strtmi	r7, [pc], #-882	; 8df8 <_Min_Stack_Size+0x89f8>
    8df4:	67756265 	ldrbvs	r6, [r5, -r5, ror #4]!
    8df8:	554e4700 	strbpl	r4, [lr, #-1792]	; 0xfffff900
    8dfc:	20534120 	subscs	r4, r3, r0, lsr #2
    8e00:	30332e32 	eorscc	r2, r3, r2, lsr lr
    8e04:	2e00302e 	cdpcs	0, 0, cr3, cr0, cr14, {1}
    8e08:	74532f2e 	ldrbvc	r2, [r3], #-3886	; 0xfffff0d2
    8e0c:	5f32336d 	svcpl	0x0032336d
    8e10:	33303146 	teqcc	r0, #-2147483631	; 0x80000011
    8e14:	445f3643 	ldrbmi	r3, [pc], #-1603	; 8e1c <_Min_Stack_Size+0x8a1c>
    8e18:	65766972 	ldrbvs	r6, [r6, #-2418]!	; 0xfffff68e
    8e1c:	472f7372 			; <UNDEFINED> instruction: 0x472f7372
    8e20:	2f4f4950 	svccs	0x004f4950
    8e24:	336d7453 	cmncc	sp, #1392508928	; 0x53000000
    8e28:	31465f32 	cmpcc	r6, r2, lsr pc
    8e2c:	36433330 			; <UNDEFINED> instruction: 0x36433330
    8e30:	6970675f 	ldmdbvs	r0!, {r0, r1, r2, r3, r4, r6, r8, r9, sl, sp, lr}^
    8e34:	72645f6f 	rsbvc	r5, r4, #444	; 0x1bc
    8e38:	72657669 	rsbvc	r7, r5, #110100480	; 0x6900000
    8e3c:	4d00632e 	stcmi	3, cr6, [r0, #-184]	; 0xffffff48
    8e40:	5f4c4143 	svcpl	0x004c4143
    8e44:	4f495047 	svcmi	0x00495047
    8e48:	696e495f 	stmdbvs	lr!, {r0, r1, r2, r3, r4, r6, r8, fp, lr}^
    8e4c:	50470074 	subpl	r0, r7, r4, ror r0
    8e50:	4f5f4f49 	svcmi	0x005f4f49
    8e54:	75707475 	ldrbvc	r7, [r0, #-1141]!	; 0xfffffb8b
    8e58:	70535f74 	subsvc	r5, r3, r4, ror pc
    8e5c:	00646565 	rsbeq	r6, r4, r5, ror #10
    8e60:	436e6950 	cmnmi	lr, #80, 18	; 0x140000
    8e64:	69666e6f 	stmdbvs	r6!, {r0, r1, r2, r3, r5, r6, r9, sl, fp, sp, lr}^
    8e68:	65470067 	strbvs	r0, [r7, #-103]	; 0xffffff99
    8e6c:	52435f74 	subpl	r5, r3, #116, 30	; 0x1d0
    8e70:	505f484c 	subspl	r4, pc, ip, asr #16
    8e74:	7469736f 	strbtvc	r7, [r9], #-879	; 0xfffffc91
    8e78:	006e6f69 	rsbeq	r6, lr, r9, ror #30
    8e7c:	4f495047 	svcmi	0x00495047
    8e80:	444f4d5f 	strbmi	r4, [pc], #-3423	; 8e88 <_Min_Stack_Size+0x8a88>
    8e84:	50470045 	subpl	r0, r7, r5, asr #32
    8e88:	505f4f49 	subspl	r4, pc, r9, asr #30
    8e8c:	6f436e69 	svcvs	0x00436e69
    8e90:	6769666e 	strbvs	r6, [r9, -lr, ror #12]!
    8e94:	4d00745f 	cfstrsmi	mvf7, [r0, #-380]	; 0xfffffe84
    8e98:	5f4c4143 	svcpl	0x004c4143
    8e9c:	4f495047 	svcmi	0x00495047
    8ea0:	676f545f 			; <UNDEFINED> instruction: 0x676f545f
    8ea4:	50656c67 	rsbpl	r6, r5, r7, ror #24
    8ea8:	4d006e69 	stcmi	14, cr6, [r0, #-420]	; 0xfffffe5c
    8eac:	5f4c4143 	svcpl	0x004c4143
    8eb0:	4f495047 	svcmi	0x00495047
    8eb4:	6972575f 	ldmdbvs	r2!, {r0, r1, r2, r3, r4, r6, r8, r9, sl, ip, lr}^
    8eb8:	69506574 	ldmdbvs	r0, {r2, r4, r5, r6, r8, sl, sp, lr}^
    8ebc:	4950006e 	ldmdbmi	r0, {r1, r2, r3, r5, r6}^
    8ec0:	6f435f4e 	svcvs	0x00435f4e
    8ec4:	6769666e 	strbvs	r6, [r9, -lr, ror #12]!
    8ec8:	49504700 	ldmdbmi	r0, {r8, r9, sl, lr}^
    8ecc:	4d00784f 	stcmi	8, cr7, [r0, #-316]	; 0xfffffec4
    8ed0:	5f4c4143 	svcpl	0x004c4143
    8ed4:	4f495047 	svcmi	0x00495047
    8ed8:	6165525f 	cmnvs	r5, pc, asr r2
    8edc:	6e695064 	cdpvs	0, 6, cr5, cr9, cr4, {3}
    8ee0:	41434d00 	cmpmi	r3, r0, lsl #26
    8ee4:	50475f4c 	subpl	r5, r7, ip, asr #30
    8ee8:	4c5f4f49 	mrrcmi	15, 4, r4, pc, cr9	; <UNPREDICTABLE>
    8eec:	506b636f 	rsbpl	r6, fp, pc, ror #6
    8ef0:	63006e69 	movwvs	r6, #3689	; 0xe69
    8ef4:	69666e6f 	stmdbvs	r6!, {r0, r1, r2, r3, r5, r6, r9, sl, fp, sp, lr}^
    8ef8:	67657267 	strbvs	r7, [r5, -r7, ror #4]!
    8efc:	65747369 	ldrbvs	r7, [r4, #-873]!	; 0xfffffc97
    8f00:	434d0072 	movtmi	r0, #53362	; 0xd072
    8f04:	475f4c41 	ldrbmi	r4, [pc, -r1, asr #24]
    8f08:	5f4f4950 	svcpl	0x004f4950
    8f0c:	74697257 	strbtvc	r7, [r9], #-599	; 0xfffffda9
    8f10:	726f5065 	rsbvc	r5, pc, #101	; 0x65
    8f14:	434d0074 	movtmi	r0, #53364	; 0xd074
    8f18:	475f4c41 	ldrbmi	r4, [pc, -r1, asr #24]
    8f1c:	5f4f4950 	svcpl	0x004f4950
    8f20:	6e496544 	cdpvs	5, 4, cr6, cr9, cr4, {2}
    8f24:	70007469 	andvc	r7, r0, r9, ror #8
    8f28:	5f74726f 	svcpl	0x0074726f
    8f2c:	756c6176 	strbvc	r6, [ip, #-374]!	; 0xfffffe8a
    8f30:	69620065 	stmdbvs	r2!, {r0, r2, r5, r6}^
    8f34:	61747374 	cmnvs	r4, r4, ror r3
    8f38:	00737574 	rsbseq	r7, r3, r4, ror r5
    8f3c:	4f495047 	svcmi	0x00495047
    8f40:	6e69505f 	mcrvs	0, 3, r5, cr9, cr15, {2}
    8f44:	626d754e 	rsbvs	r7, sp, #327155712	; 0x13800000
    8f48:	4d007265 	sfmmi	f7, 4, [r0, #-404]	; 0xfffffe6c
    8f4c:	5f4c4143 	svcpl	0x004c4143
    8f50:	4f495047 	svcmi	0x00495047
    8f54:	6165525f 	cmnvs	r5, pc, asr r2
    8f58:	726f5064 	rsbvc	r5, pc, #100	; 0x64
    8f5c:	61560074 	cmpvs	r6, r4, ror r0
    8f60:	0065756c 	rsbeq	r7, r5, ip, ror #10
    8f64:	49545845 	ldmdbmi	r4, {r0, r2, r6, fp, ip, lr}^
    8f68:	4d005243 	sfmmi	f5, 4, [r0, #-268]	; 0xfffffef4
    8f6c:	5f4c4143 	svcpl	0x004c4143
    8f70:	49545845 	ldmdbmi	r4, {r0, r2, r6, fp, ip, lr}^
    8f74:	4950475f 	ldmdbmi	r0, {r0, r1, r2, r3, r4, r6, r8, r9, sl, lr}^
    8f78:	70555f4f 	subsvc	r5, r5, pc, asr #30
    8f7c:	65746164 	ldrbvs	r6, [r4, #-356]!	; 0xfffffe9c
    8f80:	2f2e2e00 	svccs	0x002e2e00
    8f84:	336d7453 	cmncc	sp, #1392508928	; 0x53000000
    8f88:	31465f32 	cmpcc	r6, r2, lsr pc
    8f8c:	36433330 			; <UNDEFINED> instruction: 0x36433330
    8f90:	6972445f 	ldmdbvs	r2!, {r0, r1, r2, r3, r4, r6, sl, lr}^
    8f94:	73726576 	cmnvc	r2, #494927872	; 0x1d800000
    8f98:	6d74532f 	ldclvs	3, cr5, [r4, #-188]!	; 0xffffff44
    8f9c:	465f3233 			; <UNDEFINED> instruction: 0x465f3233
    8fa0:	43333031 	teqmi	r3, #49	; 0x31
    8fa4:	58455f36 	stmdapl	r5, {r1, r2, r4, r5, r8, r9, sl, fp, ip, lr}^
    8fa8:	645f4954 	ldrbvs	r4, [pc], #-2388	; 8fb0 <_Min_Stack_Size+0x8bb0>
    8fac:	65766972 	ldrbvs	r6, [r6, #-2418]!	; 0xfffff68e
    8fb0:	00632e72 	rsbeq	r2, r3, r2, ror lr
    8fb4:	52535446 	subspl	r5, r3, #1174405120	; 0x46000000
    8fb8:	64705500 	ldrbtvs	r5, [r0], #-1280	; 0xfffffb00
    8fbc:	5f657461 	svcpl	0x00657461
    8fc0:	49545845 	ldmdbmi	r4, {r0, r2, r6, fp, ip, lr}^
    8fc4:	53545200 	cmppl	r4, #0, 4
    8fc8:	46410052 			; <UNDEFINED> instruction: 0x46410052
    8fcc:	475f4f49 	ldrbmi	r4, [pc, -r9, asr #30]
    8fd0:	5f4f4950 	svcpl	0x004f4950
    8fd4:	49545845 	ldmdbmi	r4, {r0, r2, r6, fp, ip, lr}^
    8fd8:	70614d5f 	rsbvc	r4, r1, pc, asr sp
    8fdc:	676e6970 			; <UNDEFINED> instruction: 0x676e6970
    8fe0:	20297828 	eorcs	r7, r9, r8, lsr #16
    8fe4:	78282028 	stmdavc	r8!, {r3, r5, sp}
    8fe8:	50473d3d 	subpl	r3, r7, sp, lsr sp
    8fec:	29414f49 	stmdbcs	r1, {r0, r3, r6, r8, r9, sl, fp, lr}^
    8ff0:	3a30203f 	bcc	c110f4 <_Min_Stack_Size+0xc10cf4>
    8ff4:	3d782820 	ldclcc	8, cr2, [r8, #-128]!	; 0xffffff80
    8ff8:	4950473d 	ldmdbmi	r0, {r0, r2, r3, r4, r5, r8, r9, sl, lr}^
    8ffc:	3f29424f 	svccc	0x0029424f
    9000:	203a3120 	eorscs	r3, sl, r0, lsr #2
    9004:	3d3d7828 	ldccc	8, cr7, [sp, #-160]!	; 0xffffff60
    9008:	4f495047 	svcmi	0x00495047
    900c:	203f2943 	eorscs	r2, pc, r3, asr #18
    9010:	28203a32 	stmdacs	r0!, {r1, r4, r5, r9, fp, ip, sp}
    9014:	473d3d78 			; <UNDEFINED> instruction: 0x473d3d78
    9018:	444f4950 	strbmi	r4, [pc], #-2384	; 9020 <_Min_Stack_Size+0x8c20>
    901c:	33203f29 			; <UNDEFINED> instruction: 0x33203f29
    9020:	2920303a 	stmdbcs	r0!, {r1, r3, r4, r5, ip, sp}
    9024:	6e695000 	cdpvs	0, 6, cr5, cr9, cr0, {0}
    9028:	00676643 	rsbeq	r6, r7, r3, asr #12
    902c:	45534552 	ldrbmi	r4, [r3, #-1362]	; 0xfffffaae
    9030:	44455652 	strbmi	r5, [r5], #-1618	; 0xfffff9ae
    9034:	58450030 	stmdapl	r5, {r4, r5}^
    9038:	5f344954 	svcpl	0x00344954
    903c:	48515249 	ldmdami	r1, {r0, r3, r6, r9, ip, lr}^
    9040:	6c646e61 	stclvs	14, cr6, [r4], #-388	; 0xfffffe7c
    9044:	45007265 	strmi	r7, [r0, #-613]	; 0xfffffd9b
    9048:	5f495458 	svcpl	0x00495458
    904c:	666e6f43 	strbtvs	r6, [lr], -r3, asr #30
    9050:	4d006769 	stcmi	7, cr6, [r0, #-420]	; 0xfffffe5c
    9054:	5f4c4143 	svcpl	0x004c4143
    9058:	49545845 	ldmdbmi	r4, {r0, r2, r6, fp, ip, lr}^
    905c:	4950475f 	ldmdbmi	r0, {r0, r1, r2, r3, r4, r6, r8, r9, sl, lr}^
    9060:	65445f4f 	strbvs	r5, [r4, #-3919]	; 0xfffff0b1
    9064:	74696e49 	strbtvc	r6, [r9], #-3657	; 0xfffff1b7
    9068:	41434d00 	cmpmi	r3, r0, lsl #26
    906c:	58455f4c 	stmdapl	r5, {r2, r3, r6, r8, r9, sl, fp, ip, lr}^
    9070:	475f4954 			; <UNDEFINED> instruction: 0x475f4954
    9074:	5f4f4950 	svcpl	0x004f4950
    9078:	74696e49 	strbtvc	r6, [r9], #-3657	; 0xfffff1b7
    907c:	49575300 	ldmdbmi	r7, {r8, r9, ip, lr}^
    9080:	4d005245 	sfmmi	f5, 4, [r0, #-276]	; 0xfffffeec
    9084:	32525041 	subscc	r5, r2, #65	; 0x41
    9088:	5f504700 	svcpl	0x00504700
    908c:	5f515249 	svcpl	0x00515249
    9090:	6c6c6143 	stfvse	f6, [ip], #-268	; 0xfffffef4
    9094:	6b636142 	blvs	18e15a4 <_Min_Stack_Size+0x18e11a4>
    9098:	49464100 	stmdbmi	r6, {r8, lr}^
    909c:	58455f4f 	stmdapl	r5, {r0, r1, r2, r3, r6, r8, r9, sl, fp, ip, lr}^
    90a0:	52434954 	subpl	r4, r3, #84, 18	; 0x150000
    90a4:	736f705f 	cmnvc	pc, #95	; 0x5f
    90a8:	6e6f6974 			; <UNDEFINED> instruction: 0x6e6f6974
    90ac:	54584500 	ldrbpl	r4, [r8], #-1280	; 0xfffffb00
    90b0:	79545f49 	ldmdbvc	r4, {r0, r3, r6, r8, r9, sl, fp, ip, lr}^
    90b4:	65446570 	strbvs	r6, [r4, #-1392]	; 0xfffffa90
    90b8:	414d0066 	cmpmi	sp, r6, rrx
    90bc:	45005250 	strmi	r5, [r0, #-592]	; 0xfffffdb0
    90c0:	32495458 	subcc	r5, r9, #88, 8	; 0x58000000
    90c4:	5152495f 	cmppl	r2, pc, asr r9
    90c8:	646e6148 	strbtvs	r6, [lr], #-328	; 0xfffffeb8
    90cc:	0072656c 	rsbseq	r6, r2, ip, ror #10
    90d0:	49545845 	ldmdbmi	r4, {r0, r2, r6, fp, ip, lr}^
    90d4:	5f355f39 	svcpl	0x00355f39
    90d8:	48515249 	ldmdami	r1, {r0, r3, r6, r9, ip, lr}^
    90dc:	6c646e61 	stclvs	14, cr6, [r4], #-388	; 0xfffffe7c
    90e0:	41007265 	tstmi	r0, r5, ror #4
    90e4:	5f4f4946 	svcpl	0x004f4946
    90e8:	65707954 	ldrbvs	r7, [r0, #-2388]!	; 0xfffff6ac
    90ec:	00666544 	rsbeq	r6, r6, r4, asr #10
    90f0:	49545845 	ldmdbmi	r4, {r0, r2, r6, fp, ip, lr}^
    90f4:	52495f33 	subpl	r5, r9, #51, 30	; 0xcc
    90f8:	6e614851 	mcrvs	8, 3, r4, cr1, cr1, {2}
    90fc:	72656c64 	rsbvc	r6, r5, #100, 24	; 0x6400
    9100:	49464100 	stmdbmi	r6, {r8, lr}^
    9104:	58455f4f 	stmdapl	r5, {r0, r1, r2, r3, r6, r8, r9, sl, fp, ip, lr}^
    9108:	52434954 	subpl	r4, r3, #84, 18	; 0x150000
    910c:	646e695f 	strbtvs	r6, [lr], #-2399	; 0xfffff6a1
    9110:	45007865 	strmi	r7, [r0, #-2149]	; 0xfffff79b
    9114:	30495458 	subcc	r5, r9, r8, asr r4
    9118:	5152495f 	cmppl	r2, pc, asr r9
    911c:	646e6148 	strbtvs	r6, [lr], #-328	; 0xfffffeb8
    9120:	0072656c 	rsbseq	r6, r2, ip, ror #10
    9124:	52435645 	subpl	r5, r3, #72351744	; 0x4500000
    9128:	54584500 	ldrbpl	r4, [r8], #-1280	; 0xfffffb00
    912c:	5f353149 	svcpl	0x00353149
    9130:	495f3031 	ldmdbmi	pc, {r0, r4, r5, ip, sp}^	; <UNPREDICTABLE>
    9134:	61485152 	cmpvs	r8, r2, asr r1
    9138:	656c646e 	strbvs	r6, [ip, #-1134]!	; 0xfffffb92
    913c:	69440072 	stmdbvs	r4, {r1, r4, r5, r6}^
    9140:	6c626173 	stfvse	f6, [r2], #-460	; 0xfffffe34
    9144:	564e5f65 	strbpl	r5, [lr], -r5, ror #30
    9148:	45004349 	strmi	r4, [r0, #-841]	; 0xfffffcb7
    914c:	31495458 	cmpcc	r9, r8, asr r4
    9150:	5152495f 	cmppl	r2, pc, asr r9
    9154:	646e6148 	strbtvs	r6, [lr], #-328	; 0xfffffeb8
    9158:	0072656c 	rsbseq	r6, r2, ip, ror #10
    915c:	62616e45 	rsbvs	r6, r1, #1104	; 0x450
    9160:	4e5f656c 	cdpmi	5, 5, cr6, cr15, cr12, {3}
    9164:	00434956 	subeq	r4, r3, r6, asr r9

Disassembly of section .comment:

00000000 <.comment>:
   0:	3a434347 	bcc	10d0d24 <_Min_Stack_Size+0x10d0924>
   4:	4e472820 	cdpmi	8, 4, cr2, cr7, cr0, {1}
   8:	6f542055 	svcvs	0x00542055
   c:	20736c6f 	rsbscs	r6, r3, pc, ror #24
  10:	20726f66 	rsbscs	r6, r2, r6, ror #30
  14:	334d5453 	movtcc	r5, #54355	; 0xd453
  18:	2d372032 	ldccs	0, cr2, [r7, #-200]!	; 0xffffff38
  1c:	38313032 	ldmdacc	r1!, {r1, r4, r5, ip, sp}
  20:	2d32712d 	ldfcss	f7, [r2, #-180]!	; 0xffffff4c
  24:	61647075 	smcvs	18181	; 0x4705
  28:	322e6574 	eorcc	r6, lr, #116, 10	; 0x1d000000
  2c:	30393130 	eorscc	r3, r9, r0, lsr r1
  30:	2d383233 	lfmcs	f3, 4, [r8, #-204]!	; 0xffffff34
  34:	30303831 	eorscc	r3, r0, r1, lsr r8
  38:	2e372029 	cdpcs	0, 3, cr2, cr7, cr9, {1}
  3c:	20312e33 	eorscs	r2, r1, r3, lsr lr
  40:	38313032 	ldmdacc	r1!, {r1, r4, r5, ip, sp}
  44:	32323630 	eorscc	r3, r2, #48, 12	; 0x3000000
  48:	65722820 	ldrbvs	r2, [r2, #-2080]!	; 0xfffff7e0
  4c:	7361656c 	cmnvc	r1, #108, 10	; 0x1b000000
  50:	5b202965 	blpl	80a5ec <_Min_Stack_Size+0x80a1ec>
  54:	2f4d5241 	svccs	0x004d5241
  58:	65626d65 	strbvs	r6, [r2, #-3429]!	; 0xfffff29b
  5c:	64656464 	strbtvs	r6, [r5], #-1124	; 0xfffffb9c
  60:	622d372d 	eorvs	r3, sp, #11796480	; 0xb40000
  64:	636e6172 	cmnvs	lr, #-2147483620	; 0x8000001c
  68:	65722068 	ldrbvs	r2, [r2, #-104]!	; 0xffffff98
  6c:	69736976 	ldmdbvs	r3!, {r1, r2, r4, r5, r6, r8, fp, sp, lr}^
  70:	32206e6f 	eorcc	r6, r0, #1776	; 0x6f0
  74:	30393136 	eorscc	r3, r9, r6, lsr r1
  78:	Address 0x0000000000000078 is out of bounds.


Disassembly of section .debug_frame:

00000000 <.debug_frame>:
   0:	0000000c 	andeq	r0, r0, ip
   4:	ffffffff 			; <UNDEFINED> instruction: 0xffffffff
   8:	7c020001 	stcvc	0, cr0, [r2], {1}
   c:	000d0c0e 	andeq	r0, sp, lr, lsl #24
  10:	0000001c 	andeq	r0, r0, ip, lsl r0
  14:	00000000 	andeq	r0, r0, r0
  18:	08000170 	stmdaeq	r0, {r4, r5, r6, r8}
  1c:	0000000c 	andeq	r0, r0, ip
  20:	87040e41 	strhi	r0, [r4, -r1, asr #28]
  24:	070d4101 	streq	r4, [sp, -r1, lsl #2]
  28:	410d0d42 	tstmi	sp, r2, asr #26
  2c:	00000ec7 	andeq	r0, r0, r7, asr #29
  30:	0000001c 	andeq	r0, r0, ip, lsl r0
  34:	00000000 	andeq	r0, r0, r0
  38:	0800017c 	stmdaeq	r0, {r2, r3, r4, r5, r6, r8}
  3c:	0000000c 	andeq	r0, r0, ip
  40:	87040e41 	strhi	r0, [r4, -r1, asr #28]
  44:	070d4101 	streq	r4, [sp, -r1, lsl #2]
  48:	410d0d42 	tstmi	sp, r2, asr #26
  4c:	00000ec7 	andeq	r0, r0, r7, asr #29
  50:	0000001c 	andeq	r0, r0, ip, lsl r0
  54:	00000000 	andeq	r0, r0, r0
  58:	08000188 	stmdaeq	r0, {r3, r7, r8}
  5c:	0000000c 	andeq	r0, r0, ip
  60:	87040e41 	strhi	r0, [r4, -r1, asr #28]
  64:	070d4101 	streq	r4, [sp, -r1, lsl #2]
  68:	410d0d42 	tstmi	sp, r2, asr #26
  6c:	00000ec7 	andeq	r0, r0, r7, asr #29
  70:	00000024 	andeq	r0, r0, r4, lsr #32
  74:	00000000 	andeq	r0, r0, r0
  78:	08000194 	stmdaeq	r0, {r2, r4, r7, r8}
  7c:	00000040 	andeq	r0, r0, r0, asr #32
  80:	87040e41 	strhi	r0, [r4, -r1, asr #28]
  84:	100e4101 	andne	r4, lr, r1, lsl #2
  88:	5a070d41 	bpl	1c3594 <_Min_Stack_Size+0x1c3194>
  8c:	0d41040e 	cfstrdeq	mvd0, [r1, #-56]	; 0xffffffc8
  90:	0ec7410d 	poleqs	f4, f7, #5.0
  94:	00000000 	andeq	r0, r0, r0
  98:	00000018 	andeq	r0, r0, r8, lsl r0
  9c:	00000000 	andeq	r0, r0, r0
  a0:	080001d4 	stmdaeq	r0, {r2, r4, r6, r7, r8}
  a4:	00000018 	andeq	r0, r0, r8, lsl r0
  a8:	87080e41 	strhi	r0, [r8, -r1, asr #28]
  ac:	41018e02 	tstmi	r1, r2, lsl #28
  b0:	0000070d 	andeq	r0, r0, sp, lsl #14
  b4:	0000001c 	andeq	r0, r0, ip, lsl r0
  b8:	00000000 	andeq	r0, r0, r0
  bc:	080001ec 	stmdaeq	r0, {r2, r3, r5, r6, r7, r8}
  c0:	00000074 	andeq	r0, r0, r4, ror r0
  c4:	87080e41 	strhi	r0, [r8, -r1, asr #28]
  c8:	41018e02 	tstmi	r1, r2, lsl #28
  cc:	0d41200e 	stcleq	0, cr2, [r1, #-56]	; 0xffffffc8
  d0:	00000007 	andeq	r0, r0, r7
  d4:	0000000c 	andeq	r0, r0, ip
  d8:	ffffffff 			; <UNDEFINED> instruction: 0xffffffff
  dc:	7c020001 	stcvc	0, cr0, [r2], {1}
  e0:	000d0c0e 	andeq	r0, sp, lr, lsl #24
  e4:	00000024 	andeq	r0, r0, r4, lsr #32
  e8:	000000d4 	ldrdeq	r0, [r0], -r4
  ec:	080002b2 	stmdaeq	r0, {r1, r4, r5, r7, r9}
  f0:	000000c6 	andeq	r0, r0, r6, asr #1
  f4:	87040e41 	strhi	r0, [r4, -r1, asr #28]
  f8:	100e4101 	andne	r4, lr, r1, lsl #2
  fc:	02070d41 	andeq	r0, r7, #4160	; 0x1040
 100:	41040e5d 	tstmi	r4, sp, asr lr
 104:	c7410d0d 	strbgt	r0, [r1, -sp, lsl #26]
 108:	0000000e 	andeq	r0, r0, lr
 10c:	00000024 	andeq	r0, r0, r4, lsr #32
 110:	000000d4 	ldrdeq	r0, [r0], -r4
 114:	08000378 	stmdaeq	r0, {r3, r4, r5, r6, r8, r9}
 118:	000000fe 	strdeq	r0, [r0], -lr
 11c:	840c0e41 	strhi	r0, [ip], #-3649	; 0xfffff1bf
 120:	8e028703 	cdphi	7, 0, cr8, cr2, cr3, {0}
 124:	200e4101 	andcs	r4, lr, r1, lsl #2
 128:	02070d41 	andeq	r0, r7, #4160	; 0x1040
 12c:	410c0e7a 	tstmi	ip, sl, ror lr
 130:	00000d0d 	andeq	r0, r0, sp, lsl #26
 134:	00000024 	andeq	r0, r0, r4, lsr #32
 138:	000000d4 	ldrdeq	r0, [r0], -r4
 13c:	00000000 	andeq	r0, r0, r0
 140:	000000d4 	ldrdeq	r0, [r0], -r4
 144:	87040e41 	strhi	r0, [r4, -r1, asr #28]
 148:	100e4101 	andne	r4, lr, r1, lsl #2
 14c:	02070d41 	andeq	r0, r7, #4160	; 0x1040
 150:	41040e57 	tstmi	r4, r7, asr lr
 154:	c7410d0d 	strbgt	r0, [r1, -sp, lsl #26]
 158:	0000000e 	andeq	r0, r0, lr
 15c:	00000024 	andeq	r0, r0, r4, lsr #32
 160:	000000d4 	ldrdeq	r0, [r0], -r4
 164:	00000000 	andeq	r0, r0, r0
 168:	0000002e 	andeq	r0, r0, lr, lsr #32
 16c:	87040e41 	strhi	r0, [r4, -r1, asr #28]
 170:	180e4101 	stmdane	lr, {r0, r8, lr}
 174:	51070d41 	tstpl	r7, r1, asr #26
 178:	0d41040e 	cfstrdeq	mvd0, [r1, #-56]	; 0xffffffc8
 17c:	0ec7410d 	poleqs	f4, f7, #5.0
 180:	00000000 	andeq	r0, r0, r0
 184:	00000024 	andeq	r0, r0, r4, lsr #32
 188:	000000d4 	ldrdeq	r0, [r0], -r4
 18c:	00000000 	andeq	r0, r0, r0
 190:	0000001a 	andeq	r0, r0, sl, lsl r0
 194:	87040e41 	strhi	r0, [r4, -r1, asr #28]
 198:	180e4101 	stmdane	lr, {r0, r8, lr}
 19c:	47070d41 	strmi	r0, [r7, -r1, asr #26]
 1a0:	0d41040e 	cfstrdeq	mvd0, [r1, #-56]	; 0xffffffc8
 1a4:	0ec7410d 	poleqs	f4, f7, #5.0
 1a8:	00000000 	andeq	r0, r0, r0
 1ac:	00000024 	andeq	r0, r0, r4, lsr #32
 1b0:	000000d4 	ldrdeq	r0, [r0], -r4
 1b4:	00000000 	andeq	r0, r0, r0
 1b8:	0000002e 	andeq	r0, r0, lr, lsr #32
 1bc:	87040e41 	strhi	r0, [r4, -r1, asr #28]
 1c0:	100e4101 	andne	r4, lr, r1, lsl #2
 1c4:	51070d41 	tstpl	r7, r1, asr #26
 1c8:	0d41040e 	cfstrdeq	mvd0, [r1, #-56]	; 0xffffffc8
 1cc:	0ec7410d 	poleqs	f4, f7, #5.0
 1d0:	00000000 	andeq	r0, r0, r0
 1d4:	00000024 	andeq	r0, r0, r4, lsr #32
 1d8:	000000d4 	ldrdeq	r0, [r0], -r4
 1dc:	00000000 	andeq	r0, r0, r0
 1e0:	0000001c 	andeq	r0, r0, ip, lsl r0
 1e4:	87040e41 	strhi	r0, [r4, -r1, asr #28]
 1e8:	100e4101 	andne	r4, lr, r1, lsl #2
 1ec:	48070d41 	stmdami	r7, {r0, r6, r8, sl, fp}
 1f0:	0d41040e 	cfstrdeq	mvd0, [r1, #-56]	; 0xffffffc8
 1f4:	0ec7410d 	poleqs	f4, f7, #5.0
 1f8:	00000000 	andeq	r0, r0, r0
 1fc:	00000024 	andeq	r0, r0, r4, lsr #32
 200:	000000d4 	ldrdeq	r0, [r0], -r4
 204:	00000000 	andeq	r0, r0, r0
 208:	00000022 	andeq	r0, r0, r2, lsr #32
 20c:	87040e41 	strhi	r0, [r4, -r1, asr #28]
 210:	100e4101 	andne	r4, lr, r1, lsl #2
 214:	4b070d41 	blmi	1c3720 <_Min_Stack_Size+0x1c3320>
 218:	0d41040e 	cfstrdeq	mvd0, [r1, #-56]	; 0xffffffc8
 21c:	0ec7410d 	poleqs	f4, f7, #5.0
 220:	00000000 	andeq	r0, r0, r0
 224:	00000024 	andeq	r0, r0, r4, lsr #32
 228:	000000d4 	ldrdeq	r0, [r0], -r4
 22c:	00000000 	andeq	r0, r0, r0
 230:	0000004e 	andeq	r0, r0, lr, asr #32
 234:	87040e41 	strhi	r0, [r4, -r1, asr #28]
 238:	180e4101 	stmdane	lr, {r0, r8, lr}
 23c:	61070d41 	tstvs	r7, r1, asr #26
 240:	0d41040e 	cfstrdeq	mvd0, [r1, #-56]	; 0xffffffc8
 244:	0ec7410d 	poleqs	f4, f7, #5.0
 248:	00000000 	andeq	r0, r0, r0
 24c:	0000000c 	andeq	r0, r0, ip
 250:	ffffffff 			; <UNDEFINED> instruction: 0xffffffff
 254:	7c020001 	stcvc	0, cr0, [r2], {1}
 258:	000d0c0e 	andeq	r0, sp, lr, lsl #24
 25c:	00000024 	andeq	r0, r0, r4, lsr #32
 260:	0000024c 	andeq	r0, r0, ip, asr #4
 264:	08000478 	stmdaeq	r0, {r3, r4, r5, r6, sl}
 268:	000000cc 	andeq	r0, r0, ip, asr #1
 26c:	87040e41 	strhi	r0, [r4, -r1, asr #28]
 270:	100e4101 	andne	r4, lr, r1, lsl #2
 274:	02070d41 	andeq	r0, r7, #4160	; 0x1040
 278:	41040e5c 	tstmi	r4, ip, asr lr
 27c:	c7410d0d 	strbgt	r0, [r1, -sp, lsl #26]
 280:	0000000e 	andeq	r0, r0, lr
 284:	00000024 	andeq	r0, r0, r4, lsr #32
 288:	0000024c 	andeq	r0, r0, ip, asr #4
 28c:	08000544 	stmdaeq	r0, {r2, r6, r8, sl}
 290:	000000cc 	andeq	r0, r0, ip, asr #1
 294:	87040e41 	strhi	r0, [r4, -r1, asr #28]
 298:	100e4101 	andne	r4, lr, r1, lsl #2
 29c:	02070d41 	andeq	r0, r7, #4160	; 0x1040
 2a0:	41040e5c 	tstmi	r4, ip, asr lr
 2a4:	c7410d0d 	strbgt	r0, [r1, -sp, lsl #26]
 2a8:	0000000e 	andeq	r0, r0, lr
 2ac:	00000020 	andeq	r0, r0, r0, lsr #32
 2b0:	0000024c 	andeq	r0, r0, ip, asr #4
 2b4:	08000610 	stmdaeq	r0, {r4, r9, sl}
 2b8:	000001d8 	ldrdeq	r0, [r0], -r8
 2bc:	87080e41 	strhi	r0, [r8, -r1, asr #28]
 2c0:	41018e02 	tstmi	r1, r2, lsl #28
 2c4:	0d41180e 	stcleq	8, cr1, [r1, #-56]	; 0xffffffc8
 2c8:	0ed90207 	cdpeq	2, 13, cr0, cr9, cr7, {0}
 2cc:	0d0d4108 	stfeqs	f4, [sp, #-32]	; 0xffffffe0
 2d0:	00000020 	andeq	r0, r0, r0, lsr #32
 2d4:	0000024c 	andeq	r0, r0, ip, asr #4
 2d8:	080007e8 	stmdaeq	r0, {r3, r5, r6, r7, r8, r9, sl}
 2dc:	00000016 	andeq	r0, r0, r6, lsl r0
 2e0:	87080e41 	strhi	r0, [r8, -r1, asr #28]
 2e4:	41018e02 	tstmi	r1, r2, lsl #28
 2e8:	0d41100e 	stcleq	0, cr1, [r1, #-56]	; 0xffffffc8
 2ec:	080e4607 	stmdaeq	lr, {r0, r1, r2, r9, sl, lr}
 2f0:	000d0d41 	andeq	r0, sp, r1, asr #26
 2f4:	0000001c 	andeq	r0, r0, ip, lsl r0
 2f8:	0000024c 	andeq	r0, r0, ip, asr #4
 2fc:	00000000 	andeq	r0, r0, r0
 300:	00000094 	muleq	r0, r4, r0
 304:	87040e41 	strhi	r0, [r4, -r1, asr #28]
 308:	070d4101 	streq	r4, [sp, -r1, lsl #2]
 30c:	410d0d7f 	tstmi	sp, pc, ror sp
 310:	00000ec7 	andeq	r0, r0, r7, asr #29
 314:	00000020 	andeq	r0, r0, r0, lsr #32
 318:	0000024c 	andeq	r0, r0, ip, asr #4
 31c:	00000000 	andeq	r0, r0, r0
 320:	00000016 	andeq	r0, r0, r6, lsl r0
 324:	87080e41 	strhi	r0, [r8, -r1, asr #28]
 328:	41018e02 	tstmi	r1, r2, lsl #28
 32c:	0d41100e 	stcleq	0, cr1, [r1, #-56]	; 0xffffffc8
 330:	080e4607 	stmdaeq	lr, {r0, r1, r2, r9, sl, lr}
 334:	000d0d41 	andeq	r0, sp, r1, asr #26
 338:	00000018 	andeq	r0, r0, r8, lsl r0
 33c:	0000024c 	andeq	r0, r0, ip, asr #4
 340:	08000800 	stmdaeq	r0, {fp}
 344:	00000024 	andeq	r0, r0, r4, lsr #32
 348:	87080e41 	strhi	r0, [r8, -r1, asr #28]
 34c:	41018e02 	tstmi	r1, r2, lsl #28
 350:	0000070d 	andeq	r0, r0, sp, lsl #14
 354:	00000018 	andeq	r0, r0, r8, lsl r0
 358:	0000024c 	andeq	r0, r0, ip, asr #4
 35c:	08000824 	stmdaeq	r0, {r2, r5, fp}
 360:	00000024 	andeq	r0, r0, r4, lsr #32
 364:	87080e41 	strhi	r0, [r8, -r1, asr #28]
 368:	41018e02 	tstmi	r1, r2, lsl #28
 36c:	0000070d 	andeq	r0, r0, sp, lsl #14
 370:	00000018 	andeq	r0, r0, r8, lsl r0
 374:	0000024c 	andeq	r0, r0, ip, asr #4
 378:	08000848 	stmdaeq	r0, {r3, r6, fp}
 37c:	00000024 	andeq	r0, r0, r4, lsr #32
 380:	87080e41 	strhi	r0, [r8, -r1, asr #28]
 384:	41018e02 	tstmi	r1, r2, lsl #28
 388:	0000070d 	andeq	r0, r0, sp, lsl #14
 38c:	00000018 	andeq	r0, r0, r8, lsl r0
 390:	0000024c 	andeq	r0, r0, ip, asr #4
 394:	0800086c 	stmdaeq	r0, {r2, r3, r5, r6, fp}
 398:	00000024 	andeq	r0, r0, r4, lsr #32
 39c:	87080e41 	strhi	r0, [r8, -r1, asr #28]
 3a0:	41018e02 	tstmi	r1, r2, lsl #28
 3a4:	0000070d 	andeq	r0, r0, sp, lsl #14
 3a8:	00000018 	andeq	r0, r0, r8, lsl r0
 3ac:	0000024c 	andeq	r0, r0, ip, asr #4
 3b0:	08000890 	stmdaeq	r0, {r4, r7, fp}
 3b4:	00000024 	andeq	r0, r0, r4, lsr #32
 3b8:	87080e41 	strhi	r0, [r8, -r1, asr #28]
 3bc:	41018e02 	tstmi	r1, r2, lsl #28
 3c0:	0000070d 	andeq	r0, r0, sp, lsl #14
 3c4:	00000018 	andeq	r0, r0, r8, lsl r0
 3c8:	0000024c 	andeq	r0, r0, ip, asr #4
 3cc:	080008b4 	stmdaeq	r0, {r2, r4, r5, r7, fp}
 3d0:	000000a8 	andeq	r0, r0, r8, lsr #1
 3d4:	87080e41 	strhi	r0, [r8, -r1, asr #28]
 3d8:	41018e02 	tstmi	r1, r2, lsl #28
 3dc:	0000070d 	andeq	r0, r0, sp, lsl #14
 3e0:	00000018 	andeq	r0, r0, r8, lsl r0
 3e4:	0000024c 	andeq	r0, r0, ip, asr #4
 3e8:	0800095c 	stmdaeq	r0, {r2, r3, r4, r6, r8, fp}
 3ec:	000000c4 	andeq	r0, r0, r4, asr #1
 3f0:	87080e41 	strhi	r0, [r8, -r1, asr #28]
 3f4:	41018e02 	tstmi	r1, r2, lsl #28
 3f8:	0000070d 	andeq	r0, r0, sp, lsl #14
 3fc:	0000000c 	andeq	r0, r0, ip
 400:	ffffffff 			; <UNDEFINED> instruction: 0xffffffff
 404:	7c020001 	stcvc	0, cr0, [r2], {1}
 408:	000d0c0e 	andeq	r0, sp, lr, lsl #24
 40c:	00000018 	andeq	r0, r0, r8, lsl r0
 410:	000003fc 	strdeq	r0, [r0], -ip
 414:	08000a20 	stmdaeq	r0, {r5, r9, fp}
 418:	00000048 	andeq	r0, r0, r8, asr #32
 41c:	84100e41 	ldrhi	r0, [r0], #-3649	; 0xfffff1bf
 420:	86038504 	strhi	r8, [r3], -r4, lsl #10
 424:	00018e02 	andeq	r8, r1, r2, lsl #28
