
Drivers.axf:     file format elf32-littlearm


Disassembly of section .isr_vector:

08000000 <g_pfnVectors>:
 8000000:	20002800 	andcs	r2, r0, r0, lsl #16
 8000004:	08000261 	stmdaeq	r0, {r0, r5, r6, r9}
 8000008:	080002b1 	stmdaeq	r0, {r0, r4, r5, r7, r9}
 800000c:	08000171 	stmdaeq	r0, {r0, r4, r5, r6, r8}
 8000010:	080002b1 	stmdaeq	r0, {r0, r4, r5, r7, r9}
 8000014:	0800017d 	stmdaeq	r0, {r0, r2, r3, r4, r5, r6, r8}
 8000018:	08000189 	stmdaeq	r0, {r0, r3, r7, r8}
	...
 800002c:	080002b1 	stmdaeq	r0, {r0, r4, r5, r7, r9}
 8000030:	080002b1 	stmdaeq	r0, {r0, r4, r5, r7, r9}
 8000034:	00000000 	andeq	r0, r0, r0
 8000038:	080002b1 	stmdaeq	r0, {r0, r4, r5, r7, r9}
 800003c:	080002b1 	stmdaeq	r0, {r0, r4, r5, r7, r9}
 8000040:	080002b1 	stmdaeq	r0, {r0, r4, r5, r7, r9}
 8000044:	080002b1 	stmdaeq	r0, {r0, r4, r5, r7, r9}
 8000048:	080002b1 	stmdaeq	r0, {r0, r4, r5, r7, r9}
 800004c:	080002b1 	stmdaeq	r0, {r0, r4, r5, r7, r9}
 8000050:	080002b1 	stmdaeq	r0, {r0, r4, r5, r7, r9}
 8000054:	080002b1 	stmdaeq	r0, {r0, r4, r5, r7, r9}
 8000058:	08000801 	stmdaeq	r0, {r0, fp}
 800005c:	08000825 	stmdaeq	r0, {r0, r2, r5, fp}
 8000060:	08000849 	stmdaeq	r0, {r0, r3, r6, fp}
 8000064:	0800086d 	stmdaeq	r0, {r0, r2, r3, r5, r6, fp}
 8000068:	08000891 	stmdaeq	r0, {r0, r4, r7, fp}
 800006c:	080002b1 	stmdaeq	r0, {r0, r4, r5, r7, r9}
 8000070:	080002b1 	stmdaeq	r0, {r0, r4, r5, r7, r9}
 8000074:	080002b1 	stmdaeq	r0, {r0, r4, r5, r7, r9}
 8000078:	080002b1 	stmdaeq	r0, {r0, r4, r5, r7, r9}
 800007c:	080002b1 	stmdaeq	r0, {r0, r4, r5, r7, r9}
 8000080:	080002b1 	stmdaeq	r0, {r0, r4, r5, r7, r9}
 8000084:	080002b1 	stmdaeq	r0, {r0, r4, r5, r7, r9}
 8000088:	080002b1 	stmdaeq	r0, {r0, r4, r5, r7, r9}
 800008c:	080002b1 	stmdaeq	r0, {r0, r4, r5, r7, r9}
 8000090:	080002b1 	stmdaeq	r0, {r0, r4, r5, r7, r9}
 8000094:	080002b1 	stmdaeq	r0, {r0, r4, r5, r7, r9}
 8000098:	080002b1 	stmdaeq	r0, {r0, r4, r5, r7, r9}
 800009c:	080008b5 	stmdaeq	r0, {r0, r2, r4, r5, r7, fp}
 80000a0:	080002b1 	stmdaeq	r0, {r0, r4, r5, r7, r9}
 80000a4:	080002b1 	stmdaeq	r0, {r0, r4, r5, r7, r9}
 80000a8:	080002b1 	stmdaeq	r0, {r0, r4, r5, r7, r9}
 80000ac:	080002b1 	stmdaeq	r0, {r0, r4, r5, r7, r9}
 80000b0:	080002b1 	stmdaeq	r0, {r0, r4, r5, r7, r9}
 80000b4:	080002b1 	stmdaeq	r0, {r0, r4, r5, r7, r9}
 80000b8:	080002b1 	stmdaeq	r0, {r0, r4, r5, r7, r9}
 80000bc:	080002b1 	stmdaeq	r0, {r0, r4, r5, r7, r9}
 80000c0:	080002b1 	stmdaeq	r0, {r0, r4, r5, r7, r9}
 80000c4:	080002b1 	stmdaeq	r0, {r0, r4, r5, r7, r9}
 80000c8:	080002b1 	stmdaeq	r0, {r0, r4, r5, r7, r9}
 80000cc:	080002b1 	stmdaeq	r0, {r0, r4, r5, r7, r9}
 80000d0:	080002b1 	stmdaeq	r0, {r0, r4, r5, r7, r9}
 80000d4:	080002b1 	stmdaeq	r0, {r0, r4, r5, r7, r9}
 80000d8:	080002b1 	stmdaeq	r0, {r0, r4, r5, r7, r9}
 80000dc:	080002b1 	stmdaeq	r0, {r0, r4, r5, r7, r9}
 80000e0:	0800095d 	stmdaeq	r0, {r0, r2, r3, r4, r6, r8, fp}
 80000e4:	080002b1 	stmdaeq	r0, {r0, r4, r5, r7, r9}
 80000e8:	00000000 	andeq	r0, r0, r0
 80000ec:	080002b1 	stmdaeq	r0, {r0, r4, r5, r7, r9}
 80000f0:	080002b1 	stmdaeq	r0, {r0, r4, r5, r7, r9}
 80000f4:	080002b1 	stmdaeq	r0, {r0, r4, r5, r7, r9}
 80000f8:	080002b1 	stmdaeq	r0, {r0, r4, r5, r7, r9}
 80000fc:	080002b1 	stmdaeq	r0, {r0, r4, r5, r7, r9}
 8000100:	080002b1 	stmdaeq	r0, {r0, r4, r5, r7, r9}
 8000104:	080002b1 	stmdaeq	r0, {r0, r4, r5, r7, r9}
 8000108:	080002b1 	stmdaeq	r0, {r0, r4, r5, r7, r9}
 800010c:	080002b1 	stmdaeq	r0, {r0, r4, r5, r7, r9}
 8000110:	080002b1 	stmdaeq	r0, {r0, r4, r5, r7, r9}
 8000114:	080002b1 	stmdaeq	r0, {r0, r4, r5, r7, r9}
 8000118:	080002b1 	stmdaeq	r0, {r0, r4, r5, r7, r9}
 800011c:	080002b1 	stmdaeq	r0, {r0, r4, r5, r7, r9}
 8000120:	080002b1 	stmdaeq	r0, {r0, r4, r5, r7, r9}
 8000124:	080002b1 	stmdaeq	r0, {r0, r4, r5, r7, r9}
 8000128:	080002b1 	stmdaeq	r0, {r0, r4, r5, r7, r9}
 800012c:	080002b1 	stmdaeq	r0, {r0, r4, r5, r7, r9}

Disassembly of section .text:

08000130 <__do_global_dtors_aux>:
 8000130:	b510      	push	{r4, lr}
 8000132:	4c05      	ldr	r4, [pc, #20]	; (8000148 <__do_global_dtors_aux+0x18>)
 8000134:	7823      	ldrb	r3, [r4, #0]
 8000136:	b933      	cbnz	r3, 8000146 <__do_global_dtors_aux+0x16>
 8000138:	4b04      	ldr	r3, [pc, #16]	; (800014c <__do_global_dtors_aux+0x1c>)
 800013a:	b113      	cbz	r3, 8000142 <__do_global_dtors_aux+0x12>
 800013c:	4804      	ldr	r0, [pc, #16]	; (8000150 <__do_global_dtors_aux+0x20>)
 800013e:	f3af 8000 	nop.w
 8000142:	2301      	movs	r3, #1
 8000144:	7023      	strb	r3, [r4, #0]
 8000146:	bd10      	pop	{r4, pc}
 8000148:	20000000 	andcs	r0, r0, r0
 800014c:	00000000 	andeq	r0, r0, r0
 8000150:	08000a68 	stmdaeq	r0, {r3, r5, r6, r9, fp}

08000154 <frame_dummy>:
 8000154:	b508      	push	{r3, lr}
 8000156:	4b03      	ldr	r3, [pc, #12]	; (8000164 <frame_dummy+0x10>)
 8000158:	b11b      	cbz	r3, 8000162 <frame_dummy+0xe>
 800015a:	4903      	ldr	r1, [pc, #12]	; (8000168 <frame_dummy+0x14>)
 800015c:	4803      	ldr	r0, [pc, #12]	; (800016c <frame_dummy+0x18>)
 800015e:	f3af 8000 	nop.w
 8000162:	bd08      	pop	{r3, pc}
 8000164:	00000000 	andeq	r0, r0, r0
 8000168:	20000004 	andcs	r0, r0, r4
 800016c:	08000a68 	stmdaeq	r0, {r3, r5, r6, r9, fp}

08000170 <HardFault_Handler>:
 8000170:	b480      	push	{r7}
 8000172:	af00      	add	r7, sp, #0
 8000174:	bf00      	nop
 8000176:	46bd      	mov	sp, r7
 8000178:	bc80      	pop	{r7}
 800017a:	4770      	bx	lr

0800017c <BusFault_Handler>:
 800017c:	b480      	push	{r7}
 800017e:	af00      	add	r7, sp, #0
 8000180:	bf00      	nop
 8000182:	46bd      	mov	sp, r7
 8000184:	bc80      	pop	{r7}
 8000186:	4770      	bx	lr

08000188 <UsageFault_Handler>:
 8000188:	b480      	push	{r7}
 800018a:	af00      	add	r7, sp, #0
 800018c:	bf00      	nop
 800018e:	46bd      	mov	sp, r7
 8000190:	bc80      	pop	{r7}
 8000192:	4770      	bx	lr

08000194 <SWITCH_CPU_AccessLevel>:
 8000194:	b480      	push	{r7}
 8000196:	b083      	sub	sp, #12
 8000198:	af00      	add	r7, sp, #0
 800019a:	4603      	mov	r3, r0
 800019c:	71fb      	strb	r3, [r7, #7]
 800019e:	79fb      	ldrb	r3, [r7, #7]
 80001a0:	2b00      	cmp	r3, #0
 80001a2:	d002      	beq.n	80001aa <SWITCH_CPU_AccessLevel+0x16>
 80001a4:	2b01      	cmp	r3, #1
 80001a6:	d009      	beq.n	80001bc <SWITCH_CPU_AccessLevel+0x28>
 80001a8:	e00f      	b.n	80001ca <SWITCH_CPU_AccessLevel+0x36>
 80001aa:	f3ef 8314 	mrs	r3, CONTROL
 80001ae:	ea4f 0353 	mov.w	r3, r3, lsr #1
 80001b2:	ea4f 0343 	mov.w	r3, r3, lsl #1
 80001b6:	f383 8814 	msr	CONTROL, r3
 80001ba:	e006      	b.n	80001ca <SWITCH_CPU_AccessLevel+0x36>
 80001bc:	f3ef 8314 	mrs	r3, CONTROL
 80001c0:	f043 0301 	orr.w	r3, r3, #1
 80001c4:	f383 8814 	msr	CONTROL, r3
 80001c8:	bf00      	nop
 80001ca:	bf00      	nop
 80001cc:	370c      	adds	r7, #12
 80001ce:	46bd      	mov	sp, r7
 80001d0:	bc80      	pop	{r7}
 80001d2:	4770      	bx	lr

080001d4 <EXTI9_Callback>:
 80001d4:	b580      	push	{r7, lr}
 80001d6:	af00      	add	r7, sp, #0
 80001d8:	4b03      	ldr	r3, [pc, #12]	; (80001e8 <EXTI9_Callback+0x14>)
 80001da:	2201      	movs	r2, #1
 80001dc:	601a      	str	r2, [r3, #0]
 80001de:	2000      	movs	r0, #0
 80001e0:	f7ff ffd8 	bl	8000194 <SWITCH_CPU_AccessLevel>
 80001e4:	bf00      	nop
 80001e6:	bd80      	pop	{r7, pc}
 80001e8:	2000001c 	andcs	r0, r0, ip, lsl r0

080001ec <main>:
 80001ec:	b580      	push	{r7, lr}
 80001ee:	b086      	sub	sp, #24
 80001f0:	af00      	add	r7, sp, #0
 80001f2:	4b17      	ldr	r3, [pc, #92]	; (8000250 <main+0x64>)
 80001f4:	699b      	ldr	r3, [r3, #24]
 80001f6:	4a16      	ldr	r2, [pc, #88]	; (8000250 <main+0x64>)
 80001f8:	f043 0304 	orr.w	r3, r3, #4
 80001fc:	6193      	str	r3, [r2, #24]
 80001fe:	4b14      	ldr	r3, [pc, #80]	; (8000250 <main+0x64>)
 8000200:	699b      	ldr	r3, [r3, #24]
 8000202:	4a13      	ldr	r2, [pc, #76]	; (8000250 <main+0x64>)
 8000204:	f043 0308 	orr.w	r3, r3, #8
 8000208:	6193      	str	r3, [r2, #24]
 800020a:	4b11      	ldr	r3, [pc, #68]	; (8000250 <main+0x64>)
 800020c:	699b      	ldr	r3, [r3, #24]
 800020e:	4a10      	ldr	r2, [pc, #64]	; (8000250 <main+0x64>)
 8000210:	f043 0301 	orr.w	r3, r3, #1
 8000214:	6193      	str	r3, [r2, #24]
 8000216:	4a0f      	ldr	r2, [pc, #60]	; (8000254 <main+0x68>)
 8000218:	1d3b      	adds	r3, r7, #4
 800021a:	ca07      	ldmia	r2, {r0, r1, r2}
 800021c:	e883 0007 	stmia.w	r3, {r0, r1, r2}
 8000220:	2300      	movs	r3, #0
 8000222:	743b      	strb	r3, [r7, #16]
 8000224:	4b0c      	ldr	r3, [pc, #48]	; (8000258 <main+0x6c>)
 8000226:	617b      	str	r3, [r7, #20]
 8000228:	2300      	movs	r3, #0
 800022a:	747b      	strb	r3, [r7, #17]
 800022c:	1d3b      	adds	r3, r7, #4
 800022e:	4618      	mov	r0, r3
 8000230:	f000 fada 	bl	80007e8 <MCAL_EXTI_GPIO_Init>
 8000234:	2001      	movs	r0, #1
 8000236:	f7ff ffad 	bl	8000194 <SWITCH_CPU_AccessLevel>
 800023a:	4b08      	ldr	r3, [pc, #32]	; (800025c <main+0x70>)
 800023c:	2201      	movs	r2, #1
 800023e:	601a      	str	r2, [r3, #0]
 8000240:	4b06      	ldr	r3, [pc, #24]	; (800025c <main+0x70>)
 8000242:	681b      	ldr	r3, [r3, #0]
 8000244:	2b00      	cmp	r3, #0
 8000246:	d0fb      	beq.n	8000240 <main+0x54>
 8000248:	4b04      	ldr	r3, [pc, #16]	; (800025c <main+0x70>)
 800024a:	2200      	movs	r2, #0
 800024c:	601a      	str	r2, [r3, #0]
 800024e:	e7f7      	b.n	8000240 <main+0x54>
 8000250:	40021000 	andmi	r1, r2, r0
 8000254:	08000a80 	stmdaeq	r0, {r7, r9, fp}
 8000258:	080001d5 	stmdaeq	r0, {r0, r2, r4, r6, r7, r8}
 800025c:	2000001c 	andcs	r0, r0, ip, lsl r0

08000260 <Reset_Handler>:
 8000260:	480d      	ldr	r0, [pc, #52]	; (8000298 <LoopForever+0x2>)
 8000262:	4685      	mov	sp, r0
 8000264:	f3af 8000 	nop.w
 8000268:	480c      	ldr	r0, [pc, #48]	; (800029c <LoopForever+0x6>)
 800026a:	490d      	ldr	r1, [pc, #52]	; (80002a0 <LoopForever+0xa>)
 800026c:	4a0d      	ldr	r2, [pc, #52]	; (80002a4 <LoopForever+0xe>)
 800026e:	2300      	movs	r3, #0
 8000270:	e002      	b.n	8000278 <LoopCopyDataInit>

08000272 <CopyDataInit>:
 8000272:	58d4      	ldr	r4, [r2, r3]
 8000274:	50c4      	str	r4, [r0, r3]
 8000276:	3304      	adds	r3, #4

08000278 <LoopCopyDataInit>:
 8000278:	18c4      	adds	r4, r0, r3
 800027a:	428c      	cmp	r4, r1
 800027c:	d3f9      	bcc.n	8000272 <CopyDataInit>
 800027e:	4a0a      	ldr	r2, [pc, #40]	; (80002a8 <LoopForever+0x12>)
 8000280:	4c0a      	ldr	r4, [pc, #40]	; (80002ac <LoopForever+0x16>)
 8000282:	2300      	movs	r3, #0
 8000284:	e001      	b.n	800028a <LoopFillZerobss>

08000286 <FillZerobss>:
 8000286:	6013      	str	r3, [r2, #0]
 8000288:	3204      	adds	r2, #4

0800028a <LoopFillZerobss>:
 800028a:	42a2      	cmp	r2, r4
 800028c:	d3fb      	bcc.n	8000286 <FillZerobss>
 800028e:	f000 fbc7 	bl	8000a20 <__libc_init_array>
 8000292:	f7ff ffab 	bl	80001ec <main>

08000296 <LoopForever>:
 8000296:	e7fe      	b.n	8000296 <LoopForever>
 8000298:	20002800 	andcs	r2, r0, r0, lsl #16
 800029c:	20000000 	andcs	r0, r0, r0
 80002a0:	20000000 	andcs	r0, r0, r0
 80002a4:	08000a94 	stmdaeq	r0, {r2, r4, r7, r9, fp}
 80002a8:	20000000 	andcs	r0, r0, r0
 80002ac:	2000005c 	andcs	r0, r0, ip, asr r0

080002b0 <ADC1_2_IRQHandler>:
 80002b0:	e7fe      	b.n	80002b0 <ADC1_2_IRQHandler>

080002b2 <Get_CRLH_Position>:
 80002b2:	b480      	push	{r7}
 80002b4:	b083      	sub	sp, #12
 80002b6:	af00      	add	r7, sp, #0
 80002b8:	4603      	mov	r3, r0
 80002ba:	80fb      	strh	r3, [r7, #6]
 80002bc:	88fb      	ldrh	r3, [r7, #6]
 80002be:	2b80      	cmp	r3, #128	; 0x80
 80002c0:	d042      	beq.n	8000348 <Get_CRLH_Position+0x96>
 80002c2:	2b80      	cmp	r3, #128	; 0x80
 80002c4:	dc11      	bgt.n	80002ea <Get_CRLH_Position+0x38>
 80002c6:	2b08      	cmp	r3, #8
 80002c8:	d036      	beq.n	8000338 <Get_CRLH_Position+0x86>
 80002ca:	2b08      	cmp	r3, #8
 80002cc:	dc06      	bgt.n	80002dc <Get_CRLH_Position+0x2a>
 80002ce:	2b02      	cmp	r3, #2
 80002d0:	d02e      	beq.n	8000330 <Get_CRLH_Position+0x7e>
 80002d2:	2b04      	cmp	r3, #4
 80002d4:	d02e      	beq.n	8000334 <Get_CRLH_Position+0x82>
 80002d6:	2b01      	cmp	r3, #1
 80002d8:	d028      	beq.n	800032c <Get_CRLH_Position+0x7a>
 80002da:	e047      	b.n	800036c <Get_CRLH_Position+0xba>
 80002dc:	2b20      	cmp	r3, #32
 80002de:	d02f      	beq.n	8000340 <Get_CRLH_Position+0x8e>
 80002e0:	2b40      	cmp	r3, #64	; 0x40
 80002e2:	d02f      	beq.n	8000344 <Get_CRLH_Position+0x92>
 80002e4:	2b10      	cmp	r3, #16
 80002e6:	d029      	beq.n	800033c <Get_CRLH_Position+0x8a>
 80002e8:	e040      	b.n	800036c <Get_CRLH_Position+0xba>
 80002ea:	f5b3 6f00 	cmp.w	r3, #2048	; 0x800
 80002ee:	d033      	beq.n	8000358 <Get_CRLH_Position+0xa6>
 80002f0:	f5b3 6f00 	cmp.w	r3, #2048	; 0x800
 80002f4:	dc09      	bgt.n	800030a <Get_CRLH_Position+0x58>
 80002f6:	f5b3 7f00 	cmp.w	r3, #512	; 0x200
 80002fa:	d029      	beq.n	8000350 <Get_CRLH_Position+0x9e>
 80002fc:	f5b3 6f80 	cmp.w	r3, #1024	; 0x400
 8000300:	d028      	beq.n	8000354 <Get_CRLH_Position+0xa2>
 8000302:	f5b3 7f80 	cmp.w	r3, #256	; 0x100
 8000306:	d021      	beq.n	800034c <Get_CRLH_Position+0x9a>
 8000308:	e030      	b.n	800036c <Get_CRLH_Position+0xba>
 800030a:	f5b3 5f00 	cmp.w	r3, #8192	; 0x2000
 800030e:	d027      	beq.n	8000360 <Get_CRLH_Position+0xae>
 8000310:	f5b3 5f00 	cmp.w	r3, #8192	; 0x2000
 8000314:	dc03      	bgt.n	800031e <Get_CRLH_Position+0x6c>
 8000316:	f5b3 5f80 	cmp.w	r3, #4096	; 0x1000
 800031a:	d01f      	beq.n	800035c <Get_CRLH_Position+0xaa>
 800031c:	e026      	b.n	800036c <Get_CRLH_Position+0xba>
 800031e:	f5b3 4f80 	cmp.w	r3, #16384	; 0x4000
 8000322:	d01f      	beq.n	8000364 <Get_CRLH_Position+0xb2>
 8000324:	f5b3 4f00 	cmp.w	r3, #32768	; 0x8000
 8000328:	d01e      	beq.n	8000368 <Get_CRLH_Position+0xb6>
 800032a:	e01f      	b.n	800036c <Get_CRLH_Position+0xba>
 800032c:	2300      	movs	r3, #0
 800032e:	e01e      	b.n	800036e <Get_CRLH_Position+0xbc>
 8000330:	2304      	movs	r3, #4
 8000332:	e01c      	b.n	800036e <Get_CRLH_Position+0xbc>
 8000334:	2308      	movs	r3, #8
 8000336:	e01a      	b.n	800036e <Get_CRLH_Position+0xbc>
 8000338:	230c      	movs	r3, #12
 800033a:	e018      	b.n	800036e <Get_CRLH_Position+0xbc>
 800033c:	2310      	movs	r3, #16
 800033e:	e016      	b.n	800036e <Get_CRLH_Position+0xbc>
 8000340:	2314      	movs	r3, #20
 8000342:	e014      	b.n	800036e <Get_CRLH_Position+0xbc>
 8000344:	2318      	movs	r3, #24
 8000346:	e012      	b.n	800036e <Get_CRLH_Position+0xbc>
 8000348:	231c      	movs	r3, #28
 800034a:	e010      	b.n	800036e <Get_CRLH_Position+0xbc>
 800034c:	2300      	movs	r3, #0
 800034e:	e00e      	b.n	800036e <Get_CRLH_Position+0xbc>
 8000350:	2304      	movs	r3, #4
 8000352:	e00c      	b.n	800036e <Get_CRLH_Position+0xbc>
 8000354:	2308      	movs	r3, #8
 8000356:	e00a      	b.n	800036e <Get_CRLH_Position+0xbc>
 8000358:	230c      	movs	r3, #12
 800035a:	e008      	b.n	800036e <Get_CRLH_Position+0xbc>
 800035c:	2310      	movs	r3, #16
 800035e:	e006      	b.n	800036e <Get_CRLH_Position+0xbc>
 8000360:	2314      	movs	r3, #20
 8000362:	e004      	b.n	800036e <Get_CRLH_Position+0xbc>
 8000364:	2318      	movs	r3, #24
 8000366:	e002      	b.n	800036e <Get_CRLH_Position+0xbc>
 8000368:	231c      	movs	r3, #28
 800036a:	e000      	b.n	800036e <Get_CRLH_Position+0xbc>
 800036c:	2300      	movs	r3, #0
 800036e:	4618      	mov	r0, r3
 8000370:	370c      	adds	r7, #12
 8000372:	46bd      	mov	sp, r7
 8000374:	bc80      	pop	{r7}
 8000376:	4770      	bx	lr

08000378 <MCAL_GPIO_Init>:
 8000378:	b590      	push	{r4, r7, lr}
 800037a:	b085      	sub	sp, #20
 800037c:	af00      	add	r7, sp, #0
 800037e:	6078      	str	r0, [r7, #4]
 8000380:	6039      	str	r1, [r7, #0]
 8000382:	2300      	movs	r3, #0
 8000384:	60bb      	str	r3, [r7, #8]
 8000386:	2300      	movs	r3, #0
 8000388:	73fb      	strb	r3, [r7, #15]
 800038a:	683b      	ldr	r3, [r7, #0]
 800038c:	881b      	ldrh	r3, [r3, #0]
 800038e:	2bff      	cmp	r3, #255	; 0xff
 8000390:	d801      	bhi.n	8000396 <MCAL_GPIO_Init+0x1e>
 8000392:	687b      	ldr	r3, [r7, #4]
 8000394:	e001      	b.n	800039a <MCAL_GPIO_Init+0x22>
 8000396:	687b      	ldr	r3, [r7, #4]
 8000398:	3304      	adds	r3, #4
 800039a:	60bb      	str	r3, [r7, #8]
 800039c:	683b      	ldr	r3, [r7, #0]
 800039e:	881b      	ldrh	r3, [r3, #0]
 80003a0:	4618      	mov	r0, r3
 80003a2:	f7ff ff86 	bl	80002b2 <Get_CRLH_Position>
 80003a6:	4603      	mov	r3, r0
 80003a8:	461a      	mov	r2, r3
 80003aa:	230f      	movs	r3, #15
 80003ac:	4093      	lsls	r3, r2
 80003ae:	43da      	mvns	r2, r3
 80003b0:	68bb      	ldr	r3, [r7, #8]
 80003b2:	681b      	ldr	r3, [r3, #0]
 80003b4:	401a      	ands	r2, r3
 80003b6:	68bb      	ldr	r3, [r7, #8]
 80003b8:	601a      	str	r2, [r3, #0]
 80003ba:	683b      	ldr	r3, [r7, #0]
 80003bc:	789b      	ldrb	r3, [r3, #2]
 80003be:	2b07      	cmp	r3, #7
 80003c0:	d00b      	beq.n	80003da <MCAL_GPIO_Init+0x62>
 80003c2:	683b      	ldr	r3, [r7, #0]
 80003c4:	789b      	ldrb	r3, [r3, #2]
 80003c6:	2b06      	cmp	r3, #6
 80003c8:	d007      	beq.n	80003da <MCAL_GPIO_Init+0x62>
 80003ca:	683b      	ldr	r3, [r7, #0]
 80003cc:	789b      	ldrb	r3, [r3, #2]
 80003ce:	2b05      	cmp	r3, #5
 80003d0:	d003      	beq.n	80003da <MCAL_GPIO_Init+0x62>
 80003d2:	683b      	ldr	r3, [r7, #0]
 80003d4:	789b      	ldrb	r3, [r3, #2]
 80003d6:	2b04      	cmp	r3, #4
 80003d8:	d10e      	bne.n	80003f8 <MCAL_GPIO_Init+0x80>
 80003da:	683b      	ldr	r3, [r7, #0]
 80003dc:	789b      	ldrb	r3, [r3, #2]
 80003de:	3b04      	subs	r3, #4
 80003e0:	009b      	lsls	r3, r3, #2
 80003e2:	b25a      	sxtb	r2, r3
 80003e4:	683b      	ldr	r3, [r7, #0]
 80003e6:	78db      	ldrb	r3, [r3, #3]
 80003e8:	b25b      	sxtb	r3, r3
 80003ea:	4313      	orrs	r3, r2
 80003ec:	b25b      	sxtb	r3, r3
 80003ee:	b2db      	uxtb	r3, r3
 80003f0:	f003 030f 	and.w	r3, r3, #15
 80003f4:	73fb      	strb	r3, [r7, #15]
 80003f6:	e02c      	b.n	8000452 <MCAL_GPIO_Init+0xda>
 80003f8:	683b      	ldr	r3, [r7, #0]
 80003fa:	789b      	ldrb	r3, [r3, #2]
 80003fc:	2b01      	cmp	r3, #1
 80003fe:	d003      	beq.n	8000408 <MCAL_GPIO_Init+0x90>
 8000400:	683b      	ldr	r3, [r7, #0]
 8000402:	789b      	ldrb	r3, [r3, #2]
 8000404:	2b00      	cmp	r3, #0
 8000406:	d107      	bne.n	8000418 <MCAL_GPIO_Init+0xa0>
 8000408:	683b      	ldr	r3, [r7, #0]
 800040a:	789b      	ldrb	r3, [r3, #2]
 800040c:	009b      	lsls	r3, r3, #2
 800040e:	b2db      	uxtb	r3, r3
 8000410:	f003 030f 	and.w	r3, r3, #15
 8000414:	73fb      	strb	r3, [r7, #15]
 8000416:	e01c      	b.n	8000452 <MCAL_GPIO_Init+0xda>
 8000418:	683b      	ldr	r3, [r7, #0]
 800041a:	789b      	ldrb	r3, [r3, #2]
 800041c:	2b08      	cmp	r3, #8
 800041e:	d102      	bne.n	8000426 <MCAL_GPIO_Init+0xae>
 8000420:	2304      	movs	r3, #4
 8000422:	73fb      	strb	r3, [r7, #15]
 8000424:	e015      	b.n	8000452 <MCAL_GPIO_Init+0xda>
 8000426:	2308      	movs	r3, #8
 8000428:	73fb      	strb	r3, [r7, #15]
 800042a:	683b      	ldr	r3, [r7, #0]
 800042c:	789b      	ldrb	r3, [r3, #2]
 800042e:	2b02      	cmp	r3, #2
 8000430:	d107      	bne.n	8000442 <MCAL_GPIO_Init+0xca>
 8000432:	687b      	ldr	r3, [r7, #4]
 8000434:	68db      	ldr	r3, [r3, #12]
 8000436:	683a      	ldr	r2, [r7, #0]
 8000438:	8812      	ldrh	r2, [r2, #0]
 800043a:	431a      	orrs	r2, r3
 800043c:	687b      	ldr	r3, [r7, #4]
 800043e:	60da      	str	r2, [r3, #12]
 8000440:	e007      	b.n	8000452 <MCAL_GPIO_Init+0xda>
 8000442:	687b      	ldr	r3, [r7, #4]
 8000444:	68db      	ldr	r3, [r3, #12]
 8000446:	683a      	ldr	r2, [r7, #0]
 8000448:	8812      	ldrh	r2, [r2, #0]
 800044a:	43d2      	mvns	r2, r2
 800044c:	401a      	ands	r2, r3
 800044e:	687b      	ldr	r3, [r7, #4]
 8000450:	60da      	str	r2, [r3, #12]
 8000452:	7bfc      	ldrb	r4, [r7, #15]
 8000454:	683b      	ldr	r3, [r7, #0]
 8000456:	881b      	ldrh	r3, [r3, #0]
 8000458:	4618      	mov	r0, r3
 800045a:	f7ff ff2a 	bl	80002b2 <Get_CRLH_Position>
 800045e:	4603      	mov	r3, r0
 8000460:	fa04 f203 	lsl.w	r2, r4, r3
 8000464:	68bb      	ldr	r3, [r7, #8]
 8000466:	681b      	ldr	r3, [r3, #0]
 8000468:	431a      	orrs	r2, r3
 800046a:	68bb      	ldr	r3, [r7, #8]
 800046c:	601a      	str	r2, [r3, #0]
 800046e:	bf00      	nop
 8000470:	3714      	adds	r7, #20
 8000472:	46bd      	mov	sp, r7
 8000474:	bd90      	pop	{r4, r7, pc}
	...

08000478 <Enable_NVIC>:
 8000478:	b480      	push	{r7}
 800047a:	b083      	sub	sp, #12
 800047c:	af00      	add	r7, sp, #0
 800047e:	4603      	mov	r3, r0
 8000480:	80fb      	strh	r3, [r7, #6]
 8000482:	88fb      	ldrh	r3, [r7, #6]
 8000484:	2b0f      	cmp	r3, #15
 8000486:	d854      	bhi.n	8000532 <Enable_NVIC+0xba>
 8000488:	a201      	add	r2, pc, #4	; (adr r2, 8000490 <Enable_NVIC+0x18>)
 800048a:	f852 f023 	ldr.w	pc, [r2, r3, lsl #2]
 800048e:	bf00      	nop
 8000490:	080004d1 	stmdaeq	r0, {r0, r4, r6, r7, sl}
 8000494:	080004df 	stmdaeq	r0, {r0, r1, r2, r3, r4, r6, r7, sl}
 8000498:	080004ed 	stmdaeq	r0, {r0, r2, r3, r5, r6, r7, sl}
 800049c:	080004fb 	stmdaeq	r0, {r0, r1, r3, r4, r5, r6, r7, sl}
 80004a0:	08000509 	stmdaeq	r0, {r0, r3, r8, sl}
 80004a4:	08000517 	stmdaeq	r0, {r0, r1, r2, r4, r8, sl}
 80004a8:	08000517 	stmdaeq	r0, {r0, r1, r2, r4, r8, sl}
 80004ac:	08000517 	stmdaeq	r0, {r0, r1, r2, r4, r8, sl}
 80004b0:	08000517 	stmdaeq	r0, {r0, r1, r2, r4, r8, sl}
 80004b4:	08000517 	stmdaeq	r0, {r0, r1, r2, r4, r8, sl}
 80004b8:	08000525 	stmdaeq	r0, {r0, r2, r5, r8, sl}
 80004bc:	08000525 	stmdaeq	r0, {r0, r2, r5, r8, sl}
 80004c0:	08000525 	stmdaeq	r0, {r0, r2, r5, r8, sl}
 80004c4:	08000525 	stmdaeq	r0, {r0, r2, r5, r8, sl}
 80004c8:	08000525 	stmdaeq	r0, {r0, r2, r5, r8, sl}
 80004cc:	08000525 	stmdaeq	r0, {r0, r2, r5, r8, sl}
 80004d0:	4b1a      	ldr	r3, [pc, #104]	; (800053c <Enable_NVIC+0xc4>)
 80004d2:	681b      	ldr	r3, [r3, #0]
 80004d4:	4a19      	ldr	r2, [pc, #100]	; (800053c <Enable_NVIC+0xc4>)
 80004d6:	f043 0340 	orr.w	r3, r3, #64	; 0x40
 80004da:	6013      	str	r3, [r2, #0]
 80004dc:	e029      	b.n	8000532 <Enable_NVIC+0xba>
 80004de:	4b17      	ldr	r3, [pc, #92]	; (800053c <Enable_NVIC+0xc4>)
 80004e0:	681b      	ldr	r3, [r3, #0]
 80004e2:	4a16      	ldr	r2, [pc, #88]	; (800053c <Enable_NVIC+0xc4>)
 80004e4:	f043 0380 	orr.w	r3, r3, #128	; 0x80
 80004e8:	6013      	str	r3, [r2, #0]
 80004ea:	e022      	b.n	8000532 <Enable_NVIC+0xba>
 80004ec:	4b13      	ldr	r3, [pc, #76]	; (800053c <Enable_NVIC+0xc4>)
 80004ee:	681b      	ldr	r3, [r3, #0]
 80004f0:	4a12      	ldr	r2, [pc, #72]	; (800053c <Enable_NVIC+0xc4>)
 80004f2:	f443 7380 	orr.w	r3, r3, #256	; 0x100
 80004f6:	6013      	str	r3, [r2, #0]
 80004f8:	e01b      	b.n	8000532 <Enable_NVIC+0xba>
 80004fa:	4b10      	ldr	r3, [pc, #64]	; (800053c <Enable_NVIC+0xc4>)
 80004fc:	681b      	ldr	r3, [r3, #0]
 80004fe:	4a0f      	ldr	r2, [pc, #60]	; (800053c <Enable_NVIC+0xc4>)
 8000500:	f443 7300 	orr.w	r3, r3, #512	; 0x200
 8000504:	6013      	str	r3, [r2, #0]
 8000506:	e014      	b.n	8000532 <Enable_NVIC+0xba>
 8000508:	4b0c      	ldr	r3, [pc, #48]	; (800053c <Enable_NVIC+0xc4>)
 800050a:	681b      	ldr	r3, [r3, #0]
 800050c:	4a0b      	ldr	r2, [pc, #44]	; (800053c <Enable_NVIC+0xc4>)
 800050e:	f443 6380 	orr.w	r3, r3, #1024	; 0x400
 8000512:	6013      	str	r3, [r2, #0]
 8000514:	e00d      	b.n	8000532 <Enable_NVIC+0xba>
 8000516:	4b09      	ldr	r3, [pc, #36]	; (800053c <Enable_NVIC+0xc4>)
 8000518:	681b      	ldr	r3, [r3, #0]
 800051a:	4a08      	ldr	r2, [pc, #32]	; (800053c <Enable_NVIC+0xc4>)
 800051c:	f443 0300 	orr.w	r3, r3, #8388608	; 0x800000
 8000520:	6013      	str	r3, [r2, #0]
 8000522:	e006      	b.n	8000532 <Enable_NVIC+0xba>
 8000524:	4b06      	ldr	r3, [pc, #24]	; (8000540 <Enable_NVIC+0xc8>)
 8000526:	681b      	ldr	r3, [r3, #0]
 8000528:	4a05      	ldr	r2, [pc, #20]	; (8000540 <Enable_NVIC+0xc8>)
 800052a:	f443 7380 	orr.w	r3, r3, #256	; 0x100
 800052e:	6013      	str	r3, [r2, #0]
 8000530:	bf00      	nop
 8000532:	bf00      	nop
 8000534:	370c      	adds	r7, #12
 8000536:	46bd      	mov	sp, r7
 8000538:	bc80      	pop	{r7}
 800053a:	4770      	bx	lr
 800053c:	e000e100 	and	lr, r0, r0, lsl #2
 8000540:	e000e104 	and	lr, r0, r4, lsl #2

08000544 <Disable_NVIC>:
 8000544:	b480      	push	{r7}
 8000546:	b083      	sub	sp, #12
 8000548:	af00      	add	r7, sp, #0
 800054a:	4603      	mov	r3, r0
 800054c:	80fb      	strh	r3, [r7, #6]
 800054e:	88fb      	ldrh	r3, [r7, #6]
 8000550:	2b0f      	cmp	r3, #15
 8000552:	d854      	bhi.n	80005fe <Disable_NVIC+0xba>
 8000554:	a201      	add	r2, pc, #4	; (adr r2, 800055c <Disable_NVIC+0x18>)
 8000556:	f852 f023 	ldr.w	pc, [r2, r3, lsl #2]
 800055a:	bf00      	nop
 800055c:	0800059d 	stmdaeq	r0, {r0, r2, r3, r4, r7, r8, sl}
 8000560:	080005ab 	stmdaeq	r0, {r0, r1, r3, r5, r7, r8, sl}
 8000564:	080005b9 	stmdaeq	r0, {r0, r3, r4, r5, r7, r8, sl}
 8000568:	080005c7 	stmdaeq	r0, {r0, r1, r2, r6, r7, r8, sl}
 800056c:	080005d5 	stmdaeq	r0, {r0, r2, r4, r6, r7, r8, sl}
 8000570:	080005e3 	stmdaeq	r0, {r0, r1, r5, r6, r7, r8, sl}
 8000574:	080005e3 	stmdaeq	r0, {r0, r1, r5, r6, r7, r8, sl}
 8000578:	080005e3 	stmdaeq	r0, {r0, r1, r5, r6, r7, r8, sl}
 800057c:	080005e3 	stmdaeq	r0, {r0, r1, r5, r6, r7, r8, sl}
 8000580:	080005e3 	stmdaeq	r0, {r0, r1, r5, r6, r7, r8, sl}
 8000584:	080005f1 	stmdaeq	r0, {r0, r4, r5, r6, r7, r8, sl}
 8000588:	080005f1 	stmdaeq	r0, {r0, r4, r5, r6, r7, r8, sl}
 800058c:	080005f1 	stmdaeq	r0, {r0, r4, r5, r6, r7, r8, sl}
 8000590:	080005f1 	stmdaeq	r0, {r0, r4, r5, r6, r7, r8, sl}
 8000594:	080005f1 	stmdaeq	r0, {r0, r4, r5, r6, r7, r8, sl}
 8000598:	080005f1 	stmdaeq	r0, {r0, r4, r5, r6, r7, r8, sl}
 800059c:	4b1a      	ldr	r3, [pc, #104]	; (8000608 <Disable_NVIC+0xc4>)
 800059e:	681b      	ldr	r3, [r3, #0]
 80005a0:	4a19      	ldr	r2, [pc, #100]	; (8000608 <Disable_NVIC+0xc4>)
 80005a2:	f043 0340 	orr.w	r3, r3, #64	; 0x40
 80005a6:	6013      	str	r3, [r2, #0]
 80005a8:	e029      	b.n	80005fe <Disable_NVIC+0xba>
 80005aa:	4b17      	ldr	r3, [pc, #92]	; (8000608 <Disable_NVIC+0xc4>)
 80005ac:	681b      	ldr	r3, [r3, #0]
 80005ae:	4a16      	ldr	r2, [pc, #88]	; (8000608 <Disable_NVIC+0xc4>)
 80005b0:	f043 0380 	orr.w	r3, r3, #128	; 0x80
 80005b4:	6013      	str	r3, [r2, #0]
 80005b6:	e022      	b.n	80005fe <Disable_NVIC+0xba>
 80005b8:	4b13      	ldr	r3, [pc, #76]	; (8000608 <Disable_NVIC+0xc4>)
 80005ba:	681b      	ldr	r3, [r3, #0]
 80005bc:	4a12      	ldr	r2, [pc, #72]	; (8000608 <Disable_NVIC+0xc4>)
 80005be:	f443 7380 	orr.w	r3, r3, #256	; 0x100
 80005c2:	6013      	str	r3, [r2, #0]
 80005c4:	e01b      	b.n	80005fe <Disable_NVIC+0xba>
 80005c6:	4b10      	ldr	r3, [pc, #64]	; (8000608 <Disable_NVIC+0xc4>)
 80005c8:	681b      	ldr	r3, [r3, #0]
 80005ca:	4a0f      	ldr	r2, [pc, #60]	; (8000608 <Disable_NVIC+0xc4>)
 80005cc:	f443 7300 	orr.w	r3, r3, #512	; 0x200
 80005d0:	6013      	str	r3, [r2, #0]
 80005d2:	e014      	b.n	80005fe <Disable_NVIC+0xba>
 80005d4:	4b0c      	ldr	r3, [pc, #48]	; (8000608 <Disable_NVIC+0xc4>)
 80005d6:	681b      	ldr	r3, [r3, #0]
 80005d8:	4a0b      	ldr	r2, [pc, #44]	; (8000608 <Disable_NVIC+0xc4>)
 80005da:	f443 6380 	orr.w	r3, r3, #1024	; 0x400
 80005de:	6013      	str	r3, [r2, #0]
 80005e0:	e00d      	b.n	80005fe <Disable_NVIC+0xba>
 80005e2:	4b09      	ldr	r3, [pc, #36]	; (8000608 <Disable_NVIC+0xc4>)
 80005e4:	681b      	ldr	r3, [r3, #0]
 80005e6:	4a08      	ldr	r2, [pc, #32]	; (8000608 <Disable_NVIC+0xc4>)
 80005e8:	f443 0300 	orr.w	r3, r3, #8388608	; 0x800000
 80005ec:	6013      	str	r3, [r2, #0]
 80005ee:	e006      	b.n	80005fe <Disable_NVIC+0xba>
 80005f0:	4b06      	ldr	r3, [pc, #24]	; (800060c <Disable_NVIC+0xc8>)
 80005f2:	681b      	ldr	r3, [r3, #0]
 80005f4:	4a05      	ldr	r2, [pc, #20]	; (800060c <Disable_NVIC+0xc8>)
 80005f6:	f443 7380 	orr.w	r3, r3, #256	; 0x100
 80005fa:	6013      	str	r3, [r2, #0]
 80005fc:	bf00      	nop
 80005fe:	bf00      	nop
 8000600:	370c      	adds	r7, #12
 8000602:	46bd      	mov	sp, r7
 8000604:	bc80      	pop	{r7}
 8000606:	4770      	bx	lr
 8000608:	e000e180 	and	lr, r0, r0, lsl #3
 800060c:	e000e184 	and	lr, r0, r4, lsl #3

08000610 <Update_EXTI>:
 8000610:	b580      	push	{r7, lr}
 8000612:	b084      	sub	sp, #16
 8000614:	af00      	add	r7, sp, #0
 8000616:	6078      	str	r0, [r7, #4]
 8000618:	687b      	ldr	r3, [r7, #4]
 800061a:	891b      	ldrh	r3, [r3, #8]
 800061c:	813b      	strh	r3, [r7, #8]
 800061e:	2301      	movs	r3, #1
 8000620:	72bb      	strb	r3, [r7, #10]
 8000622:	687b      	ldr	r3, [r7, #4]
 8000624:	685b      	ldr	r3, [r3, #4]
 8000626:	f107 0208 	add.w	r2, r7, #8
 800062a:	4611      	mov	r1, r2
 800062c:	4618      	mov	r0, r3
 800062e:	f7ff fea3 	bl	8000378 <MCAL_GPIO_Init>
 8000632:	687b      	ldr	r3, [r7, #4]
 8000634:	881b      	ldrh	r3, [r3, #0]
 8000636:	089b      	lsrs	r3, r3, #2
 8000638:	b29b      	uxth	r3, r3
 800063a:	73fb      	strb	r3, [r7, #15]
 800063c:	687b      	ldr	r3, [r7, #4]
 800063e:	881b      	ldrh	r3, [r3, #0]
 8000640:	b2db      	uxtb	r3, r3
 8000642:	f003 0303 	and.w	r3, r3, #3
 8000646:	b2db      	uxtb	r3, r3
 8000648:	009b      	lsls	r3, r3, #2
 800064a:	73bb      	strb	r3, [r7, #14]
 800064c:	4a5f      	ldr	r2, [pc, #380]	; (80007cc <Update_EXTI+0x1bc>)
 800064e:	7bfb      	ldrb	r3, [r7, #15]
 8000650:	3302      	adds	r3, #2
 8000652:	f852 2023 	ldr.w	r2, [r2, r3, lsl #2]
 8000656:	7bbb      	ldrb	r3, [r7, #14]
 8000658:	210f      	movs	r1, #15
 800065a:	fa01 f303 	lsl.w	r3, r1, r3
 800065e:	43db      	mvns	r3, r3
 8000660:	4618      	mov	r0, r3
 8000662:	495a      	ldr	r1, [pc, #360]	; (80007cc <Update_EXTI+0x1bc>)
 8000664:	7bfb      	ldrb	r3, [r7, #15]
 8000666:	4002      	ands	r2, r0
 8000668:	3302      	adds	r3, #2
 800066a:	f841 2023 	str.w	r2, [r1, r3, lsl #2]
 800066e:	4a57      	ldr	r2, [pc, #348]	; (80007cc <Update_EXTI+0x1bc>)
 8000670:	7bfb      	ldrb	r3, [r7, #15]
 8000672:	3302      	adds	r3, #2
 8000674:	f852 2023 	ldr.w	r2, [r2, r3, lsl #2]
 8000678:	687b      	ldr	r3, [r7, #4]
 800067a:	685b      	ldr	r3, [r3, #4]
 800067c:	4954      	ldr	r1, [pc, #336]	; (80007d0 <Update_EXTI+0x1c0>)
 800067e:	428b      	cmp	r3, r1
 8000680:	d016      	beq.n	80006b0 <Update_EXTI+0xa0>
 8000682:	687b      	ldr	r3, [r7, #4]
 8000684:	685b      	ldr	r3, [r3, #4]
 8000686:	4953      	ldr	r1, [pc, #332]	; (80007d4 <Update_EXTI+0x1c4>)
 8000688:	428b      	cmp	r3, r1
 800068a:	d00f      	beq.n	80006ac <Update_EXTI+0x9c>
 800068c:	687b      	ldr	r3, [r7, #4]
 800068e:	685b      	ldr	r3, [r3, #4]
 8000690:	4951      	ldr	r1, [pc, #324]	; (80007d8 <Update_EXTI+0x1c8>)
 8000692:	428b      	cmp	r3, r1
 8000694:	d008      	beq.n	80006a8 <Update_EXTI+0x98>
 8000696:	687b      	ldr	r3, [r7, #4]
 8000698:	685b      	ldr	r3, [r3, #4]
 800069a:	4950      	ldr	r1, [pc, #320]	; (80007dc <Update_EXTI+0x1cc>)
 800069c:	428b      	cmp	r3, r1
 800069e:	d101      	bne.n	80006a4 <Update_EXTI+0x94>
 80006a0:	2303      	movs	r3, #3
 80006a2:	e006      	b.n	80006b2 <Update_EXTI+0xa2>
 80006a4:	2300      	movs	r3, #0
 80006a6:	e004      	b.n	80006b2 <Update_EXTI+0xa2>
 80006a8:	2302      	movs	r3, #2
 80006aa:	e002      	b.n	80006b2 <Update_EXTI+0xa2>
 80006ac:	2301      	movs	r3, #1
 80006ae:	e000      	b.n	80006b2 <Update_EXTI+0xa2>
 80006b0:	2300      	movs	r3, #0
 80006b2:	7bb9      	ldrb	r1, [r7, #14]
 80006b4:	408b      	lsls	r3, r1
 80006b6:	4618      	mov	r0, r3
 80006b8:	4944      	ldr	r1, [pc, #272]	; (80007cc <Update_EXTI+0x1bc>)
 80006ba:	7bfb      	ldrb	r3, [r7, #15]
 80006bc:	4302      	orrs	r2, r0
 80006be:	3302      	adds	r3, #2
 80006c0:	f841 2023 	str.w	r2, [r1, r3, lsl #2]
 80006c4:	4b46      	ldr	r3, [pc, #280]	; (80007e0 <Update_EXTI+0x1d0>)
 80006c6:	689b      	ldr	r3, [r3, #8]
 80006c8:	687a      	ldr	r2, [r7, #4]
 80006ca:	8812      	ldrh	r2, [r2, #0]
 80006cc:	4611      	mov	r1, r2
 80006ce:	2201      	movs	r2, #1
 80006d0:	408a      	lsls	r2, r1
 80006d2:	43d2      	mvns	r2, r2
 80006d4:	4611      	mov	r1, r2
 80006d6:	4a42      	ldr	r2, [pc, #264]	; (80007e0 <Update_EXTI+0x1d0>)
 80006d8:	400b      	ands	r3, r1
 80006da:	6093      	str	r3, [r2, #8]
 80006dc:	4b40      	ldr	r3, [pc, #256]	; (80007e0 <Update_EXTI+0x1d0>)
 80006de:	68db      	ldr	r3, [r3, #12]
 80006e0:	687a      	ldr	r2, [r7, #4]
 80006e2:	8812      	ldrh	r2, [r2, #0]
 80006e4:	4611      	mov	r1, r2
 80006e6:	2201      	movs	r2, #1
 80006e8:	408a      	lsls	r2, r1
 80006ea:	43d2      	mvns	r2, r2
 80006ec:	4611      	mov	r1, r2
 80006ee:	4a3c      	ldr	r2, [pc, #240]	; (80007e0 <Update_EXTI+0x1d0>)
 80006f0:	400b      	ands	r3, r1
 80006f2:	60d3      	str	r3, [r2, #12]
 80006f4:	687b      	ldr	r3, [r7, #4]
 80006f6:	7b1b      	ldrb	r3, [r3, #12]
 80006f8:	2b00      	cmp	r3, #0
 80006fa:	d10b      	bne.n	8000714 <Update_EXTI+0x104>
 80006fc:	4b38      	ldr	r3, [pc, #224]	; (80007e0 <Update_EXTI+0x1d0>)
 80006fe:	689b      	ldr	r3, [r3, #8]
 8000700:	687a      	ldr	r2, [r7, #4]
 8000702:	8812      	ldrh	r2, [r2, #0]
 8000704:	4611      	mov	r1, r2
 8000706:	2201      	movs	r2, #1
 8000708:	408a      	lsls	r2, r1
 800070a:	4611      	mov	r1, r2
 800070c:	4a34      	ldr	r2, [pc, #208]	; (80007e0 <Update_EXTI+0x1d0>)
 800070e:	430b      	orrs	r3, r1
 8000710:	6093      	str	r3, [r2, #8]
 8000712:	e029      	b.n	8000768 <Update_EXTI+0x158>
 8000714:	687b      	ldr	r3, [r7, #4]
 8000716:	7b1b      	ldrb	r3, [r3, #12]
 8000718:	2b01      	cmp	r3, #1
 800071a:	d10b      	bne.n	8000734 <Update_EXTI+0x124>
 800071c:	4b30      	ldr	r3, [pc, #192]	; (80007e0 <Update_EXTI+0x1d0>)
 800071e:	68db      	ldr	r3, [r3, #12]
 8000720:	687a      	ldr	r2, [r7, #4]
 8000722:	8812      	ldrh	r2, [r2, #0]
 8000724:	4611      	mov	r1, r2
 8000726:	2201      	movs	r2, #1
 8000728:	408a      	lsls	r2, r1
 800072a:	4611      	mov	r1, r2
 800072c:	4a2c      	ldr	r2, [pc, #176]	; (80007e0 <Update_EXTI+0x1d0>)
 800072e:	430b      	orrs	r3, r1
 8000730:	60d3      	str	r3, [r2, #12]
 8000732:	e019      	b.n	8000768 <Update_EXTI+0x158>
 8000734:	687b      	ldr	r3, [r7, #4]
 8000736:	7b1b      	ldrb	r3, [r3, #12]
 8000738:	2b02      	cmp	r3, #2
 800073a:	d115      	bne.n	8000768 <Update_EXTI+0x158>
 800073c:	4b28      	ldr	r3, [pc, #160]	; (80007e0 <Update_EXTI+0x1d0>)
 800073e:	689b      	ldr	r3, [r3, #8]
 8000740:	687a      	ldr	r2, [r7, #4]
 8000742:	8812      	ldrh	r2, [r2, #0]
 8000744:	4611      	mov	r1, r2
 8000746:	2201      	movs	r2, #1
 8000748:	408a      	lsls	r2, r1
 800074a:	4611      	mov	r1, r2
 800074c:	4a24      	ldr	r2, [pc, #144]	; (80007e0 <Update_EXTI+0x1d0>)
 800074e:	430b      	orrs	r3, r1
 8000750:	6093      	str	r3, [r2, #8]
 8000752:	4b23      	ldr	r3, [pc, #140]	; (80007e0 <Update_EXTI+0x1d0>)
 8000754:	68db      	ldr	r3, [r3, #12]
 8000756:	687a      	ldr	r2, [r7, #4]
 8000758:	8812      	ldrh	r2, [r2, #0]
 800075a:	4611      	mov	r1, r2
 800075c:	2201      	movs	r2, #1
 800075e:	408a      	lsls	r2, r1
 8000760:	4611      	mov	r1, r2
 8000762:	4a1f      	ldr	r2, [pc, #124]	; (80007e0 <Update_EXTI+0x1d0>)
 8000764:	430b      	orrs	r3, r1
 8000766:	60d3      	str	r3, [r2, #12]
 8000768:	687b      	ldr	r3, [r7, #4]
 800076a:	881b      	ldrh	r3, [r3, #0]
 800076c:	4619      	mov	r1, r3
 800076e:	687b      	ldr	r3, [r7, #4]
 8000770:	691b      	ldr	r3, [r3, #16]
 8000772:	4a1c      	ldr	r2, [pc, #112]	; (80007e4 <Update_EXTI+0x1d4>)
 8000774:	f842 3021 	str.w	r3, [r2, r1, lsl #2]
 8000778:	687b      	ldr	r3, [r7, #4]
 800077a:	7b5b      	ldrb	r3, [r3, #13]
 800077c:	2b00      	cmp	r3, #0
 800077e:	d110      	bne.n	80007a2 <Update_EXTI+0x192>
 8000780:	4b17      	ldr	r3, [pc, #92]	; (80007e0 <Update_EXTI+0x1d0>)
 8000782:	681b      	ldr	r3, [r3, #0]
 8000784:	687a      	ldr	r2, [r7, #4]
 8000786:	8812      	ldrh	r2, [r2, #0]
 8000788:	4611      	mov	r1, r2
 800078a:	2201      	movs	r2, #1
 800078c:	408a      	lsls	r2, r1
 800078e:	4611      	mov	r1, r2
 8000790:	4a13      	ldr	r2, [pc, #76]	; (80007e0 <Update_EXTI+0x1d0>)
 8000792:	430b      	orrs	r3, r1
 8000794:	6013      	str	r3, [r2, #0]
 8000796:	687b      	ldr	r3, [r7, #4]
 8000798:	881b      	ldrh	r3, [r3, #0]
 800079a:	4618      	mov	r0, r3
 800079c:	f7ff fe6c 	bl	8000478 <Enable_NVIC>
 80007a0:	e010      	b.n	80007c4 <Update_EXTI+0x1b4>
 80007a2:	4b0f      	ldr	r3, [pc, #60]	; (80007e0 <Update_EXTI+0x1d0>)
 80007a4:	681b      	ldr	r3, [r3, #0]
 80007a6:	687a      	ldr	r2, [r7, #4]
 80007a8:	8812      	ldrh	r2, [r2, #0]
 80007aa:	4611      	mov	r1, r2
 80007ac:	2201      	movs	r2, #1
 80007ae:	408a      	lsls	r2, r1
 80007b0:	43d2      	mvns	r2, r2
 80007b2:	4611      	mov	r1, r2
 80007b4:	4a0a      	ldr	r2, [pc, #40]	; (80007e0 <Update_EXTI+0x1d0>)
 80007b6:	400b      	ands	r3, r1
 80007b8:	6013      	str	r3, [r2, #0]
 80007ba:	687b      	ldr	r3, [r7, #4]
 80007bc:	881b      	ldrh	r3, [r3, #0]
 80007be:	4618      	mov	r0, r3
 80007c0:	f7ff fec0 	bl	8000544 <Disable_NVIC>
 80007c4:	bf00      	nop
 80007c6:	3710      	adds	r7, #16
 80007c8:	46bd      	mov	sp, r7
 80007ca:	bd80      	pop	{r7, pc}
 80007cc:	40010000 	andmi	r0, r1, r0
 80007d0:	40010800 	andmi	r0, r1, r0, lsl #16
 80007d4:	40010c00 	andmi	r0, r1, r0, lsl #24
 80007d8:	40011000 	andmi	r1, r1, r0
 80007dc:	40011400 	andmi	r1, r1, r0, lsl #8
 80007e0:	40010400 	andmi	r0, r1, r0, lsl #8
 80007e4:	20000020 	andcs	r0, r0, r0, lsr #32

080007e8 <MCAL_EXTI_GPIO_Init>:
 80007e8:	b580      	push	{r7, lr}
 80007ea:	b082      	sub	sp, #8
 80007ec:	af00      	add	r7, sp, #0
 80007ee:	6078      	str	r0, [r7, #4]
 80007f0:	6878      	ldr	r0, [r7, #4]
 80007f2:	f7ff ff0d 	bl	8000610 <Update_EXTI>
 80007f6:	bf00      	nop
 80007f8:	3708      	adds	r7, #8
 80007fa:	46bd      	mov	sp, r7
 80007fc:	bd80      	pop	{r7, pc}
	...

08000800 <EXTI0_IRQHandler>:
 8000800:	b580      	push	{r7, lr}
 8000802:	af00      	add	r7, sp, #0
 8000804:	4b05      	ldr	r3, [pc, #20]	; (800081c <EXTI0_IRQHandler+0x1c>)
 8000806:	695b      	ldr	r3, [r3, #20]
 8000808:	4a04      	ldr	r2, [pc, #16]	; (800081c <EXTI0_IRQHandler+0x1c>)
 800080a:	f043 0301 	orr.w	r3, r3, #1
 800080e:	6153      	str	r3, [r2, #20]
 8000810:	4b03      	ldr	r3, [pc, #12]	; (8000820 <EXTI0_IRQHandler+0x20>)
 8000812:	681b      	ldr	r3, [r3, #0]
 8000814:	4798      	blx	r3
 8000816:	bf00      	nop
 8000818:	bd80      	pop	{r7, pc}
 800081a:	bf00      	nop
 800081c:	40010400 	andmi	r0, r1, r0, lsl #8
 8000820:	20000020 	andcs	r0, r0, r0, lsr #32

08000824 <EXTI1_IRQHandler>:
 8000824:	b580      	push	{r7, lr}
 8000826:	af00      	add	r7, sp, #0
 8000828:	4b05      	ldr	r3, [pc, #20]	; (8000840 <EXTI1_IRQHandler+0x1c>)
 800082a:	695b      	ldr	r3, [r3, #20]
 800082c:	4a04      	ldr	r2, [pc, #16]	; (8000840 <EXTI1_IRQHandler+0x1c>)
 800082e:	f043 0302 	orr.w	r3, r3, #2
 8000832:	6153      	str	r3, [r2, #20]
 8000834:	4b03      	ldr	r3, [pc, #12]	; (8000844 <EXTI1_IRQHandler+0x20>)
 8000836:	685b      	ldr	r3, [r3, #4]
 8000838:	4798      	blx	r3
 800083a:	bf00      	nop
 800083c:	bd80      	pop	{r7, pc}
 800083e:	bf00      	nop
 8000840:	40010400 	andmi	r0, r1, r0, lsl #8
 8000844:	20000020 	andcs	r0, r0, r0, lsr #32

08000848 <EXTI2_IRQHandler>:
 8000848:	b580      	push	{r7, lr}
 800084a:	af00      	add	r7, sp, #0
 800084c:	4b05      	ldr	r3, [pc, #20]	; (8000864 <EXTI2_IRQHandler+0x1c>)
 800084e:	695b      	ldr	r3, [r3, #20]
 8000850:	4a04      	ldr	r2, [pc, #16]	; (8000864 <EXTI2_IRQHandler+0x1c>)
 8000852:	f043 0304 	orr.w	r3, r3, #4
 8000856:	6153      	str	r3, [r2, #20]
 8000858:	4b03      	ldr	r3, [pc, #12]	; (8000868 <EXTI2_IRQHandler+0x20>)
 800085a:	689b      	ldr	r3, [r3, #8]
 800085c:	4798      	blx	r3
 800085e:	bf00      	nop
 8000860:	bd80      	pop	{r7, pc}
 8000862:	bf00      	nop
 8000864:	40010400 	andmi	r0, r1, r0, lsl #8
 8000868:	20000020 	andcs	r0, r0, r0, lsr #32

0800086c <EXTI3_IRQHandler>:
 800086c:	b580      	push	{r7, lr}
 800086e:	af00      	add	r7, sp, #0
 8000870:	4b05      	ldr	r3, [pc, #20]	; (8000888 <EXTI3_IRQHandler+0x1c>)
 8000872:	695b      	ldr	r3, [r3, #20]
 8000874:	4a04      	ldr	r2, [pc, #16]	; (8000888 <EXTI3_IRQHandler+0x1c>)
 8000876:	f043 0308 	orr.w	r3, r3, #8
 800087a:	6153      	str	r3, [r2, #20]
 800087c:	4b03      	ldr	r3, [pc, #12]	; (800088c <EXTI3_IRQHandler+0x20>)
 800087e:	68db      	ldr	r3, [r3, #12]
 8000880:	4798      	blx	r3
 8000882:	bf00      	nop
 8000884:	bd80      	pop	{r7, pc}
 8000886:	bf00      	nop
 8000888:	40010400 	andmi	r0, r1, r0, lsl #8
 800088c:	20000020 	andcs	r0, r0, r0, lsr #32

08000890 <EXTI4_IRQHandler>:
 8000890:	b580      	push	{r7, lr}
 8000892:	af00      	add	r7, sp, #0
 8000894:	4b05      	ldr	r3, [pc, #20]	; (80008ac <EXTI4_IRQHandler+0x1c>)
 8000896:	695b      	ldr	r3, [r3, #20]
 8000898:	4a04      	ldr	r2, [pc, #16]	; (80008ac <EXTI4_IRQHandler+0x1c>)
 800089a:	f043 0310 	orr.w	r3, r3, #16
 800089e:	6153      	str	r3, [r2, #20]
 80008a0:	4b03      	ldr	r3, [pc, #12]	; (80008b0 <EXTI4_IRQHandler+0x20>)
 80008a2:	691b      	ldr	r3, [r3, #16]
 80008a4:	4798      	blx	r3
 80008a6:	bf00      	nop
 80008a8:	bd80      	pop	{r7, pc}
 80008aa:	bf00      	nop
 80008ac:	40010400 	andmi	r0, r1, r0, lsl #8
 80008b0:	20000020 	andcs	r0, r0, r0, lsr #32

080008b4 <EXTI9_5_IRQHandler>:
 80008b4:	b580      	push	{r7, lr}
 80008b6:	af00      	add	r7, sp, #0
 80008b8:	4b26      	ldr	r3, [pc, #152]	; (8000954 <EXTI9_5_IRQHandler+0xa0>)
 80008ba:	695b      	ldr	r3, [r3, #20]
 80008bc:	f003 0320 	and.w	r3, r3, #32
 80008c0:	2b00      	cmp	r3, #0
 80008c2:	d008      	beq.n	80008d6 <EXTI9_5_IRQHandler+0x22>
 80008c4:	4b23      	ldr	r3, [pc, #140]	; (8000954 <EXTI9_5_IRQHandler+0xa0>)
 80008c6:	695b      	ldr	r3, [r3, #20]
 80008c8:	4a22      	ldr	r2, [pc, #136]	; (8000954 <EXTI9_5_IRQHandler+0xa0>)
 80008ca:	f043 0320 	orr.w	r3, r3, #32
 80008ce:	6153      	str	r3, [r2, #20]
 80008d0:	4b21      	ldr	r3, [pc, #132]	; (8000958 <EXTI9_5_IRQHandler+0xa4>)
 80008d2:	695b      	ldr	r3, [r3, #20]
 80008d4:	4798      	blx	r3
 80008d6:	4b1f      	ldr	r3, [pc, #124]	; (8000954 <EXTI9_5_IRQHandler+0xa0>)
 80008d8:	695b      	ldr	r3, [r3, #20]
 80008da:	f003 0340 	and.w	r3, r3, #64	; 0x40
 80008de:	2b00      	cmp	r3, #0
 80008e0:	d008      	beq.n	80008f4 <EXTI9_5_IRQHandler+0x40>
 80008e2:	4b1c      	ldr	r3, [pc, #112]	; (8000954 <EXTI9_5_IRQHandler+0xa0>)
 80008e4:	695b      	ldr	r3, [r3, #20]
 80008e6:	4a1b      	ldr	r2, [pc, #108]	; (8000954 <EXTI9_5_IRQHandler+0xa0>)
 80008e8:	f043 0340 	orr.w	r3, r3, #64	; 0x40
 80008ec:	6153      	str	r3, [r2, #20]
 80008ee:	4b1a      	ldr	r3, [pc, #104]	; (8000958 <EXTI9_5_IRQHandler+0xa4>)
 80008f0:	699b      	ldr	r3, [r3, #24]
 80008f2:	4798      	blx	r3
 80008f4:	4b17      	ldr	r3, [pc, #92]	; (8000954 <EXTI9_5_IRQHandler+0xa0>)
 80008f6:	695b      	ldr	r3, [r3, #20]
 80008f8:	f003 0380 	and.w	r3, r3, #128	; 0x80
 80008fc:	2b00      	cmp	r3, #0
 80008fe:	d008      	beq.n	8000912 <EXTI9_5_IRQHandler+0x5e>
 8000900:	4b14      	ldr	r3, [pc, #80]	; (8000954 <EXTI9_5_IRQHandler+0xa0>)
 8000902:	695b      	ldr	r3, [r3, #20]
 8000904:	4a13      	ldr	r2, [pc, #76]	; (8000954 <EXTI9_5_IRQHandler+0xa0>)
 8000906:	f043 0380 	orr.w	r3, r3, #128	; 0x80
 800090a:	6153      	str	r3, [r2, #20]
 800090c:	4b12      	ldr	r3, [pc, #72]	; (8000958 <EXTI9_5_IRQHandler+0xa4>)
 800090e:	69db      	ldr	r3, [r3, #28]
 8000910:	4798      	blx	r3
 8000912:	4b10      	ldr	r3, [pc, #64]	; (8000954 <EXTI9_5_IRQHandler+0xa0>)
 8000914:	695b      	ldr	r3, [r3, #20]
 8000916:	f403 7380 	and.w	r3, r3, #256	; 0x100
 800091a:	2b00      	cmp	r3, #0
 800091c:	d008      	beq.n	8000930 <EXTI9_5_IRQHandler+0x7c>
 800091e:	4b0d      	ldr	r3, [pc, #52]	; (8000954 <EXTI9_5_IRQHandler+0xa0>)
 8000920:	695b      	ldr	r3, [r3, #20]
 8000922:	4a0c      	ldr	r2, [pc, #48]	; (8000954 <EXTI9_5_IRQHandler+0xa0>)
 8000924:	f443 7380 	orr.w	r3, r3, #256	; 0x100
 8000928:	6153      	str	r3, [r2, #20]
 800092a:	4b0b      	ldr	r3, [pc, #44]	; (8000958 <EXTI9_5_IRQHandler+0xa4>)
 800092c:	6a1b      	ldr	r3, [r3, #32]
 800092e:	4798      	blx	r3
 8000930:	4b08      	ldr	r3, [pc, #32]	; (8000954 <EXTI9_5_IRQHandler+0xa0>)
 8000932:	695b      	ldr	r3, [r3, #20]
 8000934:	f403 7300 	and.w	r3, r3, #512	; 0x200
 8000938:	2b00      	cmp	r3, #0
 800093a:	d008      	beq.n	800094e <EXTI9_5_IRQHandler+0x9a>
 800093c:	4b05      	ldr	r3, [pc, #20]	; (8000954 <EXTI9_5_IRQHandler+0xa0>)
 800093e:	695b      	ldr	r3, [r3, #20]
 8000940:	4a04      	ldr	r2, [pc, #16]	; (8000954 <EXTI9_5_IRQHandler+0xa0>)
 8000942:	f443 7300 	orr.w	r3, r3, #512	; 0x200
 8000946:	6153      	str	r3, [r2, #20]
 8000948:	4b03      	ldr	r3, [pc, #12]	; (8000958 <EXTI9_5_IRQHandler+0xa4>)
 800094a:	6a5b      	ldr	r3, [r3, #36]	; 0x24
 800094c:	4798      	blx	r3
 800094e:	bf00      	nop
 8000950:	bd80      	pop	{r7, pc}
 8000952:	bf00      	nop
 8000954:	40010400 	andmi	r0, r1, r0, lsl #8
 8000958:	20000020 	andcs	r0, r0, r0, lsr #32

0800095c <EXTI15_10_IRQHandler>:
 800095c:	b580      	push	{r7, lr}
 800095e:	af00      	add	r7, sp, #0
 8000960:	4b2d      	ldr	r3, [pc, #180]	; (8000a18 <EXTI15_10_IRQHandler+0xbc>)
 8000962:	695b      	ldr	r3, [r3, #20]
 8000964:	f403 6380 	and.w	r3, r3, #1024	; 0x400
 8000968:	2b00      	cmp	r3, #0
 800096a:	d008      	beq.n	800097e <EXTI15_10_IRQHandler+0x22>
 800096c:	4b2a      	ldr	r3, [pc, #168]	; (8000a18 <EXTI15_10_IRQHandler+0xbc>)
 800096e:	695b      	ldr	r3, [r3, #20]
 8000970:	4a29      	ldr	r2, [pc, #164]	; (8000a18 <EXTI15_10_IRQHandler+0xbc>)
 8000972:	f443 6380 	orr.w	r3, r3, #1024	; 0x400
 8000976:	6153      	str	r3, [r2, #20]
 8000978:	4b28      	ldr	r3, [pc, #160]	; (8000a1c <EXTI15_10_IRQHandler+0xc0>)
 800097a:	6a9b      	ldr	r3, [r3, #40]	; 0x28
 800097c:	4798      	blx	r3
 800097e:	4b26      	ldr	r3, [pc, #152]	; (8000a18 <EXTI15_10_IRQHandler+0xbc>)
 8000980:	695b      	ldr	r3, [r3, #20]
 8000982:	f403 6300 	and.w	r3, r3, #2048	; 0x800
 8000986:	2b00      	cmp	r3, #0
 8000988:	d008      	beq.n	800099c <EXTI15_10_IRQHandler+0x40>
 800098a:	4b23      	ldr	r3, [pc, #140]	; (8000a18 <EXTI15_10_IRQHandler+0xbc>)
 800098c:	695b      	ldr	r3, [r3, #20]
 800098e:	4a22      	ldr	r2, [pc, #136]	; (8000a18 <EXTI15_10_IRQHandler+0xbc>)
 8000990:	f443 6300 	orr.w	r3, r3, #2048	; 0x800
 8000994:	6153      	str	r3, [r2, #20]
 8000996:	4b21      	ldr	r3, [pc, #132]	; (8000a1c <EXTI15_10_IRQHandler+0xc0>)
 8000998:	6adb      	ldr	r3, [r3, #44]	; 0x2c
 800099a:	4798      	blx	r3
 800099c:	4b1e      	ldr	r3, [pc, #120]	; (8000a18 <EXTI15_10_IRQHandler+0xbc>)
 800099e:	695b      	ldr	r3, [r3, #20]
 80009a0:	f403 5380 	and.w	r3, r3, #4096	; 0x1000
 80009a4:	2b00      	cmp	r3, #0
 80009a6:	d008      	beq.n	80009ba <EXTI15_10_IRQHandler+0x5e>
 80009a8:	4b1b      	ldr	r3, [pc, #108]	; (8000a18 <EXTI15_10_IRQHandler+0xbc>)
 80009aa:	695b      	ldr	r3, [r3, #20]
 80009ac:	4a1a      	ldr	r2, [pc, #104]	; (8000a18 <EXTI15_10_IRQHandler+0xbc>)
 80009ae:	f443 5380 	orr.w	r3, r3, #4096	; 0x1000
 80009b2:	6153      	str	r3, [r2, #20]
 80009b4:	4b19      	ldr	r3, [pc, #100]	; (8000a1c <EXTI15_10_IRQHandler+0xc0>)
 80009b6:	6b1b      	ldr	r3, [r3, #48]	; 0x30
 80009b8:	4798      	blx	r3
 80009ba:	4b17      	ldr	r3, [pc, #92]	; (8000a18 <EXTI15_10_IRQHandler+0xbc>)
 80009bc:	695b      	ldr	r3, [r3, #20]
 80009be:	f403 5300 	and.w	r3, r3, #8192	; 0x2000
 80009c2:	2b00      	cmp	r3, #0
 80009c4:	d008      	beq.n	80009d8 <EXTI15_10_IRQHandler+0x7c>
 80009c6:	4b14      	ldr	r3, [pc, #80]	; (8000a18 <EXTI15_10_IRQHandler+0xbc>)
 80009c8:	695b      	ldr	r3, [r3, #20]
 80009ca:	4a13      	ldr	r2, [pc, #76]	; (8000a18 <EXTI15_10_IRQHandler+0xbc>)
 80009cc:	f443 5300 	orr.w	r3, r3, #8192	; 0x2000
 80009d0:	6153      	str	r3, [r2, #20]
 80009d2:	4b12      	ldr	r3, [pc, #72]	; (8000a1c <EXTI15_10_IRQHandler+0xc0>)
 80009d4:	6b5b      	ldr	r3, [r3, #52]	; 0x34
 80009d6:	4798      	blx	r3
 80009d8:	4b0f      	ldr	r3, [pc, #60]	; (8000a18 <EXTI15_10_IRQHandler+0xbc>)
 80009da:	695b      	ldr	r3, [r3, #20]
 80009dc:	f403 4380 	and.w	r3, r3, #16384	; 0x4000
 80009e0:	2b00      	cmp	r3, #0
 80009e2:	d008      	beq.n	80009f6 <EXTI15_10_IRQHandler+0x9a>
 80009e4:	4b0c      	ldr	r3, [pc, #48]	; (8000a18 <EXTI15_10_IRQHandler+0xbc>)
 80009e6:	695b      	ldr	r3, [r3, #20]
 80009e8:	4a0b      	ldr	r2, [pc, #44]	; (8000a18 <EXTI15_10_IRQHandler+0xbc>)
 80009ea:	f443 4380 	orr.w	r3, r3, #16384	; 0x4000
 80009ee:	6153      	str	r3, [r2, #20]
 80009f0:	4b0a      	ldr	r3, [pc, #40]	; (8000a1c <EXTI15_10_IRQHandler+0xc0>)
 80009f2:	6b9b      	ldr	r3, [r3, #56]	; 0x38
 80009f4:	4798      	blx	r3
 80009f6:	4b08      	ldr	r3, [pc, #32]	; (8000a18 <EXTI15_10_IRQHandler+0xbc>)
 80009f8:	695b      	ldr	r3, [r3, #20]
 80009fa:	f403 4380 	and.w	r3, r3, #16384	; 0x4000
 80009fe:	2b00      	cmp	r3, #0
 8000a00:	d008      	beq.n	8000a14 <EXTI15_10_IRQHandler+0xb8>
 8000a02:	4b05      	ldr	r3, [pc, #20]	; (8000a18 <EXTI15_10_IRQHandler+0xbc>)
 8000a04:	695b      	ldr	r3, [r3, #20]
 8000a06:	4a04      	ldr	r2, [pc, #16]	; (8000a18 <EXTI15_10_IRQHandler+0xbc>)
 8000a08:	f443 4300 	orr.w	r3, r3, #32768	; 0x8000
 8000a0c:	6153      	str	r3, [r2, #20]
 8000a0e:	4b03      	ldr	r3, [pc, #12]	; (8000a1c <EXTI15_10_IRQHandler+0xc0>)
 8000a10:	6bdb      	ldr	r3, [r3, #60]	; 0x3c
 8000a12:	4798      	blx	r3
 8000a14:	bf00      	nop
 8000a16:	bd80      	pop	{r7, pc}
 8000a18:	40010400 	andmi	r0, r1, r0, lsl #8
 8000a1c:	20000020 	andcs	r0, r0, r0, lsr #32

08000a20 <__libc_init_array>:
 8000a20:	b570      	push	{r4, r5, r6, lr}
 8000a22:	2500      	movs	r5, #0
 8000a24:	4e0c      	ldr	r6, [pc, #48]	; (8000a58 <__libc_init_array+0x38>)
 8000a26:	4c0d      	ldr	r4, [pc, #52]	; (8000a5c <__libc_init_array+0x3c>)
 8000a28:	1ba4      	subs	r4, r4, r6
 8000a2a:	10a4      	asrs	r4, r4, #2
 8000a2c:	42a5      	cmp	r5, r4
 8000a2e:	d109      	bne.n	8000a44 <__libc_init_array+0x24>
 8000a30:	f000 f81a 	bl	8000a68 <_init>
 8000a34:	2500      	movs	r5, #0
 8000a36:	4e0a      	ldr	r6, [pc, #40]	; (8000a60 <__libc_init_array+0x40>)
 8000a38:	4c0a      	ldr	r4, [pc, #40]	; (8000a64 <__libc_init_array+0x44>)
 8000a3a:	1ba4      	subs	r4, r4, r6
 8000a3c:	10a4      	asrs	r4, r4, #2
 8000a3e:	42a5      	cmp	r5, r4
 8000a40:	d105      	bne.n	8000a4e <__libc_init_array+0x2e>
 8000a42:	bd70      	pop	{r4, r5, r6, pc}
 8000a44:	f856 3025 	ldr.w	r3, [r6, r5, lsl #2]
 8000a48:	4798      	blx	r3
 8000a4a:	3501      	adds	r5, #1
 8000a4c:	e7ee      	b.n	8000a2c <__libc_init_array+0xc>
 8000a4e:	f856 3025 	ldr.w	r3, [r6, r5, lsl #2]
 8000a52:	4798      	blx	r3
 8000a54:	3501      	adds	r5, #1
 8000a56:	e7f2      	b.n	8000a3e <__libc_init_array+0x1e>
 8000a58:	08000a8c 	stmdaeq	r0, {r2, r3, r7, r9, fp}
 8000a5c:	08000a8c 	stmdaeq	r0, {r2, r3, r7, r9, fp}
 8000a60:	08000a8c 	stmdaeq	r0, {r2, r3, r7, r9, fp}
 8000a64:	08000a90 	stmdaeq	r0, {r4, r7, r9, fp}

08000a68 <_init>:
 8000a68:	b5f8      	push	{r3, r4, r5, r6, r7, lr}
 8000a6a:	bf00      	nop
 8000a6c:	bcf8      	pop	{r3, r4, r5, r6, r7}
 8000a6e:	bc08      	pop	{r3}
 8000a70:	469e      	mov	lr, r3
 8000a72:	4770      	bx	lr

08000a74 <_fini>:
 8000a74:	b5f8      	push	{r3, r4, r5, r6, r7, lr}
 8000a76:	bf00      	nop
 8000a78:	bcf8      	pop	{r3, r4, r5, r6, r7}
 8000a7a:	bc08      	pop	{r3}
 8000a7c:	469e      	mov	lr, r3
 8000a7e:	4770      	bx	lr
